ccopy_reg
_reconstructor
p0
(cneat.genome
DefaultGenome
p1
c__builtin__
object
p2
Ntp3
Rp4
(dp5
S'connections'
p6
(dp7
(I16
I9
tp8
g0
(cneat.genes
DefaultConnectionGene
p9
g2
Ntp10
Rp11
(dp12
S'enabled'
p13
I01
sS'weight'
p14
F1.5114978519589868
sS'key'
p15
g8
sbs(I19
I4
tp16
g0
(g9
g2
Ntp17
Rp18
(dp19
g13
I01
sg14
F-0.6907687005266154
sg15
g16
sbs(I-21
I22
tp20
g0
(g9
g2
Ntp21
Rp22
(dp23
g13
I01
sg14
F-1.0206352163273993
sg15
g20
sbs(I-8
I14
tp24
g0
(g9
g2
Ntp25
Rp26
(dp27
g13
I01
sg14
F1.4107925600583184
sg15
g24
sbs(I20
I7
tp28
g0
(g9
g2
Ntp29
Rp30
(dp31
g13
I01
sg14
F-1.1124339574573554
sg15
g28
sbs(I-20
I17
tp32
g0
(g9
g2
Ntp33
Rp34
(dp35
g13
I01
sg14
F-0.9258078162741737
sg15
g32
sbs(I-7
I15
tp36
g0
(g9
g2
Ntp37
Rp38
(dp39
g13
I01
sg14
F-0.5150972501333838
sg15
g36
sbs(I21
I6
tp40
g0
(g9
g2
Ntp41
Rp42
(dp43
g13
I01
sg14
F-1.3183437292369635
sg15
g40
sbs(I-19
I20
tp44
g0
(g9
g2
Ntp45
Rp46
(dp47
g13
I01
sg14
F0.023737197173059683
sg15
g44
sbs(I-6
I12
tp48
g0
(g9
g2
Ntp49
Rp50
(dp51
g13
I01
sg14
F-0.42533747534124644
sg15
g48
sbs(I-3
I17
tp52
g0
(g9
g2
Ntp53
Rp54
(dp55
g13
I01
sg14
F-2.0470977393503476
sg15
g52
sbs(I-1
I14
tp56
g0
(g9
g2
Ntp57
Rp58
(dp59
g13
I01
sg14
F-0.15078516603905578
sg15
g56
sbs(I10
I7
tp60
g0
(g9
g2
Ntp61
Rp62
(dp63
g13
I01
sg14
F0.5341640279541304
sg15
g60
sbs(I-4
I10
tp64
g0
(g9
g2
Ntp65
Rp66
(dp67
g13
I01
sg14
F2.055706159824951
sg15
g64
sbs(I-27
I24
tp68
g0
(g9
g2
Ntp69
Rp70
(dp71
g13
I01
sg14
F0.5210996077914793
sg15
g68
sbs(I-3
I11
tp72
g0
(g9
g2
Ntp73
Rp74
(dp75
g13
I01
sg14
F1.718529616493654
sg15
g72
sbs(I14
I1
tp76
g0
(g9
g2
Ntp77
Rp78
(dp79
g13
I01
sg14
F-1.173627543489255
sg15
g76
sbs(I-26
I23
tp80
g0
(g9
g2
Ntp81
Rp82
(dp83
g13
I01
sg14
F-0.8775871085009636
sg15
g80
sbs(I-1
I16
tp84
g0
(g9
g2
Ntp85
Rp86
(dp87
g13
I01
sg14
F-0.6140880074671534
sg15
g84
sbs(I-13
I13
tp88
g0
(g9
g2
Ntp89
Rp90
(dp91
g13
I01
sg14
F0.27402732134010316
sg15
g88
sbs(I15
I4
tp92
g0
(g9
g2
Ntp93
Rp94
(dp95
g13
I01
sg14
F-1.3740041390389315
sg15
g92
sbs(I-15
I13
tp96
g0
(g9
g2
Ntp97
Rp98
(dp99
g13
I01
sg14
F1.927088610472305
sg15
g96
sbs(I-25
I22
tp100
g0
(g9
g2
Ntp101
Rp102
(dp103
g13
I01
sg14
F0.5758162137898785
sg15
g100
sbs(I-12
I14
tp104
g0
(g9
g2
Ntp105
Rp106
(dp107
g13
I01
sg14
F-0.6666033745248625
sg15
g104
sbs(I-14
I10
tp108
g0
(g9
g2
Ntp109
Rp110
(dp111
g13
I01
sg14
F0.8146311935899877
sg15
g108
sbs(I-9
I19
tp112
g0
(g9
g2
Ntp113
Rp114
(dp115
g13
I01
sg14
F-1.5813751683144603
sg15
g112
sbs(I-11
I15
tp116
g0
(g9
g2
Ntp117
Rp118
(dp119
g13
I01
sg14
F-1.8962721148447397
sg15
g116
sbs(I-2
I12
tp120
g0
(g9
g2
Ntp121
Rp122
(dp123
g13
I01
sg14
F0.4560444652882635
sg15
g120
sbs(I-10
I12
tp124
g0
(g9
g2
Ntp125
Rp126
(dp127
g13
I01
sg14
F1.444877321890753
sg15
g124
sbs(I-22
I14
tp128
g0
(g9
g2
Ntp129
Rp130
(dp131
g13
I01
sg14
F0.7929913026270607
sg15
g128
sbs(I-24
I18
tp132
g0
(g9
g2
Ntp133
Rp134
(dp135
g13
I01
sg14
F0.21841152685584075
sg15
g132
sbs(I11
I0
tp136
g0
(g9
g2
Ntp137
Rp138
(dp139
g13
I01
sg14
F-0.2505227184020445
sg15
g136
sbs(I-21
I15
tp140
g0
(g9
g2
Ntp141
Rp142
(dp143
g13
I01
sg14
F-1.069673502351618
sg15
g140
sbs(I-23
I19
tp144
g0
(g9
g2
Ntp145
Rp146
(dp147
g13
I01
sg14
F1.0509996690280512
sg15
g144
sbs(I-8
I21
tp148
g0
(g9
g2
Ntp149
Rp150
(dp151
g13
I01
sg14
F-1.4656203945915043
sg15
g148
sbs(I-7
I16
tp152
g0
(g9
g2
Ntp153
Rp154
(dp155
g13
I01
sg14
F-0.30277651663276756
sg15
g152
sbs(I-17
I13
tp156
g0
(g9
g2
Ntp157
Rp158
(dp159
g13
I01
sg14
F-0.3043027030366133
sg15
g156
sbs(I-19
I13
tp160
g0
(g9
g2
Ntp161
Rp162
(dp163
g13
I01
sg14
F-1.4670682757711173
sg15
g160
sbs(I-30
I18
tp164
g0
(g9
g2
Ntp165
Rp166
(dp167
g13
I01
sg14
F0.27862724560816277
sg15
g164
sbs(I-6
I23
tp168
g0
(g9
g2
Ntp169
Rp170
(dp171
g13
I01
sg14
F-2.0144952246765664
sg15
g168
sbs(I-29
I11
tp172
g0
(g9
g2
Ntp173
Rp174
(dp175
g13
I01
sg14
F-0.1641598680483421
sg15
g172
sbs(I23
I9
tp176
g0
(g9
g2
Ntp177
Rp178
(dp179
g13
I01
sg14
F-0.4857520522958963
sg15
g176
sbs(I-28
I12
tp180
g0
(g9
g2
Ntp181
Rp182
(dp183
g13
I01
sg14
F0.4470305376307952
sg15
g180
sbs(I-30
I12
tp184
g0
(g9
g2
Ntp185
Rp186
(dp187
g13
I01
sg14
F-0.006682876575838707
sg15
g184
sbs(I-29
I17
tp188
g0
(g9
g2
Ntp189
Rp190
(dp191
g13
I01
sg14
F1.6501740546005306
sg15
g188
sbs(I14
I8
tp192
g0
(g9
g2
Ntp193
Rp194
(dp195
g13
I01
sg14
F-1.474302437860503
sg15
g192
sbs(I-26
I14
tp196
g0
(g9
g2
Ntp197
Rp198
(dp199
g13
I01
sg14
F0.6009048646277502
sg15
g196
sbs(I-13
I18
tp200
g0
(g9
g2
Ntp201
Rp202
(dp203
g13
I01
sg14
F1.903659248705127
sg15
g200
sbs(I-25
I15
tp204
g0
(g9
g2
Ntp205
Rp206
(dp207
g13
I01
sg14
F0.6757218565266291
sg15
g204
sbs(I-12
I21
tp208
g0
(g9
g2
Ntp209
Rp210
(dp211
g13
I01
sg14
F-0.1751185981470364
sg15
g208
sbs(I-15
I24
tp212
g0
(g9
g2
Ntp213
Rp214
(dp215
g13
I01
sg14
F2.040426893224851
sg15
g212
sbs(I-2
I22
tp216
g0
(g9
g2
Ntp217
Rp218
(dp219
g13
I01
sg14
F2.5401481184719823
sg15
g216
sbs(I16
I7
tp220
g0
(g9
g2
Ntp221
Rp222
(dp223
g13
I01
sg14
F0.45391946127150545
sg15
g220
sbs(I17
I6
tp224
g0
(g9
g2
Ntp225
Rp226
(dp227
g13
I01
sg14
F-1.4009701380624286
sg15
g224
sbs(I-23
I20
tp228
g0
(g9
g2
Ntp229
Rp230
(dp231
g13
I01
sg14
F1.0321613281830926
sg15
g228
sbs(I-18
I19
tp232
g0
(g9
g2
Ntp233
Rp234
(dp235
g13
I01
sg14
F1.2763429254698009
sg15
g232
sbs(I18
I5
tp236
g0
(g9
g2
Ntp237
Rp238
(dp239
g13
I01
sg14
F0.503662215423979
sg15
g236
sbs(I16
I4
tp240
g0
(g9
g2
Ntp241
Rp242
(dp243
g13
I01
sg14
F0.7054535641212033
sg15
g240
sbs(I-22
I19
tp244
g0
(g9
g2
Ntp245
Rp246
(dp247
g13
I01
sg14
F1.5755094936013698
sg15
g244
sbs(I-17
I10
tp248
g0
(g9
g2
Ntp249
Rp250
(dp251
g13
I01
sg14
F0.5838960678540772
sg15
g248
sbs(I22
I7
tp252
g0
(g9
g2
Ntp253
Rp254
(dp255
g13
I01
sg14
F0.8449244678512432
sg15
g252
sbs(I12
I9
tp256
g0
(g9
g2
Ntp257
Rp258
(dp259
g13
I01
sg14
F-0.503834872746712
sg15
g256
sbs(I23
I6
tp260
g0
(g9
g2
Ntp261
Rp262
(dp263
g13
I01
sg14
F1.662240549724911
sg15
g260
sbs(I-28
I11
tp264
g0
(g9
g2
Ntp265
Rp266
(dp267
g13
I01
sg14
F-1.9802603928867217
sg15
g264
sbs(I-4
I24
tp268
g0
(g9
g2
Ntp269
Rp270
(dp271
g13
I01
sg14
F-2.130427061493314
sg15
g268
sbs(I-27
I10
tp272
g0
(g9
g2
Ntp273
Rp274
(dp275
g13
I01
sg14
F0.3932784716284958
sg15
g272
sbs(I-29
I22
tp276
g0
(g9
g2
Ntp277
Rp278
(dp279
g13
I01
sg14
F1.2913760492659585
sg15
g276
sbs(I10
I8
tp280
g0
(g9
g2
Ntp281
Rp282
(dp283
g13
I01
sg14
F0.10458443032723881
sg15
g280
sbs(I12
I7
tp284
g0
(g9
g2
Ntp285
Rp286
(dp287
g13
I01
sg14
F-0.3837673844612873
sg15
g284
sbs(I-28
I17
tp288
g0
(g9
g2
Ntp289
Rp290
(dp291
g13
I01
sg14
F0.7462618511314916
sg15
g288
sbs(I13
I6
tp292
g0
(g9
g2
Ntp293
Rp294
(dp295
g13
I01
sg14
F0.15944828862537108
sg15
g292
sbs(I-27
I20
tp296
g0
(g9
g2
Ntp297
Rp298
(dp299
g13
I01
sg14
F-1.5233474808767615
sg15
g296
sbs(I24
I2
tp300
g0
(g9
g2
Ntp301
Rp302
(dp303
g13
I01
sg14
F2.127275243250727
sg15
g300
sbs(I-16
I20
tp304
g0
(g9
g2
Ntp305
Rp306
(dp307
g13
I01
sg14
F0.6840484922888095
sg15
g304
sbs(I-11
I17
tp308
g0
(g9
g2
Ntp309
Rp310
(dp311
g13
I01
sg14
F-0.5860522308372159
sg15
g308
sbs(I-15
I17
tp312
g0
(g9
g2
Ntp313
Rp314
(dp315
g13
I01
sg14
F-0.5859807880405583
sg15
g312
sbs(I-14
I22
tp316
g0
(g9
g2
Ntp317
Rp318
(dp319
g13
I01
sg14
F0.271749628722134
sg15
g316
sbs(I-2
I14
tp320
g0
(g9
g2
Ntp321
Rp322
(dp323
g13
I01
sg14
F0.45828231555005816
sg15
g320
sbs(I-17
I19
tp324
g0
(g9
g2
Ntp325
Rp326
(dp327
g13
I01
sg14
F-1.1275912390814073
sg15
g324
sbs(I19
I1
tp328
g0
(g9
g2
Ntp329
Rp330
(dp331
g13
I01
sg14
F0.30765186971820624
sg15
g328
sbs(I-21
I19
tp332
g0
(g9
g2
Ntp333
Rp334
(dp335
g13
I01
sg14
F0.29545640892939334
sg15
g332
sbs(I-20
I20
tp336
g0
(g9
g2
Ntp337
Rp338
(dp339
g13
I01
sg14
F-0.2706679680402441
sg15
g336
sbs(I-5
I20
tp340
g0
(g9
g2
Ntp341
Rp342
(dp343
g13
I01
sg14
F-0.6958881458864836
sg15
g340
sbs(I-4
I23
tp344
g0
(g9
g2
Ntp345
Rp346
(dp347
g13
I01
sg14
F1.8316953219357868
sg15
g344
sbs(I-3
I22
tp348
g0
(g9
g2
Ntp349
Rp350
(dp351
g13
I01
sg14
F-1.6930959777736976
sg15
g348
sbs(I-5
I10
tp352
g0
(g9
g2
Ntp353
Rp354
(dp355
g13
I01
sg14
F0.4642898300062968
sg15
g352
sbs(I-28
I24
tp356
g0
(g9
g2
Ntp357
Rp358
(dp359
g13
I01
sg14
F1.2969021077308431
sg15
g356
sbs(I-4
I13
tp360
g0
(g9
g2
Ntp361
Rp362
(dp363
g13
I01
sg14
F0.8724259030798853
sg15
g360
sbs(I24
I9
tp364
g0
(g9
g2
Ntp365
Rp366
(dp367
g13
I01
sg14
F0.7105574566719265
sg15
g364
sbs(I-16
I11
tp368
g0
(g9
g2
Ntp369
Rp370
(dp371
g13
I01
sg14
F-0.4826901758826032
sg15
g368
sbs(I-26
I18
tp372
g0
(g9
g2
Ntp373
Rp374
(dp375
g13
I01
sg14
F-1.1743990308857288
sg15
g372
sbs(I21
I9
tp376
g0
(g9
g2
Ntp377
Rp378
(dp379
g13
I01
sg14
F-0.848353156862675
sg15
g376
sbs(I-15
I10
tp380
g0
(g9
g2
Ntp381
Rp382
(dp383
g13
I01
sg14
F-0.8089360016831901
sg15
g380
sbs(I-10
I17
tp384
g0
(g9
g2
Ntp385
Rp386
(dp387
g13
I01
sg14
F-1.3675116868574735
sg15
g384
sbs(I-14
I17
tp388
g0
(g9
g2
Ntp389
Rp390
(dp391
g13
I01
sg14
F-0.45742935708050925
sg15
g388
sbs(I-9
I20
tp392
g0
(g9
g2
Ntp393
Rp394
(dp395
g13
I01
sg14
F-0.05794282079983518
sg15
g392
sbs(I-10
I11
tp396
g0
(g9
g2
Ntp397
Rp398
(dp399
g13
I01
sg14
F-1.028143855136777
sg15
g396
sbs(I-2
I16
tp400
g0
(g9
g2
Ntp401
Rp402
(dp403
g13
I01
sg14
F0.5785436116185538
sg15
g400
sbs(I-17
I24
tp404
g0
(g9
g2
Ntp405
Rp406
(dp407
g13
I01
sg14
F2.0120810829939058
sg15
g404
sbs(I19
I6
tp408
g0
(g9
g2
Ntp409
Rp410
(dp411
g13
I01
sg14
F-0.3690998377740062
sg15
g408
sbs(I-8
I16
tp412
g0
(g9
g2
Ntp413
Rp414
(dp415
g13
I01
sg14
F-1.371276714815194
sg15
g412
sbs(I20
I1
tp416
g0
(g9
g2
Ntp417
Rp418
(dp419
g13
I01
sg14
F0.201891599985322
sg15
g416
sbs(I-20
I19
tp420
g0
(g9
g2
Ntp421
Rp422
(dp423
g13
I01
sg14
F-0.4326441249177978
sg15
g420
sbs(I16
I2
tp424
g0
(g9
g2
Ntp425
Rp426
(dp427
g13
I01
sg14
F1.1329990494545796
sg15
g424
sbs(I-7
I13
tp428
g0
(g9
g2
Ntp429
Rp430
(dp431
g13
I01
sg14
F-1.3778850330262775
sg15
g428
sbs(I21
I4
tp432
g0
(g9
g2
Ntp433
Rp434
(dp435
g13
I01
sg14
F0.13795643405907806
sg15
g432
sbs(I-19
I18
tp436
g0
(g9
g2
Ntp437
Rp438
(dp439
g13
I01
sg14
F0.027848138943420565
sg15
g436
sbs(I-6
I10
tp440
g0
(g9
g2
Ntp441
Rp442
(dp443
g13
I01
sg14
F-0.57542366153275
sg15
g440
sbs(I-1
I12
tp444
g0
(g9
g2
Ntp445
Rp446
(dp447
g13
I01
sg14
F-0.2246066579028469
sg15
g444
sbs(I10
I5
tp448
g0
(g9
g2
Ntp449
Rp450
(dp451
g13
I01
sg14
F0.345660904726216
sg15
g448
sbs(I11
I8
tp452
g0
(g9
g2
Ntp453
Rp454
(dp455
g13
I01
sg14
F-0.9011290750032792
sg15
g452
sbs(I14
I7
tp456
g0
(g9
g2
Ntp457
Rp458
(dp459
g13
I01
sg14
F-0.23730706809197105
sg15
g456
sbs(I-26
I21
tp460
g0
(g9
g2
Ntp461
Rp462
(dp463
g13
I01
sg14
F-0.32578656463364863
sg15
g460
sbs(I-1
I22
tp464
g0
(g9
g2
Ntp465
Rp466
(dp467
g13
I01
sg14
F0.7746182447209008
sg15
g464
sbs(I-13
I15
tp468
g0
(g9
g2
Ntp469
Rp470
(dp471
g13
I01
sg14
F0.07544468746189074
sg15
g468
sbs(I15
I6
tp472
g0
(g9
g2
Ntp473
Rp474
(dp475
g13
I01
sg14
F0.7716252471732862
sg15
g472
sbs(I-25
I16
tp476
g0
(g9
g2
Ntp477
Rp478
(dp479
g13
I01
sg14
F0.7640361495973641
sg15
g476
sbs(I-16
I24
tp480
g0
(g9
g2
Ntp481
Rp482
(dp483
g13
I01
sg14
F0.0009101119376421164
sg15
g480
sbs(I-11
I13
tp484
g0
(g9
g2
Ntp485
Rp486
(dp487
g13
I01
sg14
F1.256736233054919
sg15
g484
sbs(I-24
I14
tp488
g0
(g9
g2
Ntp489
Rp490
(dp491
g13
I01
sg14
F0.20050508206689174
sg15
g488
sbs(I-23
I15
tp492
g0
(g9
g2
Ntp493
Rp494
(dp495
g13
I01
sg14
F-0.9476939863128817
sg15
g492
sbs(I-9
I11
tp496
g0
(g9
g2
Ntp497
Rp498
(dp499
g13
I01
sg14
F0.7931516957759341
sg15
g496
sbs(I20
I8
tp500
g0
(g9
g2
Ntp501
Rp502
(dp503
g13
I01
sg14
F0.6186226453359572
sg15
g500
sbs(I-22
I12
tp504
g0
(g9
g2
Ntp505
Rp506
(dp507
g13
I01
sg14
F-0.1450216000668422
sg15
g504
sbs(I-24
I20
tp508
g0
(g9
g2
Ntp509
Rp510
(dp511
g13
I01
sg14
F-0.7999847657669724
sg15
g508
sbs(I17
I3
tp512
g0
(g9
g2
Ntp513
Rp514
(dp515
g13
I01
sg14
F0.8744545301155322
sg15
g512
sbs(I-23
I17
tp516
g0
(g9
g2
Ntp517
Rp518
(dp519
g13
I01
sg14
F1.2502259277476984
sg15
g516
sbs(I-8
I23
tp520
g0
(g9
g2
Ntp521
Rp522
(dp523
g13
I01
sg14
F0.24088378156143989
sg15
g520
sbs(I-18
I14
tp524
g0
(g9
g2
Ntp525
Rp526
(dp527
g13
I01
sg14
F-0.7424449960331095
sg15
g524
sbs(I-20
I10
tp528
g0
(g9
g2
Ntp529
Rp530
(dp531
g13
I01
sg14
F0.9934548724149311
sg15
g528
sbs(I-22
I22
tp532
g0
(g9
g2
Ntp533
Rp534
(dp535
g13
I01
sg14
F-1.0328137613233728
sg15
g532
sbs(I-7
I22
tp536
g0
(g9
g2
Ntp537
Rp538
(dp539
g13
I01
sg14
F-1.3803209452331917
sg15
g536
sbs(I-17
I15
tp540
g0
(g9
g2
Ntp541
Rp542
(dp543
g13
I01
sg14
F-0.6836309148549629
sg15
g540
sbs(I-19
I11
tp544
g0
(g9
g2
Ntp545
Rp546
(dp547
g13
I01
sg14
F-0.7963324334551165
sg15
g544
sbs(I-30
I16
tp548
g0
(g9
g2
Ntp549
Rp550
(dp551
g13
I01
sg14
F0.246705653941114
sg15
g548
sbs(I-6
I21
tp552
g0
(g9
g2
Ntp553
Rp554
(dp555
g13
I01
sg14
F-1.1387191385441693
sg15
g552
sbs(I22
I2
tp556
g0
(g9
g2
Ntp557
Rp558
(dp559
g13
I01
sg14
F1.8044210888762002
sg15
g556
sbs(I-29
I13
tp560
g0
(g9
g2
Ntp561
Rp562
(dp563
g13
I01
sg14
F1.2241002969881885
sg15
g560
sbs(I-5
I24
tp564
g0
(g9
g2
Ntp565
Rp566
(dp567
g13
I01
sg14
F-0.13597859368306625
sg15
g564
sbs(I-24
I12
tp568
g0
(g9
g2
Ntp569
Rp570
(dp571
g13
I01
sg14
F-1.1157201967309247
sg15
g568
sbs(I-28
I14
tp572
g0
(g9
g2
Ntp573
Rp574
(dp575
g13
I01
sg14
F0.5952791471866099
sg15
g572
sbs(I-30
I10
tp576
g0
(g9
g2
Ntp577
Rp578
(dp579
g13
I01
sg14
F0.10468752442735918
sg15
g576
sbs(I-27
I15
tp580
g0
(g9
g2
Ntp581
Rp582
(dp583
g13
I01
sg14
F0.14988334919667048
sg15
g580
sbs(I-29
I19
tp584
g0
(g9
g2
Ntp585
Rp586
(dp587
g13
I01
sg14
F1.1396186607982899
sg15
g584
sbs(I-26
I12
tp588
g0
(g9
g2
Ntp589
Rp590
(dp591
g13
I01
sg14
F-1.3132196485706829
sg15
g588
sbs(I-28
I20
tp592
g0
(g9
g2
Ntp593
Rp594
(dp595
g13
I01
sg14
F-1.7186244890961233
sg15
g592
sbs(I-13
I20
tp596
g0
(g9
g2
Ntp597
Rp598
(dp599
g13
I01
sg14
F1.0417576543641411
sg15
g596
sbs(I-12
I23
tp600
g0
(g9
g2
Ntp601
Rp602
(dp603
g13
I01
sg14
F-1.619143404229816
sg15
g600
sbs(I-11
I22
tp604
g0
(g9
g2
Ntp605
Rp606
(dp607
g13
I01
sg14
F-0.01598722120188915
sg15
g604
sbs(I11
I1
tp608
g0
(g9
g2
Ntp609
Rp610
(dp611
g13
I01
sg14
F-1.905642918642175
sg15
g608
sbs(I13
I9
tp612
g0
(g9
g2
Ntp613
Rp614
(dp615
g13
I01
sg14
F-0.3086717113635237
sg15
g612
sbs(I17
I4
tp616
g0
(g9
g2
Ntp617
Rp618
(dp619
g13
I01
sg14
F0.4930320574152287
sg15
g616
sbs(I-18
I17
tp620
g0
(g9
g2
Ntp621
Rp622
(dp623
g13
I01
sg14
F1.020228233887858
sg15
g620
sbs(I-1
I18
tp624
g0
(g9
g2
Ntp625
Rp626
(dp627
g13
I01
sg14
F2.1818772026575486
sg15
g624
sbs(I18
I3
tp628
g0
(g9
g2
Ntp629
Rp630
(dp631
g13
I01
sg14
F-0.6690491016335961
sg15
g628
sbs(I-22
I17
tp632
g0
(g9
g2
Ntp633
Rp634
(dp635
g13
I01
sg14
F-1.537849474759134
sg15
g632
sbs(I-17
I20
tp636
g0
(g9
g2
Ntp637
Rp638
(dp639
g13
I01
sg14
F0.5594588025928511
sg15
g636
sbs(I22
I5
tp640
g0
(g9
g2
Ntp641
Rp642
(dp643
g13
I01
sg14
F-0.2727302725474857
sg15
g640
sbs(I-5
I17
tp644
g0
(g9
g2
Ntp645
Rp646
(dp647
g13
I01
sg14
F0.09938547161943545
sg15
g644
sbs(I23
I0
tp648
g0
(g9
g2
Ntp649
Rp650
(dp651
g13
I01
sg14
F-1.4372407395958613
sg15
g648
sbs(I11
I6
tp652
g0
(g9
g2
Ntp653
Rp654
(dp655
g13
I01
sg14
F-0.37977316726739907
sg15
g652
sbs(I-29
I24
tp656
g0
(g9
g2
Ntp657
Rp658
(dp659
g13
I01
sg14
F1.3513067138250243
sg15
g656
sbs(I12
I1
tp660
g0
(g9
g2
Ntp661
Rp662
(dp663
g13
I01
sg14
F1.4172764975043173
sg15
g660
sbs(I-28
I19
tp664
g0
(g9
g2
Ntp665
Rp666
(dp667
g13
I01
sg14
F-0.6047606263813029
sg15
g664
sbs(I13
I4
tp668
g0
(g9
g2
Ntp669
Rp670
(dp671
g13
I01
sg14
F0.33689078554342605
sg15
g668
sbs(I-27
I18
tp672
g0
(g9
g2
Ntp673
Rp674
(dp675
g13
I01
sg14
F-0.5191503990628086
sg15
g672
sbs(I24
I4
tp676
g0
(g9
g2
Ntp677
Rp678
(dp679
g13
I01
sg14
F-0.770416375009516
sg15
g676
sbs(I-16
I22
tp680
g0
(g9
g2
Ntp681
Rp682
(dp683
g13
I01
sg14
F-1.0006666476012136
sg15
g680
sbs(I-15
I23
tp684
g0
(g9
g2
Ntp685
Rp686
(dp687
g13
I01
sg14
F-0.7382075919127579
sg15
g684
sbs(I-14
I20
tp688
g0
(g9
g2
Ntp689
Rp690
(dp691
g13
I01
sg14
F0.9528088053319801
sg15
g688
sbs(I12
I8
tp692
g0
(g9
g2
Ntp693
Rp694
(dp695
g13
I01
sg14
F-2.3946824753007534
sg15
g692
sbs(I-18
I24
tp696
g0
(g9
g2
Ntp697
Rp698
(dp699
g13
I01
sg14
F-0.7165125645961754
sg15
g696
sbs(I-22
I24
tp700
g0
(g9
g2
Ntp701
Rp702
(dp703
g13
I01
sg14
F-0.19745166684914028
sg15
g700
sbs(I-2
I10
tp704
g0
(g9
g2
Ntp705
Rp706
(dp707
g13
I01
sg14
F0.7702977939409352
sg15
g704
sbs(I19
I3
tp708
g0
(g9
g2
Ntp709
Rp710
(dp711
g13
I01
sg14
F0.954620299567229
sg15
g708
sbs(I-21
I21
tp712
g0
(g9
g2
Ntp713
Rp714
(dp715
g13
I01
sg14
F0.7211609154719756
sg15
g712
sbs(I-8
I11
tp716
g0
(g9
g2
Ntp717
Rp718
(dp719
g13
I01
sg14
F-0.33071749868122985
sg15
g716
sbs(I20
I4
tp720
g0
(g9
g2
Ntp721
Rp722
(dp723
g13
I01
sg14
F-0.899465975467481
sg15
g720
sbs(I-20
I22
tp724
g0
(g9
g2
Ntp725
Rp726
(dp727
g13
I01
sg14
F-0.13233508882642014
sg15
g724
sbs(I-5
I22
tp728
g0
(g9
g2
Ntp729
Rp730
(dp731
g13
I01
sg14
F0.6034726991024792
sg15
g728
sbs(I-7
I10
tp732
g0
(g9
g2
Ntp733
Rp734
(dp735
g13
I01
sg14
F1.2201682855507783
sg15
g732
sbs(I-19
I23
tp736
g0
(g9
g2
Ntp737
Rp738
(dp739
g13
I01
sg14
F-0.27748327852170973
sg15
g736
sbs(I-4
I17
tp740
g0
(g9
g2
Ntp741
Rp742
(dp743
g13
I01
sg14
F0.8444756109690906
sg15
g740
sbs(I-3
I20
tp744
g0
(g9
g2
Ntp745
Rp746
(dp747
g13
I01
sg14
F-0.043851210799899294
sg15
g744
sbs(I-5
I12
tp748
g0
(g9
g2
Ntp749
Rp750
(dp751
g13
I01
sg14
F-0.1665323543021822
sg15
g748
sbs(I-2
I11
tp752
g0
(g9
g2
Ntp753
Rp754
(dp755
g13
I01
sg14
F0.7480366005581631
sg15
g752
sbs(I-4
I15
tp756
g0
(g9
g2
Ntp757
Rp758
(dp759
g13
I01
sg14
F0.4495321065889107
sg15
g756
sbs(I-3
I14
tp760
g0
(g9
g2
Ntp761
Rp762
(dp763
g13
I01
sg14
F-0.0011165205624741623
sg15
g760
sbs(I14
I2
tp764
g0
(g9
g2
Ntp765
Rp766
(dp767
g13
I01
sg14
F-0.03342990379729278
sg15
g764
sbs(I-16
I13
tp768
g0
(g9
g2
Ntp769
Rp770
(dp771
g13
I01
sg14
F-0.1738187917505715
sg15
g768
sbs(I-26
I16
tp772
g0
(g9
g2
Ntp773
Rp774
(dp775
g13
I01
sg14
F0.7306923449597246
sg15
g772
sbs(I-11
I24
tp776
g0
(g9
g2
Ntp777
Rp778
(dp779
g13
I01
sg14
F-1.6707491293503909
sg15
g776
sbs(I-25
I21
tp780
g0
(g9
g2
Ntp781
Rp782
(dp783
g13
I01
sg14
F-1.4575898310267323
sg15
g780
sbs(I-10
I23
tp784
g0
(g9
g2
Ntp785
Rp786
(dp787
g13
I01
sg14
F-1.9127909775256617
sg15
g784
sbs(I-14
I15
tp788
g0
(g9
g2
Ntp789
Rp790
(dp791
g13
I01
sg14
F-1.7945778231241747
sg15
g788
sbs(I-9
I22
tp792
g0
(g9
g2
Ntp793
Rp794
(dp795
g13
I01
sg14
F-0.5624135669393635
sg15
g792
sbs(I-9
I12
tp796
g0
(g9
g2
Ntp797
Rp798
(dp799
g13
I01
sg14
F0.27312768693782896
sg15
g796
sbs(I19
I8
tp800
g0
(g9
g2
Ntp801
Rp802
(dp803
g13
I01
sg14
F1.5012513254986344
sg15
g800
sbs(I-21
I10
tp804
g0
(g9
g2
Ntp805
Rp806
(dp807
g13
I01
sg14
F0.2490723863543013
sg15
g804
sbs(I11
I4
tp808
g0
(g9
g2
Ntp809
Rp810
(dp811
g13
I01
sg14
F-1.3176753483027097
sg15
g808
sbs(I-8
I18
tp812
g0
(g9
g2
Ntp813
Rp814
(dp815
g13
I01
sg14
F0.18934217233915693
sg15
g812
sbs(I20
I3
tp816
g0
(g9
g2
Ntp817
Rp818
(dp819
g13
I01
sg14
F1.269352686957928
sg15
g816
sbs(I-20
I13
tp820
g0
(g9
g2
Ntp821
Rp822
(dp823
g13
I01
sg14
F0.024246050629974612
sg15
g820
sbs(I-7
I19
tp824
g0
(g9
g2
Ntp825
Rp826
(dp827
g13
I01
sg14
F-1.088416602840271
sg15
g824
sbs(I21
I2
tp828
g0
(g9
g2
Ntp829
Rp830
(dp831
g13
I01
sg14
F0.7228292851131931
sg15
g828
sbs(I-19
I16
tp832
g0
(g9
g2
Ntp833
Rp834
(dp835
g13
I01
sg14
F-0.8197247463769374
sg15
g832
sbs(I-30
I23
tp836
g0
(g9
g2
Ntp837
Rp838
(dp839
g13
I01
sg14
F0.5203570425643478
sg15
g836
sbs(I22
I9
tp840
g0
(g9
g2
Ntp841
Rp842
(dp843
g13
I01
sg14
F1.3915944387749182
sg15
g840
sbs(I10
I3
tp844
g0
(g9
g2
Ntp845
Rp846
(dp847
g13
I01
sg14
F-0.1954210174688401
sg15
g844
sbs(I14
I5
tp848
g0
(g9
g2
Ntp849
Rp850
(dp851
g13
I01
sg14
F-0.7893919920464104
sg15
g848
sbs(I-26
I11
tp852
g0
(g9
g2
Ntp853
Rp854
(dp855
g13
I01
sg14
F-0.6200055459353915
sg15
g852
sbs(I-1
I20
tp856
g0
(g9
g2
Ntp857
Rp858
(dp859
g13
I01
sg14
F-0.15335833782398695
sg15
g856
sbs(I-13
I17
tp860
g0
(g9
g2
Ntp861
Rp862
(dp863
g13
I01
sg14
F-1.096358710525588
sg15
g860
sbs(I15
I0
tp864
g0
(g9
g2
Ntp865
Rp866
(dp867
g13
I01
sg14
F0.6990066105068835
sg15
g864
sbs(I-25
I18
tp868
g0
(g9
g2
Ntp869
Rp870
(dp871
g13
I01
sg14
F-1.104419752775595
sg15
g868
sbs(I-12
I10
tp872
g0
(g9
g2
Ntp873
Rp874
(dp875
g13
I01
sg14
F-0.8743595708407811
sg15
g872
sbs(I-11
I11
tp876
g0
(g9
g2
Ntp877
Rp878
(dp879
g13
I01
sg14
F-0.35413892375067446
sg15
g876
sbs(I-23
I13
tp880
g0
(g9
g2
Ntp881
Rp882
(dp883
g13
I01
sg14
F-0.6669455307557048
sg15
g880
sbs(I-22
I10
tp884
g0
(g9
g2
Ntp885
Rp886
(dp887
g13
I01
sg14
F1.408366358396408
sg15
g884
sbs(I-24
I22
tp888
g0
(g9
g2
Ntp889
Rp890
(dp891
g13
I01
sg14
F-0.6544677156712942
sg15
g888
sbs(I17
I1
tp892
g0
(g9
g2
Ntp893
Rp894
(dp895
g13
I01
sg14
F-0.8140474842782878
sg15
g892
sbs(I-23
I23
tp896
g0
(g9
g2
Ntp897
Rp898
(dp899
g13
I01
sg14
F2.2566700484704327
sg15
g896
sbs(I-18
I12
tp900
g0
(g9
g2
Ntp901
Rp902
(dp903
g13
I01
sg14
F0.7421683408566089
sg15
g900
sbs(I18
I6
tp904
g0
(g9
g2
Ntp905
Rp906
(dp907
g13
I01
sg14
F0.5516862047460266
sg15
g904
sbs(I-22
I20
tp908
g0
(g9
g2
Ntp909
Rp910
(dp911
g13
I01
sg14
F1.8025642623536975
sg15
g908
sbs(I-7
I20
tp912
g0
(g9
g2
Ntp913
Rp914
(dp915
g13
I01
sg14
F-1.4120840551305334
sg15
g912
sbs(I-6
I19
tp916
g0
(g9
g2
Ntp917
Rp918
(dp919
g13
I01
sg14
F-0.32877163657011693
sg15
g916
sbs(I22
I0
tp920
g0
(g9
g2
Ntp921
Rp922
(dp923
g13
I01
sg14
F-0.6254098207200559
sg15
g920
sbs(I-29
I15
tp924
g0
(g9
g2
Ntp925
Rp926
(dp927
g13
I01
sg14
F1.1508509118483345
sg15
g924
sbs(I23
I5
tp928
g0
(g9
g2
Ntp929
Rp930
(dp931
g13
I01
sg14
F1.316040897897838
sg15
g928
sbs(I-27
I13
tp932
g0
(g9
g2
Ntp933
Rp934
(dp935
g13
I01
sg14
F-0.6935991956561607
sg15
g932
sbs(I-29
I21
tp936
g0
(g9
g2
Ntp937
Rp938
(dp939
g13
I01
sg14
F-1.6922493918051282
sg15
g936
sbs(I12
I4
tp940
g0
(g9
g2
Ntp941
Rp942
(dp943
g13
I01
sg14
F0.08803091688817882
sg15
g940
sbs(I-28
I22
tp944
g0
(g9
g2
Ntp945
Rp946
(dp947
g13
I01
sg14
F0.9385292018564866
sg15
g944
sbs(I-13
I22
tp948
g0
(g9
g2
Ntp949
Rp950
(dp951
g13
I01
sg14
F0.3260157370740729
sg15
g948
sbs(I15
I9
tp952
g0
(g9
g2
Ntp953
Rp954
(dp955
g13
I01
sg14
F1.0015555030445085
sg15
g952
sbs(I-25
I11
tp956
g0
(g9
g2
Ntp957
Rp958
(dp959
g13
I01
sg14
F-0.4396403544125509
sg15
g956
sbs(I-27
I23
tp960
g0
(g9
g2
Ntp961
Rp962
(dp963
g13
I01
sg14
F0.06479574416785856
sg15
g960
sbs(I-12
I17
tp964
g0
(g9
g2
Ntp965
Rp966
(dp967
g13
I01
sg14
F-0.9445054316669952
sg15
g964
sbs(I-16
I17
tp968
g0
(g9
g2
Ntp969
Rp970
(dp971
g13
I01
sg14
F-1.0708070780112047
sg15
g968
sbs(I-11
I20
tp972
g0
(g9
g2
Ntp973
Rp974
(dp975
g13
I01
sg14
F0.7860246936264514
sg15
g972
sbs(I18
I9
tp976
g0
(g9
g2
Ntp977
Rp978
(dp979
g13
I01
sg14
F-1.7965503421062392
sg15
g976
sbs(I16
I1
tp980
g0
(g9
g2
Ntp981
Rp982
(dp983
g13
I01
sg14
F0.07998362881249399
sg15
g980
sbs(I-23
I24
tp984
g0
(g9
g2
Ntp985
Rp986
(dp987
g13
I01
sg14
F-0.87774462853605
sg15
g984
sbs(I-18
I23
tp988
g0
(g9
g2
Ntp989
Rp990
(dp991
g13
I01
sg14
F0.7409540667197791
sg15
g988
sbs(I18
I1
tp992
g0
(g9
g2
Ntp993
Rp994
(dp995
g13
I01
sg14
F-1.707361862347543
sg15
g992
sbs(I-17
I22
tp996
g0
(g9
g2
Ntp997
Rp998
(dp999
g13
I01
sg14
F-0.13549248691578072
sg15
g996
sbs(I-5
I19
tp1000
g0
(g9
g2
Ntp1001
Rp1002
(dp1003
g13
I01
sg14
F-0.13946137484799603
sg15
g1000
sbs(I23
I2
tp1004
g0
(g9
g2
Ntp1005
Rp1006
(dp1007
g13
I01
sg14
F-0.39474134247747195
sg15
g1004
sbs(I-4
I20
tp1008
g0
(g9
g2
Ntp1009
Rp1010
(dp1011
g13
I01
sg14
F-0.910156936066491
sg15
g1008
sbs(I12
I3
tp1012
g0
(g9
g2
Ntp1013
Rp1014
(dp1015
g13
I01
sg14
F-1.8528496645866583
sg15
g1012
sbs(I13
I2
tp1016
g0
(g9
g2
Ntp1017
Rp1018
(dp1019
g13
I01
sg14
F-0.05470167092152573
sg15
g1016
sbs(I-27
I16
tp1020
g0
(g9
g2
Ntp1021
Rp1022
(dp1023
g13
I01
sg14
F-0.5677371162759886
sg15
g1020
sbs(I-12
I24
tp1024
g0
(g9
g2
Ntp1025
Rp1026
(dp1027
g13
I01
sg14
F1.6747342619091325
sg15
g1024
sbs(I24
I6
tp1028
g0
(g9
g2
Ntp1029
Rp1030
(dp1031
g13
I01
sg14
F-1.5217625326091464
sg15
g1028
sbs(I-15
I21
tp1032
g0
(g9
g2
Ntp1033
Rp1034
(dp1035
g13
I01
sg14
F0.4024012168077762
sg15
g1032
sbs(I-10
I18
tp1036
g0
(g9
g2
Ntp1037
Rp1038
(dp1039
g13
I01
sg14
F-0.4039260069721594
sg15
g1036
sbs(I-14
I18
tp1040
g0
(g9
g2
Ntp1041
Rp1042
(dp1043
g13
I01
sg14
F0.6752027880791452
sg15
g1040
sbs(I17
I9
tp1044
g0
(g9
g2
Ntp1045
Rp1046
(dp1047
g13
I01
sg14
F0.7227561188969087
sg15
g1044
sbs(I16
I8
tp1048
g0
(g9
g2
Ntp1049
Rp1050
(dp1051
g13
I01
sg14
F-0.32290680158499474
sg15
g1048
sbs(I19
I5
tp1052
g0
(g9
g2
Ntp1053
Rp1054
(dp1055
g13
I01
sg14
F0.9958973530916476
sg15
g1052
sbs(I-21
I23
tp1056
g0
(g9
g2
Ntp1057
Rp1058
(dp1059
g13
I01
sg14
F0.6366527412607129
sg15
g1056
sbs(I-8
I13
tp1060
g0
(g9
g2
Ntp1061
Rp1062
(dp1063
g13
I01
sg14
F-0.37550531644041335
sg15
g1060
sbs(I20
I6
tp1064
g0
(g9
g2
Ntp1065
Rp1066
(dp1067
g13
I01
sg14
F1.0662198133527174
sg15
g1064
sbs(I-20
I16
tp1068
g0
(g9
g2
Ntp1069
Rp1070
(dp1071
g13
I01
sg14
F-0.564610246131121
sg15
g1068
sbs(I21
I7
tp1072
g0
(g9
g2
Ntp1073
Rp1074
(dp1075
g13
I01
sg14
F0.0027194733184588552
sg15
g1072
sbs(I-19
I21
tp1076
g0
(g9
g2
Ntp1077
Rp1078
(dp1079
g13
I01
sg14
F1.2737075920522807
sg15
g1076
sbs(I-4
I19
tp1080
g0
(g9
g2
Ntp1081
Rp1082
(dp1083
g13
I01
sg14
F-0.41438716478549265
sg15
g1080
sbs(I-6
I15
tp1084
g0
(g9
g2
Ntp1085
Rp1086
(dp1087
g13
I01
sg14
F-0.22615940448210167
sg15
g1084
sbs(I-3
I18
tp1088
g0
(g9
g2
Ntp1089
Rp1090
(dp1091
g13
I01
sg14
F-0.9514717353797093
sg15
g1088
sbs(I-5
I14
tp1092
g0
(g9
g2
Ntp1093
Rp1094
(dp1095
g13
I01
sg14
F-1.335173646342752
sg15
g1092
sbs(I10
I6
tp1096
g0
(g9
g2
Ntp1097
Rp1098
(dp1099
g13
I01
sg14
F0.17112278781653023
sg15
g1096
sbs(I-3
I12
tp1100
g0
(g9
g2
Ntp1101
Rp1102
(dp1103
g13
I01
sg14
F-1.9550948344050272
sg15
g1100
sbs(I14
I0
tp1104
g0
(g9
g2
Ntp1105
Rp1106
(dp1107
g13
I01
sg14
F-0.16641726293090878
sg15
g1104
sbs(I-16
I15
tp1108
g0
(g9
g2
Ntp1109
Rp1110
(dp1111
g13
I01
sg14
F-0.6640330126839237
sg15
g1108
sbs(I-26
I22
tp1112
g0
(g9
g2
Ntp1113
Rp1114
(dp1115
g13
I01
sg14
F-0.04842960274774541
sg15
g1112
sbs(I-1
I19
tp1116
g0
(g9
g2
Ntp1117
Rp1118
(dp1119
g13
I01
sg14
F0.09751539197450859
sg15
g1116
sbs(I-13
I10
tp1120
g0
(g9
g2
Ntp1121
Rp1122
(dp1123
g13
I01
sg14
F0.6312859405040865
sg15
g1120
sbs(I15
I5
tp1124
g0
(g9
g2
Ntp1125
Rp1126
(dp1127
g13
I01
sg14
F-1.4031937747930343
sg15
g1124
sbs(I-15
I14
tp1128
g0
(g9
g2
Ntp1129
Rp1130
(dp1131
g13
I01
sg14
F-0.7584205682362765
sg15
g1128
sbs(I-25
I23
tp1132
g0
(g9
g2
Ntp1133
Rp1134
(dp1135
g13
I01
sg14
F-1.73864448948211
sg15
g1132
sbs(I-10
I21
tp1136
g0
(g9
g2
Ntp1137
Rp1138
(dp1139
g13
I01
sg14
F0.2029945792872922
sg15
g1136
sbs(I-12
I13
tp1140
g0
(g9
g2
Ntp1141
Rp1142
(dp1143
g13
I01
sg14
F-0.5536140637309942
sg15
g1140
sbs(I-14
I13
tp1144
g0
(g9
g2
Ntp1145
Rp1146
(dp1147
g13
I01
sg14
F-0.22298998652233948
sg15
g1144
sbs(I-9
I16
tp1148
g0
(g9
g2
Ntp1149
Rp1150
(dp1151
g13
I01
sg14
F-0.37126764746056756
sg15
g1148
sbs(I-1
I21
tp1152
g0
(g9
g2
Ntp1153
Rp1154
(dp1155
g13
I01
sg14
F-1.1559672262687948
sg15
g1152
sbs(I-24
I11
tp1156
g0
(g9
g2
Ntp1157
Rp1158
(dp1159
g13
I01
sg14
F-0.3114671057817117
sg15
g1156
sbs(I-10
I15
tp1160
g0
(g9
g2
Ntp1161
Rp1162
(dp1163
g13
I01
sg14
F-0.7894963622548613
sg15
g1160
sbs(I-23
I10
tp1164
g0
(g9
g2
Ntp1165
Rp1166
(dp1167
g13
I01
sg14
F-0.41837756674113197
sg15
g1164
sbs(I-9
I14
tp1168
g0
(g9
g2
Ntp1169
Rp1170
(dp1171
g13
I01
sg14
F0.13930395310105437
sg15
g1168
sbs(I-24
I17
tp1172
g0
(g9
g2
Ntp1173
Rp1174
(dp1175
g13
I01
sg14
F0.5695265273746578
sg15
g1172
sbs(I-21
I12
tp1176
g0
(g9
g2
Ntp1177
Rp1178
(dp1179
g13
I01
sg14
F-0.7178037297816035
sg15
g1176
sbs(I-8
I20
tp1180
g0
(g9
g2
Ntp1181
Rp1182
(dp1183
g13
I01
sg14
F0.6772352375946228
sg15
g1180
sbs(I-18
I11
tp1184
g0
(g9
g2
Ntp1185
Rp1186
(dp1187
g13
I01
sg14
F-1.038736266734849
sg15
g1184
sbs(I-20
I15
tp1188
g0
(g9
g2
Ntp1189
Rp1190
(dp1191
g13
I01
sg14
F-0.035225502862065626
sg15
g1188
sbs(I-7
I17
tp1192
g0
(g9
g2
Ntp1193
Rp1194
(dp1195
g13
I01
sg14
F4.073750078854292
sg15
g1192
sbs(I21
I0
tp1196
g0
(g9
g2
Ntp1197
Rp1198
(dp1199
g13
I01
sg14
F-0.137553065101207
sg15
g1196
sbs(I-19
I14
tp1200
g0
(g9
g2
Ntp1201
Rp1202
(dp1203
g13
I01
sg14
F1.9142236678288715
sg15
g1200
sbs(I-30
I21
tp1204
g0
(g9
g2
Ntp1205
Rp1206
(dp1207
g13
I01
sg14
F-0.6158546827688269
sg15
g1204
sbs(I-6
I22
tp1208
g0
(g9
g2
Ntp1209
Rp1210
(dp1211
g13
I01
sg14
F-0.8351981245677866
sg15
g1208
sbs(I10
I1
tp1212
g0
(g9
g2
Ntp1213
Rp1214
(dp1215
g13
I01
sg14
F-0.44670582008805165
sg15
g1212
sbs(I-30
I15
tp1216
g0
(g9
g2
Ntp1217
Rp1218
(dp1219
g13
I01
sg14
F0.289771880026356
sg15
g1216
sbs(I-13
I19
tp1220
g0
(g9
g2
Ntp1221
Rp1222
(dp1223
g13
I01
sg14
F-2.0086691730341437
sg15
g1220
sbs(I15
I2
tp1224
g0
(g9
g2
Ntp1225
Rp1226
(dp1227
g13
I01
sg14
F0.5436121559056
sg15
g1224
sbs(I-25
I12
tp1228
g0
(g9
g2
Ntp1229
Rp1230
(dp1231
g13
I01
sg14
F0.9094569696958931
sg15
g1228
sbs(I-12
I20
tp1232
g0
(g9
g2
Ntp1233
Rp1234
(dp1235
g13
I01
sg14
F0.13508960522892965
sg15
g1232
sbs(I-1
I13
tp1236
g0
(g9
g2
Ntp1237
Rp1238
(dp1239
g13
I01
sg14
F-0.8437338941460152
sg15
g1236
sbs(I11
I5
tp1240
g0
(g9
g2
Ntp1241
Rp1242
(dp1243
g13
I01
sg14
F-0.042600938135664894
sg15
g1240
sbs(I16
I6
tp1244
g0
(g9
g2
Ntp1245
Rp1246
(dp1247
g13
I01
sg14
F-0.5123578326340427
sg15
g1244
sbs(I-24
I24
tp1248
g0
(g9
g2
Ntp1249
Rp1250
(dp1251
g13
I01
sg14
F-1.4727502688773055
sg15
g1248
sbs(I17
I7
tp1252
g0
(g9
g2
Ntp1253
Rp1254
(dp1255
g13
I01
sg14
F-1.4215845657789936
sg15
g1252
sbs(I-23
I21
tp1256
g0
(g9
g2
Ntp1257
Rp1258
(dp1259
g13
I01
sg14
F0.06887403549629459
sg15
g1256
sbs(I-18
I18
tp1260
g0
(g9
g2
Ntp1261
Rp1262
(dp1263
g13
I01
sg14
F-0.7899465495191648
sg15
g1260
sbs(I18
I4
tp1264
g0
(g9
g2
Ntp1265
Rp1266
(dp1267
g13
I01
sg14
F-0.2297319633097816
sg15
g1264
sbs(I-22
I18
tp1268
g0
(g9
g2
Ntp1269
Rp1270
(dp1271
g13
I01
sg14
F-0.23795299596196876
sg15
g1268
sbs(I-17
I11
tp1272
g0
(g9
g2
Ntp1273
Rp1274
(dp1275
g13
I01
sg14
F0.743546052838425
sg15
g1272
sbs(I21
I8
tp1276
g0
(g9
g2
Ntp1277
Rp1278
(dp1279
g13
I01
sg14
F0.16994219725421486
sg15
g1276
sbs(I-6
I17
tp1280
g0
(g9
g2
Ntp1281
Rp1282
(dp1283
g13
I01
sg14
F0.8899526440301587
sg15
g1280
sbs(I22
I6
tp1284
g0
(g9
g2
Ntp1285
Rp1286
(dp1287
g13
I01
sg14
F0.04930539751151813
sg15
g1284
sbs(I23
I7
tp1288
g0
(g9
g2
Ntp1289
Rp1290
(dp1291
g13
I01
sg14
F0.04297893256475987
sg15
g1288
sbs(I-28
I10
tp1292
g0
(g9
g2
Ntp1293
Rp1294
(dp1295
g13
I01
sg14
F1.371192965378395
sg15
g1292
sbs(I-27
I11
tp1296
g0
(g9
g2
Ntp1297
Rp1298
(dp1299
g13
I01
sg14
F0.10235486647860177
sg15
g1296
sbs(I11
I3
tp1300
g0
(g9
g2
Ntp1301
Rp1302
(dp1303
g13
I01
sg14
F-0.7220227704493472
sg15
g1300
sbs(I-29
I23
tp1304
g0
(g9
g2
Ntp1305
Rp1306
(dp1307
g13
I01
sg14
F1.0340502407376286
sg15
g1304
sbs(I12
I6
tp1308
g0
(g9
g2
Ntp1309
Rp1310
(dp1311
g13
I01
sg14
F1.0851443851100755
sg15
g1308
sbs(I-28
I16
tp1312
g0
(g9
g2
Ntp1313
Rp1314
(dp1315
g13
I01
sg14
F-0.7262119384451583
sg15
g1312
sbs(I-13
I24
tp1316
g0
(g9
g2
Ntp1317
Rp1318
(dp1319
g13
I01
sg14
F1.7183046042941625
sg15
g1316
sbs(I13
I7
tp1320
g0
(g9
g2
Ntp1321
Rp1322
(dp1323
g13
I01
sg14
F2.1548937376348234
sg15
g1320
sbs(I-27
I21
tp1324
g0
(g9
g2
Ntp1325
Rp1326
(dp1327
g13
I01
sg14
F-0.09212822458441301
sg15
g1324
sbs(I-12
I19
tp1328
g0
(g9
g2
Ntp1329
Rp1330
(dp1331
g13
I01
sg14
F-1.191290917092348
sg15
g1328
sbs(I24
I1
tp1332
g0
(g9
g2
Ntp1333
Rp1334
(dp1335
g13
I01
sg14
F1.7454942232592823
sg15
g1332
sbs(I-16
I19
tp1336
g0
(g9
g2
Ntp1337
Rp1338
(dp1339
g13
I01
sg14
F0.5355886775384513
sg15
g1336
sbs(I-11
I18
tp1340
g0
(g9
g2
Ntp1341
Rp1342
(dp1343
g13
I01
sg14
F-0.2774181682718694
sg15
g1340
sbs(I-15
I18
tp1344
g0
(g9
g2
Ntp1345
Rp1346
(dp1347
g13
I01
sg14
F0.43022907117930576
sg15
g1344
sbs(I-2
I23
tp1348
g0
(g9
g2
Ntp1349
Rp1350
(dp1351
g13
I01
sg14
F0.9816248201025722
sg15
g1348
sbs(I-18
I21
tp1352
g0
(g9
g2
Ntp1353
Rp1354
(dp1355
g13
I01
sg14
F-1.2913292925043107
sg15
g1352
sbs(I16
I5
tp1356
g0
(g9
g2
Ntp1357
Rp1358
(dp1359
g13
I01
sg14
F1.7128013555143227
sg15
g1356
sbs(I-17
I16
tp1360
g0
(g9
g2
Ntp1361
Rp1362
(dp1363
g13
I01
sg14
F0.3779835303522758
sg15
g1360
sbs(I-21
I16
tp1364
g0
(g9
g2
Ntp1365
Rp1366
(dp1367
g13
I01
sg14
F1.0952923124798104
sg15
g1364
sbs(I-6
I24
tp1368
g0
(g9
g2
Ntp1369
Rp1370
(dp1371
g13
I01
sg14
F-0.4495600929833589
sg15
g1368
sbs(I-5
I21
tp1372
g0
(g9
g2
Ntp1373
Rp1374
(dp1375
g13
I01
sg14
F-1.1328476128619072
sg15
g1372
sbs(I-4
I22
tp1376
g0
(g9
g2
Ntp1377
Rp1378
(dp1379
g13
I01
sg14
F1.718622108295767
sg15
g1376
sbs(I-3
I23
tp1380
g0
(g9
g2
Ntp1381
Rp1382
(dp1383
g13
I01
sg14
F-1.6162261240554368
sg15
g1380
sbs(I-5
I11
tp1384
g0
(g9
g2
Ntp1385
Rp1386
(dp1387
g13
I01
sg14
F-1.5591930649272592
sg15
g1384
sbs(I-4
I12
tp1388
g0
(g9
g2
Ntp1389
Rp1390
(dp1391
g13
I01
sg14
F-0.8717902579822675
sg15
g1388
sbs(I13
I0
tp1392
g0
(g9
g2
Ntp1393
Rp1394
(dp1395
g13
I01
sg14
F-0.16113313072154783
sg15
g1392
sbs(I18
I8
tp1396
g0
(g9
g2
Ntp1397
Rp1398
(dp1399
g13
I01
sg14
F0.15176315123743378
sg15
g1396
sbs(I16
I0
tp1400
g0
(g9
g2
Ntp1401
Rp1402
(dp1403
g13
I01
sg14
F0.8669112491748298
sg15
g1400
sbs(I24
I8
tp1404
g0
(g9
g2
Ntp1405
Rp1406
(dp1407
g13
I01
sg14
F-0.2867848806886295
sg15
g1404
sbs(I-16
I10
tp1408
g0
(g9
g2
Ntp1409
Rp1410
(dp1411
g13
I01
sg14
F0.682023139452172
sg15
g1408
sbs(I-15
I11
tp1412
g0
(g9
g2
Ntp1413
Rp1414
(dp1415
g13
I01
sg14
F-0.1613441890754312
sg15
g1412
sbs(I-25
I24
tp1416
g0
(g9
g2
Ntp1417
Rp1418
(dp1419
g13
I01
sg14
F-2.1930802058820142
sg15
g1416
sbs(I-10
I16
tp1420
g0
(g9
g2
Ntp1421
Rp1422
(dp1423
g13
I01
sg14
F1.5039171341452593
sg15
g1420
sbs(I-14
I16
tp1424
g0
(g9
g2
Ntp1425
Rp1426
(dp1427
g13
I01
sg14
F0.784613884495072
sg15
g1424
sbs(I-9
I21
tp1428
g0
(g9
g2
Ntp1429
Rp1430
(dp1431
g13
I01
sg14
F-0.24088723686069607
sg15
g1428
sbs(I-2
I15
tp1432
g0
(g9
g2
Ntp1433
Rp1434
(dp1435
g13
I01
sg14
F-0.5369394972644059
sg15
g1432
sbs(I-10
I10
tp1436
g0
(g9
g2
Ntp1437
Rp1438
(dp1439
g13
I01
sg14
F1.1656243443699323
sg15
g1436
sbs(I19
I7
tp1440
g0
(g9
g2
Ntp1441
Rp1442
(dp1443
g13
I01
sg14
F-1.6894213597082373
sg15
g1440
sbs(I-8
I15
tp1444
g0
(g9
g2
Ntp1445
Rp1446
(dp1447
g13
I01
sg14
F0.2843826717100586
sg15
g1444
sbs(I20
I0
tp1448
g0
(g9
g2
Ntp1449
Rp1450
(dp1451
g13
I01
sg14
F-0.04843923641513478
sg15
g1448
sbs(I-20
I18
tp1452
g0
(g9
g2
Ntp1453
Rp1454
(dp1455
g13
I01
sg14
F-0.6760461139382781
sg15
g1452
sbs(I-7
I14
tp1456
g0
(g9
g2
Ntp1457
Rp1458
(dp1459
g13
I01
sg14
F0.6119048768906235
sg15
g1456
sbs(I21
I5
tp1460
g0
(g9
g2
Ntp1461
Rp1462
(dp1463
g13
I01
sg14
F2.0533087745302763
sg15
g1460
sbs(I-19
I19
tp1464
g0
(g9
g2
Ntp1465
Rp1466
(dp1467
g13
I01
sg14
F1.1595149085475625
sg15
g1464
sbs(I-30
I24
tp1468
g0
(g9
g2
Ntp1469
Rp1470
(dp1471
g13
I01
sg14
F-0.8667664946444835
sg15
g1468
sbs(I-6
I13
tp1472
g0
(g9
g2
Ntp1473
Rp1474
(dp1475
g13
I01
sg14
F-0.7690305129225836
sg15
g1472
sbs(I-3
I16
tp1476
g0
(g9
g2
Ntp1477
Rp1478
(dp1479
g13
I01
sg14
F1.9285773768166665
sg15
g1476
sbs(I-1
I15
tp1480
g0
(g9
g2
Ntp1481
Rp1482
(dp1483
g13
I01
sg14
F0.6940300555551193
sg15
g1480
sbs(I10
I4
tp1484
g0
(g9
g2
Ntp1485
Rp1486
(dp1487
g13
I01
sg14
F2.187599739170346
sg15
g1484
sbs(I-4
I11
tp1488
g0
(g9
g2
Ntp1489
Rp1490
(dp1491
g13
I01
sg14
F-0.9470454608245255
sg15
g1488
sbs(I17
I8
tp1492
g0
(g9
g2
Ntp1493
Rp1494
(dp1495
g13
I01
sg14
F1.3714956535324445
sg15
g1492
sbs(I11
I9
tp1496
g0
(g9
g2
Ntp1497
Rp1498
(dp1499
g13
I01
sg14
F-0.12367966060842174
sg15
g1496
sbs(I-3
I10
tp1500
g0
(g9
g2
Ntp1501
Rp1502
(dp1503
g13
I01
sg14
F-0.19253783649896306
sg15
g1500
sbs(I14
I6
tp1504
g0
(g9
g2
Ntp1505
Rp1506
(dp1507
g13
I01
sg14
F-0.5139546959953568
sg15
g1504
sbs(I-26
I20
tp1508
g0
(g9
g2
Ntp1509
Rp1510
(dp1511
g13
I01
sg14
F-2.2024196142389028
sg15
g1508
sbs(I-2
I17
tp1512
g0
(g9
g2
Ntp1513
Rp1514
(dp1515
g13
I01
sg14
F1.9543249751484268
sg15
g1512
sbs(I-13
I12
tp1516
g0
(g9
g2
Ntp1517
Rp1518
(dp1519
g13
I01
sg14
F0.3285902361271652
sg15
g1516
sbs(I15
I7
tp1520
g0
(g9
g2
Ntp1521
Rp1522
(dp1523
g13
I01
sg14
F0.964223380939789
sg15
g1520
sbs(I-15
I12
tp1524
g0
(g9
g2
Ntp1525
Rp1526
(dp1527
g13
I01
sg14
F1.7136743094791043
sg15
g1524
sbs(I-25
I17
tp1528
g0
(g9
g2
Ntp1529
Rp1530
(dp1531
g13
I01
sg14
F0.7515105958793555
sg15
g1528
sbs(I-12
I15
tp1532
g0
(g9
g2
Ntp1533
Rp1534
(dp1535
g13
I01
sg14
F-1.9346387308449131
sg15
g1532
sbs(I-14
I11
tp1536
g0
(g9
g2
Ntp1537
Rp1538
(dp1539
g13
I01
sg14
F-0.15301916507451252
sg15
g1536
sbs(I-9
I18
tp1540
g0
(g9
g2
Ntp1541
Rp1542
(dp1543
g13
I01
sg14
F-1.8574664432785533
sg15
g1540
sbs(I-11
I14
tp1544
g0
(g9
g2
Ntp1545
Rp1546
(dp1547
g13
I01
sg14
F0.1392513337582859
sg15
g1544
sbs(I-24
I13
tp1548
g0
(g9
g2
Ntp1549
Rp1550
(dp1551
g13
I01
sg14
F0.614890903044613
sg15
g1548
sbs(I-10
I13
tp1552
g0
(g9
g2
Ntp1553
Rp1554
(dp1555
g13
I01
sg14
F0.195768759732476
sg15
g1552
sbs(I-1
I17
tp1556
g0
(g9
g2
Ntp1557
Rp1558
(dp1559
g13
I01
sg14
F-1.021572725942161
sg15
g1556
sbs(I-22
I15
tp1560
g0
(g9
g2
Ntp1561
Rp1562
(dp1563
g13
I01
sg14
F1.0080689827636424
sg15
g1560
sbs(I-24
I19
tp1564
g0
(g9
g2
Ntp1565
Rp1566
(dp1567
g13
I01
sg14
F0.22780710084656255
sg15
g1564
sbs(I-21
I14
tp1568
g0
(g9
g2
Ntp1569
Rp1570
(dp1571
g13
I01
sg14
F1.0558797337789112
sg15
g1568
sbs(I-23
I18
tp1572
g0
(g9
g2
Ntp1573
Rp1574
(dp1575
g13
I01
sg14
F2.7086420194919687
sg15
g1572
sbs(I-8
I22
tp1576
g0
(g9
g2
Ntp1577
Rp1578
(dp1579
g13
I01
sg14
F0.697562104738116
sg15
g1576
sbs(I16
I3
tp1580
g0
(g9
g2
Ntp1581
Rp1582
(dp1583
g13
I01
sg14
F-1.045211953600323
sg15
g1580
sbs(I-7
I23
tp1584
g0
(g9
g2
Ntp1585
Rp1586
(dp1587
g13
I01
sg14
F1.0380798767958683
sg15
g1584
sbs(I-17
I12
tp1588
g0
(g9
g2
Ntp1589
Rp1590
(dp1591
g13
I01
sg14
F-0.7627849409326787
sg15
g1588
sbs(I-19
I12
tp1592
g0
(g9
g2
Ntp1593
Rp1594
(dp1595
g13
I01
sg14
F0.26821377091253423
sg15
g1592
sbs(I-30
I19
tp1596
g0
(g9
g2
Ntp1597
Rp1598
(dp1599
g13
I01
sg14
F-0.15266165840058507
sg15
g1596
sbs(I-6
I20
tp1600
g0
(g9
g2
Ntp1601
Rp1602
(dp1603
g13
I01
sg14
F1.244935239374008
sg15
g1600
sbs(I-29
I10
tp1604
g0
(g9
g2
Ntp1605
Rp1606
(dp1607
g13
I01
sg14
F0.2144407186375616
sg15
g1604
sbs(I23
I8
tp1608
g0
(g9
g2
Ntp1609
Rp1610
(dp1611
g13
I01
sg14
F0.07112503909292564
sg15
g1608
sbs(I10
I9
tp1612
g0
(g9
g2
Ntp1613
Rp1614
(dp1615
g13
I01
sg14
F-0.7010058320001988
sg15
g1612
sbs(I-28
I13
tp1616
g0
(g9
g2
Ntp1617
Rp1618
(dp1619
g13
I01
sg14
F0.7328179767009502
sg15
g1616
sbs(I-30
I13
tp1620
g0
(g9
g2
Ntp1621
Rp1622
(dp1623
g13
I01
sg14
F0.2834107932729587
sg15
g1620
sbs(I-29
I16
tp1624
g0
(g9
g2
Ntp1625
Rp1626
(dp1627
g13
I01
sg14
F-0.08142877910303037
sg15
g1624
sbs(I14
I9
tp1628
g0
(g9
g2
Ntp1629
Rp1630
(dp1631
g13
I01
sg14
F-0.1882817059285399
sg15
g1628
sbs(I-26
I15
tp1632
g0
(g9
g2
Ntp1633
Rp1634
(dp1635
g13
I01
sg14
F-0.9909509704393725
sg15
g1632
sbs(I-2
I24
tp1636
g0
(g9
g2
Ntp1637
Rp1638
(dp1639
g13
I01
sg14
F-0.40459033908419106
sg15
g1636
sbs(I-13
I21
tp1640
g0
(g9
g2
Ntp1641
Rp1642
(dp1643
g13
I01
sg14
F-1.9788327302071502
sg15
g1640
sbs(I-25
I14
tp1644
g0
(g9
g2
Ntp1645
Rp1646
(dp1647
g13
I01
sg14
F-0.275861403322435
sg15
g1644
sbs(I-12
I22
tp1648
g0
(g9
g2
Ntp1649
Rp1650
(dp1651
g13
I01
sg14
F-1.6014833733310205
sg15
g1648
sbs(I-11
I23
tp1652
g0
(g9
g2
Ntp1653
Rp1654
(dp1655
g13
I01
sg14
F1.5659431179046106
sg15
g1652
sbs(I20
I9
tp1656
g0
(g9
g2
Ntp1657
Rp1658
(dp1659
g13
I01
sg14
F0.18285792690114355
sg15
g1656
sbs(I11
I2
tp1660
g0
(g9
g2
Ntp1661
Rp1662
(dp1663
g13
I01
sg14
F0.6612441206902583
sg15
g1660
sbs(I17
I5
tp1664
g0
(g9
g2
Ntp1665
Rp1666
(dp1667
g13
I01
sg14
F0.5115606557007902
sg15
g1664
sbs(I-18
I16
tp1668
g0
(g9
g2
Ntp1669
Rp1670
(dp1671
g13
I01
sg14
F0.3989835610430888
sg15
g1668
sbs(I18
I2
tp1672
g0
(g9
g2
Ntp1673
Rp1674
(dp1675
g13
I01
sg14
F0.40492563704092926
sg15
g1672
sbs(I-22
I16
tp1676
g0
(g9
g2
Ntp1677
Rp1678
(dp1679
g13
I01
sg14
F0.6594169809495896
sg15
g1676
sbs(I-7
I24
tp1680
g0
(g9
g2
Ntp1681
Rp1682
(dp1683
g13
I01
sg14
F-2.196017038285521
sg15
g1680
sbs(I-17
I21
tp1684
g0
(g9
g2
Ntp1685
Rp1686
(dp1687
g13
I01
sg14
F-0.4097296443367704
sg15
g1684
sbs(I22
I4
tp1688
g0
(g9
g2
Ntp1689
Rp1690
(dp1691
g13
I01
sg14
F1.3129950840087021
sg15
g1688
sbs(I23
I1
tp1692
g0
(g9
g2
Ntp1693
Rp1694
(dp1695
g13
I01
sg14
F-0.991850209132908
sg15
g1692
sbs(I11
I7
tp1696
g0
(g9
g2
Ntp1697
Rp1698
(dp1699
g13
I01
sg14
F-0.12815801891977843
sg15
g1696
sbs(I12
I0
tp1700
g0
(g9
g2
Ntp1701
Rp1702
(dp1703
g13
I01
sg14
F-0.3407130426469096
sg15
g1700
sbs(I-28
I18
tp1704
g0
(g9
g2
Ntp1705
Rp1706
(dp1707
g13
I01
sg14
F-0.5389802602574632
sg15
g1704
sbs(I13
I5
tp1708
g0
(g9
g2
Ntp1709
Rp1710
(dp1711
g13
I01
sg14
F-0.5558539776737467
sg15
g1708
sbs(I-27
I19
tp1712
g0
(g9
g2
Ntp1713
Rp1714
(dp1715
g13
I01
sg14
F0.1964031176503989
sg15
g1712
sbs(I24
I3
tp1716
g0
(g9
g2
Ntp1717
Rp1718
(dp1719
g13
I01
sg14
F-0.15484617166301431
sg15
g1716
sbs(I-16
I21
tp1720
g0
(g9
g2
Ntp1721
Rp1722
(dp1723
g13
I01
sg14
F-1.0408042489202411
sg15
g1720
sbs(I-26
I24
tp1724
g0
(g9
g2
Ntp1725
Rp1726
(dp1727
g13
I01
sg14
F-0.17888633432017426
sg15
g1724
sbs(I-11
I16
tp1728
g0
(g9
g2
Ntp1729
Rp1730
(dp1731
g13
I01
sg14
F1.7493891016440017
sg15
g1728
sbs(I-15
I16
tp1732
g0
(g9
g2
Ntp1733
Rp1734
(dp1735
g13
I01
sg14
F0.03660781873172966
sg15
g1732
sbs(I-14
I23
tp1736
g0
(g9
g2
Ntp1737
Rp1738
(dp1739
g13
I01
sg14
F1.6244996002406518
sg15
g1736
sbs(I13
I8
tp1740
g0
(g9
g2
Ntp1741
Rp1742
(dp1743
g13
I01
sg14
F0.3214862974918228
sg15
g1740
sbs(I-2
I19
tp1744
g0
(g9
g2
Ntp1745
Rp1746
(dp1747
g13
I01
sg14
F-0.5786170448421274
sg15
g1744
sbs(I-17
I18
tp1748
g0
(g9
g2
Ntp1749
Rp1750
(dp1751
g13
I01
sg14
F-0.05285751022118751
sg15
g1748
sbs(I19
I0
tp1752
g0
(g9
g2
Ntp1753
Rp1754
(dp1755
g13
I01
sg14
F0.1764642670274088
sg15
g1752
sbs(I-21
I18
tp1756
g0
(g9
g2
Ntp1757
Rp1758
(dp1759
g13
I01
sg14
F1.5741804120781562
sg15
g1756
sbs(I-8
I10
tp1760
g0
(g9
g2
Ntp1761
Rp1762
(dp1763
g13
I01
sg14
F0.0039142115807294904
sg15
g1760
sbs(I-20
I21
tp1764
g0
(g9
g2
Ntp1765
Rp1766
(dp1767
g13
I01
sg14
F-1.208630120061576
sg15
g1764
sbs(I-5
I23
tp1768
g0
(g9
g2
Ntp1769
Rp1770
(dp1771
g13
I01
sg14
F-0.7934230042701658
sg15
g1768
sbs(I-7
I11
tp1772
g0
(g9
g2
Ntp1773
Rp1774
(dp1775
g13
I01
sg14
F1.974830485418301
sg15
g1772
sbs(I-19
I24
tp1776
g0
(g9
g2
Ntp1777
Rp1778
(dp1779
g13
I01
sg14
F0.6763523217793891
sg15
g1776
sbs(I-4
I16
tp1780
g0
(g9
g2
Ntp1781
Rp1782
(dp1783
g13
I01
sg14
F-0.10238820593959824
sg15
g1780
sbs(I-3
I21
tp1784
g0
(g9
g2
Ntp1785
Rp1786
(dp1787
g13
I01
sg14
F-0.10627494948188863
sg15
g1784
sbs(I-5
I13
tp1788
g0
(g9
g2
Ntp1789
Rp1790
(dp1791
g13
I01
sg14
F0.4602113655509157
sg15
g1788
sbs(I-1
I10
tp1792
g0
(g9
g2
Ntp1793
Rp1794
(dp1795
g13
I01
sg14
F0.3412620484335179
sg15
g1792
sbs(I-4
I14
tp1796
g0
(g9
g2
Ntp1797
Rp1798
(dp1799
g13
I01
sg14
F0.24909491028395583
sg15
g1796
sbs(I-3
I15
tp1800
g0
(g9
g2
Ntp1801
Rp1802
(dp1803
g13
I01
sg14
F0.6360095246881121
sg15
g1800
sbs(I-16
I12
tp1804
g0
(g9
g2
Ntp1805
Rp1806
(dp1807
g13
I01
sg14
F0.10377974036305904
sg15
g1804
sbs(I-26
I19
tp1808
g0
(g9
g2
Ntp1809
Rp1810
(dp1811
g13
I01
sg14
F0.8894436384741684
sg15
g1808
sbs(I-10
I22
tp1812
g0
(g9
g2
Ntp1813
Rp1814
(dp1815
g13
I01
sg14
F0.5085119970470859
sg15
g1812
sbs(I-14
I14
tp1816
g0
(g9
g2
Ntp1817
Rp1818
(dp1819
g13
I01
sg14
F0.6337809396269515
sg15
g1816
sbs(I-9
I23
tp1820
g0
(g9
g2
Ntp1821
Rp1822
(dp1823
g13
I01
sg14
F-0.4190137484207596
sg15
g1820
sbs(I-9
I13
tp1824
g0
(g9
g2
Ntp1825
Rp1826
(dp1827
g13
I01
sg14
F0.028575885572676422
sg15
g1824
sbs(I-1
I11
tp1828
g0
(g9
g2
Ntp1829
Rp1830
(dp1831
g13
I01
sg14
F-0.1504526084814734
sg15
g1828
sbs(I19
I9
tp1832
g0
(g9
g2
Ntp1833
Rp1834
(dp1835
g13
I01
sg14
F0.5714902516521785
sg15
g1832
sbs(I-21
I11
tp1836
g0
(g9
g2
Ntp1837
Rp1838
(dp1839
g13
I01
sg14
F1.0189941662168152
sg15
g1836
sbs(I-8
I17
tp1840
g0
(g9
g2
Ntp1841
Rp1842
(dp1843
g13
I01
sg14
F1.3644107413440378
sg15
g1840
sbs(I20
I2
tp1844
g0
(g9
g2
Ntp1845
Rp1846
(dp1847
g13
I01
sg14
F0.48807224193577253
sg15
g1844
sbs(I-20
I12
tp1848
g0
(g9
g2
Ntp1849
Rp1850
(dp1851
g13
I01
sg14
F0.25381288139465336
sg15
g1848
sbs(I-7
I12
tp1852
g0
(g9
g2
Ntp1853
Rp1854
(dp1855
g13
I01
sg14
F0.44092863074209665
sg15
g1852
sbs(I21
I3
tp1856
g0
(g9
g2
Ntp1857
Rp1858
(dp1859
g13
I01
sg14
F1.424656713704412
sg15
g1856
sbs(I-19
I17
tp1860
g0
(g9
g2
Ntp1861
Rp1862
(dp1863
g13
I01
sg14
F1.1698762681640151
sg15
g1860
sbs(I-30
I22
tp1864
g0
(g9
g2
Ntp1865
Rp1866
(dp1867
g13
I01
sg14
F-0.05809822392115807
sg15
g1864
sbs(I-6
I11
tp1868
g0
(g9
g2
Ntp1869
Rp1870
(dp1871
g13
I01
sg14
F-2.2552291431821208
sg15
g1868
sbs(I22
I8
tp1872
g0
(g9
g2
Ntp1873
Rp1874
(dp1875
g13
I01
sg14
F2.0582054326901416
sg15
g1872
sbs(I-2
I13
tp1876
g0
(g9
g2
Ntp1877
Rp1878
(dp1879
g13
I01
sg14
F-0.04990471723607667
sg15
g1876
sbs(I10
I2
tp1880
g0
(g9
g2
Ntp1881
Rp1882
(dp1883
g13
I01
sg14
F0.0746574658339925
sg15
g1880
sbs(I14
I4
tp1884
g0
(g9
g2
Ntp1885
Rp1886
(dp1887
g13
I01
sg14
F0.48424075583955173
sg15
g1884
sbs(I-26
I10
tp1888
g0
(g9
g2
Ntp1889
Rp1890
(dp1891
g13
I01
sg14
F-0.6283703955531645
sg15
g1888
sbs(I-1
I23
tp1892
g0
(g9
g2
Ntp1893
Rp1894
(dp1895
g13
I01
sg14
F0.013753300754872702
sg15
g1892
sbs(I-13
I14
tp1896
g0
(g9
g2
Ntp1897
Rp1898
(dp1899
g13
I01
sg14
F-0.23235586978146489
sg15
g1896
sbs(I15
I1
tp1900
g0
(g9
g2
Ntp1901
Rp1902
(dp1903
g13
I01
sg14
F-0.05969543476429728
sg15
g1900
sbs(I-25
I19
tp1904
g0
(g9
g2
Ntp1905
Rp1906
(dp1907
g13
I01
sg14
F0.44171537763916385
sg15
g1904
sbs(I-11
I12
tp1908
g0
(g9
g2
Ntp1909
Rp1910
(dp1911
g13
I01
sg14
F-0.7639034230751757
sg15
g1908
sbs(I-24
I15
tp1912
g0
(g9
g2
Ntp1913
Rp1914
(dp1915
g13
I01
sg14
F-0.27558931856265734
sg15
g1912
sbs(I-23
I14
tp1916
g0
(g9
g2
Ntp1917
Rp1918
(dp1919
g13
I01
sg14
F0.968060010057386
sg15
g1916
sbs(I-9
I10
tp1920
g0
(g9
g2
Ntp1921
Rp1922
(dp1923
g13
I01
sg14
F0.11432932625889941
sg15
g1920
sbs(I-22
I13
tp1924
g0
(g9
g2
Ntp1925
Rp1926
(dp1927
g13
I01
sg14
F-0.6173291547547778
sg15
g1924
sbs(I-24
I21
tp1928
g0
(g9
g2
Ntp1929
Rp1930
(dp1931
g13
I01
sg14
F1.2012575771609686
sg15
g1928
sbs(I17
I2
tp1932
g0
(g9
g2
Ntp1933
Rp1934
(dp1935
g13
I01
sg14
F0.8668512881598885
sg15
g1932
sbs(I-23
I16
tp1936
g0
(g9
g2
Ntp1937
Rp1938
(dp1939
g13
I01
sg14
F-1.3383149623149364
sg15
g1936
sbs(I-8
I24
tp1940
g0
(g9
g2
Ntp1941
Rp1942
(dp1943
g13
I01
sg14
F-0.5218704726536048
sg15
g1940
sbs(I-18
I15
tp1944
g0
(g9
g2
Ntp1945
Rp1946
(dp1947
g13
I01
sg14
F-0.5789981475872034
sg15
g1944
sbs(I-20
I11
tp1948
g0
(g9
g2
Ntp1949
Rp1950
(dp1951
g13
I01
sg14
F-1.5323035756873729
sg15
g1948
sbs(I-22
I23
tp1952
g0
(g9
g2
Ntp1953
Rp1954
(dp1955
g13
I01
sg14
F0.14338337689135852
sg15
g1952
sbs(I-7
I21
tp1956
g0
(g9
g2
Ntp1957
Rp1958
(dp1959
g13
I01
sg14
F-0.8027574343284718
sg15
g1956
sbs(I-17
I14
tp1960
g0
(g9
g2
Ntp1961
Rp1962
(dp1963
g13
I01
sg14
F-1.4823145013500614
sg15
g1960
sbs(I-19
I10
tp1964
g0
(g9
g2
Ntp1965
Rp1966
(dp1967
g13
I01
sg14
F1.3448782101235945
sg15
g1964
sbs(I-30
I17
tp1968
g0
(g9
g2
Ntp1969
Rp1970
(dp1971
g13
I01
sg14
F-2.717162582577976
sg15
g1968
sbs(I-6
I18
tp1972
g0
(g9
g2
Ntp1973
Rp1974
(dp1975
g13
I01
sg14
F0.4708745323694164
sg15
g1972
sbs(I22
I3
tp1976
g0
(g9
g2
Ntp1977
Rp1978
(dp1979
g13
I01
sg14
F0.3636798139326296
sg15
g1976
sbs(I-29
I12
tp1980
g0
(g9
g2
Ntp1981
Rp1982
(dp1983
g13
I01
sg14
F0.10904937158614252
sg15
g1980
sbs(I-28
I15
tp1984
g0
(g9
g2
Ntp1985
Rp1986
(dp1987
g13
I01
sg14
F0.16647006931651256
sg15
g1984
sbs(I-30
I11
tp1988
g0
(g9
g2
Ntp1989
Rp1990
(dp1991
g13
I01
sg14
F0.4050401190575744
sg15
g1988
sbs(I-27
I14
tp1992
g0
(g9
g2
Ntp1993
Rp1994
(dp1995
g13
I01
sg14
F-2.189836724467808
sg15
g1992
sbs(I-29
I18
tp1996
g0
(g9
g2
Ntp1997
Rp1998
(dp1999
g13
I01
sg14
F0.5330719652244145
sg15
g1996
sbs(I-26
I13
tp2000
g0
(g9
g2
Ntp2001
Rp2002
(dp2003
g13
I01
sg14
F1.2874978626090887
sg15
g2000
sbs(I-28
I21
tp2004
g0
(g9
g2
Ntp2005
Rp2006
(dp2007
g13
I01
sg14
F0.7662983383867874
sg15
g2004
sbs(I-13
I23
tp2008
g0
(g9
g2
Ntp2009
Rp2010
(dp2011
g13
I01
sg14
F0.4042812097106258
sg15
g2008
sbs(I-12
I16
tp2012
g0
(g9
g2
Ntp2013
Rp2014
(dp2015
g13
I01
sg14
F2.330237063311848
sg15
g2012
sbs(I-16
I16
tp2016
g0
(g9
g2
Ntp2017
Rp2018
(dp2019
g13
I01
sg14
F0.4479303960633046
sg15
g2016
sbs(I-11
I21
tp2020
g0
(g9
g2
Ntp2021
Rp2022
(dp2023
g13
I01
sg14
F-0.9367498301363559
sg15
g2020
sbs(I-18
I22
tp2024
g0
(g9
g2
Ntp2025
Rp2026
(dp2027
g13
I01
sg14
F0.13688117949417353
sg15
g2024
sbs(I18
I0
tp2028
g0
(g9
g2
Ntp2029
Rp2030
(dp2031
g13
I01
sg14
F-1.7830014771461569
sg15
g2028
sbs(I-17
I23
tp2032
g0
(g9
g2
Ntp2033
Rp2034
(dp2035
g13
I01
sg14
F1.2364978433067897
sg15
g2032
sbs(I-20
I24
tp2036
g0
(g9
g2
Ntp2037
Rp2038
(dp2039
g13
I01
sg14
F0.6209013998651712
sg15
g2036
sbs(I-5
I16
tp2040
g0
(g9
g2
Ntp2041
Rp2042
(dp2043
g13
I01
sg14
F0.07048924025891479
sg15
g2040
sbs(I23
I3
tp2044
g0
(g9
g2
Ntp2045
Rp2046
(dp2047
g13
I01
sg14
F-0.7350447514566518
sg15
g2044
sbs(I12
I2
tp2048
g0
(g9
g2
Ntp2049
Rp2050
(dp2051
g13
I01
sg14
F0.27480344305051885
sg15
g2048
sbs(I13
I3
tp2052
g0
(g9
g2
Ntp2053
Rp2054
(dp2055
g13
I01
sg14
F-0.2966797366553971
sg15
g2052
sbs(I-27
I17
tp2056
g0
(g9
g2
Ntp2057
Rp2058
(dp2059
g13
I01
sg14
F1.192201546537965
sg15
g2056
sbs(I24
I5
tp2060
g0
(g9
g2
Ntp2061
Rp2062
(dp2063
g13
I01
sg14
F-0.3914312427656139
sg15
g2060
sbs(I-16
I23
tp2064
g0
(g9
g2
Ntp2065
Rp2066
(dp2067
g13
I01
sg14
F0.46947800733863804
sg15
g2064
sbs(I-1
I24
tp2068
g0
(g9
g2
Ntp2069
Rp2070
(dp2071
g13
I01
sg14
F-0.25698871742788904
sg15
g2068
sbs(I-15
I22
tp2072
g0
(g9
g2
Ntp2073
Rp2074
(dp2075
g13
I01
sg14
F-0.19186990474924273
sg15
g2072
sbs(I-14
I21
tp2076
g0
(g9
g2
Ntp2077
Rp2078
(dp2079
g13
I01
sg14
F-0.5912523675310507
sg15
g2076
sbs(I-9
I24
tp2080
g0
(g9
g2
Ntp2081
Rp2082
(dp2083
g13
I01
sg14
F1.3419957624832186
sg15
g2080
sbs(I19
I2
tp2084
g0
(g9
g2
Ntp2085
Rp2086
(dp2087
g13
I01
sg14
F0.1585351784472181
sg15
g2084
sbs(I-21
I20
tp2088
g0
(g9
g2
Ntp2089
Rp2090
(dp2091
g13
I01
sg14
F-0.9465119578833657
sg15
g2088
sbs(I-8
I12
tp2092
g0
(g9
g2
Ntp2093
Rp2094
(dp2095
g13
I01
sg14
F-1.3006841127114623
sg15
g2092
sbs(I20
I5
tp2096
g0
(g9
g2
Ntp2097
Rp2098
(dp2099
g13
I01
sg14
F-0.8026567325413408
sg15
g2096
sbs(I-20
I23
tp2100
g0
(g9
g2
Ntp2101
Rp2102
(dp2103
g13
I01
sg14
F-0.1480860790100495
sg15
g2100
sbs(I-19
I22
tp2104
g0
(g9
g2
Ntp2105
Rp2106
(dp2107
g13
I01
sg14
F-1.44044240696869
sg15
g2104
sbs(I-4
I18
tp2108
g0
(g9
g2
Ntp2109
Rp2110
(dp2111
g13
I01
sg14
F-1.1334748186981194
sg15
g2108
sbs(I-6
I14
tp2112
g0
(g9
g2
Ntp2113
Rp2114
(dp2115
g13
I01
sg14
F1.4083511659641645
sg15
g2112
sbs(I-3
I19
tp2116
g0
(g9
g2
Ntp2117
Rp2118
(dp2119
g13
I01
sg14
F1.461978906133041
sg15
g2116
sbs(I-5
I15
tp2120
g0
(g9
g2
Ntp2121
Rp2122
(dp2123
g13
I01
sg14
F-0.35512420112582177
sg15
g2120
sbs(I-3
I13
tp2124
g0
(g9
g2
Ntp2125
Rp2126
(dp2127
g13
I01
sg14
F-0.6058606472695521
sg15
g2124
sbs(I14
I3
tp2128
g0
(g9
g2
Ntp2129
Rp2130
(dp2131
g13
I01
sg14
F0.3137354260868116
sg15
g2128
sbs(I-16
I14
tp2132
g0
(g9
g2
Ntp2133
Rp2134
(dp2135
g13
I01
sg14
F-0.41505566607082534
sg15
g2132
sbs(I-26
I17
tp2136
g0
(g9
g2
Ntp2137
Rp2138
(dp2139
g13
I01
sg14
F0.5389615870664505
sg15
g2136
sbs(I-2
I18
tp2140
g0
(g9
g2
Ntp2141
Rp2142
(dp2143
g13
I01
sg14
F0.9162028741981033
sg15
g2140
sbs(I-13
I11
tp2144
g0
(g9
g2
Ntp2145
Rp2146
(dp2147
g13
I01
sg14
F0.9100031293702461
sg15
g2144
sbs(I-15
I15
tp2148
g0
(g9
g2
Ntp2149
Rp2150
(dp2151
g13
I01
sg14
F-0.8178696896855876
sg15
g2148
sbs(I-25
I20
tp2152
g0
(g9
g2
Ntp2153
Rp2154
(dp2155
g13
I01
sg14
F0.9773130991359078
sg15
g2152
sbs(I-10
I20
tp2156
g0
(g9
g2
Ntp2157
Rp2158
(dp2159
g13
I01
sg14
F0.325093864230356
sg15
g2156
sbs(I-12
I12
tp2160
g0
(g9
g2
Ntp2161
Rp2162
(dp2163
g13
I01
sg14
F-0.46725474904910685
sg15
g2160
sbs(I-14
I12
tp2164
g0
(g9
g2
Ntp2165
Rp2166
(dp2167
g13
I01
sg14
F-1.5360832263349924
sg15
g2164
sbs(I-9
I17
tp2168
g0
(g9
g2
Ntp2169
Rp2170
(dp2171
g13
I01
sg14
F1.2000717318635463
sg15
g2168
sbs(I-24
I10
tp2172
g0
(g9
g2
Ntp2173
Rp2174
(dp2175
g13
I01
sg14
F0.7617382667428467
sg15
g2172
sbs(I-10
I14
tp2176
g0
(g9
g2
Ntp2177
Rp2178
(dp2179
g13
I01
sg14
F-0.5373969368444971
sg15
g2176
sbs(I-23
I11
tp2180
g0
(g9
g2
Ntp2181
Rp2182
(dp2183
g13
I01
sg14
F-1.0147585229548672
sg15
g2180
sbs(I-9
I15
tp2184
g0
(g9
g2
Ntp2185
Rp2186
(dp2187
g13
I01
sg14
F-0.47783844836997363
sg15
g2184
sbs(I-24
I16
tp2188
g0
(g9
g2
Ntp2189
Rp2190
(dp2191
g13
I01
sg14
F1.2932796587983988
sg15
g2188
sbs(I-21
I13
tp2192
g0
(g9
g2
Ntp2193
Rp2194
(dp2195
g13
I01
sg14
F0.6183302341241877
sg15
g2192
sbs(I-8
I19
tp2196
g0
(g9
g2
Ntp2197
Rp2198
(dp2199
g13
I01
sg14
F-1.325904248418649
sg15
g2196
sbs(I-18
I10
tp2200
g0
(g9
g2
Ntp2201
Rp2202
(dp2203
g13
I01
sg14
F-0.451129856830534
sg15
g2200
sbs(I-20
I14
tp2204
g0
(g9
g2
Ntp2205
Rp2206
(dp2207
g13
I01
sg14
F0.26560590674385054
sg15
g2204
sbs(I-7
I18
tp2208
g0
(g9
g2
Ntp2209
Rp2210
(dp2211
g13
I01
sg14
F-1.2100325202444007
sg15
g2208
sbs(I21
I1
tp2212
g0
(g9
g2
Ntp2213
Rp2214
(dp2215
g13
I01
sg14
F-0.5187745731453403
sg15
g2212
sbs(I-19
I15
tp2216
g0
(g9
g2
Ntp2217
Rp2218
(dp2219
g13
I01
sg14
F0.9052378019178384
sg15
g2216
sbs(I-30
I20
tp2220
g0
(g9
g2
Ntp2221
Rp2222
(dp2223
g13
I01
sg14
F2.0065279642206226
sg15
g2220
sbs(I10
I0
tp2224
g0
(g9
g2
Ntp2225
Rp2226
(dp2227
g13
I01
sg14
F1.1671973347480054
sg15
g2224
sbs(I-30
I14
tp2228
g0
(g9
g2
Ntp2229
Rp2230
(dp2231
g13
I01
sg14
F-1.3861049676345043
sg15
g2228
sbs(I-2
I21
tp2232
g0
(g9
g2
Ntp2233
Rp2234
(dp2235
g13
I01
sg14
F-0.3290590441376343
sg15
g2232
sbs(I-13
I16
tp2236
g0
(g9
g2
Ntp2237
Rp2238
(dp2239
g13
I01
sg14
F-0.8152783567834111
sg15
g2236
sbs(I15
I3
tp2240
g0
(g9
g2
Ntp2241
Rp2242
(dp2243
g13
I01
sg14
F-1.558301111880308
sg15
g2240
sbs(I-25
I13
tp2244
g0
(g9
g2
Ntp2245
Rp2246
(dp2247
g13
I01
sg14
F0.8680388733213208
sg15
g2244
sbs(I-12
I11
tp2248
g0
(g9
g2
Ntp2249
Rp2250
(dp2251
g13
I01
sg14
F-0.9229849278788234
sg15
g2248
sbs(I-11
I10
tp2252
g0
(g9
g2
Ntp2253
Rp2254
(dp2255
g13
I01
sg14
F-0.033413408555669946
sg15
g2252
sbs(I-23
I12
tp2256
g0
(g9
g2
Ntp2257
Rp2258
(dp2259
g13
I01
sg14
F-0.3299653214103292
sg15
g2256
sbs(I-22
I11
tp2260
g0
(g9
g2
Ntp2261
Rp2262
(dp2263
g13
I01
sg14
F-0.5852512410132593
sg15
g2260
sbs(I-24
I23
tp2264
g0
(g9
g2
Ntp2265
Rp2266
(dp2267
g13
I01
sg14
F-1.5884916749589184
sg15
g2264
sbs(I17
I0
tp2268
g0
(g9
g2
Ntp2269
Rp2270
(dp2271
g13
I01
sg14
F0.8726629606684007
sg15
g2268
sbs(I-23
I22
tp2272
g0
(g9
g2
Ntp2273
Rp2274
(dp2275
g13
I01
sg14
F-1.125451556305087
sg15
g2272
sbs(I-18
I13
tp2276
g0
(g9
g2
Ntp2277
Rp2278
(dp2279
g13
I01
sg14
F1.7773716386925045
sg15
g2276
sbs(I18
I7
tp2280
g0
(g9
g2
Ntp2281
Rp2282
(dp2283
g13
I01
sg14
F0.8357313427767389
sg15
g2280
sbs(I-22
I21
tp2284
g0
(g9
g2
Ntp2285
Rp2286
(dp2287
g13
I01
sg14
F0.9063720540381642
sg15
g2284
sbs(I-21
I24
tp2288
g0
(g9
g2
Ntp2289
Rp2290
(dp2291
g13
I01
sg14
F-0.735356457892847
sg15
g2288
sbs(I-6
I16
tp2292
g0
(g9
g2
Ntp2293
Rp2294
(dp2295
g13
I01
sg14
F-0.6891146540482005
sg15
g2292
sbs(I22
I1
tp2296
g0
(g9
g2
Ntp2297
Rp2298
(dp2299
g13
I01
sg14
F0.280474547604392
sg15
g2296
sbs(I-29
I14
tp2300
g0
(g9
g2
Ntp2301
Rp2302
(dp2303
g13
I01
sg14
F-0.21083417736752189
sg15
g2300
sbs(I23
I4
tp2304
g0
(g9
g2
Ntp2305
Rp2306
(dp2307
g13
I01
sg14
F-1.0043191107478164
sg15
g2304
sbs(I-27
I12
tp2308
g0
(g9
g2
Ntp2309
Rp2310
(dp2311
g13
I01
sg14
F0.4968617511057064
sg15
g2308
sbs(I-29
I20
tp2312
g0
(g9
g2
Ntp2313
Rp2314
(dp2315
g13
I01
sg14
F-0.5886971491989846
sg15
g2312
sbs(I12
I5
tp2316
g0
(g9
g2
Ntp2317
Rp2318
(dp2319
g13
I01
sg14
F3.1155608370636414
sg15
g2316
sbs(I-28
I23
tp2320
g0
(g9
g2
Ntp2321
Rp2322
(dp2323
g13
I01
sg14
F0.0004757879140294559
sg15
g2320
sbs(I15
I8
tp2324
g0
(g9
g2
Ntp2325
Rp2326
(dp2327
g13
I01
sg14
F0.10917049253607307
sg15
g2324
sbs(I-25
I10
tp2328
g0
(g9
g2
Ntp2329
Rp2330
(dp2331
g13
I01
sg14
F1.206993410617247
sg15
g2328
sbs(I-27
I22
tp2332
g0
(g9
g2
Ntp2333
Rp2334
(dp2335
g13
I01
sg14
F0.37624118380398675
sg15
g2332
sbs(I-12
I18
tp2336
g0
(g9
g2
Ntp2337
Rp2338
(dp2339
g13
I01
sg14
F-0.26975653959920326
sg15
g2336
sbs(I24
I0
tp2340
g0
(g9
g2
Ntp2341
Rp2342
(dp2343
g13
I01
sg14
F-1.1449194518247832
sg15
g2340
sbs(I-16
I18
tp2344
g0
(g9
g2
Ntp2345
Rp2346
(dp2347
g13
I01
sg14
F-0.31283542328628455
sg15
g2344
sbs(I-11
I19
tp2348
g0
(g9
g2
Ntp2349
Rp2350
(dp2351
g13
I01
sg14
F0.3571457958423501
sg15
g2348
sbs(I-15
I19
tp2352
g0
(g9
g2
Ntp2353
Rp2354
(dp2355
g13
I01
sg14
F-0.9203374205065511
sg15
g2352
sbs(I-10
I24
tp2356
g0
(g9
g2
Ntp2357
Rp2358
(dp2359
g13
I01
sg14
F-0.9134709782764194
sg15
g2356
sbs(I-14
I24
tp2360
g0
(g9
g2
Ntp2361
Rp2362
(dp2363
g13
I01
sg14
F-0.27911706588198776
sg15
g2360
sbs(I-18
I20
tp2364
g0
(g9
g2
Ntp2365
Rp2366
(dp2367
g13
I01
sg14
F0.6575173909535912
sg15
g2364
sbs(I-17
I17
tp2368
g0
(g9
g2
Ntp2369
Rp2370
(dp2371
g13
I01
sg14
F-0.8315126442908416
sg15
g2368
sbs(I-21
I17
tp2372
g0
(g9
g2
Ntp2373
Rp2374
(dp2375
g13
I01
sg14
F-0.4164039949072692
sg15
g2372
sbs(I-5
I18
tp2376
g0
(g9
g2
Ntp2377
Rp2378
(dp2379
g13
I01
sg14
F0.6417502386404342
sg15
g2376
sbs(I-4
I21
tp2380
g0
(g9
g2
Ntp2381
Rp2382
(dp2383
g13
I01
sg14
F1.1894556711369557
sg15
g2380
sbs(I-3
I24
tp2384
g0
(g9
g2
Ntp2385
Rp2386
(dp2387
g13
I01
sg14
F0.1960625542209815
sg15
g2384
sbs(I13
I1
tp2388
g0
(g9
g2
Ntp2389
Rp2390
(dp2391
g13
I01
sg14
F-0.7574752748292163
sg15
g2388
sbs(I24
I7
tp2392
g0
(g9
g2
Ntp2393
Rp2394
(dp2395
g13
I01
sg14
F0.10356456449527285
sg15
g2392
sbs(I-15
I20
tp2396
g0
(g9
g2
Ntp2397
Rp2398
(dp2399
g13
I01
sg14
F-0.6123777998427375
sg15
g2396
sbs(I-10
I19
tp2400
g0
(g9
g2
Ntp2401
Rp2402
(dp2403
g13
I01
sg14
F0.9021469899699885
sg15
g2400
sbs(I-14
I19
tp2404
g0
(g9
g2
Ntp2405
Rp2406
(dp2407
g13
I01
sg14
F-0.850900610580932
sg15
g2404
sbs(I-2
I20
tp2408
g0
(g9
g2
Ntp2409
Rp2410
(dp2411
g13
I01
sg14
F-0.06051739187941295
sg15
g2408
sbssS'nodes'
p2412
(dp2413
I0
g0
(cneat.genes
DefaultNodeGene
p2414
g2
Ntp2415
Rp2416
(dp2417
S'activation'
p2418
S'sigmoid'
p2419
sS'bias'
p2420
F0.1618070590764799
sS'response'
p2421
F1.0
sg15
I0
sS'aggregation'
p2422
S'sum'
p2423
sbsI1
g0
(g2414
g2
Ntp2424
Rp2425
(dp2426
g2418
g2419
sg2420
F0.7657071230819851
sg2421
F1.0
sg15
I1
sg2422
g2423
sbsI2
g0
(g2414
g2
Ntp2427
Rp2428
(dp2429
g2418
g2419
sg2420
F-0.3588975130669703
sg2421
F1.0
sg15
I2
sg2422
g2423
sbsI3
g0
(g2414
g2
Ntp2430
Rp2431
(dp2432
g2418
g2419
sg2420
F-1.5606459984941026
sg2421
F1.0
sg15
I3
sg2422
g2423
sbsI4
g0
(g2414
g2
Ntp2433
Rp2434
(dp2435
g2418
g2419
sg2420
F0.2767001541633309
sg2421
F1.0
sg15
I4
sg2422
g2423
sbsI5
g0
(g2414
g2
Ntp2436
Rp2437
(dp2438
g2418
g2419
sg2420
F-3.743441768150757
sg2421
F1.0
sg15
I5
sg2422
g2423
sbsI6
g0
(g2414
g2
Ntp2439
Rp2440
(dp2441
g2418
g2419
sg2420
F-2.3661447626750256
sg2421
F1.0
sg15
I6
sg2422
g2423
sbsI7
g0
(g2414
g2
Ntp2442
Rp2443
(dp2444
g2418
g2419
sg2420
F-0.700586513341183
sg2421
F1.0
sg15
I7
sg2422
g2423
sbsI8
g0
(g2414
g2
Ntp2445
Rp2446
(dp2447
g2418
g2419
sg2420
F0.23588119289699547
sg2421
F1.0
sg15
I8
sg2422
g2423
sbsI9
g0
(g2414
g2
Ntp2448
Rp2449
(dp2450
g2418
g2419
sg2420
F1.9599418186941924
sg2421
F1.0
sg15
I9
sg2422
g2423
sbsI10
g0
(g2414
g2
Ntp2451
Rp2452
(dp2453
g2418
g2419
sg2420
F-0.07597628181055133
sg2421
F1.0
sg15
I10
sg2422
g2423
sbsI11
g0
(g2414
g2
Ntp2454
Rp2455
(dp2456
g2418
g2419
sg2420
F-3.2952478066499227
sg2421
F1.0
sg15
I11
sg2422
g2423
sbsI12
g0
(g2414
g2
Ntp2457
Rp2458
(dp2459
g2418
g2419
sg2420
F0.37482738949901145
sg2421
F1.0
sg15
I12
sg2422
g2423
sbsI13
g0
(g2414
g2
Ntp2460
Rp2461
(dp2462
g2418
g2419
sg2420
F0.030914328994553982
sg2421
F1.0
sg15
I13
sg2422
g2423
sbsI14
g0
(g2414
g2
Ntp2463
Rp2464
(dp2465
g2418
g2419
sg2420
F-0.07402695576155807
sg2421
F1.0
sg15
I14
sg2422
g2423
sbsI15
g0
(g2414
g2
Ntp2466
Rp2467
(dp2468
g2418
g2419
sg2420
F0.9096529999676671
sg2421
F1.0
sg15
I15
sg2422
g2423
sbsI16
g0
(g2414
g2
Ntp2469
Rp2470
(dp2471
g2418
g2419
sg2420
F-0.7553909976450452
sg2421
F1.0
sg15
I16
sg2422
g2423
sbsI17
g0
(g2414
g2
Ntp2472
Rp2473
(dp2474
g2418
g2419
sg2420
F1.6076181765110298
sg2421
F1.0
sg15
I17
sg2422
g2423
sbsI18
g0
(g2414
g2
Ntp2475
Rp2476
(dp2477
g2418
g2419
sg2420
F-0.6486815232974203
sg2421
F1.0
sg15
I18
sg2422
g2423
sbsI19
g0
(g2414
g2
Ntp2478
Rp2479
(dp2480
g2418
g2419
sg2420
F-2.108403237946516
sg2421
F1.0
sg15
I19
sg2422
g2423
sbsI20
g0
(g2414
g2
Ntp2481
Rp2482
(dp2483
g2418
g2419
sg2420
F0.7544778087910481
sg2421
F1.0
sg15
I20
sg2422
g2423
sbsI21
g0
(g2414
g2
Ntp2484
Rp2485
(dp2486
g2418
g2419
sg2420
F1.0860596480502769
sg2421
F1.0
sg15
I21
sg2422
g2423
sbsI22
g0
(g2414
g2
Ntp2487
Rp2488
(dp2489
g2418
g2419
sg2420
F-0.54530767319606
sg2421
F1.0
sg15
I22
sg2422
g2423
sbsI23
g0
(g2414
g2
Ntp2490
Rp2491
(dp2492
g2418
g2419
sg2420
F-1.2930525329468412
sg2421
F1.0
sg15
I23
sg2422
g2423
sbsI24
g0
(g2414
g2
Ntp2493
Rp2494
(dp2495
g2418
g2419
sg2420
F0.931209571786471
sg2421
F1.0
sg15
I24
sg2422
g2423
sbssg15
I18
sS'fitness'
p2496
I1
sb.