ccopy_reg
_reconstructor
p0
(cneat.genome
DefaultGenome
p1
c__builtin__
object
p2
Ntp3
Rp4
(dp5
S'connections'
p6
(dp7
(I16
I9
tp8
g0
(cneat.genes
DefaultConnectionGene
p9
g2
Ntp10
Rp11
(dp12
S'enabled'
p13
I01
sS'weight'
p14
F0.6915458550496637
sS'key'
p15
g8
sbs(I19
I4
tp16
g0
(g9
g2
Ntp17
Rp18
(dp19
g13
I01
sg14
F0.07820564274931843
sg15
g16
sbs(I-21
I22
tp20
g0
(g9
g2
Ntp21
Rp22
(dp23
g13
I01
sg14
F0.86453708654814
sg15
g20
sbs(I-8
I14
tp24
g0
(g9
g2
Ntp25
Rp26
(dp27
g13
I01
sg14
F-0.3329354380254481
sg15
g24
sbs(I20
I7
tp28
g0
(g9
g2
Ntp29
Rp30
(dp31
g13
I01
sg14
F-0.43515381687522375
sg15
g28
sbs(I-20
I17
tp32
g0
(g9
g2
Ntp33
Rp34
(dp35
g13
I01
sg14
F-0.21779827834291263
sg15
g32
sbs(I-7
I15
tp36
g0
(g9
g2
Ntp37
Rp38
(dp39
g13
I01
sg14
F-1.2737792714443936
sg15
g36
sbs(I21
I6
tp40
g0
(g9
g2
Ntp41
Rp42
(dp43
g13
I01
sg14
F0.15629013739614162
sg15
g40
sbs(I-19
I20
tp44
g0
(g9
g2
Ntp45
Rp46
(dp47
g13
I01
sg14
F0.15052866462288936
sg15
g44
sbs(I-6
I12
tp48
g0
(g9
g2
Ntp49
Rp50
(dp51
g13
I01
sg14
F-0.22801241991633633
sg15
g48
sbs(I-3
I17
tp52
g0
(g9
g2
Ntp53
Rp54
(dp55
g13
I01
sg14
F0.19835574188017616
sg15
g52
sbs(I-1
I14
tp56
g0
(g9
g2
Ntp57
Rp58
(dp59
g13
I01
sg14
F0.11589903316370836
sg15
g56
sbs(I10
I7
tp60
g0
(g9
g2
Ntp61
Rp62
(dp63
g13
I01
sg14
F0.06917386278773079
sg15
g60
sbs(I-4
I10
tp64
g0
(g9
g2
Ntp65
Rp66
(dp67
g13
I01
sg14
F1.428753461456325
sg15
g64
sbs(I-27
I24
tp68
g0
(g9
g2
Ntp69
Rp70
(dp71
g13
I01
sg14
F0.7954784213562701
sg15
g68
sbs(I-3
I11
tp72
g0
(g9
g2
Ntp73
Rp74
(dp75
g13
I01
sg14
F1.4610547672568273
sg15
g72
sbs(I14
I1
tp76
g0
(g9
g2
Ntp77
Rp78
(dp79
g13
I01
sg14
F-0.26594658896874196
sg15
g76
sbs(I-26
I23
tp80
g0
(g9
g2
Ntp81
Rp82
(dp83
g13
I01
sg14
F0.2410282827604467
sg15
g80
sbs(I-1
I16
tp84
g0
(g9
g2
Ntp85
Rp86
(dp87
g13
I01
sg14
F-0.775836818283222
sg15
g84
sbs(I-13
I13
tp88
g0
(g9
g2
Ntp89
Rp90
(dp91
g13
I01
sg14
F0.08056590998855478
sg15
g88
sbs(I15
I4
tp92
g0
(g9
g2
Ntp93
Rp94
(dp95
g13
I01
sg14
F-0.4135554068403807
sg15
g92
sbs(I-15
I13
tp96
g0
(g9
g2
Ntp97
Rp98
(dp99
g13
I01
sg14
F0.45066099847045193
sg15
g96
sbs(I-25
I22
tp100
g0
(g9
g2
Ntp101
Rp102
(dp103
g13
I01
sg14
F-0.3801851180133196
sg15
g100
sbs(I-12
I14
tp104
g0
(g9
g2
Ntp105
Rp106
(dp107
g13
I01
sg14
F-0.11019660075606183
sg15
g104
sbs(I-14
I10
tp108
g0
(g9
g2
Ntp109
Rp110
(dp111
g13
I01
sg14
F1.4103542313834578
sg15
g108
sbs(I-9
I19
tp112
g0
(g9
g2
Ntp113
Rp114
(dp115
g13
I01
sg14
F0.8111264034480384
sg15
g112
sbs(I-11
I15
tp116
g0
(g9
g2
Ntp117
Rp118
(dp119
g13
I01
sg14
F-0.5131659082956235
sg15
g116
sbs(I-2
I12
tp120
g0
(g9
g2
Ntp121
Rp122
(dp123
g13
I01
sg14
F-2.020339899420216
sg15
g120
sbs(I-10
I12
tp124
g0
(g9
g2
Ntp125
Rp126
(dp127
g13
I01
sg14
F0.20696854958422814
sg15
g124
sbs(I-22
I14
tp128
g0
(g9
g2
Ntp129
Rp130
(dp131
g13
I01
sg14
F2.033625783195681
sg15
g128
sbs(I-24
I18
tp132
g0
(g9
g2
Ntp133
Rp134
(dp135
g13
I01
sg14
F0.9358015562655377
sg15
g132
sbs(I11
I0
tp136
g0
(g9
g2
Ntp137
Rp138
(dp139
g13
I01
sg14
F0.17591005684295583
sg15
g136
sbs(I-21
I15
tp140
g0
(g9
g2
Ntp141
Rp142
(dp143
g13
I01
sg14
F0.415463705926219
sg15
g140
sbs(I-23
I19
tp144
g0
(g9
g2
Ntp145
Rp146
(dp147
g13
I01
sg14
F-0.6845889333752602
sg15
g144
sbs(I-8
I21
tp148
g0
(g9
g2
Ntp149
Rp150
(dp151
g13
I01
sg14
F1.7621588213239368
sg15
g148
sbs(I-7
I16
tp152
g0
(g9
g2
Ntp153
Rp154
(dp155
g13
I01
sg14
F-0.19655467753482916
sg15
g152
sbs(I-17
I13
tp156
g0
(g9
g2
Ntp157
Rp158
(dp159
g13
I01
sg14
F0.2870920635432462
sg15
g156
sbs(I-19
I13
tp160
g0
(g9
g2
Ntp161
Rp162
(dp163
g13
I01
sg14
F1.4734062943105137
sg15
g160
sbs(I-30
I18
tp164
g0
(g9
g2
Ntp165
Rp166
(dp167
g13
I01
sg14
F1.2337547057074125
sg15
g164
sbs(I-6
I23
tp168
g0
(g9
g2
Ntp169
Rp170
(dp171
g13
I01
sg14
F-0.9965629058473965
sg15
g168
sbs(I-29
I11
tp172
g0
(g9
g2
Ntp173
Rp174
(dp175
g13
I01
sg14
F0.4187360776937894
sg15
g172
sbs(I23
I9
tp176
g0
(g9
g2
Ntp177
Rp178
(dp179
g13
I01
sg14
F-0.12742200238642346
sg15
g176
sbs(I-28
I12
tp180
g0
(g9
g2
Ntp181
Rp182
(dp183
g13
I01
sg14
F-0.025468677732849852
sg15
g180
sbs(I-30
I12
tp184
g0
(g9
g2
Ntp185
Rp186
(dp187
g13
I01
sg14
F-1.6827550646077971
sg15
g184
sbs(I-29
I17
tp188
g0
(g9
g2
Ntp189
Rp190
(dp191
g13
I01
sg14
F-0.5339321280245719
sg15
g188
sbs(I14
I8
tp192
g0
(g9
g2
Ntp193
Rp194
(dp195
g13
I01
sg14
F0.20436426478277359
sg15
g192
sbs(I-26
I14
tp196
g0
(g9
g2
Ntp197
Rp198
(dp199
g13
I01
sg14
F0.5413298244123362
sg15
g196
sbs(I-13
I18
tp200
g0
(g9
g2
Ntp201
Rp202
(dp203
g13
I01
sg14
F-0.7501927711767885
sg15
g200
sbs(I-25
I15
tp204
g0
(g9
g2
Ntp205
Rp206
(dp207
g13
I01
sg14
F1.5098101039402891
sg15
g204
sbs(I-12
I21
tp208
g0
(g9
g2
Ntp209
Rp210
(dp211
g13
I01
sg14
F-0.7210404971721291
sg15
g208
sbs(I-15
I24
tp212
g0
(g9
g2
Ntp213
Rp214
(dp215
g13
I01
sg14
F-0.3794128039418347
sg15
g212
sbs(I-2
I22
tp216
g0
(g9
g2
Ntp217
Rp218
(dp219
g13
I01
sg14
F0.04547656746482899
sg15
g216
sbs(I16
I7
tp220
g0
(g9
g2
Ntp221
Rp222
(dp223
g13
I01
sg14
F-0.45568422813957254
sg15
g220
sbs(I17
I6
tp224
g0
(g9
g2
Ntp225
Rp226
(dp227
g13
I01
sg14
F-1.0284807324585346
sg15
g224
sbs(I-23
I20
tp228
g0
(g9
g2
Ntp229
Rp230
(dp231
g13
I01
sg14
F-1.5167663022547972
sg15
g228
sbs(I-18
I19
tp232
g0
(g9
g2
Ntp233
Rp234
(dp235
g13
I01
sg14
F0.48892486531255225
sg15
g232
sbs(I18
I5
tp236
g0
(g9
g2
Ntp237
Rp238
(dp239
g13
I01
sg14
F1.439114765059009
sg15
g236
sbs(I16
I4
tp240
g0
(g9
g2
Ntp241
Rp242
(dp243
g13
I01
sg14
F-0.036502780113019
sg15
g240
sbs(I-22
I19
tp244
g0
(g9
g2
Ntp245
Rp246
(dp247
g13
I01
sg14
F0.5953159975334448
sg15
g244
sbs(I-17
I10
tp248
g0
(g9
g2
Ntp249
Rp250
(dp251
g13
I01
sg14
F-0.7270969834060422
sg15
g248
sbs(I22
I7
tp252
g0
(g9
g2
Ntp253
Rp254
(dp255
g13
I01
sg14
F1.6090324126099356
sg15
g252
sbs(I12
I9
tp256
g0
(g9
g2
Ntp257
Rp258
(dp259
g13
I01
sg14
F-0.691763830594341
sg15
g256
sbs(I23
I6
tp260
g0
(g9
g2
Ntp261
Rp262
(dp263
g13
I01
sg14
F1.453106823730691
sg15
g260
sbs(I-28
I11
tp264
g0
(g9
g2
Ntp265
Rp266
(dp267
g13
I01
sg14
F0.5784209429477426
sg15
g264
sbs(I-4
I24
tp268
g0
(g9
g2
Ntp269
Rp270
(dp271
g13
I01
sg14
F1.1817881217716573
sg15
g268
sbs(I-27
I10
tp272
g0
(g9
g2
Ntp273
Rp274
(dp275
g13
I01
sg14
F0.5724290402208623
sg15
g272
sbs(I-29
I22
tp276
g0
(g9
g2
Ntp277
Rp278
(dp279
g13
I01
sg14
F-0.6618609689373345
sg15
g276
sbs(I10
I8
tp280
g0
(g9
g2
Ntp281
Rp282
(dp283
g13
I01
sg14
F-2.2196683678475684
sg15
g280
sbs(I12
I7
tp284
g0
(g9
g2
Ntp285
Rp286
(dp287
g13
I01
sg14
F0.6196882460993104
sg15
g284
sbs(I-28
I17
tp288
g0
(g9
g2
Ntp289
Rp290
(dp291
g13
I01
sg14
F0.1718426734843988
sg15
g288
sbs(I13
I6
tp292
g0
(g9
g2
Ntp293
Rp294
(dp295
g13
I01
sg14
F-1.8848790691859707
sg15
g292
sbs(I-27
I20
tp296
g0
(g9
g2
Ntp297
Rp298
(dp299
g13
I01
sg14
F1.0609518504862328
sg15
g296
sbs(I24
I2
tp300
g0
(g9
g2
Ntp301
Rp302
(dp303
g13
I01
sg14
F0.14049866417596404
sg15
g300
sbs(I-16
I20
tp304
g0
(g9
g2
Ntp305
Rp306
(dp307
g13
I01
sg14
F1.383613601117076
sg15
g304
sbs(I-11
I17
tp308
g0
(g9
g2
Ntp309
Rp310
(dp311
g13
I01
sg14
F1.3072825359005014
sg15
g308
sbs(I-15
I17
tp312
g0
(g9
g2
Ntp313
Rp314
(dp315
g13
I01
sg14
F-0.7546672934888196
sg15
g312
sbs(I-14
I22
tp316
g0
(g9
g2
Ntp317
Rp318
(dp319
g13
I01
sg14
F0.02580454504355466
sg15
g316
sbs(I-2
I14
tp320
g0
(g9
g2
Ntp321
Rp322
(dp323
g13
I01
sg14
F1.1770878130112312
sg15
g320
sbs(I-17
I19
tp324
g0
(g9
g2
Ntp325
Rp326
(dp327
g13
I01
sg14
F-0.3404257894039349
sg15
g324
sbs(I19
I1
tp328
g0
(g9
g2
Ntp329
Rp330
(dp331
g13
I01
sg14
F-0.6693240481814834
sg15
g328
sbs(I-21
I19
tp332
g0
(g9
g2
Ntp333
Rp334
(dp335
g13
I01
sg14
F-0.2712840639887301
sg15
g332
sbs(I-20
I20
tp336
g0
(g9
g2
Ntp337
Rp338
(dp339
g13
I01
sg14
F-1.1300923383884405
sg15
g336
sbs(I-5
I20
tp340
g0
(g9
g2
Ntp341
Rp342
(dp343
g13
I01
sg14
F-0.7375911494797402
sg15
g340
sbs(I-4
I23
tp344
g0
(g9
g2
Ntp345
Rp346
(dp347
g13
I01
sg14
F-1.0707649159737769
sg15
g344
sbs(I-3
I22
tp348
g0
(g9
g2
Ntp349
Rp350
(dp351
g13
I01
sg14
F0.9975114891075091
sg15
g348
sbs(I-5
I10
tp352
g0
(g9
g2
Ntp353
Rp354
(dp355
g13
I01
sg14
F-1.4452975145898168
sg15
g352
sbs(I-28
I24
tp356
g0
(g9
g2
Ntp357
Rp358
(dp359
g13
I01
sg14
F-0.3400366044787976
sg15
g356
sbs(I-4
I13
tp360
g0
(g9
g2
Ntp361
Rp362
(dp363
g13
I01
sg14
F-0.4135779644572649
sg15
g360
sbs(I24
I9
tp364
g0
(g9
g2
Ntp365
Rp366
(dp367
g13
I01
sg14
F-1.3151897830462227
sg15
g364
sbs(I-16
I11
tp368
g0
(g9
g2
Ntp369
Rp370
(dp371
g13
I01
sg14
F-1.5881340525078014
sg15
g368
sbs(I-26
I18
tp372
g0
(g9
g2
Ntp373
Rp374
(dp375
g13
I01
sg14
F0.22822309740826102
sg15
g372
sbs(I21
I9
tp376
g0
(g9
g2
Ntp377
Rp378
(dp379
g13
I01
sg14
F-0.09840391860307646
sg15
g376
sbs(I-15
I10
tp380
g0
(g9
g2
Ntp381
Rp382
(dp383
g13
I01
sg14
F0.6980434779050058
sg15
g380
sbs(I-10
I17
tp384
g0
(g9
g2
Ntp385
Rp386
(dp387
g13
I01
sg14
F-0.10798793738817049
sg15
g384
sbs(I-14
I17
tp388
g0
(g9
g2
Ntp389
Rp390
(dp391
g13
I01
sg14
F1.1123944159791566
sg15
g388
sbs(I-9
I20
tp392
g0
(g9
g2
Ntp393
Rp394
(dp395
g13
I01
sg14
F0.5556484071345691
sg15
g392
sbs(I-10
I11
tp396
g0
(g9
g2
Ntp397
Rp398
(dp399
g13
I01
sg14
F-0.48638441393064663
sg15
g396
sbs(I-2
I16
tp400
g0
(g9
g2
Ntp401
Rp402
(dp403
g13
I01
sg14
F-0.7749786604410994
sg15
g400
sbs(I-17
I24
tp404
g0
(g9
g2
Ntp405
Rp406
(dp407
g13
I01
sg14
F-2.3961699873289666
sg15
g404
sbs(I19
I6
tp408
g0
(g9
g2
Ntp409
Rp410
(dp411
g13
I01
sg14
F1.3899877505641112
sg15
g408
sbs(I-8
I16
tp412
g0
(g9
g2
Ntp413
Rp414
(dp415
g13
I01
sg14
F-0.23078950025971992
sg15
g412
sbs(I20
I1
tp416
g0
(g9
g2
Ntp417
Rp418
(dp419
g13
I01
sg14
F-0.31333667032544216
sg15
g416
sbs(I-20
I19
tp420
g0
(g9
g2
Ntp421
Rp422
(dp423
g13
I01
sg14
F1.009583404124544
sg15
g420
sbs(I16
I2
tp424
g0
(g9
g2
Ntp425
Rp426
(dp427
g13
I01
sg14
F0.03134100422096978
sg15
g424
sbs(I-7
I13
tp428
g0
(g9
g2
Ntp429
Rp430
(dp431
g13
I01
sg14
F-0.10958873225399031
sg15
g428
sbs(I21
I4
tp432
g0
(g9
g2
Ntp433
Rp434
(dp435
g13
I01
sg14
F-0.24713231568481817
sg15
g432
sbs(I-19
I18
tp436
g0
(g9
g2
Ntp437
Rp438
(dp439
g13
I01
sg14
F0.3019688255776272
sg15
g436
sbs(I-6
I10
tp440
g0
(g9
g2
Ntp441
Rp442
(dp443
g13
I01
sg14
F0.6694090162490393
sg15
g440
sbs(I-1
I12
tp444
g0
(g9
g2
Ntp445
Rp446
(dp447
g13
I01
sg14
F0.026438323779616146
sg15
g444
sbs(I10
I5
tp448
g0
(g9
g2
Ntp449
Rp450
(dp451
g13
I01
sg14
F0.4736715452354717
sg15
g448
sbs(I11
I8
tp452
g0
(g9
g2
Ntp453
Rp454
(dp455
g13
I01
sg14
F1.0307946289855419
sg15
g452
sbs(I14
I7
tp456
g0
(g9
g2
Ntp457
Rp458
(dp459
g13
I01
sg14
F-0.48983807177154304
sg15
g456
sbs(I-26
I21
tp460
g0
(g9
g2
Ntp461
Rp462
(dp463
g13
I01
sg14
F-0.013482638341698473
sg15
g460
sbs(I-1
I22
tp464
g0
(g9
g2
Ntp465
Rp466
(dp467
g13
I01
sg14
F1.5791739345155278
sg15
g464
sbs(I-13
I15
tp468
g0
(g9
g2
Ntp469
Rp470
(dp471
g13
I01
sg14
F0.928268018187021
sg15
g468
sbs(I15
I6
tp472
g0
(g9
g2
Ntp473
Rp474
(dp475
g13
I01
sg14
F0.3573294063109311
sg15
g472
sbs(I-25
I16
tp476
g0
(g9
g2
Ntp477
Rp478
(dp479
g13
I01
sg14
F0.2627142005183053
sg15
g476
sbs(I-16
I24
tp480
g0
(g9
g2
Ntp481
Rp482
(dp483
g13
I01
sg14
F0.6213035664852402
sg15
g480
sbs(I-11
I13
tp484
g0
(g9
g2
Ntp485
Rp486
(dp487
g13
I01
sg14
F-1.544699967102932
sg15
g484
sbs(I-24
I14
tp488
g0
(g9
g2
Ntp489
Rp490
(dp491
g13
I01
sg14
F0.11146306622802418
sg15
g488
sbs(I-23
I15
tp492
g0
(g9
g2
Ntp493
Rp494
(dp495
g13
I01
sg14
F0.3303617439323346
sg15
g492
sbs(I-9
I11
tp496
g0
(g9
g2
Ntp497
Rp498
(dp499
g13
I01
sg14
F-0.9722052114501365
sg15
g496
sbs(I20
I8
tp500
g0
(g9
g2
Ntp501
Rp502
(dp503
g13
I01
sg14
F1.3991487517979349
sg15
g500
sbs(I-22
I12
tp504
g0
(g9
g2
Ntp505
Rp506
(dp507
g13
I01
sg14
F0.22836876743075543
sg15
g504
sbs(I-24
I20
tp508
g0
(g9
g2
Ntp509
Rp510
(dp511
g13
I01
sg14
F0.35813097916710046
sg15
g508
sbs(I17
I3
tp512
g0
(g9
g2
Ntp513
Rp514
(dp515
g13
I01
sg14
F0.5801334632090025
sg15
g512
sbs(I-23
I17
tp516
g0
(g9
g2
Ntp517
Rp518
(dp519
g13
I01
sg14
F-0.0941897218781886
sg15
g516
sbs(I-8
I23
tp520
g0
(g9
g2
Ntp521
Rp522
(dp523
g13
I01
sg14
F-0.714721832792022
sg15
g520
sbs(I-18
I14
tp524
g0
(g9
g2
Ntp525
Rp526
(dp527
g13
I01
sg14
F-1.0269986175585486
sg15
g524
sbs(I-20
I10
tp528
g0
(g9
g2
Ntp529
Rp530
(dp531
g13
I01
sg14
F-2.0800370863496003
sg15
g528
sbs(I-22
I22
tp532
g0
(g9
g2
Ntp533
Rp534
(dp535
g13
I01
sg14
F-0.013266206949115551
sg15
g532
sbs(I-7
I22
tp536
g0
(g9
g2
Ntp537
Rp538
(dp539
g13
I01
sg14
F-0.5308508537743076
sg15
g536
sbs(I-17
I15
tp540
g0
(g9
g2
Ntp541
Rp542
(dp543
g13
I01
sg14
F0.5918246530734786
sg15
g540
sbs(I-19
I11
tp544
g0
(g9
g2
Ntp545
Rp546
(dp547
g13
I01
sg14
F-0.5717838100355012
sg15
g544
sbs(I-30
I16
tp548
g0
(g9
g2
Ntp549
Rp550
(dp551
g13
I01
sg14
F0.6619391209741939
sg15
g548
sbs(I-6
I21
tp552
g0
(g9
g2
Ntp553
Rp554
(dp555
g13
I01
sg14
F-0.9552446165349704
sg15
g552
sbs(I22
I2
tp556
g0
(g9
g2
Ntp557
Rp558
(dp559
g13
I01
sg14
F-0.16734081054350208
sg15
g556
sbs(I-29
I13
tp560
g0
(g9
g2
Ntp561
Rp562
(dp563
g13
I01
sg14
F-0.022040892730366985
sg15
g560
sbs(I-5
I24
tp564
g0
(g9
g2
Ntp565
Rp566
(dp567
g13
I01
sg14
F0.4570497713396409
sg15
g564
sbs(I-24
I12
tp568
g0
(g9
g2
Ntp569
Rp570
(dp571
g13
I01
sg14
F-0.7664015052069756
sg15
g568
sbs(I-28
I14
tp572
g0
(g9
g2
Ntp573
Rp574
(dp575
g13
I01
sg14
F-0.08048850110548156
sg15
g572
sbs(I-30
I10
tp576
g0
(g9
g2
Ntp577
Rp578
(dp579
g13
I01
sg14
F0.23835819642133158
sg15
g576
sbs(I-27
I15
tp580
g0
(g9
g2
Ntp581
Rp582
(dp583
g13
I01
sg14
F-0.22730146485091934
sg15
g580
sbs(I-29
I19
tp584
g0
(g9
g2
Ntp585
Rp586
(dp587
g13
I01
sg14
F0.5980576982560735
sg15
g584
sbs(I-26
I12
tp588
g0
(g9
g2
Ntp589
Rp590
(dp591
g13
I01
sg14
F-0.37574601923920925
sg15
g588
sbs(I-28
I20
tp592
g0
(g9
g2
Ntp593
Rp594
(dp595
g13
I01
sg14
F0.02148549295401352
sg15
g592
sbs(I-13
I20
tp596
g0
(g9
g2
Ntp597
Rp598
(dp599
g13
I01
sg14
F-0.07969978150230089
sg15
g596
sbs(I-12
I23
tp600
g0
(g9
g2
Ntp601
Rp602
(dp603
g13
I01
sg14
F0.4352013672206971
sg15
g600
sbs(I-11
I22
tp604
g0
(g9
g2
Ntp605
Rp606
(dp607
g13
I01
sg14
F-0.594284974792671
sg15
g604
sbs(I11
I1
tp608
g0
(g9
g2
Ntp609
Rp610
(dp611
g13
I01
sg14
F0.6949449932271752
sg15
g608
sbs(I13
I9
tp612
g0
(g9
g2
Ntp613
Rp614
(dp615
g13
I01
sg14
F1.7522658554373671
sg15
g612
sbs(I17
I4
tp616
g0
(g9
g2
Ntp617
Rp618
(dp619
g13
I01
sg14
F-0.5061309654355703
sg15
g616
sbs(I-18
I17
tp620
g0
(g9
g2
Ntp621
Rp622
(dp623
g13
I01
sg14
F0.7435087959843419
sg15
g620
sbs(I-1
I18
tp624
g0
(g9
g2
Ntp625
Rp626
(dp627
g13
I01
sg14
F-0.5107685088036513
sg15
g624
sbs(I18
I3
tp628
g0
(g9
g2
Ntp629
Rp630
(dp631
g13
I01
sg14
F-0.7771423321433385
sg15
g628
sbs(I-22
I17
tp632
g0
(g9
g2
Ntp633
Rp634
(dp635
g13
I01
sg14
F-0.364955581665969
sg15
g632
sbs(I-17
I20
tp636
g0
(g9
g2
Ntp637
Rp638
(dp639
g13
I01
sg14
F-0.43942566932914306
sg15
g636
sbs(I22
I5
tp640
g0
(g9
g2
Ntp641
Rp642
(dp643
g13
I01
sg14
F-0.473338290412167
sg15
g640
sbs(I-5
I17
tp644
g0
(g9
g2
Ntp645
Rp646
(dp647
g13
I01
sg14
F0.7384077847340191
sg15
g644
sbs(I23
I0
tp648
g0
(g9
g2
Ntp649
Rp650
(dp651
g13
I01
sg14
F2.4351472422902063
sg15
g648
sbs(I11
I6
tp652
g0
(g9
g2
Ntp653
Rp654
(dp655
g13
I01
sg14
F0.019217828071096402
sg15
g652
sbs(I-29
I24
tp656
g0
(g9
g2
Ntp657
Rp658
(dp659
g13
I01
sg14
F-2.0739026140985377
sg15
g656
sbs(I12
I1
tp660
g0
(g9
g2
Ntp661
Rp662
(dp663
g13
I01
sg14
F-1.0488123627773294
sg15
g660
sbs(I-28
I19
tp664
g0
(g9
g2
Ntp665
Rp666
(dp667
g13
I01
sg14
F0.44987796556027787
sg15
g664
sbs(I13
I4
tp668
g0
(g9
g2
Ntp669
Rp670
(dp671
g13
I01
sg14
F-0.5949218922155528
sg15
g668
sbs(I-27
I18
tp672
g0
(g9
g2
Ntp673
Rp674
(dp675
g13
I01
sg14
F0.5869368561684942
sg15
g672
sbs(I24
I4
tp676
g0
(g9
g2
Ntp677
Rp678
(dp679
g13
I01
sg14
F0.03489070945764717
sg15
g676
sbs(I-16
I22
tp680
g0
(g9
g2
Ntp681
Rp682
(dp683
g13
I01
sg14
F0.8630687514920921
sg15
g680
sbs(I-15
I23
tp684
g0
(g9
g2
Ntp685
Rp686
(dp687
g13
I01
sg14
F-1.9508883274510025
sg15
g684
sbs(I-14
I20
tp688
g0
(g9
g2
Ntp689
Rp690
(dp691
g13
I01
sg14
F1.011546773612503
sg15
g688
sbs(I12
I8
tp692
g0
(g9
g2
Ntp693
Rp694
(dp695
g13
I01
sg14
F1.3320626941869587
sg15
g692
sbs(I-18
I24
tp696
g0
(g9
g2
Ntp697
Rp698
(dp699
g13
I01
sg14
F-0.13574011742276748
sg15
g696
sbs(I-22
I24
tp700
g0
(g9
g2
Ntp701
Rp702
(dp703
g13
I01
sg14
F2.1472148165103198
sg15
g700
sbs(I-2
I10
tp704
g0
(g9
g2
Ntp705
Rp706
(dp707
g13
I01
sg14
F-1.0241587042327867
sg15
g704
sbs(I19
I3
tp708
g0
(g9
g2
Ntp709
Rp710
(dp711
g13
I01
sg14
F-0.5718225736856439
sg15
g708
sbs(I-21
I21
tp712
g0
(g9
g2
Ntp713
Rp714
(dp715
g13
I01
sg14
F0.16052585256523388
sg15
g712
sbs(I-8
I11
tp716
g0
(g9
g2
Ntp717
Rp718
(dp719
g13
I01
sg14
F0.566261308787008
sg15
g716
sbs(I20
I4
tp720
g0
(g9
g2
Ntp721
Rp722
(dp723
g13
I01
sg14
F1.5292181344598315
sg15
g720
sbs(I-20
I22
tp724
g0
(g9
g2
Ntp725
Rp726
(dp727
g13
I01
sg14
F-1.3845067931415869
sg15
g724
sbs(I-5
I22
tp728
g0
(g9
g2
Ntp729
Rp730
(dp731
g13
I01
sg14
F-1.6839060654498492
sg15
g728
sbs(I-7
I10
tp732
g0
(g9
g2
Ntp733
Rp734
(dp735
g13
I01
sg14
F-0.415180343331269
sg15
g732
sbs(I-19
I23
tp736
g0
(g9
g2
Ntp737
Rp738
(dp739
g13
I01
sg14
F-1.0571273867903188
sg15
g736
sbs(I-4
I17
tp740
g0
(g9
g2
Ntp741
Rp742
(dp743
g13
I01
sg14
F-0.16971105290477817
sg15
g740
sbs(I-3
I20
tp744
g0
(g9
g2
Ntp745
Rp746
(dp747
g13
I01
sg14
F-1.0913033258163982
sg15
g744
sbs(I-5
I12
tp748
g0
(g9
g2
Ntp749
Rp750
(dp751
g13
I01
sg14
F0.35392654225827597
sg15
g748
sbs(I-2
I11
tp752
g0
(g9
g2
Ntp753
Rp754
(dp755
g13
I01
sg14
F-1.502994479749517
sg15
g752
sbs(I-4
I15
tp756
g0
(g9
g2
Ntp757
Rp758
(dp759
g13
I01
sg14
F-0.10398982359604726
sg15
g756
sbs(I-3
I14
tp760
g0
(g9
g2
Ntp761
Rp762
(dp763
g13
I01
sg14
F-0.37108694026182926
sg15
g760
sbs(I14
I2
tp764
g0
(g9
g2
Ntp765
Rp766
(dp767
g13
I01
sg14
F2.7123638205310985
sg15
g764
sbs(I-16
I13
tp768
g0
(g9
g2
Ntp769
Rp770
(dp771
g13
I01
sg14
F0.51097331703574
sg15
g768
sbs(I-26
I16
tp772
g0
(g9
g2
Ntp773
Rp774
(dp775
g13
I01
sg14
F-1.1219925746699502
sg15
g772
sbs(I-11
I24
tp776
g0
(g9
g2
Ntp777
Rp778
(dp779
g13
I01
sg14
F1.4849001823060803
sg15
g776
sbs(I-25
I21
tp780
g0
(g9
g2
Ntp781
Rp782
(dp783
g13
I01
sg14
F0.8891437183043567
sg15
g780
sbs(I-10
I23
tp784
g0
(g9
g2
Ntp785
Rp786
(dp787
g13
I01
sg14
F0.7719839899707323
sg15
g784
sbs(I-14
I15
tp788
g0
(g9
g2
Ntp789
Rp790
(dp791
g13
I01
sg14
F-1.2935214728915607
sg15
g788
sbs(I-9
I22
tp792
g0
(g9
g2
Ntp793
Rp794
(dp795
g13
I01
sg14
F1.0205643540956795
sg15
g792
sbs(I-9
I12
tp796
g0
(g9
g2
Ntp797
Rp798
(dp799
g13
I01
sg14
F1.688840392394322
sg15
g796
sbs(I19
I8
tp800
g0
(g9
g2
Ntp801
Rp802
(dp803
g13
I01
sg14
F1.3175031636333432
sg15
g800
sbs(I-21
I10
tp804
g0
(g9
g2
Ntp805
Rp806
(dp807
g13
I01
sg14
F-0.1134555675433805
sg15
g804
sbs(I11
I4
tp808
g0
(g9
g2
Ntp809
Rp810
(dp811
g13
I01
sg14
F0.16883391472322262
sg15
g808
sbs(I-8
I18
tp812
g0
(g9
g2
Ntp813
Rp814
(dp815
g13
I01
sg14
F0.822088766034194
sg15
g812
sbs(I20
I3
tp816
g0
(g9
g2
Ntp817
Rp818
(dp819
g13
I01
sg14
F-1.176380520879478
sg15
g816
sbs(I-20
I13
tp820
g0
(g9
g2
Ntp821
Rp822
(dp823
g13
I01
sg14
F0.8326052011218198
sg15
g820
sbs(I-7
I19
tp824
g0
(g9
g2
Ntp825
Rp826
(dp827
g13
I01
sg14
F-1.4058759413984516
sg15
g824
sbs(I21
I2
tp828
g0
(g9
g2
Ntp829
Rp830
(dp831
g13
I01
sg14
F-1.3946088676109443
sg15
g828
sbs(I-19
I16
tp832
g0
(g9
g2
Ntp833
Rp834
(dp835
g13
I01
sg14
F0.8525103249560377
sg15
g832
sbs(I-30
I23
tp836
g0
(g9
g2
Ntp837
Rp838
(dp839
g13
I01
sg14
F-0.06795995266450156
sg15
g836
sbs(I22
I9
tp840
g0
(g9
g2
Ntp841
Rp842
(dp843
g13
I01
sg14
F0.6759822382433803
sg15
g840
sbs(I10
I3
tp844
g0
(g9
g2
Ntp845
Rp846
(dp847
g13
I01
sg14
F0.9659274727370533
sg15
g844
sbs(I14
I5
tp848
g0
(g9
g2
Ntp849
Rp850
(dp851
g13
I01
sg14
F-0.4880465693809846
sg15
g848
sbs(I-26
I11
tp852
g0
(g9
g2
Ntp853
Rp854
(dp855
g13
I01
sg14
F-0.599826505590256
sg15
g852
sbs(I-1
I20
tp856
g0
(g9
g2
Ntp857
Rp858
(dp859
g13
I01
sg14
F-0.27397489289538585
sg15
g856
sbs(I-13
I17
tp860
g0
(g9
g2
Ntp861
Rp862
(dp863
g13
I01
sg14
F1.3053854108097531
sg15
g860
sbs(I15
I0
tp864
g0
(g9
g2
Ntp865
Rp866
(dp867
g13
I01
sg14
F-1.8289498879506512
sg15
g864
sbs(I-25
I18
tp868
g0
(g9
g2
Ntp869
Rp870
(dp871
g13
I01
sg14
F0.9242731469191573
sg15
g868
sbs(I-12
I10
tp872
g0
(g9
g2
Ntp873
Rp874
(dp875
g13
I01
sg14
F0.6616657754720525
sg15
g872
sbs(I-11
I11
tp876
g0
(g9
g2
Ntp877
Rp878
(dp879
g13
I01
sg14
F-0.7744392685089081
sg15
g876
sbs(I-23
I13
tp880
g0
(g9
g2
Ntp881
Rp882
(dp883
g13
I01
sg14
F1.0175538968234308
sg15
g880
sbs(I-22
I10
tp884
g0
(g9
g2
Ntp885
Rp886
(dp887
g13
I01
sg14
F0.21935524986821175
sg15
g884
sbs(I-24
I22
tp888
g0
(g9
g2
Ntp889
Rp890
(dp891
g13
I01
sg14
F-0.008405880630304454
sg15
g888
sbs(I17
I1
tp892
g0
(g9
g2
Ntp893
Rp894
(dp895
g13
I01
sg14
F-0.15161122898136056
sg15
g892
sbs(I-23
I23
tp896
g0
(g9
g2
Ntp897
Rp898
(dp899
g13
I01
sg14
F-1.4926183111080151
sg15
g896
sbs(I-18
I12
tp900
g0
(g9
g2
Ntp901
Rp902
(dp903
g13
I01
sg14
F1.0946212292410809
sg15
g900
sbs(I18
I6
tp904
g0
(g9
g2
Ntp905
Rp906
(dp907
g13
I01
sg14
F-0.319843541008094
sg15
g904
sbs(I-22
I20
tp908
g0
(g9
g2
Ntp909
Rp910
(dp911
g13
I01
sg14
F-0.13871076989919884
sg15
g908
sbs(I-7
I20
tp912
g0
(g9
g2
Ntp913
Rp914
(dp915
g13
I01
sg14
F0.3873248852505958
sg15
g912
sbs(I-6
I19
tp916
g0
(g9
g2
Ntp917
Rp918
(dp919
g13
I01
sg14
F0.28665732858988713
sg15
g916
sbs(I22
I0
tp920
g0
(g9
g2
Ntp921
Rp922
(dp923
g13
I01
sg14
F-0.9421865947450235
sg15
g920
sbs(I-29
I15
tp924
g0
(g9
g2
Ntp925
Rp926
(dp927
g13
I01
sg14
F1.3032068391071743
sg15
g924
sbs(I23
I5
tp928
g0
(g9
g2
Ntp929
Rp930
(dp931
g13
I01
sg14
F-0.0636682538320249
sg15
g928
sbs(I-27
I13
tp932
g0
(g9
g2
Ntp933
Rp934
(dp935
g13
I01
sg14
F-1.3903065494348934
sg15
g932
sbs(I-29
I21
tp936
g0
(g9
g2
Ntp937
Rp938
(dp939
g13
I01
sg14
F-0.8432623459642301
sg15
g936
sbs(I12
I4
tp940
g0
(g9
g2
Ntp941
Rp942
(dp943
g13
I01
sg14
F0.30158983403920075
sg15
g940
sbs(I-28
I22
tp944
g0
(g9
g2
Ntp945
Rp946
(dp947
g13
I01
sg14
F-0.6007383816674694
sg15
g944
sbs(I-13
I22
tp948
g0
(g9
g2
Ntp949
Rp950
(dp951
g13
I01
sg14
F-0.6327757414673152
sg15
g948
sbs(I15
I9
tp952
g0
(g9
g2
Ntp953
Rp954
(dp955
g13
I01
sg14
F-0.8726601696537969
sg15
g952
sbs(I-25
I11
tp956
g0
(g9
g2
Ntp957
Rp958
(dp959
g13
I01
sg14
F-1.7852928500868062
sg15
g956
sbs(I-27
I23
tp960
g0
(g9
g2
Ntp961
Rp962
(dp963
g13
I01
sg14
F0.2853301402829145
sg15
g960
sbs(I-12
I17
tp964
g0
(g9
g2
Ntp965
Rp966
(dp967
g13
I01
sg14
F0.6063194270278778
sg15
g964
sbs(I-16
I17
tp968
g0
(g9
g2
Ntp969
Rp970
(dp971
g13
I01
sg14
F-0.17632815238279975
sg15
g968
sbs(I-11
I20
tp972
g0
(g9
g2
Ntp973
Rp974
(dp975
g13
I01
sg14
F-0.4027020861200373
sg15
g972
sbs(I18
I9
tp976
g0
(g9
g2
Ntp977
Rp978
(dp979
g13
I01
sg14
F-1.4498798826410824
sg15
g976
sbs(I16
I1
tp980
g0
(g9
g2
Ntp981
Rp982
(dp983
g13
I01
sg14
F0.6338244054745921
sg15
g980
sbs(I-23
I24
tp984
g0
(g9
g2
Ntp985
Rp986
(dp987
g13
I01
sg14
F-1.990069293918945
sg15
g984
sbs(I-18
I23
tp988
g0
(g9
g2
Ntp989
Rp990
(dp991
g13
I01
sg14
F-0.012704993834792566
sg15
g988
sbs(I18
I1
tp992
g0
(g9
g2
Ntp993
Rp994
(dp995
g13
I01
sg14
F0.11623190748532714
sg15
g992
sbs(I-17
I22
tp996
g0
(g9
g2
Ntp997
Rp998
(dp999
g13
I01
sg14
F1.4352580003705184
sg15
g996
sbs(I-5
I19
tp1000
g0
(g9
g2
Ntp1001
Rp1002
(dp1003
g13
I01
sg14
F-0.07542091204193198
sg15
g1000
sbs(I23
I2
tp1004
g0
(g9
g2
Ntp1005
Rp1006
(dp1007
g13
I01
sg14
F0.6402948046026039
sg15
g1004
sbs(I-4
I20
tp1008
g0
(g9
g2
Ntp1009
Rp1010
(dp1011
g13
I01
sg14
F-0.6082903486978979
sg15
g1008
sbs(I12
I3
tp1012
g0
(g9
g2
Ntp1013
Rp1014
(dp1015
g13
I01
sg14
F-0.6449286034783658
sg15
g1012
sbs(I13
I2
tp1016
g0
(g9
g2
Ntp1017
Rp1018
(dp1019
g13
I01
sg14
F-1.07949140532436
sg15
g1016
sbs(I-27
I16
tp1020
g0
(g9
g2
Ntp1021
Rp1022
(dp1023
g13
I01
sg14
F1.5139063815754816
sg15
g1020
sbs(I-12
I24
tp1024
g0
(g9
g2
Ntp1025
Rp1026
(dp1027
g13
I01
sg14
F-0.5450493178615573
sg15
g1024
sbs(I24
I6
tp1028
g0
(g9
g2
Ntp1029
Rp1030
(dp1031
g13
I01
sg14
F-1.334911514914165
sg15
g1028
sbs(I-15
I21
tp1032
g0
(g9
g2
Ntp1033
Rp1034
(dp1035
g13
I01
sg14
F-0.182622779859018
sg15
g1032
sbs(I-10
I18
tp1036
g0
(g9
g2
Ntp1037
Rp1038
(dp1039
g13
I01
sg14
F1.023160318369306
sg15
g1036
sbs(I-14
I18
tp1040
g0
(g9
g2
Ntp1041
Rp1042
(dp1043
g13
I01
sg14
F0.9483101977566439
sg15
g1040
sbs(I17
I9
tp1044
g0
(g9
g2
Ntp1045
Rp1046
(dp1047
g13
I01
sg14
F-1.9033790822697352
sg15
g1044
sbs(I16
I8
tp1048
g0
(g9
g2
Ntp1049
Rp1050
(dp1051
g13
I01
sg14
F-0.10790041401647583
sg15
g1048
sbs(I19
I5
tp1052
g0
(g9
g2
Ntp1053
Rp1054
(dp1055
g13
I01
sg14
F-0.5077473177986989
sg15
g1052
sbs(I-21
I23
tp1056
g0
(g9
g2
Ntp1057
Rp1058
(dp1059
g13
I01
sg14
F-0.38936723536471174
sg15
g1056
sbs(I-8
I13
tp1060
g0
(g9
g2
Ntp1061
Rp1062
(dp1063
g13
I01
sg14
F-0.20846286847109297
sg15
g1060
sbs(I20
I6
tp1064
g0
(g9
g2
Ntp1065
Rp1066
(dp1067
g13
I01
sg14
F0.43286528893520865
sg15
g1064
sbs(I-20
I16
tp1068
g0
(g9
g2
Ntp1069
Rp1070
(dp1071
g13
I01
sg14
F0.40767092863877014
sg15
g1068
sbs(I21
I7
tp1072
g0
(g9
g2
Ntp1073
Rp1074
(dp1075
g13
I01
sg14
F-1.1518853676856935
sg15
g1072
sbs(I-19
I21
tp1076
g0
(g9
g2
Ntp1077
Rp1078
(dp1079
g13
I01
sg14
F0.3447045931064803
sg15
g1076
sbs(I-4
I19
tp1080
g0
(g9
g2
Ntp1081
Rp1082
(dp1083
g13
I01
sg14
F-1.2769022580370712
sg15
g1080
sbs(I-6
I15
tp1084
g0
(g9
g2
Ntp1085
Rp1086
(dp1087
g13
I01
sg14
F0.2128333737899012
sg15
g1084
sbs(I-3
I18
tp1088
g0
(g9
g2
Ntp1089
Rp1090
(dp1091
g13
I01
sg14
F-0.5595248852665754
sg15
g1088
sbs(I-5
I14
tp1092
g0
(g9
g2
Ntp1093
Rp1094
(dp1095
g13
I01
sg14
F0.3164672818988876
sg15
g1092
sbs(I10
I6
tp1096
g0
(g9
g2
Ntp1097
Rp1098
(dp1099
g13
I01
sg14
F0.04287423042501496
sg15
g1096
sbs(I-3
I12
tp1100
g0
(g9
g2
Ntp1101
Rp1102
(dp1103
g13
I01
sg14
F-0.3451777332644879
sg15
g1100
sbs(I14
I0
tp1104
g0
(g9
g2
Ntp1105
Rp1106
(dp1107
g13
I01
sg14
F0.047429371268089875
sg15
g1104
sbs(I-16
I15
tp1108
g0
(g9
g2
Ntp1109
Rp1110
(dp1111
g13
I01
sg14
F0.7317640569346852
sg15
g1108
sbs(I-26
I22
tp1112
g0
(g9
g2
Ntp1113
Rp1114
(dp1115
g13
I01
sg14
F-1.0975344750278193
sg15
g1112
sbs(I-1
I19
tp1116
g0
(g9
g2
Ntp1117
Rp1118
(dp1119
g13
I01
sg14
F0.10671603496790491
sg15
g1116
sbs(I-13
I10
tp1120
g0
(g9
g2
Ntp1121
Rp1122
(dp1123
g13
I01
sg14
F-0.2849263058605929
sg15
g1120
sbs(I15
I5
tp1124
g0
(g9
g2
Ntp1125
Rp1126
(dp1127
g13
I01
sg14
F-1.5246629323869214
sg15
g1124
sbs(I-15
I14
tp1128
g0
(g9
g2
Ntp1129
Rp1130
(dp1131
g13
I01
sg14
F-0.8077220132864602
sg15
g1128
sbs(I-25
I23
tp1132
g0
(g9
g2
Ntp1133
Rp1134
(dp1135
g13
I01
sg14
F-0.7927582298114494
sg15
g1132
sbs(I-10
I21
tp1136
g0
(g9
g2
Ntp1137
Rp1138
(dp1139
g13
I01
sg14
F0.30057081119783746
sg15
g1136
sbs(I-12
I13
tp1140
g0
(g9
g2
Ntp1141
Rp1142
(dp1143
g13
I01
sg14
F0.38359438211169156
sg15
g1140
sbs(I-14
I13
tp1144
g0
(g9
g2
Ntp1145
Rp1146
(dp1147
g13
I01
sg14
F0.6125066034739621
sg15
g1144
sbs(I-9
I16
tp1148
g0
(g9
g2
Ntp1149
Rp1150
(dp1151
g13
I01
sg14
F0.34134552261569456
sg15
g1148
sbs(I-1
I21
tp1152
g0
(g9
g2
Ntp1153
Rp1154
(dp1155
g13
I01
sg14
F-0.2537015932776629
sg15
g1152
sbs(I-24
I11
tp1156
g0
(g9
g2
Ntp1157
Rp1158
(dp1159
g13
I01
sg14
F-1.5140514532807499
sg15
g1156
sbs(I-10
I15
tp1160
g0
(g9
g2
Ntp1161
Rp1162
(dp1163
g13
I01
sg14
F0.6285556341460765
sg15
g1160
sbs(I-23
I10
tp1164
g0
(g9
g2
Ntp1165
Rp1166
(dp1167
g13
I01
sg14
F1.5435836349265755
sg15
g1164
sbs(I-9
I14
tp1168
g0
(g9
g2
Ntp1169
Rp1170
(dp1171
g13
I01
sg14
F1.1179676156025329
sg15
g1168
sbs(I-24
I17
tp1172
g0
(g9
g2
Ntp1173
Rp1174
(dp1175
g13
I01
sg14
F1.8124441420314117
sg15
g1172
sbs(I-21
I12
tp1176
g0
(g9
g2
Ntp1177
Rp1178
(dp1179
g13
I01
sg14
F-0.34881221073312085
sg15
g1176
sbs(I-8
I20
tp1180
g0
(g9
g2
Ntp1181
Rp1182
(dp1183
g13
I01
sg14
F-0.2994866191600109
sg15
g1180
sbs(I-18
I11
tp1184
g0
(g9
g2
Ntp1185
Rp1186
(dp1187
g13
I01
sg14
F1.5409433287221905
sg15
g1184
sbs(I-20
I15
tp1188
g0
(g9
g2
Ntp1189
Rp1190
(dp1191
g13
I01
sg14
F-0.36473899162344964
sg15
g1188
sbs(I-7
I17
tp1192
g0
(g9
g2
Ntp1193
Rp1194
(dp1195
g13
I01
sg14
F0.29559449356300194
sg15
g1192
sbs(I21
I0
tp1196
g0
(g9
g2
Ntp1197
Rp1198
(dp1199
g13
I01
sg14
F-0.4989105804085446
sg15
g1196
sbs(I-19
I14
tp1200
g0
(g9
g2
Ntp1201
Rp1202
(dp1203
g13
I01
sg14
F0.2085397352583168
sg15
g1200
sbs(I-30
I21
tp1204
g0
(g9
g2
Ntp1205
Rp1206
(dp1207
g13
I01
sg14
F0.10683700242650356
sg15
g1204
sbs(I-6
I22
tp1208
g0
(g9
g2
Ntp1209
Rp1210
(dp1211
g13
I01
sg14
F-0.5817637645051646
sg15
g1208
sbs(I10
I1
tp1212
g0
(g9
g2
Ntp1213
Rp1214
(dp1215
g13
I01
sg14
F1.2444665451113721
sg15
g1212
sbs(I-30
I15
tp1216
g0
(g9
g2
Ntp1217
Rp1218
(dp1219
g13
I01
sg14
F1.3219625338283598
sg15
g1216
sbs(I-13
I19
tp1220
g0
(g9
g2
Ntp1221
Rp1222
(dp1223
g13
I01
sg14
F-0.7293610430504414
sg15
g1220
sbs(I15
I2
tp1224
g0
(g9
g2
Ntp1225
Rp1226
(dp1227
g13
I01
sg14
F0.4494344471768496
sg15
g1224
sbs(I-25
I12
tp1228
g0
(g9
g2
Ntp1229
Rp1230
(dp1231
g13
I01
sg14
F-1.1484617838761508
sg15
g1228
sbs(I-12
I20
tp1232
g0
(g9
g2
Ntp1233
Rp1234
(dp1235
g13
I01
sg14
F-0.3492823505451264
sg15
g1232
sbs(I-1
I13
tp1236
g0
(g9
g2
Ntp1237
Rp1238
(dp1239
g13
I01
sg14
F0.5309734418521955
sg15
g1236
sbs(I11
I5
tp1240
g0
(g9
g2
Ntp1241
Rp1242
(dp1243
g13
I01
sg14
F-1.2227368847289515
sg15
g1240
sbs(I16
I6
tp1244
g0
(g9
g2
Ntp1245
Rp1246
(dp1247
g13
I01
sg14
F-0.3195054181281587
sg15
g1244
sbs(I-24
I24
tp1248
g0
(g9
g2
Ntp1249
Rp1250
(dp1251
g13
I01
sg14
F0.7744941750347002
sg15
g1248
sbs(I17
I7
tp1252
g0
(g9
g2
Ntp1253
Rp1254
(dp1255
g13
I01
sg14
F0.0350933936287122
sg15
g1252
sbs(I-23
I21
tp1256
g0
(g9
g2
Ntp1257
Rp1258
(dp1259
g13
I01
sg14
F0.3486047758798045
sg15
g1256
sbs(I-18
I18
tp1260
g0
(g9
g2
Ntp1261
Rp1262
(dp1263
g13
I01
sg14
F1.6276573326839587
sg15
g1260
sbs(I18
I4
tp1264
g0
(g9
g2
Ntp1265
Rp1266
(dp1267
g13
I01
sg14
F0.6549065423589764
sg15
g1264
sbs(I-22
I18
tp1268
g0
(g9
g2
Ntp1269
Rp1270
(dp1271
g13
I01
sg14
F-1.235551206897224
sg15
g1268
sbs(I-17
I11
tp1272
g0
(g9
g2
Ntp1273
Rp1274
(dp1275
g13
I01
sg14
F-0.34856779012444145
sg15
g1272
sbs(I21
I8
tp1276
g0
(g9
g2
Ntp1277
Rp1278
(dp1279
g13
I01
sg14
F1.4331016643254164
sg15
g1276
sbs(I-6
I17
tp1280
g0
(g9
g2
Ntp1281
Rp1282
(dp1283
g13
I01
sg14
F-1.1231303411641744
sg15
g1280
sbs(I22
I6
tp1284
g0
(g9
g2
Ntp1285
Rp1286
(dp1287
g13
I01
sg14
F0.24805624581759497
sg15
g1284
sbs(I23
I7
tp1288
g0
(g9
g2
Ntp1289
Rp1290
(dp1291
g13
I01
sg14
F-1.3860106454470231
sg15
g1288
sbs(I-28
I10
tp1292
g0
(g9
g2
Ntp1293
Rp1294
(dp1295
g13
I01
sg14
F1.4142486523668947
sg15
g1292
sbs(I-27
I11
tp1296
g0
(g9
g2
Ntp1297
Rp1298
(dp1299
g13
I01
sg14
F2.2521403294500066
sg15
g1296
sbs(I11
I3
tp1300
g0
(g9
g2
Ntp1301
Rp1302
(dp1303
g13
I01
sg14
F-0.1452879849685147
sg15
g1300
sbs(I-29
I23
tp1304
g0
(g9
g2
Ntp1305
Rp1306
(dp1307
g13
I01
sg14
F1.5460867534292606
sg15
g1304
sbs(I12
I6
tp1308
g0
(g9
g2
Ntp1309
Rp1310
(dp1311
g13
I01
sg14
F-0.4231252843570394
sg15
g1308
sbs(I-28
I16
tp1312
g0
(g9
g2
Ntp1313
Rp1314
(dp1315
g13
I01
sg14
F0.6955145661386687
sg15
g1312
sbs(I-13
I24
tp1316
g0
(g9
g2
Ntp1317
Rp1318
(dp1319
g13
I01
sg14
F0.18955002569959614
sg15
g1316
sbs(I13
I7
tp1320
g0
(g9
g2
Ntp1321
Rp1322
(dp1323
g13
I01
sg14
F0.6140200559957661
sg15
g1320
sbs(I-27
I21
tp1324
g0
(g9
g2
Ntp1325
Rp1326
(dp1327
g13
I01
sg14
F0.4784781315322778
sg15
g1324
sbs(I-12
I19
tp1328
g0
(g9
g2
Ntp1329
Rp1330
(dp1331
g13
I01
sg14
F-0.025040207102289613
sg15
g1328
sbs(I24
I1
tp1332
g0
(g9
g2
Ntp1333
Rp1334
(dp1335
g13
I01
sg14
F-0.2823851096847027
sg15
g1332
sbs(I-16
I19
tp1336
g0
(g9
g2
Ntp1337
Rp1338
(dp1339
g13
I01
sg14
F-0.3550072330352157
sg15
g1336
sbs(I-11
I18
tp1340
g0
(g9
g2
Ntp1341
Rp1342
(dp1343
g13
I01
sg14
F-1.1439472059046387
sg15
g1340
sbs(I-15
I18
tp1344
g0
(g9
g2
Ntp1345
Rp1346
(dp1347
g13
I01
sg14
F0.0876859642729229
sg15
g1344
sbs(I-2
I23
tp1348
g0
(g9
g2
Ntp1349
Rp1350
(dp1351
g13
I01
sg14
F-0.7969784804756014
sg15
g1348
sbs(I-18
I21
tp1352
g0
(g9
g2
Ntp1353
Rp1354
(dp1355
g13
I01
sg14
F-2.292984852216502
sg15
g1352
sbs(I16
I5
tp1356
g0
(g9
g2
Ntp1357
Rp1358
(dp1359
g13
I01
sg14
F-1.1643998930156991
sg15
g1356
sbs(I-17
I16
tp1360
g0
(g9
g2
Ntp1361
Rp1362
(dp1363
g13
I01
sg14
F-0.6944019802808418
sg15
g1360
sbs(I-21
I16
tp1364
g0
(g9
g2
Ntp1365
Rp1366
(dp1367
g13
I01
sg14
F-0.6860226583129209
sg15
g1364
sbs(I-6
I24
tp1368
g0
(g9
g2
Ntp1369
Rp1370
(dp1371
g13
I01
sg14
F-0.5854555207517177
sg15
g1368
sbs(I-5
I21
tp1372
g0
(g9
g2
Ntp1373
Rp1374
(dp1375
g13
I01
sg14
F1.0868099798282653
sg15
g1372
sbs(I-4
I22
tp1376
g0
(g9
g2
Ntp1377
Rp1378
(dp1379
g13
I01
sg14
F0.6910508730418521
sg15
g1376
sbs(I-3
I23
tp1380
g0
(g9
g2
Ntp1381
Rp1382
(dp1383
g13
I01
sg14
F-1.5367126077000286
sg15
g1380
sbs(I-5
I11
tp1384
g0
(g9
g2
Ntp1385
Rp1386
(dp1387
g13
I01
sg14
F-1.4188517651988364
sg15
g1384
sbs(I-4
I12
tp1388
g0
(g9
g2
Ntp1389
Rp1390
(dp1391
g13
I01
sg14
F-0.021583525036118094
sg15
g1388
sbs(I13
I0
tp1392
g0
(g9
g2
Ntp1393
Rp1394
(dp1395
g13
I01
sg14
F0.28251836293401483
sg15
g1392
sbs(I18
I8
tp1396
g0
(g9
g2
Ntp1397
Rp1398
(dp1399
g13
I01
sg14
F0.13928196583675753
sg15
g1396
sbs(I16
I0
tp1400
g0
(g9
g2
Ntp1401
Rp1402
(dp1403
g13
I01
sg14
F-1.3885812719775437
sg15
g1400
sbs(I24
I8
tp1404
g0
(g9
g2
Ntp1405
Rp1406
(dp1407
g13
I01
sg14
F1.4914722493727828
sg15
g1404
sbs(I-16
I10
tp1408
g0
(g9
g2
Ntp1409
Rp1410
(dp1411
g13
I01
sg14
F-0.5679146388908397
sg15
g1408
sbs(I-15
I11
tp1412
g0
(g9
g2
Ntp1413
Rp1414
(dp1415
g13
I01
sg14
F1.4713218844056168
sg15
g1412
sbs(I-25
I24
tp1416
g0
(g9
g2
Ntp1417
Rp1418
(dp1419
g13
I01
sg14
F0.14942586704115507
sg15
g1416
sbs(I-10
I16
tp1420
g0
(g9
g2
Ntp1421
Rp1422
(dp1423
g13
I01
sg14
F1.643205144315692
sg15
g1420
sbs(I-14
I16
tp1424
g0
(g9
g2
Ntp1425
Rp1426
(dp1427
g13
I01
sg14
F-1.1001524924279324
sg15
g1424
sbs(I-9
I21
tp1428
g0
(g9
g2
Ntp1429
Rp1430
(dp1431
g13
I01
sg14
F3.037206031518343
sg15
g1428
sbs(I-2
I15
tp1432
g0
(g9
g2
Ntp1433
Rp1434
(dp1435
g13
I01
sg14
F0.5099290486840905
sg15
g1432
sbs(I-10
I10
tp1436
g0
(g9
g2
Ntp1437
Rp1438
(dp1439
g13
I01
sg14
F0.5619039512377192
sg15
g1436
sbs(I19
I7
tp1440
g0
(g9
g2
Ntp1441
Rp1442
(dp1443
g13
I01
sg14
F-0.8157086992616526
sg15
g1440
sbs(I-8
I15
tp1444
g0
(g9
g2
Ntp1445
Rp1446
(dp1447
g13
I01
sg14
F-0.862297866524943
sg15
g1444
sbs(I20
I0
tp1448
g0
(g9
g2
Ntp1449
Rp1450
(dp1451
g13
I01
sg14
F-0.4881712113462279
sg15
g1448
sbs(I-20
I18
tp1452
g0
(g9
g2
Ntp1453
Rp1454
(dp1455
g13
I01
sg14
F-1.4277418758388536
sg15
g1452
sbs(I-7
I14
tp1456
g0
(g9
g2
Ntp1457
Rp1458
(dp1459
g13
I01
sg14
F0.580747031078953
sg15
g1456
sbs(I21
I5
tp1460
g0
(g9
g2
Ntp1461
Rp1462
(dp1463
g13
I01
sg14
F0.6616220188111469
sg15
g1460
sbs(I-19
I19
tp1464
g0
(g9
g2
Ntp1465
Rp1466
(dp1467
g13
I01
sg14
F0.898061464574767
sg15
g1464
sbs(I-30
I24
tp1468
g0
(g9
g2
Ntp1469
Rp1470
(dp1471
g13
I01
sg14
F0.6949403240255253
sg15
g1468
sbs(I-6
I13
tp1472
g0
(g9
g2
Ntp1473
Rp1474
(dp1475
g13
I01
sg14
F-1.3528773871075543
sg15
g1472
sbs(I-3
I16
tp1476
g0
(g9
g2
Ntp1477
Rp1478
(dp1479
g13
I01
sg14
F-1.7486810441247842
sg15
g1476
sbs(I-1
I15
tp1480
g0
(g9
g2
Ntp1481
Rp1482
(dp1483
g13
I01
sg14
F0.9174745326984496
sg15
g1480
sbs(I10
I4
tp1484
g0
(g9
g2
Ntp1485
Rp1486
(dp1487
g13
I01
sg14
F0.2877525660760413
sg15
g1484
sbs(I-4
I11
tp1488
g0
(g9
g2
Ntp1489
Rp1490
(dp1491
g13
I01
sg14
F0.18167402757496967
sg15
g1488
sbs(I17
I8
tp1492
g0
(g9
g2
Ntp1493
Rp1494
(dp1495
g13
I01
sg14
F-2.6996916259131702
sg15
g1492
sbs(I11
I9
tp1496
g0
(g9
g2
Ntp1497
Rp1498
(dp1499
g13
I01
sg14
F1.6087439371160441
sg15
g1496
sbs(I-3
I10
tp1500
g0
(g9
g2
Ntp1501
Rp1502
(dp1503
g13
I01
sg14
F0.9384253090653232
sg15
g1500
sbs(I14
I6
tp1504
g0
(g9
g2
Ntp1505
Rp1506
(dp1507
g13
I01
sg14
F-1.982325797238594
sg15
g1504
sbs(I-26
I20
tp1508
g0
(g9
g2
Ntp1509
Rp1510
(dp1511
g13
I01
sg14
F-0.20682298138257946
sg15
g1508
sbs(I-2
I17
tp1512
g0
(g9
g2
Ntp1513
Rp1514
(dp1515
g13
I01
sg14
F0.1384793290715082
sg15
g1512
sbs(I-13
I12
tp1516
g0
(g9
g2
Ntp1517
Rp1518
(dp1519
g13
I01
sg14
F-1.7375203754311928
sg15
g1516
sbs(I15
I7
tp1520
g0
(g9
g2
Ntp1521
Rp1522
(dp1523
g13
I01
sg14
F-1.0435563416384999
sg15
g1520
sbs(I-15
I12
tp1524
g0
(g9
g2
Ntp1525
Rp1526
(dp1527
g13
I01
sg14
F0.7258962379939835
sg15
g1524
sbs(I-25
I17
tp1528
g0
(g9
g2
Ntp1529
Rp1530
(dp1531
g13
I01
sg14
F-0.5456344810304916
sg15
g1528
sbs(I-12
I15
tp1532
g0
(g9
g2
Ntp1533
Rp1534
(dp1535
g13
I01
sg14
F0.7507739757542942
sg15
g1532
sbs(I-14
I11
tp1536
g0
(g9
g2
Ntp1537
Rp1538
(dp1539
g13
I01
sg14
F1.113379643757511
sg15
g1536
sbs(I-9
I18
tp1540
g0
(g9
g2
Ntp1541
Rp1542
(dp1543
g13
I01
sg14
F2.541636904048158
sg15
g1540
sbs(I-11
I14
tp1544
g0
(g9
g2
Ntp1545
Rp1546
(dp1547
g13
I01
sg14
F-0.10769738524654054
sg15
g1544
sbs(I-24
I13
tp1548
g0
(g9
g2
Ntp1549
Rp1550
(dp1551
g13
I01
sg14
F0.41221334223131156
sg15
g1548
sbs(I-10
I13
tp1552
g0
(g9
g2
Ntp1553
Rp1554
(dp1555
g13
I01
sg14
F1.5881186315202662
sg15
g1552
sbs(I-1
I17
tp1556
g0
(g9
g2
Ntp1557
Rp1558
(dp1559
g13
I01
sg14
F0.4430550619061871
sg15
g1556
sbs(I-22
I15
tp1560
g0
(g9
g2
Ntp1561
Rp1562
(dp1563
g13
I01
sg14
F1.3662985592412038
sg15
g1560
sbs(I-24
I19
tp1564
g0
(g9
g2
Ntp1565
Rp1566
(dp1567
g13
I01
sg14
F0.79705436217395
sg15
g1564
sbs(I-21
I14
tp1568
g0
(g9
g2
Ntp1569
Rp1570
(dp1571
g13
I01
sg14
F-1.5821578299730736
sg15
g1568
sbs(I-23
I18
tp1572
g0
(g9
g2
Ntp1573
Rp1574
(dp1575
g13
I01
sg14
F0.6715839817090126
sg15
g1572
sbs(I-8
I22
tp1576
g0
(g9
g2
Ntp1577
Rp1578
(dp1579
g13
I01
sg14
F-0.37665531020980886
sg15
g1576
sbs(I16
I3
tp1580
g0
(g9
g2
Ntp1581
Rp1582
(dp1583
g13
I01
sg14
F-1.4386657986504805
sg15
g1580
sbs(I-7
I23
tp1584
g0
(g9
g2
Ntp1585
Rp1586
(dp1587
g13
I01
sg14
F-0.6179972644109837
sg15
g1584
sbs(I-17
I12
tp1588
g0
(g9
g2
Ntp1589
Rp1590
(dp1591
g13
I01
sg14
F-0.5693199223647847
sg15
g1588
sbs(I-19
I12
tp1592
g0
(g9
g2
Ntp1593
Rp1594
(dp1595
g13
I01
sg14
F-0.8811257989563872
sg15
g1592
sbs(I-30
I19
tp1596
g0
(g9
g2
Ntp1597
Rp1598
(dp1599
g13
I01
sg14
F0.20948969520794547
sg15
g1596
sbs(I-6
I20
tp1600
g0
(g9
g2
Ntp1601
Rp1602
(dp1603
g13
I01
sg14
F-0.4458640794865328
sg15
g1600
sbs(I-29
I10
tp1604
g0
(g9
g2
Ntp1605
Rp1606
(dp1607
g13
I01
sg14
F2.0331832622628228
sg15
g1604
sbs(I23
I8
tp1608
g0
(g9
g2
Ntp1609
Rp1610
(dp1611
g13
I01
sg14
F-0.8193688402425836
sg15
g1608
sbs(I10
I9
tp1612
g0
(g9
g2
Ntp1613
Rp1614
(dp1615
g13
I01
sg14
F1.0369125081306345
sg15
g1612
sbs(I-28
I13
tp1616
g0
(g9
g2
Ntp1617
Rp1618
(dp1619
g13
I01
sg14
F0.07186494609645287
sg15
g1616
sbs(I-30
I13
tp1620
g0
(g9
g2
Ntp1621
Rp1622
(dp1623
g13
I01
sg14
F0.6880167326477189
sg15
g1620
sbs(I-29
I16
tp1624
g0
(g9
g2
Ntp1625
Rp1626
(dp1627
g13
I01
sg14
F0.5929265892855674
sg15
g1624
sbs(I14
I9
tp1628
g0
(g9
g2
Ntp1629
Rp1630
(dp1631
g13
I01
sg14
F-0.2912124198381106
sg15
g1628
sbs(I-26
I15
tp1632
g0
(g9
g2
Ntp1633
Rp1634
(dp1635
g13
I01
sg14
F-0.26717899320469635
sg15
g1632
sbs(I-2
I24
tp1636
g0
(g9
g2
Ntp1637
Rp1638
(dp1639
g13
I01
sg14
F1.2550528534077348
sg15
g1636
sbs(I-13
I21
tp1640
g0
(g9
g2
Ntp1641
Rp1642
(dp1643
g13
I01
sg14
F1.0451259491166105
sg15
g1640
sbs(I-25
I14
tp1644
g0
(g9
g2
Ntp1645
Rp1646
(dp1647
g13
I01
sg14
F0.8789774406297822
sg15
g1644
sbs(I-12
I22
tp1648
g0
(g9
g2
Ntp1649
Rp1650
(dp1651
g13
I01
sg14
F-2.742260105410307
sg15
g1648
sbs(I-11
I23
tp1652
g0
(g9
g2
Ntp1653
Rp1654
(dp1655
g13
I01
sg14
F0.8978704125116717
sg15
g1652
sbs(I20
I9
tp1656
g0
(g9
g2
Ntp1657
Rp1658
(dp1659
g13
I01
sg14
F1.3118072315173062
sg15
g1656
sbs(I11
I2
tp1660
g0
(g9
g2
Ntp1661
Rp1662
(dp1663
g13
I01
sg14
F0.8055032866883952
sg15
g1660
sbs(I17
I5
tp1664
g0
(g9
g2
Ntp1665
Rp1666
(dp1667
g13
I01
sg14
F-1.8434550106245713
sg15
g1664
sbs(I-18
I16
tp1668
g0
(g9
g2
Ntp1669
Rp1670
(dp1671
g13
I01
sg14
F-0.9105731124539536
sg15
g1668
sbs(I18
I2
tp1672
g0
(g9
g2
Ntp1673
Rp1674
(dp1675
g13
I01
sg14
F-0.538470102799796
sg15
g1672
sbs(I-22
I16
tp1676
g0
(g9
g2
Ntp1677
Rp1678
(dp1679
g13
I01
sg14
F0.1869497495449274
sg15
g1676
sbs(I-7
I24
tp1680
g0
(g9
g2
Ntp1681
Rp1682
(dp1683
g13
I01
sg14
F0.9074475760267761
sg15
g1680
sbs(I-17
I21
tp1684
g0
(g9
g2
Ntp1685
Rp1686
(dp1687
g13
I01
sg14
F-1.7868804117918742
sg15
g1684
sbs(I22
I4
tp1688
g0
(g9
g2
Ntp1689
Rp1690
(dp1691
g13
I01
sg14
F0.23262419279987223
sg15
g1688
sbs(I23
I1
tp1692
g0
(g9
g2
Ntp1693
Rp1694
(dp1695
g13
I01
sg14
F-0.2845952832366595
sg15
g1692
sbs(I11
I7
tp1696
g0
(g9
g2
Ntp1697
Rp1698
(dp1699
g13
I01
sg14
F0.4690020234173613
sg15
g1696
sbs(I12
I0
tp1700
g0
(g9
g2
Ntp1701
Rp1702
(dp1703
g13
I01
sg14
F-1.601980069226546
sg15
g1700
sbs(I-28
I18
tp1704
g0
(g9
g2
Ntp1705
Rp1706
(dp1707
g13
I01
sg14
F1.8993644271635324
sg15
g1704
sbs(I13
I5
tp1708
g0
(g9
g2
Ntp1709
Rp1710
(dp1711
g13
I01
sg14
F-0.16842442560014784
sg15
g1708
sbs(I-27
I19
tp1712
g0
(g9
g2
Ntp1713
Rp1714
(dp1715
g13
I01
sg14
F1.4799286955193596
sg15
g1712
sbs(I24
I3
tp1716
g0
(g9
g2
Ntp1717
Rp1718
(dp1719
g13
I01
sg14
F1.7698691501273778
sg15
g1716
sbs(I-16
I21
tp1720
g0
(g9
g2
Ntp1721
Rp1722
(dp1723
g13
I01
sg14
F0.6756988745233631
sg15
g1720
sbs(I-26
I24
tp1724
g0
(g9
g2
Ntp1725
Rp1726
(dp1727
g13
I01
sg14
F0.6095197370625879
sg15
g1724
sbs(I-11
I16
tp1728
g0
(g9
g2
Ntp1729
Rp1730
(dp1731
g13
I01
sg14
F-0.040223411516958935
sg15
g1728
sbs(I-15
I16
tp1732
g0
(g9
g2
Ntp1733
Rp1734
(dp1735
g13
I01
sg14
F0.17931728774512584
sg15
g1732
sbs(I-14
I23
tp1736
g0
(g9
g2
Ntp1737
Rp1738
(dp1739
g13
I01
sg14
F-0.6255165458205308
sg15
g1736
sbs(I13
I8
tp1740
g0
(g9
g2
Ntp1741
Rp1742
(dp1743
g13
I01
sg14
F1.809246644148496
sg15
g1740
sbs(I-2
I19
tp1744
g0
(g9
g2
Ntp1745
Rp1746
(dp1747
g13
I01
sg14
F1.0405637067102054
sg15
g1744
sbs(I-17
I18
tp1748
g0
(g9
g2
Ntp1749
Rp1750
(dp1751
g13
I01
sg14
F0.5818713698986898
sg15
g1748
sbs(I19
I0
tp1752
g0
(g9
g2
Ntp1753
Rp1754
(dp1755
g13
I01
sg14
F0.605516616922675
sg15
g1752
sbs(I-21
I18
tp1756
g0
(g9
g2
Ntp1757
Rp1758
(dp1759
g13
I01
sg14
F1.2927724727681584
sg15
g1756
sbs(I-8
I10
tp1760
g0
(g9
g2
Ntp1761
Rp1762
(dp1763
g13
I01
sg14
F-0.3563953660136106
sg15
g1760
sbs(I-20
I21
tp1764
g0
(g9
g2
Ntp1765
Rp1766
(dp1767
g13
I01
sg14
F1.4927820562881378
sg15
g1764
sbs(I-5
I23
tp1768
g0
(g9
g2
Ntp1769
Rp1770
(dp1771
g13
I01
sg14
F0.4066857062105093
sg15
g1768
sbs(I-7
I11
tp1772
g0
(g9
g2
Ntp1773
Rp1774
(dp1775
g13
I01
sg14
F0.14400655248371524
sg15
g1772
sbs(I-19
I24
tp1776
g0
(g9
g2
Ntp1777
Rp1778
(dp1779
g13
I01
sg14
F-0.18512759596155756
sg15
g1776
sbs(I-4
I16
tp1780
g0
(g9
g2
Ntp1781
Rp1782
(dp1783
g13
I01
sg14
F-0.2842701804630403
sg15
g1780
sbs(I-3
I21
tp1784
g0
(g9
g2
Ntp1785
Rp1786
(dp1787
g13
I01
sg14
F-1.0083200357829647
sg15
g1784
sbs(I-5
I13
tp1788
g0
(g9
g2
Ntp1789
Rp1790
(dp1791
g13
I01
sg14
F1.0161518903678626
sg15
g1788
sbs(I-1
I10
tp1792
g0
(g9
g2
Ntp1793
Rp1794
(dp1795
g13
I01
sg14
F-0.9563597110965468
sg15
g1792
sbs(I-4
I14
tp1796
g0
(g9
g2
Ntp1797
Rp1798
(dp1799
g13
I01
sg14
F-0.606176468394643
sg15
g1796
sbs(I-3
I15
tp1800
g0
(g9
g2
Ntp1801
Rp1802
(dp1803
g13
I01
sg14
F-0.03725138104111246
sg15
g1800
sbs(I-16
I12
tp1804
g0
(g9
g2
Ntp1805
Rp1806
(dp1807
g13
I01
sg14
F0.23502980364593365
sg15
g1804
sbs(I-26
I19
tp1808
g0
(g9
g2
Ntp1809
Rp1810
(dp1811
g13
I01
sg14
F0.16189133560723576
sg15
g1808
sbs(I-10
I22
tp1812
g0
(g9
g2
Ntp1813
Rp1814
(dp1815
g13
I01
sg14
F-0.5720966332610415
sg15
g1812
sbs(I-14
I14
tp1816
g0
(g9
g2
Ntp1817
Rp1818
(dp1819
g13
I01
sg14
F0.7197625164999644
sg15
g1816
sbs(I-9
I23
tp1820
g0
(g9
g2
Ntp1821
Rp1822
(dp1823
g13
I01
sg14
F-2.1383009187607156
sg15
g1820
sbs(I-9
I13
tp1824
g0
(g9
g2
Ntp1825
Rp1826
(dp1827
g13
I01
sg14
F0.614741215862507
sg15
g1824
sbs(I-1
I11
tp1828
g0
(g9
g2
Ntp1829
Rp1830
(dp1831
g13
I01
sg14
F0.25883006337475417
sg15
g1828
sbs(I19
I9
tp1832
g0
(g9
g2
Ntp1833
Rp1834
(dp1835
g13
I01
sg14
F-0.20670145598789394
sg15
g1832
sbs(I-21
I11
tp1836
g0
(g9
g2
Ntp1837
Rp1838
(dp1839
g13
I01
sg14
F0.8953656884419556
sg15
g1836
sbs(I-8
I17
tp1840
g0
(g9
g2
Ntp1841
Rp1842
(dp1843
g13
I01
sg14
F0.5670369346857222
sg15
g1840
sbs(I20
I2
tp1844
g0
(g9
g2
Ntp1845
Rp1846
(dp1847
g13
I01
sg14
F-2.4809582777587065
sg15
g1844
sbs(I-20
I12
tp1848
g0
(g9
g2
Ntp1849
Rp1850
(dp1851
g13
I01
sg14
F0.5733550916118333
sg15
g1848
sbs(I-7
I12
tp1852
g0
(g9
g2
Ntp1853
Rp1854
(dp1855
g13
I01
sg14
F1.598401080902688
sg15
g1852
sbs(I21
I3
tp1856
g0
(g9
g2
Ntp1857
Rp1858
(dp1859
g13
I01
sg14
F0.4217601801515518
sg15
g1856
sbs(I-19
I17
tp1860
g0
(g9
g2
Ntp1861
Rp1862
(dp1863
g13
I01
sg14
F-1.9899277890919742
sg15
g1860
sbs(I-30
I22
tp1864
g0
(g9
g2
Ntp1865
Rp1866
(dp1867
g13
I01
sg14
F1.4983504474087983
sg15
g1864
sbs(I-6
I11
tp1868
g0
(g9
g2
Ntp1869
Rp1870
(dp1871
g13
I01
sg14
F0.34284425254575956
sg15
g1868
sbs(I22
I8
tp1872
g0
(g9
g2
Ntp1873
Rp1874
(dp1875
g13
I01
sg14
F-1.2012157193021753
sg15
g1872
sbs(I-2
I13
tp1876
g0
(g9
g2
Ntp1877
Rp1878
(dp1879
g13
I01
sg14
F0.8063435615095991
sg15
g1876
sbs(I10
I2
tp1880
g0
(g9
g2
Ntp1881
Rp1882
(dp1883
g13
I01
sg14
F0.45553458417992315
sg15
g1880
sbs(I14
I4
tp1884
g0
(g9
g2
Ntp1885
Rp1886
(dp1887
g13
I01
sg14
F-1.1289129785781162
sg15
g1884
sbs(I-26
I10
tp1888
g0
(g9
g2
Ntp1889
Rp1890
(dp1891
g13
I01
sg14
F0.13091804187869996
sg15
g1888
sbs(I-1
I23
tp1892
g0
(g9
g2
Ntp1893
Rp1894
(dp1895
g13
I01
sg14
F2.213352365732028
sg15
g1892
sbs(I-13
I14
tp1896
g0
(g9
g2
Ntp1897
Rp1898
(dp1899
g13
I01
sg14
F-1.363808004365763
sg15
g1896
sbs(I15
I1
tp1900
g0
(g9
g2
Ntp1901
Rp1902
(dp1903
g13
I01
sg14
F-0.1877107597694592
sg15
g1900
sbs(I-25
I19
tp1904
g0
(g9
g2
Ntp1905
Rp1906
(dp1907
g13
I01
sg14
F2.648708744511883
sg15
g1904
sbs(I-11
I12
tp1908
g0
(g9
g2
Ntp1909
Rp1910
(dp1911
g13
I01
sg14
F0.016818471467593334
sg15
g1908
sbs(I-24
I15
tp1912
g0
(g9
g2
Ntp1913
Rp1914
(dp1915
g13
I01
sg14
F0.1144069950430613
sg15
g1912
sbs(I-23
I14
tp1916
g0
(g9
g2
Ntp1917
Rp1918
(dp1919
g13
I01
sg14
F-0.8925858110332426
sg15
g1916
sbs(I-9
I10
tp1920
g0
(g9
g2
Ntp1921
Rp1922
(dp1923
g13
I01
sg14
F1.1340431474804769
sg15
g1920
sbs(I-22
I13
tp1924
g0
(g9
g2
Ntp1925
Rp1926
(dp1927
g13
I01
sg14
F-2.0343052323045323
sg15
g1924
sbs(I-24
I21
tp1928
g0
(g9
g2
Ntp1929
Rp1930
(dp1931
g13
I01
sg14
F2.224851842524065
sg15
g1928
sbs(I17
I2
tp1932
g0
(g9
g2
Ntp1933
Rp1934
(dp1935
g13
I01
sg14
F-0.80683368151744
sg15
g1932
sbs(I-23
I16
tp1936
g0
(g9
g2
Ntp1937
Rp1938
(dp1939
g13
I01
sg14
F0.6501363356406282
sg15
g1936
sbs(I-8
I24
tp1940
g0
(g9
g2
Ntp1941
Rp1942
(dp1943
g13
I01
sg14
F2.57833130206181
sg15
g1940
sbs(I-18
I15
tp1944
g0
(g9
g2
Ntp1945
Rp1946
(dp1947
g13
I01
sg14
F-0.11419859385900905
sg15
g1944
sbs(I-20
I11
tp1948
g0
(g9
g2
Ntp1949
Rp1950
(dp1951
g13
I01
sg14
F1.9713990740468859
sg15
g1948
sbs(I-22
I23
tp1952
g0
(g9
g2
Ntp1953
Rp1954
(dp1955
g13
I01
sg14
F0.6925335512739282
sg15
g1952
sbs(I-7
I21
tp1956
g0
(g9
g2
Ntp1957
Rp1958
(dp1959
g13
I01
sg14
F1.4582210173992063
sg15
g1956
sbs(I-17
I14
tp1960
g0
(g9
g2
Ntp1961
Rp1962
(dp1963
g13
I01
sg14
F0.47559379963145054
sg15
g1960
sbs(I-19
I10
tp1964
g0
(g9
g2
Ntp1965
Rp1966
(dp1967
g13
I01
sg14
F0.2930362282725428
sg15
g1964
sbs(I-30
I17
tp1968
g0
(g9
g2
Ntp1969
Rp1970
(dp1971
g13
I01
sg14
F-1.1609125095075703
sg15
g1968
sbs(I-6
I18
tp1972
g0
(g9
g2
Ntp1973
Rp1974
(dp1975
g13
I01
sg14
F-1.6955848440916015
sg15
g1972
sbs(I22
I3
tp1976
g0
(g9
g2
Ntp1977
Rp1978
(dp1979
g13
I01
sg14
F0.6720147254353637
sg15
g1976
sbs(I-29
I12
tp1980
g0
(g9
g2
Ntp1981
Rp1982
(dp1983
g13
I01
sg14
F-0.39063591160624844
sg15
g1980
sbs(I-28
I15
tp1984
g0
(g9
g2
Ntp1985
Rp1986
(dp1987
g13
I01
sg14
F0.427998636394604
sg15
g1984
sbs(I-30
I11
tp1988
g0
(g9
g2
Ntp1989
Rp1990
(dp1991
g13
I01
sg14
F1.0125514496327541
sg15
g1988
sbs(I-27
I14
tp1992
g0
(g9
g2
Ntp1993
Rp1994
(dp1995
g13
I01
sg14
F-0.16612013895597666
sg15
g1992
sbs(I-29
I18
tp1996
g0
(g9
g2
Ntp1997
Rp1998
(dp1999
g13
I01
sg14
F-0.10820715366339995
sg15
g1996
sbs(I-26
I13
tp2000
g0
(g9
g2
Ntp2001
Rp2002
(dp2003
g13
I01
sg14
F0.3599714166487034
sg15
g2000
sbs(I-28
I21
tp2004
g0
(g9
g2
Ntp2005
Rp2006
(dp2007
g13
I01
sg14
F1.3834670955341173
sg15
g2004
sbs(I-13
I23
tp2008
g0
(g9
g2
Ntp2009
Rp2010
(dp2011
g13
I01
sg14
F-0.6726041367665884
sg15
g2008
sbs(I-12
I16
tp2012
g0
(g9
g2
Ntp2013
Rp2014
(dp2015
g13
I01
sg14
F-0.7728748601469392
sg15
g2012
sbs(I-16
I16
tp2016
g0
(g9
g2
Ntp2017
Rp2018
(dp2019
g13
I01
sg14
F-1.398357233763948
sg15
g2016
sbs(I-11
I21
tp2020
g0
(g9
g2
Ntp2021
Rp2022
(dp2023
g13
I01
sg14
F-0.20349812455314809
sg15
g2020
sbs(I-18
I22
tp2024
g0
(g9
g2
Ntp2025
Rp2026
(dp2027
g13
I01
sg14
F-1.6348245121978535
sg15
g2024
sbs(I18
I0
tp2028
g0
(g9
g2
Ntp2029
Rp2030
(dp2031
g13
I01
sg14
F-0.5325358601858254
sg15
g2028
sbs(I-17
I23
tp2032
g0
(g9
g2
Ntp2033
Rp2034
(dp2035
g13
I01
sg14
F2.149974272183921
sg15
g2032
sbs(I-20
I24
tp2036
g0
(g9
g2
Ntp2037
Rp2038
(dp2039
g13
I01
sg14
F0.9125397593722959
sg15
g2036
sbs(I-5
I16
tp2040
g0
(g9
g2
Ntp2041
Rp2042
(dp2043
g13
I01
sg14
F0.5684648934971179
sg15
g2040
sbs(I23
I3
tp2044
g0
(g9
g2
Ntp2045
Rp2046
(dp2047
g13
I01
sg14
F0.20892151724598024
sg15
g2044
sbs(I12
I2
tp2048
g0
(g9
g2
Ntp2049
Rp2050
(dp2051
g13
I01
sg14
F0.4188353883287508
sg15
g2048
sbs(I13
I3
tp2052
g0
(g9
g2
Ntp2053
Rp2054
(dp2055
g13
I01
sg14
F-0.20538044161773736
sg15
g2052
sbs(I-27
I17
tp2056
g0
(g9
g2
Ntp2057
Rp2058
(dp2059
g13
I01
sg14
F-0.7077240225662265
sg15
g2056
sbs(I24
I5
tp2060
g0
(g9
g2
Ntp2061
Rp2062
(dp2063
g13
I01
sg14
F0.21294181148366906
sg15
g2060
sbs(I-16
I23
tp2064
g0
(g9
g2
Ntp2065
Rp2066
(dp2067
g13
I01
sg14
F1.2147480657007848
sg15
g2064
sbs(I-1
I24
tp2068
g0
(g9
g2
Ntp2069
Rp2070
(dp2071
g13
I01
sg14
F0.5540972379790048
sg15
g2068
sbs(I-15
I22
tp2072
g0
(g9
g2
Ntp2073
Rp2074
(dp2075
g13
I01
sg14
F-0.41068396475018604
sg15
g2072
sbs(I-14
I21
tp2076
g0
(g9
g2
Ntp2077
Rp2078
(dp2079
g13
I01
sg14
F0.11356841446975548
sg15
g2076
sbs(I-9
I24
tp2080
g0
(g9
g2
Ntp2081
Rp2082
(dp2083
g13
I01
sg14
F-0.41417678086785353
sg15
g2080
sbs(I19
I2
tp2084
g0
(g9
g2
Ntp2085
Rp2086
(dp2087
g13
I01
sg14
F0.9114555732561804
sg15
g2084
sbs(I-21
I20
tp2088
g0
(g9
g2
Ntp2089
Rp2090
(dp2091
g13
I01
sg14
F0.355161773728827
sg15
g2088
sbs(I-8
I12
tp2092
g0
(g9
g2
Ntp2093
Rp2094
(dp2095
g13
I01
sg14
F-0.6289924958247411
sg15
g2092
sbs(I20
I5
tp2096
g0
(g9
g2
Ntp2097
Rp2098
(dp2099
g13
I01
sg14
F-0.7258600700731976
sg15
g2096
sbs(I-20
I23
tp2100
g0
(g9
g2
Ntp2101
Rp2102
(dp2103
g13
I01
sg14
F2.065403465511776
sg15
g2100
sbs(I-19
I22
tp2104
g0
(g9
g2
Ntp2105
Rp2106
(dp2107
g13
I01
sg14
F-0.3460296404072817
sg15
g2104
sbs(I-4
I18
tp2108
g0
(g9
g2
Ntp2109
Rp2110
(dp2111
g13
I01
sg14
F0.9490561800101612
sg15
g2108
sbs(I-6
I14
tp2112
g0
(g9
g2
Ntp2113
Rp2114
(dp2115
g13
I01
sg14
F-1.004409537300155
sg15
g2112
sbs(I-3
I19
tp2116
g0
(g9
g2
Ntp2117
Rp2118
(dp2119
g13
I01
sg14
F0.7242862140371829
sg15
g2116
sbs(I-5
I15
tp2120
g0
(g9
g2
Ntp2121
Rp2122
(dp2123
g13
I01
sg14
F-0.03713087797938471
sg15
g2120
sbs(I-3
I13
tp2124
g0
(g9
g2
Ntp2125
Rp2126
(dp2127
g13
I01
sg14
F-0.24882622628475054
sg15
g2124
sbs(I14
I3
tp2128
g0
(g9
g2
Ntp2129
Rp2130
(dp2131
g13
I01
sg14
F0.04497005960848402
sg15
g2128
sbs(I-16
I14
tp2132
g0
(g9
g2
Ntp2133
Rp2134
(dp2135
g13
I01
sg14
F-0.08037296653720025
sg15
g2132
sbs(I-26
I17
tp2136
g0
(g9
g2
Ntp2137
Rp2138
(dp2139
g13
I01
sg14
F-0.2583953826964992
sg15
g2136
sbs(I-2
I18
tp2140
g0
(g9
g2
Ntp2141
Rp2142
(dp2143
g13
I01
sg14
F0.9762041414710724
sg15
g2140
sbs(I-13
I11
tp2144
g0
(g9
g2
Ntp2145
Rp2146
(dp2147
g13
I01
sg14
F-1.1673036702762962
sg15
g2144
sbs(I-15
I15
tp2148
g0
(g9
g2
Ntp2149
Rp2150
(dp2151
g13
I01
sg14
F-0.8984658357155247
sg15
g2148
sbs(I-25
I20
tp2152
g0
(g9
g2
Ntp2153
Rp2154
(dp2155
g13
I01
sg14
F0.41455944153802254
sg15
g2152
sbs(I-10
I20
tp2156
g0
(g9
g2
Ntp2157
Rp2158
(dp2159
g13
I01
sg14
F0.9509492775790521
sg15
g2156
sbs(I-12
I12
tp2160
g0
(g9
g2
Ntp2161
Rp2162
(dp2163
g13
I01
sg14
F2.38581038453887
sg15
g2160
sbs(I-14
I12
tp2164
g0
(g9
g2
Ntp2165
Rp2166
(dp2167
g13
I01
sg14
F-0.5827835963765574
sg15
g2164
sbs(I-9
I17
tp2168
g0
(g9
g2
Ntp2169
Rp2170
(dp2171
g13
I01
sg14
F0.32948550463615356
sg15
g2168
sbs(I-24
I10
tp2172
g0
(g9
g2
Ntp2173
Rp2174
(dp2175
g13
I01
sg14
F-0.079264135447541
sg15
g2172
sbs(I-10
I14
tp2176
g0
(g9
g2
Ntp2177
Rp2178
(dp2179
g13
I01
sg14
F0.23022998267052525
sg15
g2176
sbs(I-23
I11
tp2180
g0
(g9
g2
Ntp2181
Rp2182
(dp2183
g13
I01
sg14
F-0.7530098968282662
sg15
g2180
sbs(I-9
I15
tp2184
g0
(g9
g2
Ntp2185
Rp2186
(dp2187
g13
I01
sg14
F0.7695284403945122
sg15
g2184
sbs(I-24
I16
tp2188
g0
(g9
g2
Ntp2189
Rp2190
(dp2191
g13
I01
sg14
F-2.208285286568151
sg15
g2188
sbs(I-21
I13
tp2192
g0
(g9
g2
Ntp2193
Rp2194
(dp2195
g13
I01
sg14
F-1.9476781674995896
sg15
g2192
sbs(I-8
I19
tp2196
g0
(g9
g2
Ntp2197
Rp2198
(dp2199
g13
I01
sg14
F0.021241125067571427
sg15
g2196
sbs(I-18
I10
tp2200
g0
(g9
g2
Ntp2201
Rp2202
(dp2203
g13
I01
sg14
F-0.7103255159176471
sg15
g2200
sbs(I-20
I14
tp2204
g0
(g9
g2
Ntp2205
Rp2206
(dp2207
g13
I01
sg14
F0.7231084576554511
sg15
g2204
sbs(I-7
I18
tp2208
g0
(g9
g2
Ntp2209
Rp2210
(dp2211
g13
I01
sg14
F0.5770700564314427
sg15
g2208
sbs(I21
I1
tp2212
g0
(g9
g2
Ntp2213
Rp2214
(dp2215
g13
I01
sg14
F-0.4484033621608787
sg15
g2212
sbs(I-19
I15
tp2216
g0
(g9
g2
Ntp2217
Rp2218
(dp2219
g13
I01
sg14
F0.36120835985982364
sg15
g2216
sbs(I-30
I20
tp2220
g0
(g9
g2
Ntp2221
Rp2222
(dp2223
g13
I01
sg14
F0.19444744492630534
sg15
g2220
sbs(I10
I0
tp2224
g0
(g9
g2
Ntp2225
Rp2226
(dp2227
g13
I01
sg14
F0.8413679203391076
sg15
g2224
sbs(I-30
I14
tp2228
g0
(g9
g2
Ntp2229
Rp2230
(dp2231
g13
I01
sg14
F-2.255344498760196
sg15
g2228
sbs(I-2
I21
tp2232
g0
(g9
g2
Ntp2233
Rp2234
(dp2235
g13
I01
sg14
F-0.43540295815108776
sg15
g2232
sbs(I-13
I16
tp2236
g0
(g9
g2
Ntp2237
Rp2238
(dp2239
g13
I01
sg14
F0.8001132038058709
sg15
g2236
sbs(I15
I3
tp2240
g0
(g9
g2
Ntp2241
Rp2242
(dp2243
g13
I01
sg14
F-0.3956810631455886
sg15
g2240
sbs(I-25
I13
tp2244
g0
(g9
g2
Ntp2245
Rp2246
(dp2247
g13
I01
sg14
F-2.1554211031154837
sg15
g2244
sbs(I-12
I11
tp2248
g0
(g9
g2
Ntp2249
Rp2250
(dp2251
g13
I01
sg14
F0.36623517938612715
sg15
g2248
sbs(I-11
I10
tp2252
g0
(g9
g2
Ntp2253
Rp2254
(dp2255
g13
I01
sg14
F0.8013918816940121
sg15
g2252
sbs(I-23
I12
tp2256
g0
(g9
g2
Ntp2257
Rp2258
(dp2259
g13
I01
sg14
F-0.30512543236122636
sg15
g2256
sbs(I-22
I11
tp2260
g0
(g9
g2
Ntp2261
Rp2262
(dp2263
g13
I01
sg14
F0.3862779310626565
sg15
g2260
sbs(I-24
I23
tp2264
g0
(g9
g2
Ntp2265
Rp2266
(dp2267
g13
I01
sg14
F-0.4491745993543175
sg15
g2264
sbs(I17
I0
tp2268
g0
(g9
g2
Ntp2269
Rp2270
(dp2271
g13
I01
sg14
F0.7920365961102512
sg15
g2268
sbs(I-23
I22
tp2272
g0
(g9
g2
Ntp2273
Rp2274
(dp2275
g13
I01
sg14
F-2.0126382719197426
sg15
g2272
sbs(I-18
I13
tp2276
g0
(g9
g2
Ntp2277
Rp2278
(dp2279
g13
I01
sg14
F1.074973042789011
sg15
g2276
sbs(I18
I7
tp2280
g0
(g9
g2
Ntp2281
Rp2282
(dp2283
g13
I01
sg14
F0.2559407003101391
sg15
g2280
sbs(I-22
I21
tp2284
g0
(g9
g2
Ntp2285
Rp2286
(dp2287
g13
I01
sg14
F-0.054355535348921735
sg15
g2284
sbs(I-21
I24
tp2288
g0
(g9
g2
Ntp2289
Rp2290
(dp2291
g13
I01
sg14
F0.3712328976662181
sg15
g2288
sbs(I-6
I16
tp2292
g0
(g9
g2
Ntp2293
Rp2294
(dp2295
g13
I01
sg14
F0.40611336303950296
sg15
g2292
sbs(I22
I1
tp2296
g0
(g9
g2
Ntp2297
Rp2298
(dp2299
g13
I01
sg14
F0.1915190463897639
sg15
g2296
sbs(I-29
I14
tp2300
g0
(g9
g2
Ntp2301
Rp2302
(dp2303
g13
I01
sg14
F-1.4136438599010093
sg15
g2300
sbs(I23
I4
tp2304
g0
(g9
g2
Ntp2305
Rp2306
(dp2307
g13
I01
sg14
F0.48670934075531586
sg15
g2304
sbs(I-27
I12
tp2308
g0
(g9
g2
Ntp2309
Rp2310
(dp2311
g13
I01
sg14
F-0.38726230940320505
sg15
g2308
sbs(I-29
I20
tp2312
g0
(g9
g2
Ntp2313
Rp2314
(dp2315
g13
I01
sg14
F-0.5747526283636691
sg15
g2312
sbs(I12
I5
tp2316
g0
(g9
g2
Ntp2317
Rp2318
(dp2319
g13
I01
sg14
F1.1563379135760758
sg15
g2316
sbs(I-28
I23
tp2320
g0
(g9
g2
Ntp2321
Rp2322
(dp2323
g13
I01
sg14
F0.6532846788629267
sg15
g2320
sbs(I15
I8
tp2324
g0
(g9
g2
Ntp2325
Rp2326
(dp2327
g13
I01
sg14
F-0.25648804996073665
sg15
g2324
sbs(I-25
I10
tp2328
g0
(g9
g2
Ntp2329
Rp2330
(dp2331
g13
I01
sg14
F-0.6036851278490447
sg15
g2328
sbs(I-27
I22
tp2332
g0
(g9
g2
Ntp2333
Rp2334
(dp2335
g13
I01
sg14
F0.6868991232270886
sg15
g2332
sbs(I-12
I18
tp2336
g0
(g9
g2
Ntp2337
Rp2338
(dp2339
g13
I01
sg14
F-0.17424735548281625
sg15
g2336
sbs(I24
I0
tp2340
g0
(g9
g2
Ntp2341
Rp2342
(dp2343
g13
I01
sg14
F-0.19445244050711416
sg15
g2340
sbs(I-16
I18
tp2344
g0
(g9
g2
Ntp2345
Rp2346
(dp2347
g13
I01
sg14
F-0.6471980015670478
sg15
g2344
sbs(I-11
I19
tp2348
g0
(g9
g2
Ntp2349
Rp2350
(dp2351
g13
I01
sg14
F-1.281173812516951
sg15
g2348
sbs(I-15
I19
tp2352
g0
(g9
g2
Ntp2353
Rp2354
(dp2355
g13
I01
sg14
F-1.7624958132848625
sg15
g2352
sbs(I-10
I24
tp2356
g0
(g9
g2
Ntp2357
Rp2358
(dp2359
g13
I01
sg14
F-0.05492005050152163
sg15
g2356
sbs(I-14
I24
tp2360
g0
(g9
g2
Ntp2361
Rp2362
(dp2363
g13
I01
sg14
F-1.0714740127668405
sg15
g2360
sbs(I-18
I20
tp2364
g0
(g9
g2
Ntp2365
Rp2366
(dp2367
g13
I01
sg14
F0.20552328005314704
sg15
g2364
sbs(I-17
I17
tp2368
g0
(g9
g2
Ntp2369
Rp2370
(dp2371
g13
I01
sg14
F3.0753017863786143
sg15
g2368
sbs(I-21
I17
tp2372
g0
(g9
g2
Ntp2373
Rp2374
(dp2375
g13
I01
sg14
F2.0052119836490085
sg15
g2372
sbs(I-5
I18
tp2376
g0
(g9
g2
Ntp2377
Rp2378
(dp2379
g13
I01
sg14
F0.9104990241326005
sg15
g2376
sbs(I-4
I21
tp2380
g0
(g9
g2
Ntp2381
Rp2382
(dp2383
g13
I01
sg14
F0.31902283221968186
sg15
g2380
sbs(I-3
I24
tp2384
g0
(g9
g2
Ntp2385
Rp2386
(dp2387
g13
I01
sg14
F-0.7886675271078026
sg15
g2384
sbs(I13
I1
tp2388
g0
(g9
g2
Ntp2389
Rp2390
(dp2391
g13
I01
sg14
F0.19336548742113993
sg15
g2388
sbs(I24
I7
tp2392
g0
(g9
g2
Ntp2393
Rp2394
(dp2395
g13
I01
sg14
F0.8041686308738206
sg15
g2392
sbs(I-15
I20
tp2396
g0
(g9
g2
Ntp2397
Rp2398
(dp2399
g13
I01
sg14
F0.8206701680441265
sg15
g2396
sbs(I-10
I19
tp2400
g0
(g9
g2
Ntp2401
Rp2402
(dp2403
g13
I01
sg14
F0.15603004797082204
sg15
g2400
sbs(I-14
I19
tp2404
g0
(g9
g2
Ntp2405
Rp2406
(dp2407
g13
I01
sg14
F-0.16767632497118662
sg15
g2404
sbs(I-2
I20
tp2408
g0
(g9
g2
Ntp2409
Rp2410
(dp2411
g13
I01
sg14
F0.30074528637710646
sg15
g2408
sbssS'nodes'
p2412
(dp2413
I0
g0
(cneat.genes
DefaultNodeGene
p2414
g2
Ntp2415
Rp2416
(dp2417
S'activation'
p2418
S'sigmoid'
p2419
sS'bias'
p2420
F1.1506112085640618
sS'response'
p2421
F1.0
sg15
I0
sS'aggregation'
p2422
S'sum'
p2423
sbsI1
g0
(g2414
g2
Ntp2424
Rp2425
(dp2426
g2418
g2419
sg2420
F1.3990378130903303
sg2421
F1.0
sg15
I1
sg2422
g2423
sbsI2
g0
(g2414
g2
Ntp2427
Rp2428
(dp2429
g2418
g2419
sg2420
F-0.48853805832809394
sg2421
F1.0
sg15
I2
sg2422
g2423
sbsI3
g0
(g2414
g2
Ntp2430
Rp2431
(dp2432
g2418
g2419
sg2420
F-1.077758099877533
sg2421
F1.0
sg15
I3
sg2422
g2423
sbsI4
g0
(g2414
g2
Ntp2433
Rp2434
(dp2435
g2418
g2419
sg2420
F-2.309765549526099
sg2421
F1.0
sg15
I4
sg2422
g2423
sbsI5
g0
(g2414
g2
Ntp2436
Rp2437
(dp2438
g2418
g2419
sg2420
F-1.073902349521319
sg2421
F1.0
sg15
I5
sg2422
g2423
sbsI6
g0
(g2414
g2
Ntp2439
Rp2440
(dp2441
g2418
g2419
sg2420
F2.4273717542474933
sg2421
F1.0
sg15
I6
sg2422
g2423
sbsI7
g0
(g2414
g2
Ntp2442
Rp2443
(dp2444
g2418
g2419
sg2420
F-0.4008553783153274
sg2421
F1.0
sg15
I7
sg2422
g2423
sbsI8
g0
(g2414
g2
Ntp2445
Rp2446
(dp2447
g2418
g2419
sg2420
F0.5487386463739455
sg2421
F1.0
sg15
I8
sg2422
g2423
sbsI9
g0
(g2414
g2
Ntp2448
Rp2449
(dp2450
g2418
g2419
sg2420
F1.0286841512007432
sg2421
F1.0
sg15
I9
sg2422
g2423
sbsI10
g0
(g2414
g2
Ntp2451
Rp2452
(dp2453
g2418
g2419
sg2420
F1.5840212810141454
sg2421
F1.0
sg15
I10
sg2422
g2423
sbsI11
g0
(g2414
g2
Ntp2454
Rp2455
(dp2456
g2418
g2419
sg2420
F2.1833386258555962
sg2421
F1.0
sg15
I11
sg2422
g2423
sbsI12
g0
(g2414
g2
Ntp2457
Rp2458
(dp2459
g2418
g2419
sg2420
F-0.35929106852215
sg2421
F1.0
sg15
I12
sg2422
g2423
sbsI13
g0
(g2414
g2
Ntp2460
Rp2461
(dp2462
g2418
g2419
sg2420
F-0.24354586483731408
sg2421
F1.0
sg15
I13
sg2422
g2423
sbsI14
g0
(g2414
g2
Ntp2463
Rp2464
(dp2465
g2418
g2419
sg2420
F-0.5626068302932752
sg2421
F1.0
sg15
I14
sg2422
g2423
sbsI15
g0
(g2414
g2
Ntp2466
Rp2467
(dp2468
g2418
g2419
sg2420
F-0.14752196882181476
sg2421
F1.0
sg15
I15
sg2422
g2423
sbsI16
g0
(g2414
g2
Ntp2469
Rp2470
(dp2471
g2418
g2419
sg2420
F0.38938077142088834
sg2421
F1.0
sg15
I16
sg2422
g2423
sbsI17
g0
(g2414
g2
Ntp2472
Rp2473
(dp2474
g2418
g2419
sg2420
F0.24190569524155264
sg2421
F1.0
sg15
I17
sg2422
g2423
sbsI18
g0
(g2414
g2
Ntp2475
Rp2476
(dp2477
g2418
g2419
sg2420
F-1.427256834544996
sg2421
F1.0
sg15
I18
sg2422
g2423
sbsI19
g0
(g2414
g2
Ntp2478
Rp2479
(dp2480
g2418
g2419
sg2420
F0.1860270222606159
sg2421
F1.0
sg15
I19
sg2422
g2423
sbsI20
g0
(g2414
g2
Ntp2481
Rp2482
(dp2483
g2418
g2419
sg2420
F0.05730506988974163
sg2421
F1.0
sg15
I20
sg2422
g2423
sbsI21
g0
(g2414
g2
Ntp2484
Rp2485
(dp2486
g2418
g2419
sg2420
F1.8997740851654756
sg2421
F1.0
sg15
I21
sg2422
g2423
sbsI22
g0
(g2414
g2
Ntp2487
Rp2488
(dp2489
g2418
g2419
sg2420
F0.7608351847824391
sg2421
F1.0
sg15
I22
sg2422
g2423
sbsI23
g0
(g2414
g2
Ntp2490
Rp2491
(dp2492
g2418
g2419
sg2420
F-0.8323699758700603
sg2421
F1.0
sg15
I23
sg2422
g2423
sbsI24
g0
(g2414
g2
Ntp2493
Rp2494
(dp2495
g2418
g2419
sg2420
F-1.3650219954472478
sg2421
F1.0
sg15
I24
sg2422
g2423
sbssg15
I27
sS'fitness'
p2496
I1
sb.