ccopy_reg
_reconstructor
p0
(cneat.genome
DefaultGenome
p1
c__builtin__
object
p2
Ntp3
Rp4
(dp5
S'connections'
p6
(dp7
(I16
I9
tp8
g0
(cneat.genes
DefaultConnectionGene
p9
g2
Ntp10
Rp11
(dp12
S'enabled'
p13
I01
sS'weight'
p14
F1.0407048528520435
sS'key'
p15
g8
sbs(I19
I4
tp16
g0
(g9
g2
Ntp17
Rp18
(dp19
g13
I01
sg14
F0.4764381240721887
sg15
g16
sbs(I-21
I22
tp20
g0
(g9
g2
Ntp21
Rp22
(dp23
g13
I01
sg14
F-0.34125265957543727
sg15
g20
sbs(I-8
I14
tp24
g0
(g9
g2
Ntp25
Rp26
(dp27
g13
I01
sg14
F0.5876288956837831
sg15
g24
sbs(I20
I7
tp28
g0
(g9
g2
Ntp29
Rp30
(dp31
g13
I01
sg14
F-0.5339849262620345
sg15
g28
sbs(I-20
I17
tp32
g0
(g9
g2
Ntp33
Rp34
(dp35
g13
I01
sg14
F-1.2222749152842398
sg15
g32
sbs(I-7
I15
tp36
g0
(g9
g2
Ntp37
Rp38
(dp39
g13
I01
sg14
F0.8209180559955951
sg15
g36
sbs(I21
I6
tp40
g0
(g9
g2
Ntp41
Rp42
(dp43
g13
I01
sg14
F-0.8383382377543861
sg15
g40
sbs(I-19
I20
tp44
g0
(g9
g2
Ntp45
Rp46
(dp47
g13
I01
sg14
F-1.021951081736669
sg15
g44
sbs(I-6
I12
tp48
g0
(g9
g2
Ntp49
Rp50
(dp51
g13
I01
sg14
F0.9812990316134369
sg15
g48
sbs(I-3
I17
tp52
g0
(g9
g2
Ntp53
Rp54
(dp55
g13
I01
sg14
F-0.41347172710501295
sg15
g52
sbs(I-1
I14
tp56
g0
(g9
g2
Ntp57
Rp58
(dp59
g13
I01
sg14
F-0.639445132298167
sg15
g56
sbs(I10
I7
tp60
g0
(g9
g2
Ntp61
Rp62
(dp63
g13
I01
sg14
F0.1966225439899044
sg15
g60
sbs(I-4
I10
tp64
g0
(g9
g2
Ntp65
Rp66
(dp67
g13
I01
sg14
F-2.0101284685621765
sg15
g64
sbs(I-27
I24
tp68
g0
(g9
g2
Ntp69
Rp70
(dp71
g13
I01
sg14
F2.0674918489808554
sg15
g68
sbs(I-3
I11
tp72
g0
(g9
g2
Ntp73
Rp74
(dp75
g13
I01
sg14
F-1.004763964756548
sg15
g72
sbs(I14
I1
tp76
g0
(g9
g2
Ntp77
Rp78
(dp79
g13
I01
sg14
F-0.5380704483546004
sg15
g76
sbs(I-26
I23
tp80
g0
(g9
g2
Ntp81
Rp82
(dp83
g13
I01
sg14
F-0.9621634217865017
sg15
g80
sbs(I-1
I16
tp84
g0
(g9
g2
Ntp85
Rp86
(dp87
g13
I01
sg14
F-0.7607903465114771
sg15
g84
sbs(I-13
I13
tp88
g0
(g9
g2
Ntp89
Rp90
(dp91
g13
I01
sg14
F-0.8377063215561884
sg15
g88
sbs(I15
I4
tp92
g0
(g9
g2
Ntp93
Rp94
(dp95
g13
I01
sg14
F-0.0645873446042996
sg15
g92
sbs(I-15
I13
tp96
g0
(g9
g2
Ntp97
Rp98
(dp99
g13
I01
sg14
F0.32993958270483265
sg15
g96
sbs(I-25
I22
tp100
g0
(g9
g2
Ntp101
Rp102
(dp103
g13
I01
sg14
F-0.4998118388253119
sg15
g100
sbs(I-12
I14
tp104
g0
(g9
g2
Ntp105
Rp106
(dp107
g13
I01
sg14
F1.1462752526066833
sg15
g104
sbs(I-14
I10
tp108
g0
(g9
g2
Ntp109
Rp110
(dp111
g13
I01
sg14
F1.083993539672329
sg15
g108
sbs(I-9
I19
tp112
g0
(g9
g2
Ntp113
Rp114
(dp115
g13
I01
sg14
F1.3325736590098862
sg15
g112
sbs(I-11
I15
tp116
g0
(g9
g2
Ntp117
Rp118
(dp119
g13
I01
sg14
F1.032910184066902
sg15
g116
sbs(I-2
I12
tp120
g0
(g9
g2
Ntp121
Rp122
(dp123
g13
I01
sg14
F0.7564030093426239
sg15
g120
sbs(I-10
I12
tp124
g0
(g9
g2
Ntp125
Rp126
(dp127
g13
I01
sg14
F-0.6009286173452663
sg15
g124
sbs(I-22
I14
tp128
g0
(g9
g2
Ntp129
Rp130
(dp131
g13
I01
sg14
F-0.4741059008561509
sg15
g128
sbs(I-24
I18
tp132
g0
(g9
g2
Ntp133
Rp134
(dp135
g13
I01
sg14
F-0.44371873106625065
sg15
g132
sbs(I11
I0
tp136
g0
(g9
g2
Ntp137
Rp138
(dp139
g13
I01
sg14
F1.2609908078608894
sg15
g136
sbs(I-21
I15
tp140
g0
(g9
g2
Ntp141
Rp142
(dp143
g13
I01
sg14
F-1.2472212929846465
sg15
g140
sbs(I-23
I19
tp144
g0
(g9
g2
Ntp145
Rp146
(dp147
g13
I01
sg14
F0.49206118282055245
sg15
g144
sbs(I-8
I21
tp148
g0
(g9
g2
Ntp149
Rp150
(dp151
g13
I01
sg14
F0.544374776099952
sg15
g148
sbs(I-31
I21
tp152
g0
(g9
g2
Ntp153
Rp154
(dp155
g13
I01
sg14
F-1.1703564758349314
sg15
g152
sbs(I-7
I16
tp156
g0
(g9
g2
Ntp157
Rp158
(dp159
g13
I01
sg14
F1.3235292436507293
sg15
g156
sbs(I-17
I13
tp160
g0
(g9
g2
Ntp161
Rp162
(dp163
g13
I01
sg14
F-1.1571442176845756
sg15
g160
sbs(I-19
I13
tp164
g0
(g9
g2
Ntp165
Rp166
(dp167
g13
I01
sg14
F-0.1438025878503946
sg15
g164
sbs(I-30
I18
tp168
g0
(g9
g2
Ntp169
Rp170
(dp171
g13
I01
sg14
F-0.6518884198427174
sg15
g168
sbs(I-6
I23
tp172
g0
(g9
g2
Ntp173
Rp174
(dp175
g13
I01
sg14
F0.6078857984365261
sg15
g172
sbs(I-29
I11
tp176
g0
(g9
g2
Ntp177
Rp178
(dp179
g13
I01
sg14
F1.298586823615764
sg15
g176
sbs(I-31
I15
tp180
g0
(g9
g2
Ntp181
Rp182
(dp183
g13
I01
sg14
F-0.26442864929446314
sg15
g180
sbs(I-28
I12
tp184
g0
(g9
g2
Ntp185
Rp186
(dp187
g13
I01
sg14
F-0.2635449531707986
sg15
g184
sbs(I-30
I12
tp188
g0
(g9
g2
Ntp189
Rp190
(dp191
g13
I01
sg14
F-0.3437602948296768
sg15
g188
sbs(I-29
I17
tp192
g0
(g9
g2
Ntp193
Rp194
(dp195
g13
I01
sg14
F1.0615732502006183
sg15
g192
sbs(I14
I8
tp196
g0
(g9
g2
Ntp197
Rp198
(dp199
g13
I01
sg14
F-0.7322204664096579
sg15
g196
sbs(I-26
I14
tp200
g0
(g9
g2
Ntp201
Rp202
(dp203
g13
I01
sg14
F0.09521609534130272
sg15
g200
sbs(I-13
I18
tp204
g0
(g9
g2
Ntp205
Rp206
(dp207
g13
I01
sg14
F-0.7902196694272268
sg15
g204
sbs(I-25
I15
tp208
g0
(g9
g2
Ntp209
Rp210
(dp211
g13
I01
sg14
F-0.6625720489996443
sg15
g208
sbs(I-12
I21
tp212
g0
(g9
g2
Ntp213
Rp214
(dp215
g13
I01
sg14
F0.5554974013226708
sg15
g212
sbs(I-15
I24
tp216
g0
(g9
g2
Ntp217
Rp218
(dp219
g13
I01
sg14
F-0.10383758099469594
sg15
g216
sbs(I-2
I22
tp220
g0
(g9
g2
Ntp221
Rp222
(dp223
g13
I01
sg14
F0.9621569722884984
sg15
g220
sbs(I16
I7
tp224
g0
(g9
g2
Ntp225
Rp226
(dp227
g13
I01
sg14
F1.030104060432737
sg15
g224
sbs(I17
I6
tp228
g0
(g9
g2
Ntp229
Rp230
(dp231
g13
I01
sg14
F-0.3945781970649914
sg15
g228
sbs(I-23
I20
tp232
g0
(g9
g2
Ntp233
Rp234
(dp235
g13
I01
sg14
F-0.6633807209819383
sg15
g232
sbs(I-18
I19
tp236
g0
(g9
g2
Ntp237
Rp238
(dp239
g13
I01
sg14
F0.17363806007730337
sg15
g236
sbs(I18
I5
tp240
g0
(g9
g2
Ntp241
Rp242
(dp243
g13
I01
sg14
F-1.4458198547602301
sg15
g240
sbs(I16
I4
tp244
g0
(g9
g2
Ntp245
Rp246
(dp247
g13
I01
sg14
F-0.45548867207203214
sg15
g244
sbs(I-22
I19
tp248
g0
(g9
g2
Ntp249
Rp250
(dp251
g13
I01
sg14
F0.3684134643204321
sg15
g248
sbs(I-17
I10
tp252
g0
(g9
g2
Ntp253
Rp254
(dp255
g13
I01
sg14
F0.6928889215755458
sg15
g252
sbs(I22
I7
tp256
g0
(g9
g2
Ntp257
Rp258
(dp259
g13
I01
sg14
F-0.038781466444419446
sg15
g256
sbs(I12
I9
tp260
g0
(g9
g2
Ntp261
Rp262
(dp263
g13
I01
sg14
F0.8246061835355284
sg15
g260
sbs(I23
I6
tp264
g0
(g9
g2
Ntp265
Rp266
(dp267
g13
I01
sg14
F-1.1045889101743607
sg15
g264
sbs(I-28
I11
tp268
g0
(g9
g2
Ntp269
Rp270
(dp271
g13
I01
sg14
F0.35998823124025586
sg15
g268
sbs(I-4
I24
tp272
g0
(g9
g2
Ntp273
Rp274
(dp275
g13
I01
sg14
F0.9581593886736841
sg15
g272
sbs(I-27
I10
tp276
g0
(g9
g2
Ntp277
Rp278
(dp279
g13
I01
sg14
F-1.5324984933594161
sg15
g276
sbs(I-29
I22
tp280
g0
(g9
g2
Ntp281
Rp282
(dp283
g13
I01
sg14
F0.545814608175096
sg15
g280
sbs(I10
I8
tp284
g0
(g9
g2
Ntp285
Rp286
(dp287
g13
I01
sg14
F1.0995502355126345
sg15
g284
sbs(I12
I7
tp288
g0
(g9
g2
Ntp289
Rp290
(dp291
g13
I01
sg14
F-1.2299938132558959
sg15
g288
sbs(I-28
I17
tp292
g0
(g9
g2
Ntp293
Rp294
(dp295
g13
I01
sg14
F-0.16560794725838582
sg15
g292
sbs(I13
I6
tp296
g0
(g9
g2
Ntp297
Rp298
(dp299
g13
I01
sg14
F-1.9784634562033823
sg15
g296
sbs(I-27
I20
tp300
g0
(g9
g2
Ntp301
Rp302
(dp303
g13
I01
sg14
F0.05871737283265585
sg15
g300
sbs(I24
I2
tp304
g0
(g9
g2
Ntp305
Rp306
(dp307
g13
I01
sg14
F-0.5278060066918346
sg15
g304
sbs(I-16
I20
tp308
g0
(g9
g2
Ntp309
Rp310
(dp311
g13
I01
sg14
F-1.4317093316565774
sg15
g308
sbs(I-11
I17
tp312
g0
(g9
g2
Ntp313
Rp314
(dp315
g13
I01
sg14
F-0.12503435567117765
sg15
g312
sbs(I-15
I17
tp316
g0
(g9
g2
Ntp317
Rp318
(dp319
g13
I01
sg14
F-0.32986427756067965
sg15
g316
sbs(I-14
I22
tp320
g0
(g9
g2
Ntp321
Rp322
(dp323
g13
I01
sg14
F0.33983464300698846
sg15
g320
sbs(I-2
I14
tp324
g0
(g9
g2
Ntp325
Rp326
(dp327
g13
I01
sg14
F1.1784063585398392
sg15
g324
sbs(I-17
I19
tp328
g0
(g9
g2
Ntp329
Rp330
(dp331
g13
I01
sg14
F0.6307729184476973
sg15
g328
sbs(I19
I1
tp332
g0
(g9
g2
Ntp333
Rp334
(dp335
g13
I01
sg14
F-0.26059257756499604
sg15
g332
sbs(I-21
I19
tp336
g0
(g9
g2
Ntp337
Rp338
(dp339
g13
I01
sg14
F0.6893920533991545
sg15
g336
sbs(I-20
I20
tp340
g0
(g9
g2
Ntp341
Rp342
(dp343
g13
I01
sg14
F0.2338219791615247
sg15
g340
sbs(I-5
I20
tp344
g0
(g9
g2
Ntp345
Rp346
(dp347
g13
I01
sg14
F0.6830714422404234
sg15
g344
sbs(I-4
I23
tp348
g0
(g9
g2
Ntp349
Rp350
(dp351
g13
I01
sg14
F-0.5456687509502214
sg15
g348
sbs(I-3
I22
tp352
g0
(g9
g2
Ntp353
Rp354
(dp355
g13
I01
sg14
F1.3261272891832574
sg15
g352
sbs(I-5
I10
tp356
g0
(g9
g2
Ntp357
Rp358
(dp359
g13
I01
sg14
F0.5992086150804548
sg15
g356
sbs(I-28
I24
tp360
g0
(g9
g2
Ntp361
Rp362
(dp363
g13
I01
sg14
F1.2732185407748255
sg15
g360
sbs(I-4
I13
tp364
g0
(g9
g2
Ntp365
Rp366
(dp367
g13
I01
sg14
F0.22302279593068436
sg15
g364
sbs(I24
I9
tp368
g0
(g9
g2
Ntp369
Rp370
(dp371
g13
I01
sg14
F-0.18154996966377138
sg15
g368
sbs(I-16
I11
tp372
g0
(g9
g2
Ntp373
Rp374
(dp375
g13
I01
sg14
F-1.3477305698874373
sg15
g372
sbs(I-26
I18
tp376
g0
(g9
g2
Ntp377
Rp378
(dp379
g13
I01
sg14
F1.5343922890270552
sg15
g376
sbs(I21
I9
tp380
g0
(g9
g2
Ntp381
Rp382
(dp383
g13
I01
sg14
F0.877951855894065
sg15
g380
sbs(I-15
I10
tp384
g0
(g9
g2
Ntp385
Rp386
(dp387
g13
I01
sg14
F-0.6575835895461258
sg15
g384
sbs(I-10
I17
tp388
g0
(g9
g2
Ntp389
Rp390
(dp391
g13
I01
sg14
F0.5053307672669176
sg15
g388
sbs(I-14
I17
tp392
g0
(g9
g2
Ntp393
Rp394
(dp395
g13
I01
sg14
F1.4618969092019742
sg15
g392
sbs(I-9
I20
tp396
g0
(g9
g2
Ntp397
Rp398
(dp399
g13
I01
sg14
F0.8847177274725604
sg15
g396
sbs(I-10
I11
tp400
g0
(g9
g2
Ntp401
Rp402
(dp403
g13
I01
sg14
F1.797857242952088
sg15
g400
sbs(I-2
I16
tp404
g0
(g9
g2
Ntp405
Rp406
(dp407
g13
I01
sg14
F-0.36611491513567396
sg15
g404
sbs(I-17
I24
tp408
g0
(g9
g2
Ntp409
Rp410
(dp411
g13
I01
sg14
F0.4956453723262836
sg15
g408
sbs(I19
I6
tp412
g0
(g9
g2
Ntp413
Rp414
(dp415
g13
I01
sg14
F-0.5073605886366274
sg15
g412
sbs(I-8
I16
tp416
g0
(g9
g2
Ntp417
Rp418
(dp419
g13
I01
sg14
F1.350821225077968
sg15
g416
sbs(I20
I1
tp420
g0
(g9
g2
Ntp421
Rp422
(dp423
g13
I01
sg14
F-1.7638444974840346
sg15
g420
sbs(I-20
I19
tp424
g0
(g9
g2
Ntp425
Rp426
(dp427
g13
I01
sg14
F0.9155185238112907
sg15
g424
sbs(I16
I2
tp428
g0
(g9
g2
Ntp429
Rp430
(dp431
g13
I01
sg14
F0.027050757883953665
sg15
g428
sbs(I-31
I18
tp432
g0
(g9
g2
Ntp433
Rp434
(dp435
g13
I01
sg14
F1.3778196227094137
sg15
g432
sbs(I-7
I13
tp436
g0
(g9
g2
Ntp437
Rp438
(dp439
g13
I01
sg14
F-0.37819842510061885
sg15
g436
sbs(I21
I4
tp440
g0
(g9
g2
Ntp441
Rp442
(dp443
g13
I01
sg14
F0.01932991435779622
sg15
g440
sbs(I-19
I18
tp444
g0
(g9
g2
Ntp445
Rp446
(dp447
g13
I01
sg14
F0.6638560019004333
sg15
g444
sbs(I-6
I10
tp448
g0
(g9
g2
Ntp449
Rp450
(dp451
g13
I01
sg14
F-1.6978988239698827
sg15
g448
sbs(I-1
I12
tp452
g0
(g9
g2
Ntp453
Rp454
(dp455
g13
I01
sg14
F-0.0743983982793987
sg15
g452
sbs(I10
I5
tp456
g0
(g9
g2
Ntp457
Rp458
(dp459
g13
I01
sg14
F-0.49932084898950907
sg15
g456
sbs(I11
I8
tp460
g0
(g9
g2
Ntp461
Rp462
(dp463
g13
I01
sg14
F-0.7408429221516428
sg15
g460
sbs(I14
I7
tp464
g0
(g9
g2
Ntp465
Rp466
(dp467
g13
I01
sg14
F0.4058700357266907
sg15
g464
sbs(I-26
I21
tp468
g0
(g9
g2
Ntp469
Rp470
(dp471
g13
I01
sg14
F0.4963532069896174
sg15
g468
sbs(I-1
I22
tp472
g0
(g9
g2
Ntp473
Rp474
(dp475
g13
I01
sg14
F-0.759912716510869
sg15
g472
sbs(I-13
I15
tp476
g0
(g9
g2
Ntp477
Rp478
(dp479
g13
I01
sg14
F0.0028511448287810537
sg15
g476
sbs(I15
I6
tp480
g0
(g9
g2
Ntp481
Rp482
(dp483
g13
I01
sg14
F0.9085944975417433
sg15
g480
sbs(I-25
I16
tp484
g0
(g9
g2
Ntp485
Rp486
(dp487
g13
I01
sg14
F-1.3575029296743575
sg15
g484
sbs(I-16
I24
tp488
g0
(g9
g2
Ntp489
Rp490
(dp491
g13
I01
sg14
F-0.8417807391439056
sg15
g488
sbs(I-11
I13
tp492
g0
(g9
g2
Ntp493
Rp494
(dp495
g13
I01
sg14
F0.10498290879812437
sg15
g492
sbs(I-24
I14
tp496
g0
(g9
g2
Ntp497
Rp498
(dp499
g13
I01
sg14
F-0.5747385991971287
sg15
g496
sbs(I-23
I15
tp500
g0
(g9
g2
Ntp501
Rp502
(dp503
g13
I01
sg14
F0.6751497748905524
sg15
g500
sbs(I-9
I11
tp504
g0
(g9
g2
Ntp505
Rp506
(dp507
g13
I01
sg14
F0.3196038402106912
sg15
g504
sbs(I20
I8
tp508
g0
(g9
g2
Ntp509
Rp510
(dp511
g13
I01
sg14
F0.1554299207513234
sg15
g508
sbs(I-22
I12
tp512
g0
(g9
g2
Ntp513
Rp514
(dp515
g13
I01
sg14
F-0.9744067325702218
sg15
g512
sbs(I-24
I20
tp516
g0
(g9
g2
Ntp517
Rp518
(dp519
g13
I01
sg14
F0.2325775102990253
sg15
g516
sbs(I17
I3
tp520
g0
(g9
g2
Ntp521
Rp522
(dp523
g13
I01
sg14
F0.4293373458673686
sg15
g520
sbs(I-23
I17
tp524
g0
(g9
g2
Ntp525
Rp526
(dp527
g13
I01
sg14
F-0.6746365911095218
sg15
g524
sbs(I-8
I23
tp528
g0
(g9
g2
Ntp529
Rp530
(dp531
g13
I01
sg14
F1.2312334335659074
sg15
g528
sbs(I-18
I14
tp532
g0
(g9
g2
Ntp533
Rp534
(dp535
g13
I01
sg14
F0.7723238766231657
sg15
g532
sbs(I-20
I10
tp536
g0
(g9
g2
Ntp537
Rp538
(dp539
g13
I01
sg14
F-1.2447515021026219
sg15
g536
sbs(I-22
I22
tp540
g0
(g9
g2
Ntp541
Rp542
(dp543
g13
I01
sg14
F-0.7696356949636984
sg15
g540
sbs(I-7
I22
tp544
g0
(g9
g2
Ntp545
Rp546
(dp547
g13
I01
sg14
F0.2373641764087982
sg15
g544
sbs(I-17
I15
tp548
g0
(g9
g2
Ntp549
Rp550
(dp551
g13
I01
sg14
F0.5951820887282361
sg15
g548
sbs(I-19
I11
tp552
g0
(g9
g2
Ntp553
Rp554
(dp555
g13
I01
sg14
F0.06211873588319322
sg15
g552
sbs(I-30
I16
tp556
g0
(g9
g2
Ntp557
Rp558
(dp559
g13
I01
sg14
F0.8704277444971624
sg15
g556
sbs(I-6
I21
tp560
g0
(g9
g2
Ntp561
Rp562
(dp563
g13
I01
sg14
F0.8088774627839003
sg15
g560
sbs(I22
I2
tp564
g0
(g9
g2
Ntp565
Rp566
(dp567
g13
I01
sg14
F0.964414735843846
sg15
g564
sbs(I-29
I13
tp568
g0
(g9
g2
Ntp569
Rp570
(dp571
g13
I01
sg14
F-1.5150958867056072
sg15
g568
sbs(I-5
I24
tp572
g0
(g9
g2
Ntp573
Rp574
(dp575
g13
I01
sg14
F0.22837141039735553
sg15
g572
sbs(I-31
I13
tp576
g0
(g9
g2
Ntp577
Rp578
(dp579
g13
I01
sg14
F0.5909118525165049
sg15
g576
sbs(I-24
I12
tp580
g0
(g9
g2
Ntp581
Rp582
(dp583
g13
I01
sg14
F0.9549898239035696
sg15
g580
sbs(I-28
I14
tp584
g0
(g9
g2
Ntp585
Rp586
(dp587
g13
I01
sg14
F1.0282151979385454
sg15
g584
sbs(I-30
I10
tp588
g0
(g9
g2
Ntp589
Rp590
(dp591
g13
I01
sg14
F0.06100784555678677
sg15
g588
sbs(I-27
I15
tp592
g0
(g9
g2
Ntp593
Rp594
(dp595
g13
I01
sg14
F1.1123807750945596
sg15
g592
sbs(I-29
I19
tp596
g0
(g9
g2
Ntp597
Rp598
(dp599
g13
I01
sg14
F1.3819728920106897
sg15
g596
sbs(I-26
I12
tp600
g0
(g9
g2
Ntp601
Rp602
(dp603
g13
I01
sg14
F1.9168020710176732
sg15
g600
sbs(I-28
I20
tp604
g0
(g9
g2
Ntp605
Rp606
(dp607
g13
I01
sg14
F1.5424450807758057
sg15
g604
sbs(I-13
I20
tp608
g0
(g9
g2
Ntp609
Rp610
(dp611
g13
I01
sg14
F0.5326458308151064
sg15
g608
sbs(I-12
I23
tp612
g0
(g9
g2
Ntp613
Rp614
(dp615
g13
I01
sg14
F-0.6023769238000333
sg15
g612
sbs(I-11
I22
tp616
g0
(g9
g2
Ntp617
Rp618
(dp619
g13
I01
sg14
F-1.571218132146272
sg15
g616
sbs(I11
I1
tp620
g0
(g9
g2
Ntp621
Rp622
(dp623
g13
I01
sg14
F-0.1373916723337097
sg15
g620
sbs(I13
I9
tp624
g0
(g9
g2
Ntp625
Rp626
(dp627
g13
I01
sg14
F0.5563526281864124
sg15
g624
sbs(I17
I4
tp628
g0
(g9
g2
Ntp629
Rp630
(dp631
g13
I01
sg14
F-1.9726238064896955
sg15
g628
sbs(I-18
I17
tp632
g0
(g9
g2
Ntp633
Rp634
(dp635
g13
I01
sg14
F-1.0190429303315138
sg15
g632
sbs(I-1
I18
tp636
g0
(g9
g2
Ntp637
Rp638
(dp639
g13
I01
sg14
F-1.573218234415408
sg15
g636
sbs(I18
I3
tp640
g0
(g9
g2
Ntp641
Rp642
(dp643
g13
I01
sg14
F-0.5518678312374632
sg15
g640
sbs(I-22
I17
tp644
g0
(g9
g2
Ntp645
Rp646
(dp647
g13
I01
sg14
F1.6100667007465477
sg15
g644
sbs(I-17
I20
tp648
g0
(g9
g2
Ntp649
Rp650
(dp651
g13
I01
sg14
F0.688574708429875
sg15
g648
sbs(I22
I5
tp652
g0
(g9
g2
Ntp653
Rp654
(dp655
g13
I01
sg14
F-1.0725936809862067
sg15
g652
sbs(I-5
I17
tp656
g0
(g9
g2
Ntp657
Rp658
(dp659
g13
I01
sg14
F0.5705472174116919
sg15
g656
sbs(I23
I0
tp660
g0
(g9
g2
Ntp661
Rp662
(dp663
g13
I01
sg14
F0.5907175980611246
sg15
g660
sbs(I11
I6
tp664
g0
(g9
g2
Ntp665
Rp666
(dp667
g13
I01
sg14
F0.22166282225051107
sg15
g664
sbs(I-29
I24
tp668
g0
(g9
g2
Ntp669
Rp670
(dp671
g13
I01
sg14
F0.5508098164062548
sg15
g668
sbs(I12
I1
tp672
g0
(g9
g2
Ntp673
Rp674
(dp675
g13
I01
sg14
F-0.9345446876438356
sg15
g672
sbs(I-28
I19
tp676
g0
(g9
g2
Ntp677
Rp678
(dp679
g13
I01
sg14
F1.265484528601223
sg15
g676
sbs(I13
I4
tp680
g0
(g9
g2
Ntp681
Rp682
(dp683
g13
I01
sg14
F-0.3468476157430643
sg15
g680
sbs(I-27
I18
tp684
g0
(g9
g2
Ntp685
Rp686
(dp687
g13
I01
sg14
F3.0232371555391047
sg15
g684
sbs(I24
I4
tp688
g0
(g9
g2
Ntp689
Rp690
(dp691
g13
I01
sg14
F0.5445307999659043
sg15
g688
sbs(I-16
I22
tp692
g0
(g9
g2
Ntp693
Rp694
(dp695
g13
I01
sg14
F1.1106881377937705
sg15
g692
sbs(I-15
I23
tp696
g0
(g9
g2
Ntp697
Rp698
(dp699
g13
I01
sg14
F-0.514584223542359
sg15
g696
sbs(I-14
I20
tp700
g0
(g9
g2
Ntp701
Rp702
(dp703
g13
I01
sg14
F-0.7185274041359155
sg15
g700
sbs(I12
I8
tp704
g0
(g9
g2
Ntp705
Rp706
(dp707
g13
I01
sg14
F0.32916418337188924
sg15
g704
sbs(I-18
I24
tp708
g0
(g9
g2
Ntp709
Rp710
(dp711
g13
I01
sg14
F-1.752345988366618
sg15
g708
sbs(I-22
I24
tp712
g0
(g9
g2
Ntp713
Rp714
(dp715
g13
I01
sg14
F-0.06793753698836989
sg15
g712
sbs(I-2
I10
tp716
g0
(g9
g2
Ntp717
Rp718
(dp719
g13
I01
sg14
F-0.09575498676877457
sg15
g716
sbs(I19
I3
tp720
g0
(g9
g2
Ntp721
Rp722
(dp723
g13
I01
sg14
F-1.1821085104860156
sg15
g720
sbs(I-21
I21
tp724
g0
(g9
g2
Ntp725
Rp726
(dp727
g13
I01
sg14
F0.8789811212780022
sg15
g724
sbs(I-8
I11
tp728
g0
(g9
g2
Ntp729
Rp730
(dp731
g13
I01
sg14
F1.0700942146946493
sg15
g728
sbs(I20
I4
tp732
g0
(g9
g2
Ntp733
Rp734
(dp735
g13
I01
sg14
F-0.09712652122371275
sg15
g732
sbs(I-20
I22
tp736
g0
(g9
g2
Ntp737
Rp738
(dp739
g13
I01
sg14
F0.4134647121948975
sg15
g736
sbs(I-5
I22
tp740
g0
(g9
g2
Ntp741
Rp742
(dp743
g13
I01
sg14
F1.5034234844357612
sg15
g740
sbs(I-7
I10
tp744
g0
(g9
g2
Ntp745
Rp746
(dp747
g13
I01
sg14
F-1.2207925598216365
sg15
g744
sbs(I-19
I23
tp748
g0
(g9
g2
Ntp749
Rp750
(dp751
g13
I01
sg14
F-1.0828834038726014
sg15
g748
sbs(I-4
I17
tp752
g0
(g9
g2
Ntp753
Rp754
(dp755
g13
I01
sg14
F0.16759324436581097
sg15
g752
sbs(I-3
I20
tp756
g0
(g9
g2
Ntp757
Rp758
(dp759
g13
I01
sg14
F0.1209864128381135
sg15
g756
sbs(I-5
I12
tp760
g0
(g9
g2
Ntp761
Rp762
(dp763
g13
I01
sg14
F-1.2306025795965043
sg15
g760
sbs(I-2
I11
tp764
g0
(g9
g2
Ntp765
Rp766
(dp767
g13
I01
sg14
F1.604127834255734
sg15
g764
sbs(I-4
I15
tp768
g0
(g9
g2
Ntp769
Rp770
(dp771
g13
I01
sg14
F-0.15956527361182826
sg15
g768
sbs(I-3
I14
tp772
g0
(g9
g2
Ntp773
Rp774
(dp775
g13
I01
sg14
F-0.7596473415096139
sg15
g772
sbs(I14
I2
tp776
g0
(g9
g2
Ntp777
Rp778
(dp779
g13
I01
sg14
F-0.3725491172159025
sg15
g776
sbs(I-16
I13
tp780
g0
(g9
g2
Ntp781
Rp782
(dp783
g13
I01
sg14
F-1.5101214705062815
sg15
g780
sbs(I-26
I16
tp784
g0
(g9
g2
Ntp785
Rp786
(dp787
g13
I01
sg14
F0.26452074360479
sg15
g784
sbs(I-11
I24
tp788
g0
(g9
g2
Ntp789
Rp790
(dp791
g13
I01
sg14
F-0.6604779101272494
sg15
g788
sbs(I-25
I21
tp792
g0
(g9
g2
Ntp793
Rp794
(dp795
g13
I01
sg14
F-0.2434338907926789
sg15
g792
sbs(I-10
I23
tp796
g0
(g9
g2
Ntp797
Rp798
(dp799
g13
I01
sg14
F-0.24786351545564844
sg15
g796
sbs(I-14
I15
tp800
g0
(g9
g2
Ntp801
Rp802
(dp803
g13
I01
sg14
F-0.2407858366370946
sg15
g800
sbs(I-9
I22
tp804
g0
(g9
g2
Ntp805
Rp806
(dp807
g13
I01
sg14
F-3.6442156352455273
sg15
g804
sbs(I-9
I12
tp808
g0
(g9
g2
Ntp809
Rp810
(dp811
g13
I01
sg14
F0.6862671618919924
sg15
g808
sbs(I19
I8
tp812
g0
(g9
g2
Ntp813
Rp814
(dp815
g13
I01
sg14
F-0.9514053810783155
sg15
g812
sbs(I-21
I10
tp816
g0
(g9
g2
Ntp817
Rp818
(dp819
g13
I01
sg14
F-0.17990232695382258
sg15
g816
sbs(I11
I4
tp820
g0
(g9
g2
Ntp821
Rp822
(dp823
g13
I01
sg14
F-1.096848055251018
sg15
g820
sbs(I-8
I18
tp824
g0
(g9
g2
Ntp825
Rp826
(dp827
g13
I01
sg14
F1.2325037601533892
sg15
g824
sbs(I20
I3
tp828
g0
(g9
g2
Ntp829
Rp830
(dp831
g13
I01
sg14
F-0.12733493480865893
sg15
g828
sbs(I-20
I13
tp832
g0
(g9
g2
Ntp833
Rp834
(dp835
g13
I01
sg14
F-0.47442943641289576
sg15
g832
sbs(I-31
I16
tp836
g0
(g9
g2
Ntp837
Rp838
(dp839
g13
I01
sg14
F0.8405547878534882
sg15
g836
sbs(I-7
I19
tp840
g0
(g9
g2
Ntp841
Rp842
(dp843
g13
I01
sg14
F0.7431974609890818
sg15
g840
sbs(I21
I2
tp844
g0
(g9
g2
Ntp845
Rp846
(dp847
g13
I01
sg14
F-0.5519151239580619
sg15
g844
sbs(I-19
I16
tp848
g0
(g9
g2
Ntp849
Rp850
(dp851
g13
I01
sg14
F-0.7978356518075858
sg15
g848
sbs(I-30
I23
tp852
g0
(g9
g2
Ntp853
Rp854
(dp855
g13
I01
sg14
F0.4026182119495178
sg15
g852
sbs(I22
I9
tp856
g0
(g9
g2
Ntp857
Rp858
(dp859
g13
I01
sg14
F-1.6681534592220444
sg15
g856
sbs(I-31
I10
tp860
g0
(g9
g2
Ntp861
Rp862
(dp863
g13
I01
sg14
F-0.5968687342891558
sg15
g860
sbs(I23
I9
tp864
g0
(g9
g2
Ntp865
Rp866
(dp867
g13
I01
sg14
F2.361566941751331
sg15
g864
sbs(I10
I3
tp868
g0
(g9
g2
Ntp869
Rp870
(dp871
g13
I01
sg14
F0.8239729502183635
sg15
g868
sbs(I14
I5
tp872
g0
(g9
g2
Ntp873
Rp874
(dp875
g13
I01
sg14
F-2.8747351090584945
sg15
g872
sbs(I-26
I11
tp876
g0
(g9
g2
Ntp877
Rp878
(dp879
g13
I01
sg14
F-0.5004280977431114
sg15
g876
sbs(I-1
I20
tp880
g0
(g9
g2
Ntp881
Rp882
(dp883
g13
I01
sg14
F0.5525813767592785
sg15
g880
sbs(I-13
I17
tp884
g0
(g9
g2
Ntp885
Rp886
(dp887
g13
I01
sg14
F-0.5691012598633877
sg15
g884
sbs(I15
I0
tp888
g0
(g9
g2
Ntp889
Rp890
(dp891
g13
I01
sg14
F-0.7244849826809276
sg15
g888
sbs(I-25
I18
tp892
g0
(g9
g2
Ntp893
Rp894
(dp895
g13
I01
sg14
F0.14145092008278534
sg15
g892
sbs(I-12
I10
tp896
g0
(g9
g2
Ntp897
Rp898
(dp899
g13
I01
sg14
F-0.3599760083149502
sg15
g896
sbs(I-11
I11
tp900
g0
(g9
g2
Ntp901
Rp902
(dp903
g13
I01
sg14
F0.8842948010502397
sg15
g900
sbs(I-23
I13
tp904
g0
(g9
g2
Ntp905
Rp906
(dp907
g13
I01
sg14
F-0.05894996990365452
sg15
g904
sbs(I-22
I10
tp908
g0
(g9
g2
Ntp909
Rp910
(dp911
g13
I01
sg14
F-0.3673567119746369
sg15
g908
sbs(I-24
I22
tp912
g0
(g9
g2
Ntp913
Rp914
(dp915
g13
I01
sg14
F-0.06414418702700762
sg15
g912
sbs(I17
I1
tp916
g0
(g9
g2
Ntp917
Rp918
(dp919
g13
I01
sg14
F-0.6967275476681446
sg15
g916
sbs(I-23
I23
tp920
g0
(g9
g2
Ntp921
Rp922
(dp923
g13
I01
sg14
F1.2911245531188489
sg15
g920
sbs(I-18
I12
tp924
g0
(g9
g2
Ntp925
Rp926
(dp927
g13
I01
sg14
F1.9800622281895348
sg15
g924
sbs(I18
I6
tp928
g0
(g9
g2
Ntp929
Rp930
(dp931
g13
I01
sg14
F-0.6435400419273636
sg15
g928
sbs(I-22
I20
tp932
g0
(g9
g2
Ntp933
Rp934
(dp935
g13
I01
sg14
F2.4716375566812356
sg15
g932
sbs(I-7
I20
tp936
g0
(g9
g2
Ntp937
Rp938
(dp939
g13
I01
sg14
F0.3046004588884476
sg15
g936
sbs(I-6
I19
tp940
g0
(g9
g2
Ntp941
Rp942
(dp943
g13
I01
sg14
F1.4028687601542416
sg15
g940
sbs(I22
I0
tp944
g0
(g9
g2
Ntp945
Rp946
(dp947
g13
I01
sg14
F0.01889245392836692
sg15
g944
sbs(I-29
I15
tp948
g0
(g9
g2
Ntp949
Rp950
(dp951
g13
I01
sg14
F-0.593045617509231
sg15
g948
sbs(I23
I5
tp952
g0
(g9
g2
Ntp953
Rp954
(dp955
g13
I01
sg14
F0.9708335604599565
sg15
g952
sbs(I-27
I13
tp956
g0
(g9
g2
Ntp957
Rp958
(dp959
g13
I01
sg14
F-1.1652228092023185
sg15
g956
sbs(I-29
I21
tp960
g0
(g9
g2
Ntp961
Rp962
(dp963
g13
I01
sg14
F-0.49706081413228964
sg15
g960
sbs(I12
I4
tp964
g0
(g9
g2
Ntp965
Rp966
(dp967
g13
I01
sg14
F0.9311795531537708
sg15
g964
sbs(I-28
I22
tp968
g0
(g9
g2
Ntp969
Rp970
(dp971
g13
I01
sg14
F-0.3954244499448382
sg15
g968
sbs(I-13
I22
tp972
g0
(g9
g2
Ntp973
Rp974
(dp975
g13
I01
sg14
F-0.15298598316085132
sg15
g972
sbs(I15
I9
tp976
g0
(g9
g2
Ntp977
Rp978
(dp979
g13
I01
sg14
F-0.785552883428497
sg15
g976
sbs(I-25
I11
tp980
g0
(g9
g2
Ntp981
Rp982
(dp983
g13
I01
sg14
F-0.4063688452219238
sg15
g980
sbs(I-27
I23
tp984
g0
(g9
g2
Ntp985
Rp986
(dp987
g13
I01
sg14
F1.3101205172882868
sg15
g984
sbs(I-12
I17
tp988
g0
(g9
g2
Ntp989
Rp990
(dp991
g13
I01
sg14
F0.03074741525642137
sg15
g988
sbs(I-16
I17
tp992
g0
(g9
g2
Ntp993
Rp994
(dp995
g13
I01
sg14
F0.22517332155774203
sg15
g992
sbs(I-11
I20
tp996
g0
(g9
g2
Ntp997
Rp998
(dp999
g13
I01
sg14
F-0.21978622955725194
sg15
g996
sbs(I18
I9
tp1000
g0
(g9
g2
Ntp1001
Rp1002
(dp1003
g13
I01
sg14
F-0.5430821515981243
sg15
g1000
sbs(I16
I1
tp1004
g0
(g9
g2
Ntp1005
Rp1006
(dp1007
g13
I01
sg14
F-0.527685495252227
sg15
g1004
sbs(I-23
I24
tp1008
g0
(g9
g2
Ntp1009
Rp1010
(dp1011
g13
I01
sg14
F-1.3652868619960674
sg15
g1008
sbs(I-18
I23
tp1012
g0
(g9
g2
Ntp1013
Rp1014
(dp1015
g13
I01
sg14
F-0.2280413890851799
sg15
g1012
sbs(I18
I1
tp1016
g0
(g9
g2
Ntp1017
Rp1018
(dp1019
g13
I01
sg14
F-0.19394327165726769
sg15
g1016
sbs(I-17
I22
tp1020
g0
(g9
g2
Ntp1021
Rp1022
(dp1023
g13
I01
sg14
F0.8751649909107386
sg15
g1020
sbs(I-5
I19
tp1024
g0
(g9
g2
Ntp1025
Rp1026
(dp1027
g13
I01
sg14
F1.7053571562995855
sg15
g1024
sbs(I23
I2
tp1028
g0
(g9
g2
Ntp1029
Rp1030
(dp1031
g13
I01
sg14
F-0.07323714751182794
sg15
g1028
sbs(I-4
I20
tp1032
g0
(g9
g2
Ntp1033
Rp1034
(dp1035
g13
I01
sg14
F0.29419415387921954
sg15
g1032
sbs(I12
I3
tp1036
g0
(g9
g2
Ntp1037
Rp1038
(dp1039
g13
I01
sg14
F0.9446616346236832
sg15
g1036
sbs(I13
I2
tp1040
g0
(g9
g2
Ntp1041
Rp1042
(dp1043
g13
I01
sg14
F0.4168759988284423
sg15
g1040
sbs(I-27
I16
tp1044
g0
(g9
g2
Ntp1045
Rp1046
(dp1047
g13
I01
sg14
F-0.2673076494378305
sg15
g1044
sbs(I-12
I24
tp1048
g0
(g9
g2
Ntp1049
Rp1050
(dp1051
g13
I01
sg14
F-2.227869749595137
sg15
g1048
sbs(I24
I6
tp1052
g0
(g9
g2
Ntp1053
Rp1054
(dp1055
g13
I01
sg14
F0.9732201425946093
sg15
g1052
sbs(I-15
I21
tp1056
g0
(g9
g2
Ntp1057
Rp1058
(dp1059
g13
I01
sg14
F0.5292991851803829
sg15
g1056
sbs(I-10
I18
tp1060
g0
(g9
g2
Ntp1061
Rp1062
(dp1063
g13
I01
sg14
F0.06963965073106282
sg15
g1060
sbs(I-14
I18
tp1064
g0
(g9
g2
Ntp1065
Rp1066
(dp1067
g13
I01
sg14
F0.1632906805778242
sg15
g1064
sbs(I17
I9
tp1068
g0
(g9
g2
Ntp1069
Rp1070
(dp1071
g13
I01
sg14
F-2.7277308189390403
sg15
g1068
sbs(I16
I8
tp1072
g0
(g9
g2
Ntp1073
Rp1074
(dp1075
g13
I01
sg14
F0.8611651157609339
sg15
g1072
sbs(I19
I5
tp1076
g0
(g9
g2
Ntp1077
Rp1078
(dp1079
g13
I01
sg14
F0.5745431057172953
sg15
g1076
sbs(I-21
I23
tp1080
g0
(g9
g2
Ntp1081
Rp1082
(dp1083
g13
I01
sg14
F-0.684834618109237
sg15
g1080
sbs(I-8
I13
tp1084
g0
(g9
g2
Ntp1085
Rp1086
(dp1087
g13
I01
sg14
F0.20981196485199993
sg15
g1084
sbs(I20
I6
tp1088
g0
(g9
g2
Ntp1089
Rp1090
(dp1091
g13
I01
sg14
F0.12321310146106385
sg15
g1088
sbs(I-20
I16
tp1092
g0
(g9
g2
Ntp1093
Rp1094
(dp1095
g13
I01
sg14
F-1.6037308310730365
sg15
g1092
sbs(I21
I7
tp1096
g0
(g9
g2
Ntp1097
Rp1098
(dp1099
g13
I01
sg14
F-0.8712060373572112
sg15
g1096
sbs(I-19
I21
tp1100
g0
(g9
g2
Ntp1101
Rp1102
(dp1103
g13
I01
sg14
F1.1697354933767534
sg15
g1100
sbs(I-4
I19
tp1104
g0
(g9
g2
Ntp1105
Rp1106
(dp1107
g13
I01
sg14
F0.7662422066778978
sg15
g1104
sbs(I-6
I15
tp1108
g0
(g9
g2
Ntp1109
Rp1110
(dp1111
g13
I01
sg14
F1.7289630008892485
sg15
g1108
sbs(I-3
I18
tp1112
g0
(g9
g2
Ntp1113
Rp1114
(dp1115
g13
I01
sg14
F1.2171306256943324
sg15
g1112
sbs(I-5
I14
tp1116
g0
(g9
g2
Ntp1117
Rp1118
(dp1119
g13
I01
sg14
F-0.2623399895264329
sg15
g1116
sbs(I10
I6
tp1120
g0
(g9
g2
Ntp1121
Rp1122
(dp1123
g13
I01
sg14
F0.047955332041663905
sg15
g1120
sbs(I-3
I12
tp1124
g0
(g9
g2
Ntp1125
Rp1126
(dp1127
g13
I01
sg14
F0.1015542560367031
sg15
g1124
sbs(I14
I0
tp1128
g0
(g9
g2
Ntp1129
Rp1130
(dp1131
g13
I01
sg14
F0.9981191566235679
sg15
g1128
sbs(I-16
I15
tp1132
g0
(g9
g2
Ntp1133
Rp1134
(dp1135
g13
I01
sg14
F0.30353068541965506
sg15
g1132
sbs(I-26
I22
tp1136
g0
(g9
g2
Ntp1137
Rp1138
(dp1139
g13
I01
sg14
F-1.2907062625551065
sg15
g1136
sbs(I-1
I19
tp1140
g0
(g9
g2
Ntp1141
Rp1142
(dp1143
g13
I01
sg14
F0.2805084943638591
sg15
g1140
sbs(I-13
I10
tp1144
g0
(g9
g2
Ntp1145
Rp1146
(dp1147
g13
I01
sg14
F2.024827076109543
sg15
g1144
sbs(I15
I5
tp1148
g0
(g9
g2
Ntp1149
Rp1150
(dp1151
g13
I01
sg14
F-1.131239858145642
sg15
g1148
sbs(I-15
I14
tp1152
g0
(g9
g2
Ntp1153
Rp1154
(dp1155
g13
I01
sg14
F1.4974598855546977
sg15
g1152
sbs(I-25
I23
tp1156
g0
(g9
g2
Ntp1157
Rp1158
(dp1159
g13
I01
sg14
F-0.9082382440398444
sg15
g1156
sbs(I-10
I21
tp1160
g0
(g9
g2
Ntp1161
Rp1162
(dp1163
g13
I01
sg14
F0.6873623746969619
sg15
g1160
sbs(I-12
I13
tp1164
g0
(g9
g2
Ntp1165
Rp1166
(dp1167
g13
I01
sg14
F-2.2156105781997155
sg15
g1164
sbs(I-14
I13
tp1168
g0
(g9
g2
Ntp1169
Rp1170
(dp1171
g13
I01
sg14
F1.313726002493421
sg15
g1168
sbs(I-9
I16
tp1172
g0
(g9
g2
Ntp1173
Rp1174
(dp1175
g13
I01
sg14
F-1.6526696677458281
sg15
g1172
sbs(I-1
I21
tp1176
g0
(g9
g2
Ntp1177
Rp1178
(dp1179
g13
I01
sg14
F-0.7619979111945578
sg15
g1176
sbs(I-24
I11
tp1180
g0
(g9
g2
Ntp1181
Rp1182
(dp1183
g13
I01
sg14
F1.3391500962908018
sg15
g1180
sbs(I-10
I15
tp1184
g0
(g9
g2
Ntp1185
Rp1186
(dp1187
g13
I01
sg14
F1.3291459854786767
sg15
g1184
sbs(I-23
I10
tp1188
g0
(g9
g2
Ntp1189
Rp1190
(dp1191
g13
I01
sg14
F-0.09765806629360206
sg15
g1188
sbs(I-9
I14
tp1192
g0
(g9
g2
Ntp1193
Rp1194
(dp1195
g13
I01
sg14
F-2.006161419920884
sg15
g1192
sbs(I-24
I17
tp1196
g0
(g9
g2
Ntp1197
Rp1198
(dp1199
g13
I01
sg14
F-0.20355109756299222
sg15
g1196
sbs(I-21
I12
tp1200
g0
(g9
g2
Ntp1201
Rp1202
(dp1203
g13
I01
sg14
F0.8883275405607324
sg15
g1200
sbs(I-8
I20
tp1204
g0
(g9
g2
Ntp1205
Rp1206
(dp1207
g13
I01
sg14
F-1.2984913058265506
sg15
g1204
sbs(I-18
I11
tp1208
g0
(g9
g2
Ntp1209
Rp1210
(dp1211
g13
I01
sg14
F-1.3531940915689427
sg15
g1208
sbs(I-20
I15
tp1212
g0
(g9
g2
Ntp1213
Rp1214
(dp1215
g13
I01
sg14
F0.5349814315554108
sg15
g1212
sbs(I-31
I22
tp1216
g0
(g9
g2
Ntp1217
Rp1218
(dp1219
g13
I01
sg14
F0.14719051481146553
sg15
g1216
sbs(I-7
I17
tp1220
g0
(g9
g2
Ntp1221
Rp1222
(dp1223
g13
I01
sg14
F-1.2506458414023642
sg15
g1220
sbs(I21
I0
tp1224
g0
(g9
g2
Ntp1225
Rp1226
(dp1227
g13
I01
sg14
F0.09413162685486823
sg15
g1224
sbs(I-19
I14
tp1228
g0
(g9
g2
Ntp1229
Rp1230
(dp1231
g13
I01
sg14
F-0.9208196113685908
sg15
g1228
sbs(I-30
I21
tp1232
g0
(g9
g2
Ntp1233
Rp1234
(dp1235
g13
I01
sg14
F-1.1290618931489107
sg15
g1232
sbs(I-6
I22
tp1236
g0
(g9
g2
Ntp1237
Rp1238
(dp1239
g13
I01
sg14
F0.6459005776426274
sg15
g1236
sbs(I10
I1
tp1240
g0
(g9
g2
Ntp1241
Rp1242
(dp1243
g13
I01
sg14
F1.1905326581986968
sg15
g1240
sbs(I-30
I15
tp1244
g0
(g9
g2
Ntp1245
Rp1246
(dp1247
g13
I01
sg14
F3.6505406262132873
sg15
g1244
sbs(I-13
I19
tp1248
g0
(g9
g2
Ntp1249
Rp1250
(dp1251
g13
I01
sg14
F1.4556312787972714
sg15
g1248
sbs(I15
I2
tp1252
g0
(g9
g2
Ntp1253
Rp1254
(dp1255
g13
I01
sg14
F-1.5865540385020394
sg15
g1252
sbs(I-25
I12
tp1256
g0
(g9
g2
Ntp1257
Rp1258
(dp1259
g13
I01
sg14
F1.181029842995525
sg15
g1256
sbs(I-12
I20
tp1260
g0
(g9
g2
Ntp1261
Rp1262
(dp1263
g13
I01
sg14
F-0.35852295342977186
sg15
g1260
sbs(I-1
I13
tp1264
g0
(g9
g2
Ntp1265
Rp1266
(dp1267
g13
I01
sg14
F0.9886331179924032
sg15
g1264
sbs(I11
I5
tp1268
g0
(g9
g2
Ntp1269
Rp1270
(dp1271
g13
I01
sg14
F-0.33421528271733575
sg15
g1268
sbs(I16
I6
tp1272
g0
(g9
g2
Ntp1273
Rp1274
(dp1275
g13
I01
sg14
F0.09140655334120237
sg15
g1272
sbs(I-24
I24
tp1276
g0
(g9
g2
Ntp1277
Rp1278
(dp1279
g13
I01
sg14
F-1.1624692275702977
sg15
g1276
sbs(I17
I7
tp1280
g0
(g9
g2
Ntp1281
Rp1282
(dp1283
g13
I01
sg14
F0.9505610154134242
sg15
g1280
sbs(I-23
I21
tp1284
g0
(g9
g2
Ntp1285
Rp1286
(dp1287
g13
I01
sg14
F0.5121898872159519
sg15
g1284
sbs(I-18
I18
tp1288
g0
(g9
g2
Ntp1289
Rp1290
(dp1291
g13
I01
sg14
F-0.9828563299751537
sg15
g1288
sbs(I18
I4
tp1292
g0
(g9
g2
Ntp1293
Rp1294
(dp1295
g13
I01
sg14
F0.6346182646136146
sg15
g1292
sbs(I-22
I18
tp1296
g0
(g9
g2
Ntp1297
Rp1298
(dp1299
g13
I01
sg14
F-1.404238675250892
sg15
g1296
sbs(I-17
I11
tp1300
g0
(g9
g2
Ntp1301
Rp1302
(dp1303
g13
I01
sg14
F0.25033874821250934
sg15
g1300
sbs(I21
I8
tp1304
g0
(g9
g2
Ntp1305
Rp1306
(dp1307
g13
I01
sg14
F2.145134496542756
sg15
g1304
sbs(I-6
I17
tp1308
g0
(g9
g2
Ntp1309
Rp1310
(dp1311
g13
I01
sg14
F1.4448744797386623
sg15
g1308
sbs(I22
I6
tp1312
g0
(g9
g2
Ntp1313
Rp1314
(dp1315
g13
I01
sg14
F1.531083407338993
sg15
g1312
sbs(I23
I7
tp1316
g0
(g9
g2
Ntp1317
Rp1318
(dp1319
g13
I01
sg14
F1.300136526337347
sg15
g1316
sbs(I-28
I10
tp1320
g0
(g9
g2
Ntp1321
Rp1322
(dp1323
g13
I01
sg14
F-1.0300953270401303
sg15
g1320
sbs(I-27
I11
tp1324
g0
(g9
g2
Ntp1325
Rp1326
(dp1327
g13
I01
sg14
F0.7271085391281261
sg15
g1324
sbs(I11
I3
tp1328
g0
(g9
g2
Ntp1329
Rp1330
(dp1331
g13
I01
sg14
F0.010047897649646392
sg15
g1328
sbs(I-29
I23
tp1332
g0
(g9
g2
Ntp1333
Rp1334
(dp1335
g13
I01
sg14
F0.5715281515804878
sg15
g1332
sbs(I12
I6
tp1336
g0
(g9
g2
Ntp1337
Rp1338
(dp1339
g13
I01
sg14
F1.8636719435612175
sg15
g1336
sbs(I-28
I16
tp1340
g0
(g9
g2
Ntp1341
Rp1342
(dp1343
g13
I01
sg14
F1.29996486867299
sg15
g1340
sbs(I-13
I24
tp1344
g0
(g9
g2
Ntp1345
Rp1346
(dp1347
g13
I01
sg14
F0.056063895450755796
sg15
g1344
sbs(I13
I7
tp1348
g0
(g9
g2
Ntp1349
Rp1350
(dp1351
g13
I01
sg14
F-1.1755407035947691
sg15
g1348
sbs(I-27
I21
tp1352
g0
(g9
g2
Ntp1353
Rp1354
(dp1355
g13
I01
sg14
F-0.15069858357788743
sg15
g1352
sbs(I-12
I19
tp1356
g0
(g9
g2
Ntp1357
Rp1358
(dp1359
g13
I01
sg14
F-0.1905776269370364
sg15
g1356
sbs(I24
I1
tp1360
g0
(g9
g2
Ntp1361
Rp1362
(dp1363
g13
I01
sg14
F-0.15686639990308077
sg15
g1360
sbs(I-16
I19
tp1364
g0
(g9
g2
Ntp1365
Rp1366
(dp1367
g13
I01
sg14
F1.679619028827448
sg15
g1364
sbs(I-11
I18
tp1368
g0
(g9
g2
Ntp1369
Rp1370
(dp1371
g13
I01
sg14
F0.5318546237401627
sg15
g1368
sbs(I-15
I18
tp1372
g0
(g9
g2
Ntp1373
Rp1374
(dp1375
g13
I01
sg14
F-0.5300260012556741
sg15
g1372
sbs(I-2
I23
tp1376
g0
(g9
g2
Ntp1377
Rp1378
(dp1379
g13
I01
sg14
F1.5033203633532177
sg15
g1376
sbs(I-18
I21
tp1380
g0
(g9
g2
Ntp1381
Rp1382
(dp1383
g13
I01
sg14
F-0.27777480695012574
sg15
g1380
sbs(I16
I5
tp1384
g0
(g9
g2
Ntp1385
Rp1386
(dp1387
g13
I01
sg14
F1.5646316381016316
sg15
g1384
sbs(I-17
I16
tp1388
g0
(g9
g2
Ntp1389
Rp1390
(dp1391
g13
I01
sg14
F0.14070175253525607
sg15
g1388
sbs(I-21
I16
tp1392
g0
(g9
g2
Ntp1393
Rp1394
(dp1395
g13
I01
sg14
F-1.7019777811292582
sg15
g1392
sbs(I-6
I24
tp1396
g0
(g9
g2
Ntp1397
Rp1398
(dp1399
g13
I01
sg14
F0.7687626949987336
sg15
g1396
sbs(I-5
I21
tp1400
g0
(g9
g2
Ntp1401
Rp1402
(dp1403
g13
I01
sg14
F0.5159955069310488
sg15
g1400
sbs(I-4
I22
tp1404
g0
(g9
g2
Ntp1405
Rp1406
(dp1407
g13
I01
sg14
F0.31555789349603136
sg15
g1404
sbs(I-3
I23
tp1408
g0
(g9
g2
Ntp1409
Rp1410
(dp1411
g13
I01
sg14
F0.25237490372877575
sg15
g1408
sbs(I-5
I11
tp1412
g0
(g9
g2
Ntp1413
Rp1414
(dp1415
g13
I01
sg14
F0.5166718032751317
sg15
g1412
sbs(I-4
I12
tp1416
g0
(g9
g2
Ntp1417
Rp1418
(dp1419
g13
I01
sg14
F-0.6129028003179847
sg15
g1416
sbs(I13
I0
tp1420
g0
(g9
g2
Ntp1421
Rp1422
(dp1423
g13
I01
sg14
F0.8095762586859474
sg15
g1420
sbs(I18
I8
tp1424
g0
(g9
g2
Ntp1425
Rp1426
(dp1427
g13
I01
sg14
F0.5508666829848042
sg15
g1424
sbs(I16
I0
tp1428
g0
(g9
g2
Ntp1429
Rp1430
(dp1431
g13
I01
sg14
F-0.6202095187179997
sg15
g1428
sbs(I24
I8
tp1432
g0
(g9
g2
Ntp1433
Rp1434
(dp1435
g13
I01
sg14
F-0.5097782523500581
sg15
g1432
sbs(I-16
I10
tp1436
g0
(g9
g2
Ntp1437
Rp1438
(dp1439
g13
I01
sg14
F-0.21729763045200828
sg15
g1436
sbs(I-15
I11
tp1440
g0
(g9
g2
Ntp1441
Rp1442
(dp1443
g13
I01
sg14
F0.6583352330450216
sg15
g1440
sbs(I-25
I24
tp1444
g0
(g9
g2
Ntp1445
Rp1446
(dp1447
g13
I01
sg14
F2.134820379908809
sg15
g1444
sbs(I-10
I16
tp1448
g0
(g9
g2
Ntp1449
Rp1450
(dp1451
g13
I01
sg14
F0.5871812689324384
sg15
g1448
sbs(I-14
I16
tp1452
g0
(g9
g2
Ntp1453
Rp1454
(dp1455
g13
I01
sg14
F-0.1904005129973501
sg15
g1452
sbs(I-9
I21
tp1456
g0
(g9
g2
Ntp1457
Rp1458
(dp1459
g13
I01
sg14
F0.17975453726411245
sg15
g1456
sbs(I-2
I15
tp1460
g0
(g9
g2
Ntp1461
Rp1462
(dp1463
g13
I01
sg14
F-0.3538049136279
sg15
g1460
sbs(I-10
I10
tp1464
g0
(g9
g2
Ntp1465
Rp1466
(dp1467
g13
I01
sg14
F0.8830891517847879
sg15
g1464
sbs(I19
I7
tp1468
g0
(g9
g2
Ntp1469
Rp1470
(dp1471
g13
I01
sg14
F1.001382656787668
sg15
g1468
sbs(I-8
I15
tp1472
g0
(g9
g2
Ntp1473
Rp1474
(dp1475
g13
I01
sg14
F-0.1078532406778819
sg15
g1472
sbs(I20
I0
tp1476
g0
(g9
g2
Ntp1477
Rp1478
(dp1479
g13
I01
sg14
F-0.8609821991242693
sg15
g1476
sbs(I-20
I18
tp1480
g0
(g9
g2
Ntp1481
Rp1482
(dp1483
g13
I01
sg14
F-0.044938470876659586
sg15
g1480
sbs(I-31
I19
tp1484
g0
(g9
g2
Ntp1485
Rp1486
(dp1487
g13
I01
sg14
F0.5931961854153268
sg15
g1484
sbs(I-7
I14
tp1488
g0
(g9
g2
Ntp1489
Rp1490
(dp1491
g13
I01
sg14
F-0.20685146068874882
sg15
g1488
sbs(I21
I5
tp1492
g0
(g9
g2
Ntp1493
Rp1494
(dp1495
g13
I01
sg14
F-1.2375283835099333
sg15
g1492
sbs(I-19
I19
tp1496
g0
(g9
g2
Ntp1497
Rp1498
(dp1499
g13
I01
sg14
F1.7336590710472337
sg15
g1496
sbs(I-30
I24
tp1500
g0
(g9
g2
Ntp1501
Rp1502
(dp1503
g13
I01
sg14
F0.9673764649854468
sg15
g1500
sbs(I-6
I13
tp1504
g0
(g9
g2
Ntp1505
Rp1506
(dp1507
g13
I01
sg14
F1.3365768684299628
sg15
g1504
sbs(I-3
I16
tp1508
g0
(g9
g2
Ntp1509
Rp1510
(dp1511
g13
I01
sg14
F0.6363226570973629
sg15
g1508
sbs(I-1
I15
tp1512
g0
(g9
g2
Ntp1513
Rp1514
(dp1515
g13
I01
sg14
F0.43431080356636675
sg15
g1512
sbs(I10
I4
tp1516
g0
(g9
g2
Ntp1517
Rp1518
(dp1519
g13
I01
sg14
F0.4900398087587114
sg15
g1516
sbs(I-4
I11
tp1520
g0
(g9
g2
Ntp1521
Rp1522
(dp1523
g13
I01
sg14
F1.1858893214407589
sg15
g1520
sbs(I17
I8
tp1524
g0
(g9
g2
Ntp1525
Rp1526
(dp1527
g13
I01
sg14
F1.1001104980540086
sg15
g1524
sbs(I11
I9
tp1528
g0
(g9
g2
Ntp1529
Rp1530
(dp1531
g13
I01
sg14
F-0.5644923257928133
sg15
g1528
sbs(I-3
I10
tp1532
g0
(g9
g2
Ntp1533
Rp1534
(dp1535
g13
I01
sg14
F-1.7851434713055587
sg15
g1532
sbs(I14
I6
tp1536
g0
(g9
g2
Ntp1537
Rp1538
(dp1539
g13
I01
sg14
F0.31008093273252413
sg15
g1536
sbs(I-26
I20
tp1540
g0
(g9
g2
Ntp1541
Rp1542
(dp1543
g13
I01
sg14
F-0.13555494796027487
sg15
g1540
sbs(I-2
I17
tp1544
g0
(g9
g2
Ntp1545
Rp1546
(dp1547
g13
I01
sg14
F1.0875790427358325
sg15
g1544
sbs(I-13
I12
tp1548
g0
(g9
g2
Ntp1549
Rp1550
(dp1551
g13
I01
sg14
F-1.6407508375338096
sg15
g1548
sbs(I15
I7
tp1552
g0
(g9
g2
Ntp1553
Rp1554
(dp1555
g13
I01
sg14
F0.508925104783102
sg15
g1552
sbs(I-15
I12
tp1556
g0
(g9
g2
Ntp1557
Rp1558
(dp1559
g13
I01
sg14
F0.4435034650084849
sg15
g1556
sbs(I-25
I17
tp1560
g0
(g9
g2
Ntp1561
Rp1562
(dp1563
g13
I01
sg14
F-1.4891172488103883
sg15
g1560
sbs(I-12
I15
tp1564
g0
(g9
g2
Ntp1565
Rp1566
(dp1567
g13
I01
sg14
F-1.171933535922244
sg15
g1564
sbs(I-14
I11
tp1568
g0
(g9
g2
Ntp1569
Rp1570
(dp1571
g13
I01
sg14
F1.6528106652266836
sg15
g1568
sbs(I-9
I18
tp1572
g0
(g9
g2
Ntp1573
Rp1574
(dp1575
g13
I01
sg14
F-0.36958576351574207
sg15
g1572
sbs(I-11
I14
tp1576
g0
(g9
g2
Ntp1577
Rp1578
(dp1579
g13
I01
sg14
F-2.95703938464786
sg15
g1576
sbs(I-24
I13
tp1580
g0
(g9
g2
Ntp1581
Rp1582
(dp1583
g13
I01
sg14
F-1.9620792506001712
sg15
g1580
sbs(I-10
I13
tp1584
g0
(g9
g2
Ntp1585
Rp1586
(dp1587
g13
I01
sg14
F-0.2151480654557604
sg15
g1584
sbs(I-1
I17
tp1588
g0
(g9
g2
Ntp1589
Rp1590
(dp1591
g13
I01
sg14
F1.4876807813304298
sg15
g1588
sbs(I-22
I15
tp1592
g0
(g9
g2
Ntp1593
Rp1594
(dp1595
g13
I01
sg14
F0.8925690168520705
sg15
g1592
sbs(I-24
I19
tp1596
g0
(g9
g2
Ntp1597
Rp1598
(dp1599
g13
I01
sg14
F-0.6700210787414137
sg15
g1596
sbs(I-21
I14
tp1600
g0
(g9
g2
Ntp1601
Rp1602
(dp1603
g13
I01
sg14
F-0.20619360959708785
sg15
g1600
sbs(I-23
I18
tp1604
g0
(g9
g2
Ntp1605
Rp1606
(dp1607
g13
I01
sg14
F0.687668203950647
sg15
g1604
sbs(I-8
I22
tp1608
g0
(g9
g2
Ntp1609
Rp1610
(dp1611
g13
I01
sg14
F-0.7585485801617334
sg15
g1608
sbs(I16
I3
tp1612
g0
(g9
g2
Ntp1613
Rp1614
(dp1615
g13
I01
sg14
F0.8435466233668949
sg15
g1612
sbs(I-31
I20
tp1616
g0
(g9
g2
Ntp1617
Rp1618
(dp1619
g13
I01
sg14
F1.0741799731327655
sg15
g1616
sbs(I-7
I23
tp1620
g0
(g9
g2
Ntp1621
Rp1622
(dp1623
g13
I01
sg14
F-0.48651283558147496
sg15
g1620
sbs(I-17
I12
tp1624
g0
(g9
g2
Ntp1625
Rp1626
(dp1627
g13
I01
sg14
F0.46000740274898094
sg15
g1624
sbs(I-19
I12
tp1628
g0
(g9
g2
Ntp1629
Rp1630
(dp1631
g13
I01
sg14
F0.8557593810178868
sg15
g1628
sbs(I-30
I19
tp1632
g0
(g9
g2
Ntp1633
Rp1634
(dp1635
g13
I01
sg14
F1.2954655018270258
sg15
g1632
sbs(I-6
I20
tp1636
g0
(g9
g2
Ntp1637
Rp1638
(dp1639
g13
I01
sg14
F-0.7167526193654287
sg15
g1636
sbs(I-29
I10
tp1640
g0
(g9
g2
Ntp1641
Rp1642
(dp1643
g13
I01
sg14
F0.7673480408291374
sg15
g1640
sbs(I-31
I14
tp1644
g0
(g9
g2
Ntp1645
Rp1646
(dp1647
g13
I01
sg14
F1.5455976936171338
sg15
g1644
sbs(I10
I9
tp1648
g0
(g9
g2
Ntp1649
Rp1650
(dp1651
g13
I01
sg14
F1.1785150712744668
sg15
g1648
sbs(I-28
I13
tp1652
g0
(g9
g2
Ntp1653
Rp1654
(dp1655
g13
I01
sg14
F1.0488941245072658
sg15
g1652
sbs(I-30
I13
tp1656
g0
(g9
g2
Ntp1657
Rp1658
(dp1659
g13
I01
sg14
F-1.595070879710267
sg15
g1656
sbs(I-29
I16
tp1660
g0
(g9
g2
Ntp1661
Rp1662
(dp1663
g13
I01
sg14
F0.6055394221717905
sg15
g1660
sbs(I14
I9
tp1664
g0
(g9
g2
Ntp1665
Rp1666
(dp1667
g13
I01
sg14
F2.1741119250083343
sg15
g1664
sbs(I-26
I15
tp1668
g0
(g9
g2
Ntp1669
Rp1670
(dp1671
g13
I01
sg14
F-1.9676436475966241
sg15
g1668
sbs(I-2
I24
tp1672
g0
(g9
g2
Ntp1673
Rp1674
(dp1675
g13
I01
sg14
F0.9553617741073523
sg15
g1672
sbs(I-13
I21
tp1676
g0
(g9
g2
Ntp1677
Rp1678
(dp1679
g13
I01
sg14
F-0.7555996105329941
sg15
g1676
sbs(I-25
I14
tp1680
g0
(g9
g2
Ntp1681
Rp1682
(dp1683
g13
I01
sg14
F-2.183141482442742
sg15
g1680
sbs(I-12
I22
tp1684
g0
(g9
g2
Ntp1685
Rp1686
(dp1687
g13
I01
sg14
F0.38969756926863175
sg15
g1684
sbs(I-11
I23
tp1688
g0
(g9
g2
Ntp1689
Rp1690
(dp1691
g13
I01
sg14
F-0.4281701968223907
sg15
g1688
sbs(I20
I9
tp1692
g0
(g9
g2
Ntp1693
Rp1694
(dp1695
g13
I01
sg14
F1.703888372215603
sg15
g1692
sbs(I11
I2
tp1696
g0
(g9
g2
Ntp1697
Rp1698
(dp1699
g13
I01
sg14
F0.8434991360625295
sg15
g1696
sbs(I17
I5
tp1700
g0
(g9
g2
Ntp1701
Rp1702
(dp1703
g13
I01
sg14
F0.36870667336111146
sg15
g1700
sbs(I-18
I16
tp1704
g0
(g9
g2
Ntp1705
Rp1706
(dp1707
g13
I01
sg14
F0.5214688572703339
sg15
g1704
sbs(I18
I2
tp1708
g0
(g9
g2
Ntp1709
Rp1710
(dp1711
g13
I01
sg14
F1.6992466651499691
sg15
g1708
sbs(I-22
I16
tp1712
g0
(g9
g2
Ntp1713
Rp1714
(dp1715
g13
I01
sg14
F1.1361289874532885
sg15
g1712
sbs(I-7
I24
tp1716
g0
(g9
g2
Ntp1717
Rp1718
(dp1719
g13
I01
sg14
F0.5353459287609961
sg15
g1716
sbs(I-17
I21
tp1720
g0
(g9
g2
Ntp1721
Rp1722
(dp1723
g13
I01
sg14
F0.05299584737888443
sg15
g1720
sbs(I22
I4
tp1724
g0
(g9
g2
Ntp1725
Rp1726
(dp1727
g13
I01
sg14
F-0.3565804302023689
sg15
g1724
sbs(I23
I1
tp1728
g0
(g9
g2
Ntp1729
Rp1730
(dp1731
g13
I01
sg14
F0.43048609039942815
sg15
g1728
sbs(I11
I7
tp1732
g0
(g9
g2
Ntp1733
Rp1734
(dp1735
g13
I01
sg14
F1.4296503651229593
sg15
g1732
sbs(I12
I0
tp1736
g0
(g9
g2
Ntp1737
Rp1738
(dp1739
g13
I01
sg14
F-0.5902298071248648
sg15
g1736
sbs(I-28
I18
tp1740
g0
(g9
g2
Ntp1741
Rp1742
(dp1743
g13
I01
sg14
F1.7539672473547823
sg15
g1740
sbs(I13
I5
tp1744
g0
(g9
g2
Ntp1745
Rp1746
(dp1747
g13
I01
sg14
F-0.3228549588926094
sg15
g1744
sbs(I-27
I19
tp1748
g0
(g9
g2
Ntp1749
Rp1750
(dp1751
g13
I01
sg14
F0.1398102957337043
sg15
g1748
sbs(I24
I3
tp1752
g0
(g9
g2
Ntp1753
Rp1754
(dp1755
g13
I01
sg14
F0.7818754788225939
sg15
g1752
sbs(I-16
I21
tp1756
g0
(g9
g2
Ntp1757
Rp1758
(dp1759
g13
I01
sg14
F-0.010144931268082757
sg15
g1756
sbs(I-26
I24
tp1760
g0
(g9
g2
Ntp1761
Rp1762
(dp1763
g13
I01
sg14
F-0.07323437816448683
sg15
g1760
sbs(I-11
I16
tp1764
g0
(g9
g2
Ntp1765
Rp1766
(dp1767
g13
I01
sg14
F-0.7019429763108709
sg15
g1764
sbs(I-15
I16
tp1768
g0
(g9
g2
Ntp1769
Rp1770
(dp1771
g13
I01
sg14
F-1.2043796702275926
sg15
g1768
sbs(I-14
I23
tp1772
g0
(g9
g2
Ntp1773
Rp1774
(dp1775
g13
I01
sg14
F0.9780824597408074
sg15
g1772
sbs(I13
I8
tp1776
g0
(g9
g2
Ntp1777
Rp1778
(dp1779
g13
I01
sg14
F2.258402778229147
sg15
g1776
sbs(I-2
I19
tp1780
g0
(g9
g2
Ntp1781
Rp1782
(dp1783
g13
I01
sg14
F-1.016968853847081
sg15
g1780
sbs(I-17
I18
tp1784
g0
(g9
g2
Ntp1785
Rp1786
(dp1787
g13
I01
sg14
F-0.4528443910578191
sg15
g1784
sbs(I19
I0
tp1788
g0
(g9
g2
Ntp1789
Rp1790
(dp1791
g13
I01
sg14
F-0.8766136271298277
sg15
g1788
sbs(I-21
I18
tp1792
g0
(g9
g2
Ntp1793
Rp1794
(dp1795
g13
I01
sg14
F2.111633294688444
sg15
g1792
sbs(I-8
I10
tp1796
g0
(g9
g2
Ntp1797
Rp1798
(dp1799
g13
I01
sg14
F-0.41371130783429716
sg15
g1796
sbs(I-20
I21
tp1800
g0
(g9
g2
Ntp1801
Rp1802
(dp1803
g13
I01
sg14
F-1.2299302582460565
sg15
g1800
sbs(I-5
I23
tp1804
g0
(g9
g2
Ntp1805
Rp1806
(dp1807
g13
I01
sg14
F-0.7041130672527711
sg15
g1804
sbs(I-31
I24
tp1808
g0
(g9
g2
Ntp1809
Rp1810
(dp1811
g13
I01
sg14
F1.6594038031112988
sg15
g1808
sbs(I-7
I11
tp1812
g0
(g9
g2
Ntp1813
Rp1814
(dp1815
g13
I01
sg14
F0.9087270893124123
sg15
g1812
sbs(I-19
I24
tp1816
g0
(g9
g2
Ntp1817
Rp1818
(dp1819
g13
I01
sg14
F0.07551352336037437
sg15
g1816
sbs(I-4
I16
tp1820
g0
(g9
g2
Ntp1821
Rp1822
(dp1823
g13
I01
sg14
F0.9613701370166934
sg15
g1820
sbs(I-3
I21
tp1824
g0
(g9
g2
Ntp1825
Rp1826
(dp1827
g13
I01
sg14
F0.07727389245268035
sg15
g1824
sbs(I-5
I13
tp1828
g0
(g9
g2
Ntp1829
Rp1830
(dp1831
g13
I01
sg14
F-0.6170436917203945
sg15
g1828
sbs(I-1
I10
tp1832
g0
(g9
g2
Ntp1833
Rp1834
(dp1835
g13
I01
sg14
F-0.7278528007432983
sg15
g1832
sbs(I-4
I14
tp1836
g0
(g9
g2
Ntp1837
Rp1838
(dp1839
g13
I01
sg14
F-0.5887440614532914
sg15
g1836
sbs(I-3
I15
tp1840
g0
(g9
g2
Ntp1841
Rp1842
(dp1843
g13
I01
sg14
F1.5671378267670795
sg15
g1840
sbs(I-16
I12
tp1844
g0
(g9
g2
Ntp1845
Rp1846
(dp1847
g13
I01
sg14
F0.16811394235298707
sg15
g1844
sbs(I-26
I19
tp1848
g0
(g9
g2
Ntp1849
Rp1850
(dp1851
g13
I01
sg14
F-2.234959382437639
sg15
g1848
sbs(I-10
I22
tp1852
g0
(g9
g2
Ntp1853
Rp1854
(dp1855
g13
I01
sg14
F1.3163042843176307
sg15
g1852
sbs(I-14
I14
tp1856
g0
(g9
g2
Ntp1857
Rp1858
(dp1859
g13
I01
sg14
F-1.2011087023348883
sg15
g1856
sbs(I-9
I23
tp1860
g0
(g9
g2
Ntp1861
Rp1862
(dp1863
g13
I01
sg14
F0.45904959182616795
sg15
g1860
sbs(I-9
I13
tp1864
g0
(g9
g2
Ntp1865
Rp1866
(dp1867
g13
I01
sg14
F0.7948667867513167
sg15
g1864
sbs(I-1
I11
tp1868
g0
(g9
g2
Ntp1869
Rp1870
(dp1871
g13
I01
sg14
F2.0431886610626933
sg15
g1868
sbs(I19
I9
tp1872
g0
(g9
g2
Ntp1873
Rp1874
(dp1875
g13
I01
sg14
F0.23260229565342447
sg15
g1872
sbs(I-21
I11
tp1876
g0
(g9
g2
Ntp1877
Rp1878
(dp1879
g13
I01
sg14
F0.8619998539760695
sg15
g1876
sbs(I-8
I17
tp1880
g0
(g9
g2
Ntp1881
Rp1882
(dp1883
g13
I01
sg14
F-0.28060005736530813
sg15
g1880
sbs(I20
I2
tp1884
g0
(g9
g2
Ntp1885
Rp1886
(dp1887
g13
I01
sg14
F0.03017261565637526
sg15
g1884
sbs(I-20
I12
tp1888
g0
(g9
g2
Ntp1889
Rp1890
(dp1891
g13
I01
sg14
F-0.7296348793070812
sg15
g1888
sbs(I-31
I17
tp1892
g0
(g9
g2
Ntp1893
Rp1894
(dp1895
g13
I01
sg14
F-0.13485693321865994
sg15
g1892
sbs(I-7
I12
tp1896
g0
(g9
g2
Ntp1897
Rp1898
(dp1899
g13
I01
sg14
F0.5835685628535425
sg15
g1896
sbs(I21
I3
tp1900
g0
(g9
g2
Ntp1901
Rp1902
(dp1903
g13
I01
sg14
F-1.9393833857632672
sg15
g1900
sbs(I-19
I17
tp1904
g0
(g9
g2
Ntp1905
Rp1906
(dp1907
g13
I01
sg14
F-0.8739365060909944
sg15
g1904
sbs(I-30
I22
tp1908
g0
(g9
g2
Ntp1909
Rp1910
(dp1911
g13
I01
sg14
F0.3373246297637268
sg15
g1908
sbs(I-6
I11
tp1912
g0
(g9
g2
Ntp1913
Rp1914
(dp1915
g13
I01
sg14
F1.4390509925767965
sg15
g1912
sbs(I22
I8
tp1916
g0
(g9
g2
Ntp1917
Rp1918
(dp1919
g13
I01
sg14
F-2.698227648399524
sg15
g1916
sbs(I-31
I11
tp1920
g0
(g9
g2
Ntp1921
Rp1922
(dp1923
g13
I01
sg14
F-2.4410427553122562
sg15
g1920
sbs(I-2
I13
tp1924
g0
(g9
g2
Ntp1925
Rp1926
(dp1927
g13
I01
sg14
F-1.2928520388704816
sg15
g1924
sbs(I10
I2
tp1928
g0
(g9
g2
Ntp1929
Rp1930
(dp1931
g13
I01
sg14
F0.35974780211648694
sg15
g1928
sbs(I14
I4
tp1932
g0
(g9
g2
Ntp1933
Rp1934
(dp1935
g13
I01
sg14
F0.9109257107704266
sg15
g1932
sbs(I-26
I10
tp1936
g0
(g9
g2
Ntp1937
Rp1938
(dp1939
g13
I01
sg14
F0.05542582150996841
sg15
g1936
sbs(I-1
I23
tp1940
g0
(g9
g2
Ntp1941
Rp1942
(dp1943
g13
I01
sg14
F-1.2521014141851723
sg15
g1940
sbs(I-13
I14
tp1944
g0
(g9
g2
Ntp1945
Rp1946
(dp1947
g13
I01
sg14
F2.0317988874384776
sg15
g1944
sbs(I15
I1
tp1948
g0
(g9
g2
Ntp1949
Rp1950
(dp1951
g13
I01
sg14
F-1.071011983800067
sg15
g1948
sbs(I-25
I19
tp1952
g0
(g9
g2
Ntp1953
Rp1954
(dp1955
g13
I01
sg14
F0.10244072384668203
sg15
g1952
sbs(I-11
I12
tp1956
g0
(g9
g2
Ntp1957
Rp1958
(dp1959
g13
I01
sg14
F-0.28019072289773256
sg15
g1956
sbs(I-24
I15
tp1960
g0
(g9
g2
Ntp1961
Rp1962
(dp1963
g13
I01
sg14
F-1.6582632893071219
sg15
g1960
sbs(I-23
I14
tp1964
g0
(g9
g2
Ntp1965
Rp1966
(dp1967
g13
I01
sg14
F-0.2360998024350916
sg15
g1964
sbs(I-9
I10
tp1968
g0
(g9
g2
Ntp1969
Rp1970
(dp1971
g13
I01
sg14
F1.1533081128365181
sg15
g1968
sbs(I-22
I13
tp1972
g0
(g9
g2
Ntp1973
Rp1974
(dp1975
g13
I01
sg14
F0.41824016975269407
sg15
g1972
sbs(I-24
I21
tp1976
g0
(g9
g2
Ntp1977
Rp1978
(dp1979
g13
I01
sg14
F-0.35222658933634576
sg15
g1976
sbs(I17
I2
tp1980
g0
(g9
g2
Ntp1981
Rp1982
(dp1983
g13
I01
sg14
F-0.12078631784106579
sg15
g1980
sbs(I-23
I16
tp1984
g0
(g9
g2
Ntp1985
Rp1986
(dp1987
g13
I01
sg14
F-1.3096794193552275
sg15
g1984
sbs(I-8
I24
tp1988
g0
(g9
g2
Ntp1989
Rp1990
(dp1991
g13
I01
sg14
F0.0974136279618776
sg15
g1988
sbs(I-18
I15
tp1992
g0
(g9
g2
Ntp1993
Rp1994
(dp1995
g13
I01
sg14
F0.0033302146632145347
sg15
g1992
sbs(I-20
I11
tp1996
g0
(g9
g2
Ntp1997
Rp1998
(dp1999
g13
I01
sg14
F-1.2368153286483117
sg15
g1996
sbs(I-22
I23
tp2000
g0
(g9
g2
Ntp2001
Rp2002
(dp2003
g13
I01
sg14
F0.6859853634308777
sg15
g2000
sbs(I-7
I21
tp2004
g0
(g9
g2
Ntp2005
Rp2006
(dp2007
g13
I01
sg14
F0.9296099463600314
sg15
g2004
sbs(I-17
I14
tp2008
g0
(g9
g2
Ntp2009
Rp2010
(dp2011
g13
I01
sg14
F0.1570208608557193
sg15
g2008
sbs(I-19
I10
tp2012
g0
(g9
g2
Ntp2013
Rp2014
(dp2015
g13
I01
sg14
F0.5402042112195429
sg15
g2012
sbs(I-30
I17
tp2016
g0
(g9
g2
Ntp2017
Rp2018
(dp2019
g13
I01
sg14
F0.8284039475443303
sg15
g2016
sbs(I-6
I18
tp2020
g0
(g9
g2
Ntp2021
Rp2022
(dp2023
g13
I01
sg14
F-0.11841276400676107
sg15
g2020
sbs(I22
I3
tp2024
g0
(g9
g2
Ntp2025
Rp2026
(dp2027
g13
I01
sg14
F0.8025380003264209
sg15
g2024
sbs(I-29
I12
tp2028
g0
(g9
g2
Ntp2029
Rp2030
(dp2031
g13
I01
sg14
F0.00823627436895508
sg15
g2028
sbs(I-31
I12
tp2032
g0
(g9
g2
Ntp2033
Rp2034
(dp2035
g13
I01
sg14
F-1.1582657013389184
sg15
g2032
sbs(I23
I8
tp2036
g0
(g9
g2
Ntp2037
Rp2038
(dp2039
g13
I01
sg14
F-1.7052537374060694
sg15
g2036
sbs(I-28
I15
tp2040
g0
(g9
g2
Ntp2041
Rp2042
(dp2043
g13
I01
sg14
F-1.4675047817073419
sg15
g2040
sbs(I-30
I11
tp2044
g0
(g9
g2
Ntp2045
Rp2046
(dp2047
g13
I01
sg14
F0.1309981431015818
sg15
g2044
sbs(I-27
I14
tp2048
g0
(g9
g2
Ntp2049
Rp2050
(dp2051
g13
I01
sg14
F-0.0739794241242167
sg15
g2048
sbs(I-29
I18
tp2052
g0
(g9
g2
Ntp2053
Rp2054
(dp2055
g13
I01
sg14
F0.16152736016847033
sg15
g2052
sbs(I-26
I13
tp2056
g0
(g9
g2
Ntp2057
Rp2058
(dp2059
g13
I01
sg14
F-0.44356800518862605
sg15
g2056
sbs(I-28
I21
tp2060
g0
(g9
g2
Ntp2061
Rp2062
(dp2063
g13
I01
sg14
F-1.5809370753222367
sg15
g2060
sbs(I-13
I23
tp2064
g0
(g9
g2
Ntp2065
Rp2066
(dp2067
g13
I01
sg14
F-0.025936748983343007
sg15
g2064
sbs(I-12
I16
tp2068
g0
(g9
g2
Ntp2069
Rp2070
(dp2071
g13
I01
sg14
F1.0238244667166578
sg15
g2068
sbs(I-16
I16
tp2072
g0
(g9
g2
Ntp2073
Rp2074
(dp2075
g13
I01
sg14
F-1.6694137801692726
sg15
g2072
sbs(I-11
I21
tp2076
g0
(g9
g2
Ntp2077
Rp2078
(dp2079
g13
I01
sg14
F0.8326651286503123
sg15
g2076
sbs(I-18
I22
tp2080
g0
(g9
g2
Ntp2081
Rp2082
(dp2083
g13
I01
sg14
F-0.3909253035690777
sg15
g2080
sbs(I18
I0
tp2084
g0
(g9
g2
Ntp2085
Rp2086
(dp2087
g13
I01
sg14
F0.026240862757707158
sg15
g2084
sbs(I-17
I23
tp2088
g0
(g9
g2
Ntp2089
Rp2090
(dp2091
g13
I01
sg14
F-0.5977607764076338
sg15
g2088
sbs(I-20
I24
tp2092
g0
(g9
g2
Ntp2093
Rp2094
(dp2095
g13
I01
sg14
F0.1932545017849474
sg15
g2092
sbs(I-5
I16
tp2096
g0
(g9
g2
Ntp2097
Rp2098
(dp2099
g13
I01
sg14
F0.0005468419698792967
sg15
g2096
sbs(I23
I3
tp2100
g0
(g9
g2
Ntp2101
Rp2102
(dp2103
g13
I01
sg14
F-1.6632021090098401
sg15
g2100
sbs(I12
I2
tp2104
g0
(g9
g2
Ntp2105
Rp2106
(dp2107
g13
I01
sg14
F-0.13819010643045126
sg15
g2104
sbs(I13
I3
tp2108
g0
(g9
g2
Ntp2109
Rp2110
(dp2111
g13
I01
sg14
F-0.40216553324537707
sg15
g2108
sbs(I-27
I17
tp2112
g0
(g9
g2
Ntp2113
Rp2114
(dp2115
g13
I01
sg14
F-0.557410027516962
sg15
g2112
sbs(I24
I5
tp2116
g0
(g9
g2
Ntp2117
Rp2118
(dp2119
g13
I01
sg14
F-1.3031198442270286
sg15
g2116
sbs(I-16
I23
tp2120
g0
(g9
g2
Ntp2121
Rp2122
(dp2123
g13
I01
sg14
F1.2430458928275994
sg15
g2120
sbs(I-1
I24
tp2124
g0
(g9
g2
Ntp2125
Rp2126
(dp2127
g13
I01
sg14
F-0.13505304212486663
sg15
g2124
sbs(I-15
I22
tp2128
g0
(g9
g2
Ntp2129
Rp2130
(dp2131
g13
I01
sg14
F0.12262735752121283
sg15
g2128
sbs(I-14
I21
tp2132
g0
(g9
g2
Ntp2133
Rp2134
(dp2135
g13
I01
sg14
F0.09659865049319896
sg15
g2132
sbs(I-9
I24
tp2136
g0
(g9
g2
Ntp2137
Rp2138
(dp2139
g13
I01
sg14
F0.5089925974199675
sg15
g2136
sbs(I19
I2
tp2140
g0
(g9
g2
Ntp2141
Rp2142
(dp2143
g13
I01
sg14
F-0.5664625792969267
sg15
g2140
sbs(I-21
I20
tp2144
g0
(g9
g2
Ntp2145
Rp2146
(dp2147
g13
I01
sg14
F-1.7689652637081932
sg15
g2144
sbs(I-8
I12
tp2148
g0
(g9
g2
Ntp2149
Rp2150
(dp2151
g13
I01
sg14
F0.06473673568692968
sg15
g2148
sbs(I20
I5
tp2152
g0
(g9
g2
Ntp2153
Rp2154
(dp2155
g13
I01
sg14
F-0.9465749281947871
sg15
g2152
sbs(I-20
I23
tp2156
g0
(g9
g2
Ntp2157
Rp2158
(dp2159
g13
I01
sg14
F1.187464096895695
sg15
g2156
sbs(I-19
I22
tp2160
g0
(g9
g2
Ntp2161
Rp2162
(dp2163
g13
I01
sg14
F-0.9045808217988807
sg15
g2160
sbs(I-4
I18
tp2164
g0
(g9
g2
Ntp2165
Rp2166
(dp2167
g13
I01
sg14
F-2.165619171005677
sg15
g2164
sbs(I-6
I14
tp2168
g0
(g9
g2
Ntp2169
Rp2170
(dp2171
g13
I01
sg14
F-0.5280434585972965
sg15
g2168
sbs(I-3
I19
tp2172
g0
(g9
g2
Ntp2173
Rp2174
(dp2175
g13
I01
sg14
F1.806297110418367
sg15
g2172
sbs(I-5
I15
tp2176
g0
(g9
g2
Ntp2177
Rp2178
(dp2179
g13
I01
sg14
F-0.029485686764456884
sg15
g2176
sbs(I-3
I13
tp2180
g0
(g9
g2
Ntp2181
Rp2182
(dp2183
g13
I01
sg14
F0.6571414608214179
sg15
g2180
sbs(I14
I3
tp2184
g0
(g9
g2
Ntp2185
Rp2186
(dp2187
g13
I01
sg14
F-1.16350451114855
sg15
g2184
sbs(I-16
I14
tp2188
g0
(g9
g2
Ntp2189
Rp2190
(dp2191
g13
I01
sg14
F-0.8979577503081302
sg15
g2188
sbs(I-26
I17
tp2192
g0
(g9
g2
Ntp2193
Rp2194
(dp2195
g13
I01
sg14
F-0.18546066860299323
sg15
g2192
sbs(I-2
I18
tp2196
g0
(g9
g2
Ntp2197
Rp2198
(dp2199
g13
I01
sg14
F1.37086992262029
sg15
g2196
sbs(I-13
I11
tp2200
g0
(g9
g2
Ntp2201
Rp2202
(dp2203
g13
I01
sg14
F0.045047281966494504
sg15
g2200
sbs(I-15
I15
tp2204
g0
(g9
g2
Ntp2205
Rp2206
(dp2207
g13
I01
sg14
F1.9677496348178054
sg15
g2204
sbs(I-25
I20
tp2208
g0
(g9
g2
Ntp2209
Rp2210
(dp2211
g13
I01
sg14
F0.055145084315042496
sg15
g2208
sbs(I-10
I20
tp2212
g0
(g9
g2
Ntp2213
Rp2214
(dp2215
g13
I01
sg14
F-0.8390806805064991
sg15
g2212
sbs(I-12
I12
tp2216
g0
(g9
g2
Ntp2217
Rp2218
(dp2219
g13
I01
sg14
F-1.128959440649493
sg15
g2216
sbs(I-14
I12
tp2220
g0
(g9
g2
Ntp2221
Rp2222
(dp2223
g13
I01
sg14
F0.07411751373126389
sg15
g2220
sbs(I-9
I17
tp2224
g0
(g9
g2
Ntp2225
Rp2226
(dp2227
g13
I01
sg14
F-0.7679568473226548
sg15
g2224
sbs(I-24
I10
tp2228
g0
(g9
g2
Ntp2229
Rp2230
(dp2231
g13
I01
sg14
F-0.4224249160588787
sg15
g2228
sbs(I-10
I14
tp2232
g0
(g9
g2
Ntp2233
Rp2234
(dp2235
g13
I01
sg14
F-0.5543446706777758
sg15
g2232
sbs(I-23
I11
tp2236
g0
(g9
g2
Ntp2237
Rp2238
(dp2239
g13
I01
sg14
F-0.9166447368670918
sg15
g2236
sbs(I-9
I15
tp2240
g0
(g9
g2
Ntp2241
Rp2242
(dp2243
g13
I01
sg14
F-0.6326435546935348
sg15
g2240
sbs(I-24
I16
tp2244
g0
(g9
g2
Ntp2245
Rp2246
(dp2247
g13
I01
sg14
F0.4619445573276964
sg15
g2244
sbs(I-21
I13
tp2248
g0
(g9
g2
Ntp2249
Rp2250
(dp2251
g13
I01
sg14
F1.921037750041748
sg15
g2248
sbs(I-8
I19
tp2252
g0
(g9
g2
Ntp2253
Rp2254
(dp2255
g13
I01
sg14
F-0.8019130000749303
sg15
g2252
sbs(I-18
I10
tp2256
g0
(g9
g2
Ntp2257
Rp2258
(dp2259
g13
I01
sg14
F0.7204635105594634
sg15
g2256
sbs(I-20
I14
tp2260
g0
(g9
g2
Ntp2261
Rp2262
(dp2263
g13
I01
sg14
F-0.4620212998740202
sg15
g2260
sbs(I-31
I23
tp2264
g0
(g9
g2
Ntp2265
Rp2266
(dp2267
g13
I01
sg14
F-1.1284974262359209
sg15
g2264
sbs(I-7
I18
tp2268
g0
(g9
g2
Ntp2269
Rp2270
(dp2271
g13
I01
sg14
F-0.23460929730296692
sg15
g2268
sbs(I21
I1
tp2272
g0
(g9
g2
Ntp2273
Rp2274
(dp2275
g13
I01
sg14
F0.8378559298148651
sg15
g2272
sbs(I-19
I15
tp2276
g0
(g9
g2
Ntp2277
Rp2278
(dp2279
g13
I01
sg14
F-0.22625844117774951
sg15
g2276
sbs(I-30
I20
tp2280
g0
(g9
g2
Ntp2281
Rp2282
(dp2283
g13
I01
sg14
F-1.0820340770038364
sg15
g2280
sbs(I10
I0
tp2284
g0
(g9
g2
Ntp2285
Rp2286
(dp2287
g13
I01
sg14
F-1.687307326222077
sg15
g2284
sbs(I-30
I14
tp2288
g0
(g9
g2
Ntp2289
Rp2290
(dp2291
g13
I01
sg14
F0.08106890743792938
sg15
g2288
sbs(I-2
I21
tp2292
g0
(g9
g2
Ntp2293
Rp2294
(dp2295
g13
I01
sg14
F0.11056985746942728
sg15
g2292
sbs(I-13
I16
tp2296
g0
(g9
g2
Ntp2297
Rp2298
(dp2299
g13
I01
sg14
F1.028715606159277
sg15
g2296
sbs(I15
I3
tp2300
g0
(g9
g2
Ntp2301
Rp2302
(dp2303
g13
I01
sg14
F-0.23958780184643136
sg15
g2300
sbs(I-25
I13
tp2304
g0
(g9
g2
Ntp2305
Rp2306
(dp2307
g13
I01
sg14
F1.4464779062776247
sg15
g2304
sbs(I-12
I11
tp2308
g0
(g9
g2
Ntp2309
Rp2310
(dp2311
g13
I01
sg14
F-1.8370287525476208
sg15
g2308
sbs(I-11
I10
tp2312
g0
(g9
g2
Ntp2313
Rp2314
(dp2315
g13
I01
sg14
F0.10873786582812756
sg15
g2312
sbs(I-23
I12
tp2316
g0
(g9
g2
Ntp2317
Rp2318
(dp2319
g13
I01
sg14
F-0.8173755292911691
sg15
g2316
sbs(I-22
I11
tp2320
g0
(g9
g2
Ntp2321
Rp2322
(dp2323
g13
I01
sg14
F1.0597580592828766
sg15
g2320
sbs(I-24
I23
tp2324
g0
(g9
g2
Ntp2325
Rp2326
(dp2327
g13
I01
sg14
F0.4374285173553105
sg15
g2324
sbs(I17
I0
tp2328
g0
(g9
g2
Ntp2329
Rp2330
(dp2331
g13
I01
sg14
F-2.08260080613205
sg15
g2328
sbs(I-23
I22
tp2332
g0
(g9
g2
Ntp2333
Rp2334
(dp2335
g13
I01
sg14
F0.3202842761429401
sg15
g2332
sbs(I-18
I13
tp2336
g0
(g9
g2
Ntp2337
Rp2338
(dp2339
g13
I01
sg14
F-0.6006925195853796
sg15
g2336
sbs(I18
I7
tp2340
g0
(g9
g2
Ntp2341
Rp2342
(dp2343
g13
I01
sg14
F-1.214969692079189
sg15
g2340
sbs(I-22
I21
tp2344
g0
(g9
g2
Ntp2345
Rp2346
(dp2347
g13
I01
sg14
F2.53760499206746
sg15
g2344
sbs(I-21
I24
tp2348
g0
(g9
g2
Ntp2349
Rp2350
(dp2351
g13
I01
sg14
F-0.3150183596645674
sg15
g2348
sbs(I-6
I16
tp2352
g0
(g9
g2
Ntp2353
Rp2354
(dp2355
g13
I01
sg14
F-2.578785077275935
sg15
g2352
sbs(I22
I1
tp2356
g0
(g9
g2
Ntp2357
Rp2358
(dp2359
g13
I01
sg14
F0.751435015078531
sg15
g2356
sbs(I-29
I14
tp2360
g0
(g9
g2
Ntp2361
Rp2362
(dp2363
g13
I01
sg14
F-1.3857434725263111
sg15
g2360
sbs(I23
I4
tp2364
g0
(g9
g2
Ntp2365
Rp2366
(dp2367
g13
I01
sg14
F-0.23175478881611486
sg15
g2364
sbs(I-27
I12
tp2368
g0
(g9
g2
Ntp2369
Rp2370
(dp2371
g13
I01
sg14
F-0.20254596974644953
sg15
g2368
sbs(I-29
I20
tp2372
g0
(g9
g2
Ntp2373
Rp2374
(dp2375
g13
I01
sg14
F0.49013194062619087
sg15
g2372
sbs(I12
I5
tp2376
g0
(g9
g2
Ntp2377
Rp2378
(dp2379
g13
I01
sg14
F-0.9413227614298344
sg15
g2376
sbs(I-28
I23
tp2380
g0
(g9
g2
Ntp2381
Rp2382
(dp2383
g13
I01
sg14
F-0.38737664447404047
sg15
g2380
sbs(I15
I8
tp2384
g0
(g9
g2
Ntp2385
Rp2386
(dp2387
g13
I01
sg14
F2.5543416169651865
sg15
g2384
sbs(I-25
I10
tp2388
g0
(g9
g2
Ntp2389
Rp2390
(dp2391
g13
I01
sg14
F0.4039558205630108
sg15
g2388
sbs(I-27
I22
tp2392
g0
(g9
g2
Ntp2393
Rp2394
(dp2395
g13
I01
sg14
F2.326881469611415
sg15
g2392
sbs(I-12
I18
tp2396
g0
(g9
g2
Ntp2397
Rp2398
(dp2399
g13
I01
sg14
F1.6244195653015736
sg15
g2396
sbs(I24
I0
tp2400
g0
(g9
g2
Ntp2401
Rp2402
(dp2403
g13
I01
sg14
F-1.251765090392805
sg15
g2400
sbs(I-16
I18
tp2404
g0
(g9
g2
Ntp2405
Rp2406
(dp2407
g13
I01
sg14
F1.0895006103107427
sg15
g2404
sbs(I-11
I19
tp2408
g0
(g9
g2
Ntp2409
Rp2410
(dp2411
g13
I01
sg14
F-0.21058177941810335
sg15
g2408
sbs(I-15
I19
tp2412
g0
(g9
g2
Ntp2413
Rp2414
(dp2415
g13
I01
sg14
F-0.23419371959868923
sg15
g2412
sbs(I-10
I24
tp2416
g0
(g9
g2
Ntp2417
Rp2418
(dp2419
g13
I01
sg14
F1.2215242810434626
sg15
g2416
sbs(I-14
I24
tp2420
g0
(g9
g2
Ntp2421
Rp2422
(dp2423
g13
I01
sg14
F-2.166346975403758
sg15
g2420
sbs(I-18
I20
tp2424
g0
(g9
g2
Ntp2425
Rp2426
(dp2427
g13
I01
sg14
F0.09598472036221985
sg15
g2424
sbs(I-17
I17
tp2428
g0
(g9
g2
Ntp2429
Rp2430
(dp2431
g13
I01
sg14
F0.1362860788088212
sg15
g2428
sbs(I-21
I17
tp2432
g0
(g9
g2
Ntp2433
Rp2434
(dp2435
g13
I01
sg14
F0.09831700814677724
sg15
g2432
sbs(I-5
I18
tp2436
g0
(g9
g2
Ntp2437
Rp2438
(dp2439
g13
I01
sg14
F-0.6108211947542748
sg15
g2436
sbs(I-4
I21
tp2440
g0
(g9
g2
Ntp2441
Rp2442
(dp2443
g13
I01
sg14
F-1.425353590424158
sg15
g2440
sbs(I-3
I24
tp2444
g0
(g9
g2
Ntp2445
Rp2446
(dp2447
g13
I01
sg14
F-0.09419503024256136
sg15
g2444
sbs(I13
I1
tp2448
g0
(g9
g2
Ntp2449
Rp2450
(dp2451
g13
I01
sg14
F0.3611146223770906
sg15
g2448
sbs(I24
I7
tp2452
g0
(g9
g2
Ntp2453
Rp2454
(dp2455
g13
I01
sg14
F0.894802675795882
sg15
g2452
sbs(I-15
I20
tp2456
g0
(g9
g2
Ntp2457
Rp2458
(dp2459
g13
I01
sg14
F0.47833436257254497
sg15
g2456
sbs(I-10
I19
tp2460
g0
(g9
g2
Ntp2461
Rp2462
(dp2463
g13
I01
sg14
F-1.2908339538549396
sg15
g2460
sbs(I-14
I19
tp2464
g0
(g9
g2
Ntp2465
Rp2466
(dp2467
g13
I01
sg14
F-0.8929459379099254
sg15
g2464
sbs(I-2
I20
tp2468
g0
(g9
g2
Ntp2469
Rp2470
(dp2471
g13
I01
sg14
F-0.8908308254037965
sg15
g2468
sbssS'nodes'
p2472
(dp2473
I0
g0
(cneat.genes
DefaultNodeGene
p2474
g2
Ntp2475
Rp2476
(dp2477
S'activation'
p2478
S'sigmoid'
p2479
sS'bias'
p2480
F-0.9210700729306747
sS'response'
p2481
F1.0
sg15
I0
sS'aggregation'
p2482
S'sum'
p2483
sbsI1
g0
(g2474
g2
Ntp2484
Rp2485
(dp2486
g2478
g2479
sg2480
F-0.5377253954742015
sg2481
F1.0
sg15
I1
sg2482
g2483
sbsI2
g0
(g2474
g2
Ntp2487
Rp2488
(dp2489
g2478
g2479
sg2480
F1.4868645889759493
sg2481
F1.0
sg15
I2
sg2482
g2483
sbsI3
g0
(g2474
g2
Ntp2490
Rp2491
(dp2492
g2478
g2479
sg2480
F-0.34983241558855377
sg2481
F1.0
sg15
I3
sg2482
g2483
sbsI4
g0
(g2474
g2
Ntp2493
Rp2494
(dp2495
g2478
g2479
sg2480
F0.28176385494013456
sg2481
F1.0
sg15
I4
sg2482
g2483
sbsI5
g0
(g2474
g2
Ntp2496
Rp2497
(dp2498
g2478
g2479
sg2480
F-0.9783434115356086
sg2481
F1.0
sg15
I5
sg2482
g2483
sbsI6
g0
(g2474
g2
Ntp2499
Rp2500
(dp2501
g2478
g2479
sg2480
F1.5670047131530322
sg2481
F1.0
sg15
I6
sg2482
g2483
sbsI7
g0
(g2474
g2
Ntp2502
Rp2503
(dp2504
g2478
g2479
sg2480
F-0.5226062708947666
sg2481
F1.0
sg15
I7
sg2482
g2483
sbsI8
g0
(g2474
g2
Ntp2505
Rp2506
(dp2507
g2478
g2479
sg2480
F0.6971645277339429
sg2481
F1.0
sg15
I8
sg2482
g2483
sbsI9
g0
(g2474
g2
Ntp2508
Rp2509
(dp2510
g2478
g2479
sg2480
F1.318614536787749
sg2481
F1.0
sg15
I9
sg2482
g2483
sbsI10
g0
(g2474
g2
Ntp2511
Rp2512
(dp2513
g2478
g2479
sg2480
F0.1493078789420339
sg2481
F1.0
sg15
I10
sg2482
g2483
sbsI11
g0
(g2474
g2
Ntp2514
Rp2515
(dp2516
g2478
g2479
sg2480
F1.0491808366784854
sg2481
F1.0
sg15
I11
sg2482
g2483
sbsI12
g0
(g2474
g2
Ntp2517
Rp2518
(dp2519
g2478
g2479
sg2480
F0.2585054466502273
sg2481
F1.0
sg15
I12
sg2482
g2483
sbsI13
g0
(g2474
g2
Ntp2520
Rp2521
(dp2522
g2478
g2479
sg2480
F2.051485676811452
sg2481
F1.0
sg15
I13
sg2482
g2483
sbsI14
g0
(g2474
g2
Ntp2523
Rp2524
(dp2525
g2478
g2479
sg2480
F-0.4802808507384129
sg2481
F1.0
sg15
I14
sg2482
g2483
sbsI15
g0
(g2474
g2
Ntp2526
Rp2527
(dp2528
g2478
g2479
sg2480
F0.9521391617259597
sg2481
F1.0
sg15
I15
sg2482
g2483
sbsI16
g0
(g2474
g2
Ntp2529
Rp2530
(dp2531
g2478
g2479
sg2480
F1.5347546804270993
sg2481
F1.0
sg15
I16
sg2482
g2483
sbsI17
g0
(g2474
g2
Ntp2532
Rp2533
(dp2534
g2478
g2479
sg2480
F-0.15144589289806623
sg2481
F1.0
sg15
I17
sg2482
g2483
sbsI18
g0
(g2474
g2
Ntp2535
Rp2536
(dp2537
g2478
g2479
sg2480
F1.552796014455802
sg2481
F1.0
sg15
I18
sg2482
g2483
sbsI19
g0
(g2474
g2
Ntp2538
Rp2539
(dp2540
g2478
g2479
sg2480
F-0.2320672063171008
sg2481
F1.0
sg15
I19
sg2482
g2483
sbsI20
g0
(g2474
g2
Ntp2541
Rp2542
(dp2543
g2478
g2479
sg2480
F-0.8716038304037156
sg2481
F1.0
sg15
I20
sg2482
g2483
sbsI21
g0
(g2474
g2
Ntp2544
Rp2545
(dp2546
g2478
g2479
sg2480
F-1.2083909713460095
sg2481
F1.0
sg15
I21
sg2482
g2483
sbsI22
g0
(g2474
g2
Ntp2547
Rp2548
(dp2549
g2478
g2479
sg2480
F-0.012314495701659926
sg2481
F1.0
sg15
I22
sg2482
g2483
sbsI23
g0
(g2474
g2
Ntp2550
Rp2551
(dp2552
g2478
g2479
sg2480
F-0.3654857524685326
sg2481
F1.0
sg15
I23
sg2482
g2483
sbsI24
g0
(g2474
g2
Ntp2553
Rp2554
(dp2555
g2478
g2479
sg2480
F0.43314792320845424
sg2481
F1.0
sg15
I24
sg2482
g2483
sbssg15
I32
sS'fitness'
p2556
I1
sb.