ccopy_reg
_reconstructor
p0
(cneat.genome
DefaultGenome
p1
c__builtin__
object
p2
Ntp3
Rp4
(dp5
S'connections'
p6
(dp7
(I16
I9
tp8
g0
(cneat.genes
DefaultConnectionGene
p9
g2
Ntp10
Rp11
(dp12
S'enabled'
p13
I01
sS'weight'
p14
F0.17126563789921476
sS'key'
p15
g8
sbs(I19
I4
tp16
g0
(g9
g2
Ntp17
Rp18
(dp19
g13
I01
sg14
F-0.893692747681444
sg15
g16
sbs(I-21
I22
tp20
g0
(g9
g2
Ntp21
Rp22
(dp23
g13
I01
sg14
F-0.06049634851517316
sg15
g20
sbs(I-8
I14
tp24
g0
(g9
g2
Ntp25
Rp26
(dp27
g13
I01
sg14
F-0.9464534974037059
sg15
g24
sbs(I20
I7
tp28
g0
(g9
g2
Ntp29
Rp30
(dp31
g13
I01
sg14
F-0.9955656781390828
sg15
g28
sbs(I-20
I17
tp32
g0
(g9
g2
Ntp33
Rp34
(dp35
g13
I01
sg14
F-0.5859739011672982
sg15
g32
sbs(I-7
I15
tp36
g0
(g9
g2
Ntp37
Rp38
(dp39
g13
I01
sg14
F0.15308435194353362
sg15
g36
sbs(I21
I6
tp40
g0
(g9
g2
Ntp41
Rp42
(dp43
g13
I01
sg14
F-0.3429302037939684
sg15
g40
sbs(I-19
I20
tp44
g0
(g9
g2
Ntp45
Rp46
(dp47
g13
I01
sg14
F1.6890190317786973
sg15
g44
sbs(I-6
I12
tp48
g0
(g9
g2
Ntp49
Rp50
(dp51
g13
I01
sg14
F-2.374322618856026
sg15
g48
sbs(I-3
I17
tp52
g0
(g9
g2
Ntp53
Rp54
(dp55
g13
I01
sg14
F-0.004311007328210023
sg15
g52
sbs(I-1
I14
tp56
g0
(g9
g2
Ntp57
Rp58
(dp59
g13
I01
sg14
F1.9457659529105584
sg15
g56
sbs(I10
I7
tp60
g0
(g9
g2
Ntp61
Rp62
(dp63
g13
I01
sg14
F1.358158010351937
sg15
g60
sbs(I-4
I10
tp64
g0
(g9
g2
Ntp65
Rp66
(dp67
g13
I01
sg14
F-2.3647110975790855
sg15
g64
sbs(I-27
I24
tp68
g0
(g9
g2
Ntp69
Rp70
(dp71
g13
I01
sg14
F0.5275247528259907
sg15
g68
sbs(I-3
I11
tp72
g0
(g9
g2
Ntp73
Rp74
(dp75
g13
I01
sg14
F-0.4138091377789843
sg15
g72
sbs(I14
I1
tp76
g0
(g9
g2
Ntp77
Rp78
(dp79
g13
I01
sg14
F0.5523691921708626
sg15
g76
sbs(I-26
I23
tp80
g0
(g9
g2
Ntp81
Rp82
(dp83
g13
I01
sg14
F-0.5369839076069204
sg15
g80
sbs(I-1
I16
tp84
g0
(g9
g2
Ntp85
Rp86
(dp87
g13
I01
sg14
F-0.040369914171184094
sg15
g84
sbs(I-13
I13
tp88
g0
(g9
g2
Ntp89
Rp90
(dp91
g13
I01
sg14
F-0.461055115744294
sg15
g88
sbs(I15
I4
tp92
g0
(g9
g2
Ntp93
Rp94
(dp95
g13
I01
sg14
F0.3132647257872096
sg15
g92
sbs(I-15
I13
tp96
g0
(g9
g2
Ntp97
Rp98
(dp99
g13
I01
sg14
F2.8694298311273334
sg15
g96
sbs(I-25
I22
tp100
g0
(g9
g2
Ntp101
Rp102
(dp103
g13
I01
sg14
F0.4700892372829
sg15
g100
sbs(I-12
I14
tp104
g0
(g9
g2
Ntp105
Rp106
(dp107
g13
I01
sg14
F1.4256824862288022
sg15
g104
sbs(I-14
I10
tp108
g0
(g9
g2
Ntp109
Rp110
(dp111
g13
I01
sg14
F-1.8771311630326104
sg15
g108
sbs(I-9
I19
tp112
g0
(g9
g2
Ntp113
Rp114
(dp115
g13
I01
sg14
F0.95801815862618
sg15
g112
sbs(I-11
I15
tp116
g0
(g9
g2
Ntp117
Rp118
(dp119
g13
I01
sg14
F2.1902560181740234
sg15
g116
sbs(I-2
I12
tp120
g0
(g9
g2
Ntp121
Rp122
(dp123
g13
I01
sg14
F-0.019561014543917062
sg15
g120
sbs(I-10
I12
tp124
g0
(g9
g2
Ntp125
Rp126
(dp127
g13
I01
sg14
F0.16892599366988603
sg15
g124
sbs(I-22
I14
tp128
g0
(g9
g2
Ntp129
Rp130
(dp131
g13
I01
sg14
F-2.028127946742149
sg15
g128
sbs(I-24
I18
tp132
g0
(g9
g2
Ntp133
Rp134
(dp135
g13
I01
sg14
F-0.5512910695884258
sg15
g132
sbs(I11
I0
tp136
g0
(g9
g2
Ntp137
Rp138
(dp139
g13
I01
sg14
F0.14814999039078453
sg15
g136
sbs(I-21
I15
tp140
g0
(g9
g2
Ntp141
Rp142
(dp143
g13
I01
sg14
F-1.9647236594157984
sg15
g140
sbs(I-23
I19
tp144
g0
(g9
g2
Ntp145
Rp146
(dp147
g13
I01
sg14
F1.5710602589246236
sg15
g144
sbs(I-8
I21
tp148
g0
(g9
g2
Ntp149
Rp150
(dp151
g13
I01
sg14
F1.1965105519475099
sg15
g148
sbs(I-7
I16
tp152
g0
(g9
g2
Ntp153
Rp154
(dp155
g13
I01
sg14
F-2.0721308516266754
sg15
g152
sbs(I-17
I13
tp156
g0
(g9
g2
Ntp157
Rp158
(dp159
g13
I01
sg14
F-0.8549895370017637
sg15
g156
sbs(I-19
I13
tp160
g0
(g9
g2
Ntp161
Rp162
(dp163
g13
I01
sg14
F1.261213574162543
sg15
g160
sbs(I-30
I18
tp164
g0
(g9
g2
Ntp165
Rp166
(dp167
g13
I01
sg14
F0.16524576314468897
sg15
g164
sbs(I-6
I23
tp168
g0
(g9
g2
Ntp169
Rp170
(dp171
g13
I01
sg14
F-0.7516886459731797
sg15
g168
sbs(I-29
I11
tp172
g0
(g9
g2
Ntp173
Rp174
(dp175
g13
I01
sg14
F-0.3591668079604162
sg15
g172
sbs(I23
I9
tp176
g0
(g9
g2
Ntp177
Rp178
(dp179
g13
I01
sg14
F0.3262369808062955
sg15
g176
sbs(I-28
I12
tp180
g0
(g9
g2
Ntp181
Rp182
(dp183
g13
I01
sg14
F-0.8653245209571653
sg15
g180
sbs(I-30
I12
tp184
g0
(g9
g2
Ntp185
Rp186
(dp187
g13
I01
sg14
F-0.8758467151464561
sg15
g184
sbs(I-29
I17
tp188
g0
(g9
g2
Ntp189
Rp190
(dp191
g13
I01
sg14
F0.8709630831594584
sg15
g188
sbs(I14
I8
tp192
g0
(g9
g2
Ntp193
Rp194
(dp195
g13
I01
sg14
F-0.2625885153916011
sg15
g192
sbs(I-26
I14
tp196
g0
(g9
g2
Ntp197
Rp198
(dp199
g13
I01
sg14
F0.8536915604240262
sg15
g196
sbs(I-13
I18
tp200
g0
(g9
g2
Ntp201
Rp202
(dp203
g13
I01
sg14
F0.14659949890613583
sg15
g200
sbs(I-25
I15
tp204
g0
(g9
g2
Ntp205
Rp206
(dp207
g13
I01
sg14
F1.318036279914217
sg15
g204
sbs(I-12
I21
tp208
g0
(g9
g2
Ntp209
Rp210
(dp211
g13
I01
sg14
F-0.09541574487797297
sg15
g208
sbs(I-15
I24
tp212
g0
(g9
g2
Ntp213
Rp214
(dp215
g13
I01
sg14
F1.1141570733750574
sg15
g212
sbs(I-2
I22
tp216
g0
(g9
g2
Ntp217
Rp218
(dp219
g13
I01
sg14
F-2.262479682803571
sg15
g216
sbs(I16
I7
tp220
g0
(g9
g2
Ntp221
Rp222
(dp223
g13
I01
sg14
F-0.9880042100276957
sg15
g220
sbs(I17
I6
tp224
g0
(g9
g2
Ntp225
Rp226
(dp227
g13
I01
sg14
F-1.9710784892463042
sg15
g224
sbs(I-23
I20
tp228
g0
(g9
g2
Ntp229
Rp230
(dp231
g13
I01
sg14
F1.6688398242023326
sg15
g228
sbs(I-18
I19
tp232
g0
(g9
g2
Ntp233
Rp234
(dp235
g13
I01
sg14
F-1.3892465197774126
sg15
g232
sbs(I18
I5
tp236
g0
(g9
g2
Ntp237
Rp238
(dp239
g13
I01
sg14
F-0.4155577809755238
sg15
g236
sbs(I16
I4
tp240
g0
(g9
g2
Ntp241
Rp242
(dp243
g13
I01
sg14
F-0.5673147684752686
sg15
g240
sbs(I-22
I19
tp244
g0
(g9
g2
Ntp245
Rp246
(dp247
g13
I01
sg14
F1.184100210024039
sg15
g244
sbs(I-17
I10
tp248
g0
(g9
g2
Ntp249
Rp250
(dp251
g13
I01
sg14
F0.48307825736738863
sg15
g248
sbs(I22
I7
tp252
g0
(g9
g2
Ntp253
Rp254
(dp255
g13
I01
sg14
F0.3867203794822604
sg15
g252
sbs(I12
I9
tp256
g0
(g9
g2
Ntp257
Rp258
(dp259
g13
I01
sg14
F0.93699964925387
sg15
g256
sbs(I23
I6
tp260
g0
(g9
g2
Ntp261
Rp262
(dp263
g13
I01
sg14
F0.22744914290740564
sg15
g260
sbs(I-28
I11
tp264
g0
(g9
g2
Ntp265
Rp266
(dp267
g13
I01
sg14
F1.7682670178632929
sg15
g264
sbs(I-4
I24
tp268
g0
(g9
g2
Ntp269
Rp270
(dp271
g13
I01
sg14
F1.1037155120803677
sg15
g268
sbs(I-27
I10
tp272
g0
(g9
g2
Ntp273
Rp274
(dp275
g13
I01
sg14
F-2.127903076894037
sg15
g272
sbs(I-29
I22
tp276
g0
(g9
g2
Ntp277
Rp278
(dp279
g13
I01
sg14
F0.3673387461973138
sg15
g276
sbs(I10
I8
tp280
g0
(g9
g2
Ntp281
Rp282
(dp283
g13
I01
sg14
F0.15749557874206127
sg15
g280
sbs(I12
I7
tp284
g0
(g9
g2
Ntp285
Rp286
(dp287
g13
I01
sg14
F-0.43435799564739375
sg15
g284
sbs(I-28
I17
tp288
g0
(g9
g2
Ntp289
Rp290
(dp291
g13
I01
sg14
F1.673122382272483
sg15
g288
sbs(I13
I6
tp292
g0
(g9
g2
Ntp293
Rp294
(dp295
g13
I01
sg14
F0.4339315485346228
sg15
g292
sbs(I-27
I20
tp296
g0
(g9
g2
Ntp297
Rp298
(dp299
g13
I01
sg14
F0.9435371442757448
sg15
g296
sbs(I24
I2
tp300
g0
(g9
g2
Ntp301
Rp302
(dp303
g13
I01
sg14
F0.882819177013409
sg15
g300
sbs(I-16
I20
tp304
g0
(g9
g2
Ntp305
Rp306
(dp307
g13
I01
sg14
F0.29745910453031865
sg15
g304
sbs(I-11
I17
tp308
g0
(g9
g2
Ntp309
Rp310
(dp311
g13
I01
sg14
F0.3515796294047348
sg15
g308
sbs(I-15
I17
tp312
g0
(g9
g2
Ntp313
Rp314
(dp315
g13
I01
sg14
F0.12148932939952824
sg15
g312
sbs(I-14
I22
tp316
g0
(g9
g2
Ntp317
Rp318
(dp319
g13
I01
sg14
F1.9172766065574727
sg15
g316
sbs(I-2
I14
tp320
g0
(g9
g2
Ntp321
Rp322
(dp323
g13
I01
sg14
F0.2911504023500775
sg15
g320
sbs(I-17
I19
tp324
g0
(g9
g2
Ntp325
Rp326
(dp327
g13
I01
sg14
F0.6795208310623556
sg15
g324
sbs(I19
I1
tp328
g0
(g9
g2
Ntp329
Rp330
(dp331
g13
I01
sg14
F-0.49092357784359486
sg15
g328
sbs(I-21
I19
tp332
g0
(g9
g2
Ntp333
Rp334
(dp335
g13
I01
sg14
F1.1206599467786533
sg15
g332
sbs(I-20
I20
tp336
g0
(g9
g2
Ntp337
Rp338
(dp339
g13
I01
sg14
F0.11892267429874051
sg15
g336
sbs(I-5
I20
tp340
g0
(g9
g2
Ntp341
Rp342
(dp343
g13
I01
sg14
F-0.11108671880665318
sg15
g340
sbs(I-4
I23
tp344
g0
(g9
g2
Ntp345
Rp346
(dp347
g13
I01
sg14
F0.8931253772778401
sg15
g344
sbs(I-3
I22
tp348
g0
(g9
g2
Ntp349
Rp350
(dp351
g13
I01
sg14
F-0.11289484909933978
sg15
g348
sbs(I-5
I10
tp352
g0
(g9
g2
Ntp353
Rp354
(dp355
g13
I01
sg14
F-0.3348246639621875
sg15
g352
sbs(I-28
I24
tp356
g0
(g9
g2
Ntp357
Rp358
(dp359
g13
I01
sg14
F1.1176601334164677
sg15
g356
sbs(I-4
I13
tp360
g0
(g9
g2
Ntp361
Rp362
(dp363
g13
I01
sg14
F0.24401786351724528
sg15
g360
sbs(I24
I9
tp364
g0
(g9
g2
Ntp365
Rp366
(dp367
g13
I01
sg14
F2.0762408235647793
sg15
g364
sbs(I-16
I11
tp368
g0
(g9
g2
Ntp369
Rp370
(dp371
g13
I01
sg14
F0.9434996200804421
sg15
g368
sbs(I-26
I18
tp372
g0
(g9
g2
Ntp373
Rp374
(dp375
g13
I01
sg14
F0.4704970189347292
sg15
g372
sbs(I21
I9
tp376
g0
(g9
g2
Ntp377
Rp378
(dp379
g13
I01
sg14
F0.31993932172149353
sg15
g376
sbs(I-15
I10
tp380
g0
(g9
g2
Ntp381
Rp382
(dp383
g13
I01
sg14
F-1.3091454789863461
sg15
g380
sbs(I-10
I17
tp384
g0
(g9
g2
Ntp385
Rp386
(dp387
g13
I01
sg14
F-0.1259758476414687
sg15
g384
sbs(I-14
I17
tp388
g0
(g9
g2
Ntp389
Rp390
(dp391
g13
I01
sg14
F0.4384095608023866
sg15
g388
sbs(I-9
I20
tp392
g0
(g9
g2
Ntp393
Rp394
(dp395
g13
I01
sg14
F1.2339129263376343
sg15
g392
sbs(I-10
I11
tp396
g0
(g9
g2
Ntp397
Rp398
(dp399
g13
I01
sg14
F-0.8121711232515192
sg15
g396
sbs(I-2
I16
tp400
g0
(g9
g2
Ntp401
Rp402
(dp403
g13
I01
sg14
F-0.901623513894336
sg15
g400
sbs(I-17
I24
tp404
g0
(g9
g2
Ntp405
Rp406
(dp407
g13
I01
sg14
F0.7551014272307779
sg15
g404
sbs(I19
I6
tp408
g0
(g9
g2
Ntp409
Rp410
(dp411
g13
I01
sg14
F0.08146361683619896
sg15
g408
sbs(I-8
I16
tp412
g0
(g9
g2
Ntp413
Rp414
(dp415
g13
I01
sg14
F-1.5890971203325124
sg15
g412
sbs(I20
I1
tp416
g0
(g9
g2
Ntp417
Rp418
(dp419
g13
I01
sg14
F0.7525050790723173
sg15
g416
sbs(I-20
I19
tp420
g0
(g9
g2
Ntp421
Rp422
(dp423
g13
I01
sg14
F-0.7274223417740644
sg15
g420
sbs(I16
I2
tp424
g0
(g9
g2
Ntp425
Rp426
(dp427
g13
I01
sg14
F2.006799220973358
sg15
g424
sbs(I-7
I13
tp428
g0
(g9
g2
Ntp429
Rp430
(dp431
g13
I01
sg14
F-0.03241665243277553
sg15
g428
sbs(I21
I4
tp432
g0
(g9
g2
Ntp433
Rp434
(dp435
g13
I01
sg14
F-0.9213055505594764
sg15
g432
sbs(I-19
I18
tp436
g0
(g9
g2
Ntp437
Rp438
(dp439
g13
I01
sg14
F-1.4306942761961572
sg15
g436
sbs(I-6
I10
tp440
g0
(g9
g2
Ntp441
Rp442
(dp443
g13
I01
sg14
F-0.01817736947462118
sg15
g440
sbs(I-1
I12
tp444
g0
(g9
g2
Ntp445
Rp446
(dp447
g13
I01
sg14
F-1.5541110340546942
sg15
g444
sbs(I10
I5
tp448
g0
(g9
g2
Ntp449
Rp450
(dp451
g13
I01
sg14
F0.144721423517351
sg15
g448
sbs(I11
I8
tp452
g0
(g9
g2
Ntp453
Rp454
(dp455
g13
I01
sg14
F0.7322693564109268
sg15
g452
sbs(I14
I7
tp456
g0
(g9
g2
Ntp457
Rp458
(dp459
g13
I01
sg14
F-1.457489810613249
sg15
g456
sbs(I-26
I21
tp460
g0
(g9
g2
Ntp461
Rp462
(dp463
g13
I01
sg14
F-0.0443704057583819
sg15
g460
sbs(I-1
I22
tp464
g0
(g9
g2
Ntp465
Rp466
(dp467
g13
I01
sg14
F-0.823612680380596
sg15
g464
sbs(I-13
I15
tp468
g0
(g9
g2
Ntp469
Rp470
(dp471
g13
I01
sg14
F0.29109772442185355
sg15
g468
sbs(I15
I6
tp472
g0
(g9
g2
Ntp473
Rp474
(dp475
g13
I01
sg14
F-0.10745675036678452
sg15
g472
sbs(I-25
I16
tp476
g0
(g9
g2
Ntp477
Rp478
(dp479
g13
I01
sg14
F0.9739473978612668
sg15
g476
sbs(I-16
I24
tp480
g0
(g9
g2
Ntp481
Rp482
(dp483
g13
I01
sg14
F0.6919582447606628
sg15
g480
sbs(I-11
I13
tp484
g0
(g9
g2
Ntp485
Rp486
(dp487
g13
I01
sg14
F-0.5643650043655483
sg15
g484
sbs(I-24
I14
tp488
g0
(g9
g2
Ntp489
Rp490
(dp491
g13
I01
sg14
F0.6930740132507909
sg15
g488
sbs(I-23
I15
tp492
g0
(g9
g2
Ntp493
Rp494
(dp495
g13
I01
sg14
F-0.1475424408282105
sg15
g492
sbs(I-9
I11
tp496
g0
(g9
g2
Ntp497
Rp498
(dp499
g13
I01
sg14
F-2.4666222600916003
sg15
g496
sbs(I20
I8
tp500
g0
(g9
g2
Ntp501
Rp502
(dp503
g13
I01
sg14
F0.15826496721940975
sg15
g500
sbs(I-22
I12
tp504
g0
(g9
g2
Ntp505
Rp506
(dp507
g13
I01
sg14
F0.3247388360821639
sg15
g504
sbs(I-24
I20
tp508
g0
(g9
g2
Ntp509
Rp510
(dp511
g13
I01
sg14
F0.5050078203205695
sg15
g508
sbs(I17
I3
tp512
g0
(g9
g2
Ntp513
Rp514
(dp515
g13
I01
sg14
F0.3602807332858051
sg15
g512
sbs(I-23
I17
tp516
g0
(g9
g2
Ntp517
Rp518
(dp519
g13
I01
sg14
F-1.5898675965491724
sg15
g516
sbs(I-8
I23
tp520
g0
(g9
g2
Ntp521
Rp522
(dp523
g13
I01
sg14
F-0.27289195153749723
sg15
g520
sbs(I-18
I14
tp524
g0
(g9
g2
Ntp525
Rp526
(dp527
g13
I01
sg14
F-0.5530447225761514
sg15
g524
sbs(I-20
I10
tp528
g0
(g9
g2
Ntp529
Rp530
(dp531
g13
I01
sg14
F0.7278726495790239
sg15
g528
sbs(I-22
I22
tp532
g0
(g9
g2
Ntp533
Rp534
(dp535
g13
I01
sg14
F-1.6650686750200334
sg15
g532
sbs(I-7
I22
tp536
g0
(g9
g2
Ntp537
Rp538
(dp539
g13
I01
sg14
F-1.2784224531795894
sg15
g536
sbs(I-17
I15
tp540
g0
(g9
g2
Ntp541
Rp542
(dp543
g13
I01
sg14
F1.1495933704624248
sg15
g540
sbs(I-19
I11
tp544
g0
(g9
g2
Ntp545
Rp546
(dp547
g13
I01
sg14
F0.1324988359892627
sg15
g544
sbs(I-30
I16
tp548
g0
(g9
g2
Ntp549
Rp550
(dp551
g13
I01
sg14
F-1.0519293886583265
sg15
g548
sbs(I-6
I21
tp552
g0
(g9
g2
Ntp553
Rp554
(dp555
g13
I01
sg14
F0.15033262899452035
sg15
g552
sbs(I22
I2
tp556
g0
(g9
g2
Ntp557
Rp558
(dp559
g13
I01
sg14
F-0.8735691552598293
sg15
g556
sbs(I-29
I13
tp560
g0
(g9
g2
Ntp561
Rp562
(dp563
g13
I01
sg14
F0.3419234567424502
sg15
g560
sbs(I-5
I24
tp564
g0
(g9
g2
Ntp565
Rp566
(dp567
g13
I01
sg14
F-1.2367502559152284
sg15
g564
sbs(I-24
I12
tp568
g0
(g9
g2
Ntp569
Rp570
(dp571
g13
I01
sg14
F0.6496868273846367
sg15
g568
sbs(I-28
I14
tp572
g0
(g9
g2
Ntp573
Rp574
(dp575
g13
I01
sg14
F-0.0409630819140173
sg15
g572
sbs(I-30
I10
tp576
g0
(g9
g2
Ntp577
Rp578
(dp579
g13
I01
sg14
F-1.559386445445163
sg15
g576
sbs(I-27
I15
tp580
g0
(g9
g2
Ntp581
Rp582
(dp583
g13
I01
sg14
F0.9876470406554898
sg15
g580
sbs(I-29
I19
tp584
g0
(g9
g2
Ntp585
Rp586
(dp587
g13
I01
sg14
F-0.12347444045673185
sg15
g584
sbs(I-26
I12
tp588
g0
(g9
g2
Ntp589
Rp590
(dp591
g13
I01
sg14
F1.6988398874867234
sg15
g588
sbs(I-28
I20
tp592
g0
(g9
g2
Ntp593
Rp594
(dp595
g13
I01
sg14
F-0.24118396832024103
sg15
g592
sbs(I-13
I20
tp596
g0
(g9
g2
Ntp597
Rp598
(dp599
g13
I01
sg14
F1.0426036616743029
sg15
g596
sbs(I-12
I23
tp600
g0
(g9
g2
Ntp601
Rp602
(dp603
g13
I01
sg14
F-0.34608796163713956
sg15
g600
sbs(I-11
I22
tp604
g0
(g9
g2
Ntp605
Rp606
(dp607
g13
I01
sg14
F-1.0395791814536954
sg15
g604
sbs(I11
I1
tp608
g0
(g9
g2
Ntp609
Rp610
(dp611
g13
I01
sg14
F2.1191062937766327
sg15
g608
sbs(I13
I9
tp612
g0
(g9
g2
Ntp613
Rp614
(dp615
g13
I01
sg14
F-0.37270400143204974
sg15
g612
sbs(I17
I4
tp616
g0
(g9
g2
Ntp617
Rp618
(dp619
g13
I01
sg14
F-0.36152248757699174
sg15
g616
sbs(I-18
I17
tp620
g0
(g9
g2
Ntp621
Rp622
(dp623
g13
I01
sg14
F-0.11200901719915098
sg15
g620
sbs(I-1
I18
tp624
g0
(g9
g2
Ntp625
Rp626
(dp627
g13
I01
sg14
F-1.638583904477515
sg15
g624
sbs(I18
I3
tp628
g0
(g9
g2
Ntp629
Rp630
(dp631
g13
I01
sg14
F1.0210091247797162
sg15
g628
sbs(I-22
I17
tp632
g0
(g9
g2
Ntp633
Rp634
(dp635
g13
I01
sg14
F1.4607866718788765
sg15
g632
sbs(I-17
I20
tp636
g0
(g9
g2
Ntp637
Rp638
(dp639
g13
I01
sg14
F-1.490397070692469
sg15
g636
sbs(I22
I5
tp640
g0
(g9
g2
Ntp641
Rp642
(dp643
g13
I01
sg14
F0.5242714190427218
sg15
g640
sbs(I-5
I17
tp644
g0
(g9
g2
Ntp645
Rp646
(dp647
g13
I01
sg14
F0.25696143861601556
sg15
g644
sbs(I23
I0
tp648
g0
(g9
g2
Ntp649
Rp650
(dp651
g13
I01
sg14
F0.34428688092352416
sg15
g648
sbs(I11
I6
tp652
g0
(g9
g2
Ntp653
Rp654
(dp655
g13
I01
sg14
F2.638982628536341
sg15
g652
sbs(I-29
I24
tp656
g0
(g9
g2
Ntp657
Rp658
(dp659
g13
I01
sg14
F0.9719483298613816
sg15
g656
sbs(I12
I1
tp660
g0
(g9
g2
Ntp661
Rp662
(dp663
g13
I01
sg14
F-0.7676475830222644
sg15
g660
sbs(I-28
I19
tp664
g0
(g9
g2
Ntp665
Rp666
(dp667
g13
I01
sg14
F1.3415049033330773
sg15
g664
sbs(I13
I4
tp668
g0
(g9
g2
Ntp669
Rp670
(dp671
g13
I01
sg14
F0.9220763906262446
sg15
g668
sbs(I-27
I18
tp672
g0
(g9
g2
Ntp673
Rp674
(dp675
g13
I01
sg14
F-0.12485123231683938
sg15
g672
sbs(I24
I4
tp676
g0
(g9
g2
Ntp677
Rp678
(dp679
g13
I01
sg14
F0.9821060960974755
sg15
g676
sbs(I-16
I22
tp680
g0
(g9
g2
Ntp681
Rp682
(dp683
g13
I01
sg14
F0.3315223849530518
sg15
g680
sbs(I-15
I23
tp684
g0
(g9
g2
Ntp685
Rp686
(dp687
g13
I01
sg14
F0.20932381057017993
sg15
g684
sbs(I-14
I20
tp688
g0
(g9
g2
Ntp689
Rp690
(dp691
g13
I01
sg14
F0.4723838975219369
sg15
g688
sbs(I12
I8
tp692
g0
(g9
g2
Ntp693
Rp694
(dp695
g13
I01
sg14
F0.7987360022906053
sg15
g692
sbs(I-18
I24
tp696
g0
(g9
g2
Ntp697
Rp698
(dp699
g13
I01
sg14
F0.5969140302031358
sg15
g696
sbs(I-22
I24
tp700
g0
(g9
g2
Ntp701
Rp702
(dp703
g13
I01
sg14
F-0.144554102890034
sg15
g700
sbs(I-2
I10
tp704
g0
(g9
g2
Ntp705
Rp706
(dp707
g13
I01
sg14
F0.03979300549519234
sg15
g704
sbs(I19
I3
tp708
g0
(g9
g2
Ntp709
Rp710
(dp711
g13
I01
sg14
F0.5669325074681484
sg15
g708
sbs(I-21
I21
tp712
g0
(g9
g2
Ntp713
Rp714
(dp715
g13
I01
sg14
F-0.7001799473999206
sg15
g712
sbs(I-8
I11
tp716
g0
(g9
g2
Ntp717
Rp718
(dp719
g13
I01
sg14
F-0.08995194219279859
sg15
g716
sbs(I20
I4
tp720
g0
(g9
g2
Ntp721
Rp722
(dp723
g13
I01
sg14
F2.270868224650558
sg15
g720
sbs(I-20
I22
tp724
g0
(g9
g2
Ntp725
Rp726
(dp727
g13
I01
sg14
F-1.8452125778263124
sg15
g724
sbs(I-5
I22
tp728
g0
(g9
g2
Ntp729
Rp730
(dp731
g13
I01
sg14
F0.6462137404769371
sg15
g728
sbs(I-7
I10
tp732
g0
(g9
g2
Ntp733
Rp734
(dp735
g13
I01
sg14
F-1.4614962980337205
sg15
g732
sbs(I-19
I23
tp736
g0
(g9
g2
Ntp737
Rp738
(dp739
g13
I01
sg14
F0.6874638279174793
sg15
g736
sbs(I-4
I17
tp740
g0
(g9
g2
Ntp741
Rp742
(dp743
g13
I01
sg14
F1.8961299320573597
sg15
g740
sbs(I-3
I20
tp744
g0
(g9
g2
Ntp745
Rp746
(dp747
g13
I01
sg14
F-1.0989746438390016
sg15
g744
sbs(I-5
I12
tp748
g0
(g9
g2
Ntp749
Rp750
(dp751
g13
I01
sg14
F1.0391207025132407
sg15
g748
sbs(I-2
I11
tp752
g0
(g9
g2
Ntp753
Rp754
(dp755
g13
I01
sg14
F1.00507715766154
sg15
g752
sbs(I-4
I15
tp756
g0
(g9
g2
Ntp757
Rp758
(dp759
g13
I01
sg14
F2.040993037033696
sg15
g756
sbs(I-3
I14
tp760
g0
(g9
g2
Ntp761
Rp762
(dp763
g13
I01
sg14
F-1.406971672574313
sg15
g760
sbs(I14
I2
tp764
g0
(g9
g2
Ntp765
Rp766
(dp767
g13
I01
sg14
F-0.316460387176308
sg15
g764
sbs(I-16
I13
tp768
g0
(g9
g2
Ntp769
Rp770
(dp771
g13
I01
sg14
F-0.40211015937575256
sg15
g768
sbs(I-26
I16
tp772
g0
(g9
g2
Ntp773
Rp774
(dp775
g13
I01
sg14
F-0.0655297452682142
sg15
g772
sbs(I-11
I24
tp776
g0
(g9
g2
Ntp777
Rp778
(dp779
g13
I01
sg14
F0.09390760929060375
sg15
g776
sbs(I-25
I21
tp780
g0
(g9
g2
Ntp781
Rp782
(dp783
g13
I01
sg14
F1.0049698692344884
sg15
g780
sbs(I-10
I23
tp784
g0
(g9
g2
Ntp785
Rp786
(dp787
g13
I01
sg14
F-2.1890482995812905
sg15
g784
sbs(I-14
I15
tp788
g0
(g9
g2
Ntp789
Rp790
(dp791
g13
I01
sg14
F1.5493622862473695
sg15
g788
sbs(I-9
I22
tp792
g0
(g9
g2
Ntp793
Rp794
(dp795
g13
I01
sg14
F1.9767344709243266
sg15
g792
sbs(I-9
I12
tp796
g0
(g9
g2
Ntp797
Rp798
(dp799
g13
I01
sg14
F0.5366043488156298
sg15
g796
sbs(I19
I8
tp800
g0
(g9
g2
Ntp801
Rp802
(dp803
g13
I01
sg14
F-0.5785408683709569
sg15
g800
sbs(I-21
I10
tp804
g0
(g9
g2
Ntp805
Rp806
(dp807
g13
I01
sg14
F-0.8918118233236928
sg15
g804
sbs(I11
I4
tp808
g0
(g9
g2
Ntp809
Rp810
(dp811
g13
I01
sg14
F0.07349460946175916
sg15
g808
sbs(I-8
I18
tp812
g0
(g9
g2
Ntp813
Rp814
(dp815
g13
I01
sg14
F-0.3836442670656742
sg15
g812
sbs(I20
I3
tp816
g0
(g9
g2
Ntp817
Rp818
(dp819
g13
I01
sg14
F-0.2172962412258429
sg15
g816
sbs(I-20
I13
tp820
g0
(g9
g2
Ntp821
Rp822
(dp823
g13
I01
sg14
F-0.36211885232883456
sg15
g820
sbs(I-7
I19
tp824
g0
(g9
g2
Ntp825
Rp826
(dp827
g13
I01
sg14
F-0.4124134922048195
sg15
g824
sbs(I21
I2
tp828
g0
(g9
g2
Ntp829
Rp830
(dp831
g13
I01
sg14
F-0.6210989307651548
sg15
g828
sbs(I-19
I16
tp832
g0
(g9
g2
Ntp833
Rp834
(dp835
g13
I01
sg14
F-0.4071602087051443
sg15
g832
sbs(I-30
I23
tp836
g0
(g9
g2
Ntp837
Rp838
(dp839
g13
I01
sg14
F-1.1762878114889688
sg15
g836
sbs(I22
I9
tp840
g0
(g9
g2
Ntp841
Rp842
(dp843
g13
I01
sg14
F-1.326951777007939
sg15
g840
sbs(I10
I3
tp844
g0
(g9
g2
Ntp845
Rp846
(dp847
g13
I01
sg14
F-0.22333594041820043
sg15
g844
sbs(I14
I5
tp848
g0
(g9
g2
Ntp849
Rp850
(dp851
g13
I01
sg14
F1.0905756190562623
sg15
g848
sbs(I-26
I11
tp852
g0
(g9
g2
Ntp853
Rp854
(dp855
g13
I01
sg14
F-2.861454733474388
sg15
g852
sbs(I-1
I20
tp856
g0
(g9
g2
Ntp857
Rp858
(dp859
g13
I01
sg14
F-0.7373379912710732
sg15
g856
sbs(I-13
I17
tp860
g0
(g9
g2
Ntp861
Rp862
(dp863
g13
I01
sg14
F0.37796560742678775
sg15
g860
sbs(I15
I0
tp864
g0
(g9
g2
Ntp865
Rp866
(dp867
g13
I01
sg14
F0.13197299437196736
sg15
g864
sbs(I-25
I18
tp868
g0
(g9
g2
Ntp869
Rp870
(dp871
g13
I01
sg14
F0.3923714039302178
sg15
g868
sbs(I-12
I10
tp872
g0
(g9
g2
Ntp873
Rp874
(dp875
g13
I01
sg14
F-0.9611807556194353
sg15
g872
sbs(I-11
I11
tp876
g0
(g9
g2
Ntp877
Rp878
(dp879
g13
I01
sg14
F-0.5926456981097415
sg15
g876
sbs(I-23
I13
tp880
g0
(g9
g2
Ntp881
Rp882
(dp883
g13
I01
sg14
F-0.5176837742987327
sg15
g880
sbs(I-22
I10
tp884
g0
(g9
g2
Ntp885
Rp886
(dp887
g13
I01
sg14
F-0.634758749685926
sg15
g884
sbs(I-24
I22
tp888
g0
(g9
g2
Ntp889
Rp890
(dp891
g13
I01
sg14
F-0.27280195523445433
sg15
g888
sbs(I17
I1
tp892
g0
(g9
g2
Ntp893
Rp894
(dp895
g13
I01
sg14
F0.027042001541364755
sg15
g892
sbs(I-23
I23
tp896
g0
(g9
g2
Ntp897
Rp898
(dp899
g13
I01
sg14
F-1.2614246074197275
sg15
g896
sbs(I-18
I12
tp900
g0
(g9
g2
Ntp901
Rp902
(dp903
g13
I01
sg14
F-0.4210685651080029
sg15
g900
sbs(I18
I6
tp904
g0
(g9
g2
Ntp905
Rp906
(dp907
g13
I01
sg14
F0.4674164648355133
sg15
g904
sbs(I-22
I20
tp908
g0
(g9
g2
Ntp909
Rp910
(dp911
g13
I01
sg14
F1.5636184855135093
sg15
g908
sbs(I-7
I20
tp912
g0
(g9
g2
Ntp913
Rp914
(dp915
g13
I01
sg14
F0.9403269007924145
sg15
g912
sbs(I-6
I19
tp916
g0
(g9
g2
Ntp917
Rp918
(dp919
g13
I01
sg14
F1.268642061247633
sg15
g916
sbs(I22
I0
tp920
g0
(g9
g2
Ntp921
Rp922
(dp923
g13
I01
sg14
F0.4890056279046776
sg15
g920
sbs(I-29
I15
tp924
g0
(g9
g2
Ntp925
Rp926
(dp927
g13
I01
sg14
F0.15466142209451333
sg15
g924
sbs(I23
I5
tp928
g0
(g9
g2
Ntp929
Rp930
(dp931
g13
I01
sg14
F-1.2678386399623147
sg15
g928
sbs(I-27
I13
tp932
g0
(g9
g2
Ntp933
Rp934
(dp935
g13
I01
sg14
F-1.1769672043541792
sg15
g932
sbs(I-29
I21
tp936
g0
(g9
g2
Ntp937
Rp938
(dp939
g13
I01
sg14
F-0.36841631013611154
sg15
g936
sbs(I12
I4
tp940
g0
(g9
g2
Ntp941
Rp942
(dp943
g13
I01
sg14
F0.039280951507880336
sg15
g940
sbs(I-28
I22
tp944
g0
(g9
g2
Ntp945
Rp946
(dp947
g13
I01
sg14
F0.2097091566787809
sg15
g944
sbs(I-13
I22
tp948
g0
(g9
g2
Ntp949
Rp950
(dp951
g13
I01
sg14
F-0.7125092513546789
sg15
g948
sbs(I15
I9
tp952
g0
(g9
g2
Ntp953
Rp954
(dp955
g13
I01
sg14
F0.2735888927852308
sg15
g952
sbs(I-25
I11
tp956
g0
(g9
g2
Ntp957
Rp958
(dp959
g13
I01
sg14
F-0.5440163291832067
sg15
g956
sbs(I-27
I23
tp960
g0
(g9
g2
Ntp961
Rp962
(dp963
g13
I01
sg14
F-0.5597752675477691
sg15
g960
sbs(I-12
I17
tp964
g0
(g9
g2
Ntp965
Rp966
(dp967
g13
I01
sg14
F0.8916457320516985
sg15
g964
sbs(I-16
I17
tp968
g0
(g9
g2
Ntp969
Rp970
(dp971
g13
I01
sg14
F1.1622484190524018
sg15
g968
sbs(I-11
I20
tp972
g0
(g9
g2
Ntp973
Rp974
(dp975
g13
I01
sg14
F-2.114497245712216
sg15
g972
sbs(I18
I9
tp976
g0
(g9
g2
Ntp977
Rp978
(dp979
g13
I01
sg14
F1.5071902068528704
sg15
g976
sbs(I16
I1
tp980
g0
(g9
g2
Ntp981
Rp982
(dp983
g13
I01
sg14
F1.1870866967855713
sg15
g980
sbs(I-23
I24
tp984
g0
(g9
g2
Ntp985
Rp986
(dp987
g13
I01
sg14
F0.8270302037007937
sg15
g984
sbs(I-18
I23
tp988
g0
(g9
g2
Ntp989
Rp990
(dp991
g13
I01
sg14
F1.7327034988631218
sg15
g988
sbs(I18
I1
tp992
g0
(g9
g2
Ntp993
Rp994
(dp995
g13
I01
sg14
F1.4902514428595537
sg15
g992
sbs(I-17
I22
tp996
g0
(g9
g2
Ntp997
Rp998
(dp999
g13
I01
sg14
F-0.7630613186379376
sg15
g996
sbs(I-5
I19
tp1000
g0
(g9
g2
Ntp1001
Rp1002
(dp1003
g13
I01
sg14
F1.4531556033471948
sg15
g1000
sbs(I23
I2
tp1004
g0
(g9
g2
Ntp1005
Rp1006
(dp1007
g13
I01
sg14
F0.7899339024211759
sg15
g1004
sbs(I-4
I20
tp1008
g0
(g9
g2
Ntp1009
Rp1010
(dp1011
g13
I01
sg14
F0.19107897581878006
sg15
g1008
sbs(I12
I3
tp1012
g0
(g9
g2
Ntp1013
Rp1014
(dp1015
g13
I01
sg14
F-2.101950371218461
sg15
g1012
sbs(I13
I2
tp1016
g0
(g9
g2
Ntp1017
Rp1018
(dp1019
g13
I01
sg14
F-1.0605908765805938
sg15
g1016
sbs(I-27
I16
tp1020
g0
(g9
g2
Ntp1021
Rp1022
(dp1023
g13
I01
sg14
F0.8156486172491592
sg15
g1020
sbs(I-12
I24
tp1024
g0
(g9
g2
Ntp1025
Rp1026
(dp1027
g13
I01
sg14
F-0.7204440218985261
sg15
g1024
sbs(I24
I6
tp1028
g0
(g9
g2
Ntp1029
Rp1030
(dp1031
g13
I01
sg14
F1.1614456660953136
sg15
g1028
sbs(I-15
I21
tp1032
g0
(g9
g2
Ntp1033
Rp1034
(dp1035
g13
I01
sg14
F0.6259079868427826
sg15
g1032
sbs(I-10
I18
tp1036
g0
(g9
g2
Ntp1037
Rp1038
(dp1039
g13
I01
sg14
F0.007616293912976928
sg15
g1036
sbs(I-14
I18
tp1040
g0
(g9
g2
Ntp1041
Rp1042
(dp1043
g13
I01
sg14
F-0.4016484589671004
sg15
g1040
sbs(I17
I9
tp1044
g0
(g9
g2
Ntp1045
Rp1046
(dp1047
g13
I01
sg14
F0.6420716589337525
sg15
g1044
sbs(I16
I8
tp1048
g0
(g9
g2
Ntp1049
Rp1050
(dp1051
g13
I01
sg14
F-1.4658406609485353
sg15
g1048
sbs(I19
I5
tp1052
g0
(g9
g2
Ntp1053
Rp1054
(dp1055
g13
I01
sg14
F-0.8489513545151823
sg15
g1052
sbs(I-21
I23
tp1056
g0
(g9
g2
Ntp1057
Rp1058
(dp1059
g13
I01
sg14
F0.2098012019241946
sg15
g1056
sbs(I-8
I13
tp1060
g0
(g9
g2
Ntp1061
Rp1062
(dp1063
g13
I01
sg14
F-0.09291241540602363
sg15
g1060
sbs(I20
I6
tp1064
g0
(g9
g2
Ntp1065
Rp1066
(dp1067
g13
I01
sg14
F-0.5439892139750431
sg15
g1064
sbs(I-20
I16
tp1068
g0
(g9
g2
Ntp1069
Rp1070
(dp1071
g13
I01
sg14
F-0.08746522401732564
sg15
g1068
sbs(I21
I7
tp1072
g0
(g9
g2
Ntp1073
Rp1074
(dp1075
g13
I01
sg14
F-0.3951727627442019
sg15
g1072
sbs(I-19
I21
tp1076
g0
(g9
g2
Ntp1077
Rp1078
(dp1079
g13
I01
sg14
F0.860369650316559
sg15
g1076
sbs(I-4
I19
tp1080
g0
(g9
g2
Ntp1081
Rp1082
(dp1083
g13
I01
sg14
F0.7740170563057177
sg15
g1080
sbs(I-6
I15
tp1084
g0
(g9
g2
Ntp1085
Rp1086
(dp1087
g13
I01
sg14
F-1.2135244075102523
sg15
g1084
sbs(I-3
I18
tp1088
g0
(g9
g2
Ntp1089
Rp1090
(dp1091
g13
I01
sg14
F2.4382874534372885
sg15
g1088
sbs(I-5
I14
tp1092
g0
(g9
g2
Ntp1093
Rp1094
(dp1095
g13
I01
sg14
F-0.7272087984432459
sg15
g1092
sbs(I10
I6
tp1096
g0
(g9
g2
Ntp1097
Rp1098
(dp1099
g13
I01
sg14
F-0.21051417763718439
sg15
g1096
sbs(I-3
I12
tp1100
g0
(g9
g2
Ntp1101
Rp1102
(dp1103
g13
I01
sg14
F-0.9984429629334397
sg15
g1100
sbs(I14
I0
tp1104
g0
(g9
g2
Ntp1105
Rp1106
(dp1107
g13
I01
sg14
F1.9867633328721304
sg15
g1104
sbs(I-16
I15
tp1108
g0
(g9
g2
Ntp1109
Rp1110
(dp1111
g13
I01
sg14
F-1.8621484071079044
sg15
g1108
sbs(I-26
I22
tp1112
g0
(g9
g2
Ntp1113
Rp1114
(dp1115
g13
I01
sg14
F-1.226821366086253
sg15
g1112
sbs(I-1
I19
tp1116
g0
(g9
g2
Ntp1117
Rp1118
(dp1119
g13
I01
sg14
F-1.1368623853156767
sg15
g1116
sbs(I-13
I10
tp1120
g0
(g9
g2
Ntp1121
Rp1122
(dp1123
g13
I01
sg14
F-1.0451169459407808
sg15
g1120
sbs(I15
I5
tp1124
g0
(g9
g2
Ntp1125
Rp1126
(dp1127
g13
I01
sg14
F-0.8183030406112519
sg15
g1124
sbs(I-15
I14
tp1128
g0
(g9
g2
Ntp1129
Rp1130
(dp1131
g13
I01
sg14
F0.22361804181396502
sg15
g1128
sbs(I-25
I23
tp1132
g0
(g9
g2
Ntp1133
Rp1134
(dp1135
g13
I01
sg14
F-0.3936914840543747
sg15
g1132
sbs(I-10
I21
tp1136
g0
(g9
g2
Ntp1137
Rp1138
(dp1139
g13
I01
sg14
F-0.41335729156007683
sg15
g1136
sbs(I-12
I13
tp1140
g0
(g9
g2
Ntp1141
Rp1142
(dp1143
g13
I01
sg14
F-0.19953623715869762
sg15
g1140
sbs(I-14
I13
tp1144
g0
(g9
g2
Ntp1145
Rp1146
(dp1147
g13
I01
sg14
F0.6214710659130055
sg15
g1144
sbs(I-9
I16
tp1148
g0
(g9
g2
Ntp1149
Rp1150
(dp1151
g13
I01
sg14
F1.1646305950963967
sg15
g1148
sbs(I-1
I21
tp1152
g0
(g9
g2
Ntp1153
Rp1154
(dp1155
g13
I01
sg14
F-0.04263575753279714
sg15
g1152
sbs(I-24
I11
tp1156
g0
(g9
g2
Ntp1157
Rp1158
(dp1159
g13
I01
sg14
F0.3543403339536448
sg15
g1156
sbs(I-10
I15
tp1160
g0
(g9
g2
Ntp1161
Rp1162
(dp1163
g13
I01
sg14
F-1.1558241813940526
sg15
g1160
sbs(I-23
I10
tp1164
g0
(g9
g2
Ntp1165
Rp1166
(dp1167
g13
I01
sg14
F-0.0028434003939490885
sg15
g1164
sbs(I-9
I14
tp1168
g0
(g9
g2
Ntp1169
Rp1170
(dp1171
g13
I01
sg14
F0.3074752366771371
sg15
g1168
sbs(I-24
I17
tp1172
g0
(g9
g2
Ntp1173
Rp1174
(dp1175
g13
I01
sg14
F-0.9542405538010811
sg15
g1172
sbs(I-21
I12
tp1176
g0
(g9
g2
Ntp1177
Rp1178
(dp1179
g13
I01
sg14
F1.1852938486806999
sg15
g1176
sbs(I-8
I20
tp1180
g0
(g9
g2
Ntp1181
Rp1182
(dp1183
g13
I01
sg14
F0.8045608084623656
sg15
g1180
sbs(I-18
I11
tp1184
g0
(g9
g2
Ntp1185
Rp1186
(dp1187
g13
I01
sg14
F-0.5025514470130936
sg15
g1184
sbs(I-20
I15
tp1188
g0
(g9
g2
Ntp1189
Rp1190
(dp1191
g13
I01
sg14
F0.24767467734901782
sg15
g1188
sbs(I-7
I17
tp1192
g0
(g9
g2
Ntp1193
Rp1194
(dp1195
g13
I01
sg14
F-0.514064540596177
sg15
g1192
sbs(I21
I0
tp1196
g0
(g9
g2
Ntp1197
Rp1198
(dp1199
g13
I01
sg14
F1.1330699363663173
sg15
g1196
sbs(I-19
I14
tp1200
g0
(g9
g2
Ntp1201
Rp1202
(dp1203
g13
I01
sg14
F0.16823522786449566
sg15
g1200
sbs(I-30
I21
tp1204
g0
(g9
g2
Ntp1205
Rp1206
(dp1207
g13
I01
sg14
F0.38482248418303744
sg15
g1204
sbs(I-6
I22
tp1208
g0
(g9
g2
Ntp1209
Rp1210
(dp1211
g13
I01
sg14
F2.6344636473935052
sg15
g1208
sbs(I10
I1
tp1212
g0
(g9
g2
Ntp1213
Rp1214
(dp1215
g13
I01
sg14
F-1.356513237785077
sg15
g1212
sbs(I-30
I15
tp1216
g0
(g9
g2
Ntp1217
Rp1218
(dp1219
g13
I01
sg14
F-1.6469562083445088
sg15
g1216
sbs(I-13
I19
tp1220
g0
(g9
g2
Ntp1221
Rp1222
(dp1223
g13
I01
sg14
F-0.06326284448503934
sg15
g1220
sbs(I15
I2
tp1224
g0
(g9
g2
Ntp1225
Rp1226
(dp1227
g13
I01
sg14
F0.6131842649246554
sg15
g1224
sbs(I-25
I12
tp1228
g0
(g9
g2
Ntp1229
Rp1230
(dp1231
g13
I01
sg14
F1.6768621274471145
sg15
g1228
sbs(I-12
I20
tp1232
g0
(g9
g2
Ntp1233
Rp1234
(dp1235
g13
I01
sg14
F0.7330483767505053
sg15
g1232
sbs(I-1
I13
tp1236
g0
(g9
g2
Ntp1237
Rp1238
(dp1239
g13
I01
sg14
F0.14810266631554722
sg15
g1236
sbs(I11
I5
tp1240
g0
(g9
g2
Ntp1241
Rp1242
(dp1243
g13
I01
sg14
F-0.7127766521115185
sg15
g1240
sbs(I16
I6
tp1244
g0
(g9
g2
Ntp1245
Rp1246
(dp1247
g13
I01
sg14
F0.3888480290951694
sg15
g1244
sbs(I-24
I24
tp1248
g0
(g9
g2
Ntp1249
Rp1250
(dp1251
g13
I01
sg14
F-0.9295742411994001
sg15
g1248
sbs(I17
I7
tp1252
g0
(g9
g2
Ntp1253
Rp1254
(dp1255
g13
I01
sg14
F0.09130516365299762
sg15
g1252
sbs(I-23
I21
tp1256
g0
(g9
g2
Ntp1257
Rp1258
(dp1259
g13
I01
sg14
F-0.43795610721405664
sg15
g1256
sbs(I-18
I18
tp1260
g0
(g9
g2
Ntp1261
Rp1262
(dp1263
g13
I01
sg14
F0.8122681286355058
sg15
g1260
sbs(I18
I4
tp1264
g0
(g9
g2
Ntp1265
Rp1266
(dp1267
g13
I01
sg14
F-0.7472627480207441
sg15
g1264
sbs(I-22
I18
tp1268
g0
(g9
g2
Ntp1269
Rp1270
(dp1271
g13
I01
sg14
F1.0075448257175945
sg15
g1268
sbs(I-17
I11
tp1272
g0
(g9
g2
Ntp1273
Rp1274
(dp1275
g13
I01
sg14
F-1.551252987330872
sg15
g1272
sbs(I21
I8
tp1276
g0
(g9
g2
Ntp1277
Rp1278
(dp1279
g13
I01
sg14
F0.15929250718271004
sg15
g1276
sbs(I-6
I17
tp1280
g0
(g9
g2
Ntp1281
Rp1282
(dp1283
g13
I01
sg14
F0.14878933049976628
sg15
g1280
sbs(I22
I6
tp1284
g0
(g9
g2
Ntp1285
Rp1286
(dp1287
g13
I01
sg14
F0.14048286881838423
sg15
g1284
sbs(I23
I7
tp1288
g0
(g9
g2
Ntp1289
Rp1290
(dp1291
g13
I01
sg14
F0.05950641524497168
sg15
g1288
sbs(I-28
I10
tp1292
g0
(g9
g2
Ntp1293
Rp1294
(dp1295
g13
I01
sg14
F0.11191672769435683
sg15
g1292
sbs(I-27
I11
tp1296
g0
(g9
g2
Ntp1297
Rp1298
(dp1299
g13
I01
sg14
F-1.3821703212716836
sg15
g1296
sbs(I11
I3
tp1300
g0
(g9
g2
Ntp1301
Rp1302
(dp1303
g13
I01
sg14
F-0.20676616093253755
sg15
g1300
sbs(I-29
I23
tp1304
g0
(g9
g2
Ntp1305
Rp1306
(dp1307
g13
I01
sg14
F-1.4414408954406832
sg15
g1304
sbs(I12
I6
tp1308
g0
(g9
g2
Ntp1309
Rp1310
(dp1311
g13
I01
sg14
F-0.4731196429031338
sg15
g1308
sbs(I-28
I16
tp1312
g0
(g9
g2
Ntp1313
Rp1314
(dp1315
g13
I01
sg14
F-0.935967354644596
sg15
g1312
sbs(I-13
I24
tp1316
g0
(g9
g2
Ntp1317
Rp1318
(dp1319
g13
I01
sg14
F1.1544586633537317
sg15
g1316
sbs(I13
I7
tp1320
g0
(g9
g2
Ntp1321
Rp1322
(dp1323
g13
I01
sg14
F1.148005318748606
sg15
g1320
sbs(I-27
I21
tp1324
g0
(g9
g2
Ntp1325
Rp1326
(dp1327
g13
I01
sg14
F0.8222031000413562
sg15
g1324
sbs(I-12
I19
tp1328
g0
(g9
g2
Ntp1329
Rp1330
(dp1331
g13
I01
sg14
F2.1109621136639727
sg15
g1328
sbs(I24
I1
tp1332
g0
(g9
g2
Ntp1333
Rp1334
(dp1335
g13
I01
sg14
F-0.902817317317643
sg15
g1332
sbs(I-16
I19
tp1336
g0
(g9
g2
Ntp1337
Rp1338
(dp1339
g13
I01
sg14
F-0.6453025245863467
sg15
g1336
sbs(I-11
I18
tp1340
g0
(g9
g2
Ntp1341
Rp1342
(dp1343
g13
I01
sg14
F1.6581077232058594
sg15
g1340
sbs(I-15
I18
tp1344
g0
(g9
g2
Ntp1345
Rp1346
(dp1347
g13
I01
sg14
F2.0521224851301985
sg15
g1344
sbs(I-2
I23
tp1348
g0
(g9
g2
Ntp1349
Rp1350
(dp1351
g13
I01
sg14
F-0.3681249628955133
sg15
g1348
sbs(I-18
I21
tp1352
g0
(g9
g2
Ntp1353
Rp1354
(dp1355
g13
I01
sg14
F1.2948692709306644
sg15
g1352
sbs(I16
I5
tp1356
g0
(g9
g2
Ntp1357
Rp1358
(dp1359
g13
I01
sg14
F1.5776081593261777
sg15
g1356
sbs(I-17
I16
tp1360
g0
(g9
g2
Ntp1361
Rp1362
(dp1363
g13
I01
sg14
F-0.9439787237638154
sg15
g1360
sbs(I-21
I16
tp1364
g0
(g9
g2
Ntp1365
Rp1366
(dp1367
g13
I01
sg14
F0.12670377631014274
sg15
g1364
sbs(I-6
I24
tp1368
g0
(g9
g2
Ntp1369
Rp1370
(dp1371
g13
I01
sg14
F0.433748338040702
sg15
g1368
sbs(I-5
I21
tp1372
g0
(g9
g2
Ntp1373
Rp1374
(dp1375
g13
I01
sg14
F-1.3550998075727663
sg15
g1372
sbs(I-4
I22
tp1376
g0
(g9
g2
Ntp1377
Rp1378
(dp1379
g13
I01
sg14
F0.7864475776089208
sg15
g1376
sbs(I-3
I23
tp1380
g0
(g9
g2
Ntp1381
Rp1382
(dp1383
g13
I01
sg14
F-0.13916751239687017
sg15
g1380
sbs(I-5
I11
tp1384
g0
(g9
g2
Ntp1385
Rp1386
(dp1387
g13
I01
sg14
F0.5210986276358253
sg15
g1384
sbs(I-4
I12
tp1388
g0
(g9
g2
Ntp1389
Rp1390
(dp1391
g13
I01
sg14
F1.615914590364125
sg15
g1388
sbs(I13
I0
tp1392
g0
(g9
g2
Ntp1393
Rp1394
(dp1395
g13
I01
sg14
F-1.2240004254022026
sg15
g1392
sbs(I18
I8
tp1396
g0
(g9
g2
Ntp1397
Rp1398
(dp1399
g13
I01
sg14
F-1.429937643732516
sg15
g1396
sbs(I16
I0
tp1400
g0
(g9
g2
Ntp1401
Rp1402
(dp1403
g13
I01
sg14
F-2.005850370652478
sg15
g1400
sbs(I24
I8
tp1404
g0
(g9
g2
Ntp1405
Rp1406
(dp1407
g13
I01
sg14
F-1.4759563964149396
sg15
g1404
sbs(I-16
I10
tp1408
g0
(g9
g2
Ntp1409
Rp1410
(dp1411
g13
I01
sg14
F0.8969803304185962
sg15
g1408
sbs(I-15
I11
tp1412
g0
(g9
g2
Ntp1413
Rp1414
(dp1415
g13
I01
sg14
F0.14552739834220016
sg15
g1412
sbs(I-25
I24
tp1416
g0
(g9
g2
Ntp1417
Rp1418
(dp1419
g13
I01
sg14
F1.8070441778024884
sg15
g1416
sbs(I-10
I16
tp1420
g0
(g9
g2
Ntp1421
Rp1422
(dp1423
g13
I01
sg14
F0.10908651843009182
sg15
g1420
sbs(I-14
I16
tp1424
g0
(g9
g2
Ntp1425
Rp1426
(dp1427
g13
I01
sg14
F0.7448370389502107
sg15
g1424
sbs(I-9
I21
tp1428
g0
(g9
g2
Ntp1429
Rp1430
(dp1431
g13
I01
sg14
F-0.8037065554520403
sg15
g1428
sbs(I-2
I15
tp1432
g0
(g9
g2
Ntp1433
Rp1434
(dp1435
g13
I01
sg14
F-0.6660523159009636
sg15
g1432
sbs(I-10
I10
tp1436
g0
(g9
g2
Ntp1437
Rp1438
(dp1439
g13
I01
sg14
F0.025001385272697393
sg15
g1436
sbs(I19
I7
tp1440
g0
(g9
g2
Ntp1441
Rp1442
(dp1443
g13
I01
sg14
F-1.06382450299926
sg15
g1440
sbs(I-8
I15
tp1444
g0
(g9
g2
Ntp1445
Rp1446
(dp1447
g13
I01
sg14
F-0.503056626066876
sg15
g1444
sbs(I20
I0
tp1448
g0
(g9
g2
Ntp1449
Rp1450
(dp1451
g13
I01
sg14
F0.6027998242818521
sg15
g1448
sbs(I-20
I18
tp1452
g0
(g9
g2
Ntp1453
Rp1454
(dp1455
g13
I01
sg14
F-0.793931509571063
sg15
g1452
sbs(I-7
I14
tp1456
g0
(g9
g2
Ntp1457
Rp1458
(dp1459
g13
I01
sg14
F0.049377628345270104
sg15
g1456
sbs(I21
I5
tp1460
g0
(g9
g2
Ntp1461
Rp1462
(dp1463
g13
I01
sg14
F0.2864475376097698
sg15
g1460
sbs(I-19
I19
tp1464
g0
(g9
g2
Ntp1465
Rp1466
(dp1467
g13
I01
sg14
F-0.15385028777074056
sg15
g1464
sbs(I-30
I24
tp1468
g0
(g9
g2
Ntp1469
Rp1470
(dp1471
g13
I01
sg14
F-0.18677750877397015
sg15
g1468
sbs(I-6
I13
tp1472
g0
(g9
g2
Ntp1473
Rp1474
(dp1475
g13
I01
sg14
F-0.7037580930220041
sg15
g1472
sbs(I-3
I16
tp1476
g0
(g9
g2
Ntp1477
Rp1478
(dp1479
g13
I01
sg14
F0.8286608225470116
sg15
g1476
sbs(I-1
I15
tp1480
g0
(g9
g2
Ntp1481
Rp1482
(dp1483
g13
I01
sg14
F0.25063114524628755
sg15
g1480
sbs(I10
I4
tp1484
g0
(g9
g2
Ntp1485
Rp1486
(dp1487
g13
I01
sg14
F0.5237229631983792
sg15
g1484
sbs(I-4
I11
tp1488
g0
(g9
g2
Ntp1489
Rp1490
(dp1491
g13
I01
sg14
F-0.39962998168713704
sg15
g1488
sbs(I17
I8
tp1492
g0
(g9
g2
Ntp1493
Rp1494
(dp1495
g13
I01
sg14
F0.22427373509414505
sg15
g1492
sbs(I11
I9
tp1496
g0
(g9
g2
Ntp1497
Rp1498
(dp1499
g13
I01
sg14
F2.0681951990800265
sg15
g1496
sbs(I-3
I10
tp1500
g0
(g9
g2
Ntp1501
Rp1502
(dp1503
g13
I01
sg14
F-0.020054260026151422
sg15
g1500
sbs(I14
I6
tp1504
g0
(g9
g2
Ntp1505
Rp1506
(dp1507
g13
I01
sg14
F-0.7017433612702197
sg15
g1504
sbs(I-26
I20
tp1508
g0
(g9
g2
Ntp1509
Rp1510
(dp1511
g13
I01
sg14
F-0.932233295235051
sg15
g1508
sbs(I-2
I17
tp1512
g0
(g9
g2
Ntp1513
Rp1514
(dp1515
g13
I01
sg14
F0.26878272991842855
sg15
g1512
sbs(I-13
I12
tp1516
g0
(g9
g2
Ntp1517
Rp1518
(dp1519
g13
I01
sg14
F0.2475388345446195
sg15
g1516
sbs(I15
I7
tp1520
g0
(g9
g2
Ntp1521
Rp1522
(dp1523
g13
I01
sg14
F0.6383375058157303
sg15
g1520
sbs(I-15
I12
tp1524
g0
(g9
g2
Ntp1525
Rp1526
(dp1527
g13
I01
sg14
F0.4490667168968642
sg15
g1524
sbs(I-25
I17
tp1528
g0
(g9
g2
Ntp1529
Rp1530
(dp1531
g13
I01
sg14
F-0.7011967691117135
sg15
g1528
sbs(I-12
I15
tp1532
g0
(g9
g2
Ntp1533
Rp1534
(dp1535
g13
I01
sg14
F-1.8574044276156085
sg15
g1532
sbs(I-14
I11
tp1536
g0
(g9
g2
Ntp1537
Rp1538
(dp1539
g13
I01
sg14
F-0.34116508179079436
sg15
g1536
sbs(I-9
I18
tp1540
g0
(g9
g2
Ntp1541
Rp1542
(dp1543
g13
I01
sg14
F0.5336345377866291
sg15
g1540
sbs(I-11
I14
tp1544
g0
(g9
g2
Ntp1545
Rp1546
(dp1547
g13
I01
sg14
F-0.015053472654239728
sg15
g1544
sbs(I-24
I13
tp1548
g0
(g9
g2
Ntp1549
Rp1550
(dp1551
g13
I01
sg14
F0.05124464849396988
sg15
g1548
sbs(I-10
I13
tp1552
g0
(g9
g2
Ntp1553
Rp1554
(dp1555
g13
I01
sg14
F0.2416214125650029
sg15
g1552
sbs(I-1
I17
tp1556
g0
(g9
g2
Ntp1557
Rp1558
(dp1559
g13
I01
sg14
F-0.16615325556828484
sg15
g1556
sbs(I-22
I15
tp1560
g0
(g9
g2
Ntp1561
Rp1562
(dp1563
g13
I01
sg14
F0.4271850384438738
sg15
g1560
sbs(I-24
I19
tp1564
g0
(g9
g2
Ntp1565
Rp1566
(dp1567
g13
I01
sg14
F0.013719040424534987
sg15
g1564
sbs(I-21
I14
tp1568
g0
(g9
g2
Ntp1569
Rp1570
(dp1571
g13
I01
sg14
F-0.8853445174737623
sg15
g1568
sbs(I-23
I18
tp1572
g0
(g9
g2
Ntp1573
Rp1574
(dp1575
g13
I01
sg14
F-1.7060201584842918
sg15
g1572
sbs(I-8
I22
tp1576
g0
(g9
g2
Ntp1577
Rp1578
(dp1579
g13
I01
sg14
F-2.262750720305395
sg15
g1576
sbs(I16
I3
tp1580
g0
(g9
g2
Ntp1581
Rp1582
(dp1583
g13
I01
sg14
F1.2668283765219308
sg15
g1580
sbs(I-7
I23
tp1584
g0
(g9
g2
Ntp1585
Rp1586
(dp1587
g13
I01
sg14
F-1.3018409329410292
sg15
g1584
sbs(I-17
I12
tp1588
g0
(g9
g2
Ntp1589
Rp1590
(dp1591
g13
I01
sg14
F1.4554077557694614
sg15
g1588
sbs(I-19
I12
tp1592
g0
(g9
g2
Ntp1593
Rp1594
(dp1595
g13
I01
sg14
F-1.913357681442255
sg15
g1592
sbs(I-30
I19
tp1596
g0
(g9
g2
Ntp1597
Rp1598
(dp1599
g13
I01
sg14
F0.6588458268296304
sg15
g1596
sbs(I-6
I20
tp1600
g0
(g9
g2
Ntp1601
Rp1602
(dp1603
g13
I01
sg14
F1.1953200264201875
sg15
g1600
sbs(I-29
I10
tp1604
g0
(g9
g2
Ntp1605
Rp1606
(dp1607
g13
I01
sg14
F0.6597641605894272
sg15
g1604
sbs(I23
I8
tp1608
g0
(g9
g2
Ntp1609
Rp1610
(dp1611
g13
I01
sg14
F0.949902837168397
sg15
g1608
sbs(I10
I9
tp1612
g0
(g9
g2
Ntp1613
Rp1614
(dp1615
g13
I01
sg14
F1.0673994882390228
sg15
g1612
sbs(I-28
I13
tp1616
g0
(g9
g2
Ntp1617
Rp1618
(dp1619
g13
I01
sg14
F-0.5517823526317674
sg15
g1616
sbs(I-30
I13
tp1620
g0
(g9
g2
Ntp1621
Rp1622
(dp1623
g13
I01
sg14
F-0.34090426849508293
sg15
g1620
sbs(I-29
I16
tp1624
g0
(g9
g2
Ntp1625
Rp1626
(dp1627
g13
I01
sg14
F-1.8201584679659346
sg15
g1624
sbs(I14
I9
tp1628
g0
(g9
g2
Ntp1629
Rp1630
(dp1631
g13
I01
sg14
F-1.8379447853182425
sg15
g1628
sbs(I-26
I15
tp1632
g0
(g9
g2
Ntp1633
Rp1634
(dp1635
g13
I01
sg14
F0.34458348607692757
sg15
g1632
sbs(I-2
I24
tp1636
g0
(g9
g2
Ntp1637
Rp1638
(dp1639
g13
I01
sg14
F-1.255633928881307
sg15
g1636
sbs(I-13
I21
tp1640
g0
(g9
g2
Ntp1641
Rp1642
(dp1643
g13
I01
sg14
F-0.7209308780550243
sg15
g1640
sbs(I-25
I14
tp1644
g0
(g9
g2
Ntp1645
Rp1646
(dp1647
g13
I01
sg14
F0.8313971267177322
sg15
g1644
sbs(I-12
I22
tp1648
g0
(g9
g2
Ntp1649
Rp1650
(dp1651
g13
I01
sg14
F-1.3090429121288234
sg15
g1648
sbs(I-11
I23
tp1652
g0
(g9
g2
Ntp1653
Rp1654
(dp1655
g13
I01
sg14
F-0.43990597298765755
sg15
g1652
sbs(I20
I9
tp1656
g0
(g9
g2
Ntp1657
Rp1658
(dp1659
g13
I01
sg14
F-0.10850138875558411
sg15
g1656
sbs(I11
I2
tp1660
g0
(g9
g2
Ntp1661
Rp1662
(dp1663
g13
I01
sg14
F-0.2752619000176153
sg15
g1660
sbs(I17
I5
tp1664
g0
(g9
g2
Ntp1665
Rp1666
(dp1667
g13
I01
sg14
F0.15852913468651578
sg15
g1664
sbs(I-18
I16
tp1668
g0
(g9
g2
Ntp1669
Rp1670
(dp1671
g13
I01
sg14
F-0.10591883302437023
sg15
g1668
sbs(I18
I2
tp1672
g0
(g9
g2
Ntp1673
Rp1674
(dp1675
g13
I01
sg14
F0.8502949927468931
sg15
g1672
sbs(I-22
I16
tp1676
g0
(g9
g2
Ntp1677
Rp1678
(dp1679
g13
I01
sg14
F0.20968465099191552
sg15
g1676
sbs(I-7
I24
tp1680
g0
(g9
g2
Ntp1681
Rp1682
(dp1683
g13
I01
sg14
F0.625066445867009
sg15
g1680
sbs(I-17
I21
tp1684
g0
(g9
g2
Ntp1685
Rp1686
(dp1687
g13
I01
sg14
F0.11221271425928314
sg15
g1684
sbs(I22
I4
tp1688
g0
(g9
g2
Ntp1689
Rp1690
(dp1691
g13
I01
sg14
F2.4235283920331296
sg15
g1688
sbs(I23
I1
tp1692
g0
(g9
g2
Ntp1693
Rp1694
(dp1695
g13
I01
sg14
F-1.7417092339527336
sg15
g1692
sbs(I11
I7
tp1696
g0
(g9
g2
Ntp1697
Rp1698
(dp1699
g13
I01
sg14
F1.3863459845340116
sg15
g1696
sbs(I12
I0
tp1700
g0
(g9
g2
Ntp1701
Rp1702
(dp1703
g13
I01
sg14
F0.032066187444763285
sg15
g1700
sbs(I-28
I18
tp1704
g0
(g9
g2
Ntp1705
Rp1706
(dp1707
g13
I01
sg14
F-1.0233341711152169
sg15
g1704
sbs(I13
I5
tp1708
g0
(g9
g2
Ntp1709
Rp1710
(dp1711
g13
I01
sg14
F-0.6374684498486536
sg15
g1708
sbs(I-27
I19
tp1712
g0
(g9
g2
Ntp1713
Rp1714
(dp1715
g13
I01
sg14
F0.39589770674344243
sg15
g1712
sbs(I24
I3
tp1716
g0
(g9
g2
Ntp1717
Rp1718
(dp1719
g13
I01
sg14
F1.1534024529306826
sg15
g1716
sbs(I-16
I21
tp1720
g0
(g9
g2
Ntp1721
Rp1722
(dp1723
g13
I01
sg14
F-0.5678011640091675
sg15
g1720
sbs(I-26
I24
tp1724
g0
(g9
g2
Ntp1725
Rp1726
(dp1727
g13
I01
sg14
F-0.4160233913453891
sg15
g1724
sbs(I-11
I16
tp1728
g0
(g9
g2
Ntp1729
Rp1730
(dp1731
g13
I01
sg14
F0.08612865354285348
sg15
g1728
sbs(I-15
I16
tp1732
g0
(g9
g2
Ntp1733
Rp1734
(dp1735
g13
I01
sg14
F0.3581605093090363
sg15
g1732
sbs(I-14
I23
tp1736
g0
(g9
g2
Ntp1737
Rp1738
(dp1739
g13
I01
sg14
F-0.5613111426469884
sg15
g1736
sbs(I13
I8
tp1740
g0
(g9
g2
Ntp1741
Rp1742
(dp1743
g13
I01
sg14
F-0.08537817567283511
sg15
g1740
sbs(I-2
I19
tp1744
g0
(g9
g2
Ntp1745
Rp1746
(dp1747
g13
I01
sg14
F-1.1446210334583804
sg15
g1744
sbs(I-17
I18
tp1748
g0
(g9
g2
Ntp1749
Rp1750
(dp1751
g13
I01
sg14
F0.22944472923830234
sg15
g1748
sbs(I19
I0
tp1752
g0
(g9
g2
Ntp1753
Rp1754
(dp1755
g13
I01
sg14
F-0.1338427439276126
sg15
g1752
sbs(I-21
I18
tp1756
g0
(g9
g2
Ntp1757
Rp1758
(dp1759
g13
I01
sg14
F0.056153073670442345
sg15
g1756
sbs(I-8
I10
tp1760
g0
(g9
g2
Ntp1761
Rp1762
(dp1763
g13
I01
sg14
F2.4857956993775057
sg15
g1760
sbs(I-20
I21
tp1764
g0
(g9
g2
Ntp1765
Rp1766
(dp1767
g13
I01
sg14
F-0.23478838418682346
sg15
g1764
sbs(I-5
I23
tp1768
g0
(g9
g2
Ntp1769
Rp1770
(dp1771
g13
I01
sg14
F0.46821213621204105
sg15
g1768
sbs(I-7
I11
tp1772
g0
(g9
g2
Ntp1773
Rp1774
(dp1775
g13
I01
sg14
F1.0169263136197269
sg15
g1772
sbs(I-19
I24
tp1776
g0
(g9
g2
Ntp1777
Rp1778
(dp1779
g13
I01
sg14
F-0.5416313336074557
sg15
g1776
sbs(I-4
I16
tp1780
g0
(g9
g2
Ntp1781
Rp1782
(dp1783
g13
I01
sg14
F2.592005837406945
sg15
g1780
sbs(I-3
I21
tp1784
g0
(g9
g2
Ntp1785
Rp1786
(dp1787
g13
I01
sg14
F-0.4276944210594382
sg15
g1784
sbs(I-5
I13
tp1788
g0
(g9
g2
Ntp1789
Rp1790
(dp1791
g13
I01
sg14
F-1.63761187246351
sg15
g1788
sbs(I-1
I10
tp1792
g0
(g9
g2
Ntp1793
Rp1794
(dp1795
g13
I01
sg14
F-2.4591983815153444
sg15
g1792
sbs(I-4
I14
tp1796
g0
(g9
g2
Ntp1797
Rp1798
(dp1799
g13
I01
sg14
F0.24783807599252594
sg15
g1796
sbs(I-3
I15
tp1800
g0
(g9
g2
Ntp1801
Rp1802
(dp1803
g13
I01
sg14
F-1.6579225166620157
sg15
g1800
sbs(I-16
I12
tp1804
g0
(g9
g2
Ntp1805
Rp1806
(dp1807
g13
I01
sg14
F0.06050504799872619
sg15
g1804
sbs(I-26
I19
tp1808
g0
(g9
g2
Ntp1809
Rp1810
(dp1811
g13
I01
sg14
F0.37996411780461875
sg15
g1808
sbs(I-10
I22
tp1812
g0
(g9
g2
Ntp1813
Rp1814
(dp1815
g13
I01
sg14
F0.7985568364490039
sg15
g1812
sbs(I-14
I14
tp1816
g0
(g9
g2
Ntp1817
Rp1818
(dp1819
g13
I01
sg14
F0.7859436560557899
sg15
g1816
sbs(I-9
I23
tp1820
g0
(g9
g2
Ntp1821
Rp1822
(dp1823
g13
I01
sg14
F-0.14920028815284214
sg15
g1820
sbs(I-9
I13
tp1824
g0
(g9
g2
Ntp1825
Rp1826
(dp1827
g13
I01
sg14
F2.1231127772849887
sg15
g1824
sbs(I-1
I11
tp1828
g0
(g9
g2
Ntp1829
Rp1830
(dp1831
g13
I01
sg14
F0.08492061305289109
sg15
g1828
sbs(I19
I9
tp1832
g0
(g9
g2
Ntp1833
Rp1834
(dp1835
g13
I01
sg14
F-0.7771337130494821
sg15
g1832
sbs(I-21
I11
tp1836
g0
(g9
g2
Ntp1837
Rp1838
(dp1839
g13
I01
sg14
F0.2638453793293841
sg15
g1836
sbs(I-8
I17
tp1840
g0
(g9
g2
Ntp1841
Rp1842
(dp1843
g13
I01
sg14
F1.1997121814957878
sg15
g1840
sbs(I20
I2
tp1844
g0
(g9
g2
Ntp1845
Rp1846
(dp1847
g13
I01
sg14
F0.7958488904269261
sg15
g1844
sbs(I-20
I12
tp1848
g0
(g9
g2
Ntp1849
Rp1850
(dp1851
g13
I01
sg14
F0.63099423268952
sg15
g1848
sbs(I-7
I12
tp1852
g0
(g9
g2
Ntp1853
Rp1854
(dp1855
g13
I01
sg14
F-0.12131926772489594
sg15
g1852
sbs(I21
I3
tp1856
g0
(g9
g2
Ntp1857
Rp1858
(dp1859
g13
I01
sg14
F0.18599265977362392
sg15
g1856
sbs(I-19
I17
tp1860
g0
(g9
g2
Ntp1861
Rp1862
(dp1863
g13
I01
sg14
F-0.37299721701377536
sg15
g1860
sbs(I-30
I22
tp1864
g0
(g9
g2
Ntp1865
Rp1866
(dp1867
g13
I01
sg14
F0.6109505347932891
sg15
g1864
sbs(I-6
I11
tp1868
g0
(g9
g2
Ntp1869
Rp1870
(dp1871
g13
I01
sg14
F-0.6696753129119353
sg15
g1868
sbs(I22
I8
tp1872
g0
(g9
g2
Ntp1873
Rp1874
(dp1875
g13
I01
sg14
F1.0641535535224995
sg15
g1872
sbs(I-2
I13
tp1876
g0
(g9
g2
Ntp1877
Rp1878
(dp1879
g13
I01
sg14
F-1.0405453276031709
sg15
g1876
sbs(I10
I2
tp1880
g0
(g9
g2
Ntp1881
Rp1882
(dp1883
g13
I01
sg14
F2.888770672200403
sg15
g1880
sbs(I14
I4
tp1884
g0
(g9
g2
Ntp1885
Rp1886
(dp1887
g13
I01
sg14
F0.05981658772914869
sg15
g1884
sbs(I-26
I10
tp1888
g0
(g9
g2
Ntp1889
Rp1890
(dp1891
g13
I01
sg14
F0.06778648947594285
sg15
g1888
sbs(I-1
I23
tp1892
g0
(g9
g2
Ntp1893
Rp1894
(dp1895
g13
I01
sg14
F0.9978534320141952
sg15
g1892
sbs(I-13
I14
tp1896
g0
(g9
g2
Ntp1897
Rp1898
(dp1899
g13
I01
sg14
F-1.1423342666085758
sg15
g1896
sbs(I15
I1
tp1900
g0
(g9
g2
Ntp1901
Rp1902
(dp1903
g13
I01
sg14
F-2.49270766170196
sg15
g1900
sbs(I-25
I19
tp1904
g0
(g9
g2
Ntp1905
Rp1906
(dp1907
g13
I01
sg14
F0.3765030952782458
sg15
g1904
sbs(I-11
I12
tp1908
g0
(g9
g2
Ntp1909
Rp1910
(dp1911
g13
I01
sg14
F0.5233425640338767
sg15
g1908
sbs(I-24
I15
tp1912
g0
(g9
g2
Ntp1913
Rp1914
(dp1915
g13
I01
sg14
F-1.474892224369438
sg15
g1912
sbs(I-23
I14
tp1916
g0
(g9
g2
Ntp1917
Rp1918
(dp1919
g13
I01
sg14
F-0.09387508872341802
sg15
g1916
sbs(I-9
I10
tp1920
g0
(g9
g2
Ntp1921
Rp1922
(dp1923
g13
I01
sg14
F1.1518762955553916
sg15
g1920
sbs(I-22
I13
tp1924
g0
(g9
g2
Ntp1925
Rp1926
(dp1927
g13
I01
sg14
F0.3796728471239521
sg15
g1924
sbs(I-24
I21
tp1928
g0
(g9
g2
Ntp1929
Rp1930
(dp1931
g13
I01
sg14
F-1.6319689082117066
sg15
g1928
sbs(I17
I2
tp1932
g0
(g9
g2
Ntp1933
Rp1934
(dp1935
g13
I01
sg14
F-1.0343635011676962
sg15
g1932
sbs(I-23
I16
tp1936
g0
(g9
g2
Ntp1937
Rp1938
(dp1939
g13
I01
sg14
F-2.6785102166230788
sg15
g1936
sbs(I-8
I24
tp1940
g0
(g9
g2
Ntp1941
Rp1942
(dp1943
g13
I01
sg14
F-0.8055223597025727
sg15
g1940
sbs(I-18
I15
tp1944
g0
(g9
g2
Ntp1945
Rp1946
(dp1947
g13
I01
sg14
F-1.0640903601931833
sg15
g1944
sbs(I-20
I11
tp1948
g0
(g9
g2
Ntp1949
Rp1950
(dp1951
g13
I01
sg14
F0.1328441363222496
sg15
g1948
sbs(I-22
I23
tp1952
g0
(g9
g2
Ntp1953
Rp1954
(dp1955
g13
I01
sg14
F0.019948999823465194
sg15
g1952
sbs(I-7
I21
tp1956
g0
(g9
g2
Ntp1957
Rp1958
(dp1959
g13
I01
sg14
F0.3645510521131771
sg15
g1956
sbs(I-17
I14
tp1960
g0
(g9
g2
Ntp1961
Rp1962
(dp1963
g13
I01
sg14
F-0.3277446698299229
sg15
g1960
sbs(I-19
I10
tp1964
g0
(g9
g2
Ntp1965
Rp1966
(dp1967
g13
I01
sg14
F-0.5844102422353052
sg15
g1964
sbs(I-30
I17
tp1968
g0
(g9
g2
Ntp1969
Rp1970
(dp1971
g13
I01
sg14
F0.1253721399306271
sg15
g1968
sbs(I-6
I18
tp1972
g0
(g9
g2
Ntp1973
Rp1974
(dp1975
g13
I01
sg14
F0.38893854543035716
sg15
g1972
sbs(I22
I3
tp1976
g0
(g9
g2
Ntp1977
Rp1978
(dp1979
g13
I01
sg14
F-0.1990751751730772
sg15
g1976
sbs(I-29
I12
tp1980
g0
(g9
g2
Ntp1981
Rp1982
(dp1983
g13
I01
sg14
F-1.1737186848444243
sg15
g1980
sbs(I-28
I15
tp1984
g0
(g9
g2
Ntp1985
Rp1986
(dp1987
g13
I01
sg14
F0.7198515809537763
sg15
g1984
sbs(I-30
I11
tp1988
g0
(g9
g2
Ntp1989
Rp1990
(dp1991
g13
I01
sg14
F-0.6262986526657816
sg15
g1988
sbs(I-27
I14
tp1992
g0
(g9
g2
Ntp1993
Rp1994
(dp1995
g13
I01
sg14
F1.0826819635800145
sg15
g1992
sbs(I-29
I18
tp1996
g0
(g9
g2
Ntp1997
Rp1998
(dp1999
g13
I01
sg14
F1.1439478201916438
sg15
g1996
sbs(I-26
I13
tp2000
g0
(g9
g2
Ntp2001
Rp2002
(dp2003
g13
I01
sg14
F-1.000035906755567
sg15
g2000
sbs(I-28
I21
tp2004
g0
(g9
g2
Ntp2005
Rp2006
(dp2007
g13
I01
sg14
F-1.8922544073756278
sg15
g2004
sbs(I-13
I23
tp2008
g0
(g9
g2
Ntp2009
Rp2010
(dp2011
g13
I01
sg14
F-0.20882961439814546
sg15
g2008
sbs(I-12
I16
tp2012
g0
(g9
g2
Ntp2013
Rp2014
(dp2015
g13
I01
sg14
F-1.4709913658643927
sg15
g2012
sbs(I-16
I16
tp2016
g0
(g9
g2
Ntp2017
Rp2018
(dp2019
g13
I01
sg14
F-1.4726538822206285
sg15
g2016
sbs(I-11
I21
tp2020
g0
(g9
g2
Ntp2021
Rp2022
(dp2023
g13
I01
sg14
F0.8193496991660245
sg15
g2020
sbs(I-18
I22
tp2024
g0
(g9
g2
Ntp2025
Rp2026
(dp2027
g13
I01
sg14
F-1.4089562945643974
sg15
g2024
sbs(I18
I0
tp2028
g0
(g9
g2
Ntp2029
Rp2030
(dp2031
g13
I01
sg14
F-1.6087995924361203
sg15
g2028
sbs(I-17
I23
tp2032
g0
(g9
g2
Ntp2033
Rp2034
(dp2035
g13
I01
sg14
F-0.4734123635995869
sg15
g2032
sbs(I-20
I24
tp2036
g0
(g9
g2
Ntp2037
Rp2038
(dp2039
g13
I01
sg14
F0.40785467104146916
sg15
g2036
sbs(I-5
I16
tp2040
g0
(g9
g2
Ntp2041
Rp2042
(dp2043
g13
I01
sg14
F0.63140697318673
sg15
g2040
sbs(I23
I3
tp2044
g0
(g9
g2
Ntp2045
Rp2046
(dp2047
g13
I01
sg14
F-1.4551555230506248
sg15
g2044
sbs(I12
I2
tp2048
g0
(g9
g2
Ntp2049
Rp2050
(dp2051
g13
I01
sg14
F-1.5296742607099036
sg15
g2048
sbs(I13
I3
tp2052
g0
(g9
g2
Ntp2053
Rp2054
(dp2055
g13
I01
sg14
F1.134496534206288
sg15
g2052
sbs(I-27
I17
tp2056
g0
(g9
g2
Ntp2057
Rp2058
(dp2059
g13
I01
sg14
F0.603191445615687
sg15
g2056
sbs(I24
I5
tp2060
g0
(g9
g2
Ntp2061
Rp2062
(dp2063
g13
I01
sg14
F3.1177350376054958
sg15
g2060
sbs(I-16
I23
tp2064
g0
(g9
g2
Ntp2065
Rp2066
(dp2067
g13
I01
sg14
F0.7498332175701553
sg15
g2064
sbs(I-1
I24
tp2068
g0
(g9
g2
Ntp2069
Rp2070
(dp2071
g13
I01
sg14
F-0.7061514635251855
sg15
g2068
sbs(I-15
I22
tp2072
g0
(g9
g2
Ntp2073
Rp2074
(dp2075
g13
I01
sg14
F1.3728584957932977
sg15
g2072
sbs(I-14
I21
tp2076
g0
(g9
g2
Ntp2077
Rp2078
(dp2079
g13
I01
sg14
F-1.259617973043179
sg15
g2076
sbs(I-9
I24
tp2080
g0
(g9
g2
Ntp2081
Rp2082
(dp2083
g13
I01
sg14
F0.9300304165430016
sg15
g2080
sbs(I19
I2
tp2084
g0
(g9
g2
Ntp2085
Rp2086
(dp2087
g13
I01
sg14
F1.1719926245656824
sg15
g2084
sbs(I-21
I20
tp2088
g0
(g9
g2
Ntp2089
Rp2090
(dp2091
g13
I01
sg14
F1.7297921018353755
sg15
g2088
sbs(I-8
I12
tp2092
g0
(g9
g2
Ntp2093
Rp2094
(dp2095
g13
I01
sg14
F-1.0686555046998372
sg15
g2092
sbs(I20
I5
tp2096
g0
(g9
g2
Ntp2097
Rp2098
(dp2099
g13
I01
sg14
F1.029834389414494
sg15
g2096
sbs(I-20
I23
tp2100
g0
(g9
g2
Ntp2101
Rp2102
(dp2103
g13
I01
sg14
F-0.25678078821217365
sg15
g2100
sbs(I-19
I22
tp2104
g0
(g9
g2
Ntp2105
Rp2106
(dp2107
g13
I01
sg14
F-0.9804520582702064
sg15
g2104
sbs(I-4
I18
tp2108
g0
(g9
g2
Ntp2109
Rp2110
(dp2111
g13
I01
sg14
F-0.3829238582843111
sg15
g2108
sbs(I-6
I14
tp2112
g0
(g9
g2
Ntp2113
Rp2114
(dp2115
g13
I01
sg14
F0.6220545015469434
sg15
g2112
sbs(I-3
I19
tp2116
g0
(g9
g2
Ntp2117
Rp2118
(dp2119
g13
I01
sg14
F-1.911939489361436
sg15
g2116
sbs(I-5
I15
tp2120
g0
(g9
g2
Ntp2121
Rp2122
(dp2123
g13
I01
sg14
F2.1932914055285164
sg15
g2120
sbs(I-3
I13
tp2124
g0
(g9
g2
Ntp2125
Rp2126
(dp2127
g13
I01
sg14
F-0.5048299855534331
sg15
g2124
sbs(I14
I3
tp2128
g0
(g9
g2
Ntp2129
Rp2130
(dp2131
g13
I01
sg14
F-1.736146818322335
sg15
g2128
sbs(I-16
I14
tp2132
g0
(g9
g2
Ntp2133
Rp2134
(dp2135
g13
I01
sg14
F-0.7352025095874569
sg15
g2132
sbs(I-26
I17
tp2136
g0
(g9
g2
Ntp2137
Rp2138
(dp2139
g13
I01
sg14
F0.5102854751568171
sg15
g2136
sbs(I-2
I18
tp2140
g0
(g9
g2
Ntp2141
Rp2142
(dp2143
g13
I01
sg14
F0.7944357548727483
sg15
g2140
sbs(I-13
I11
tp2144
g0
(g9
g2
Ntp2145
Rp2146
(dp2147
g13
I01
sg14
F0.6960545811358746
sg15
g2144
sbs(I-15
I15
tp2148
g0
(g9
g2
Ntp2149
Rp2150
(dp2151
g13
I01
sg14
F-0.3595796652602221
sg15
g2148
sbs(I-25
I20
tp2152
g0
(g9
g2
Ntp2153
Rp2154
(dp2155
g13
I01
sg14
F-0.13559829606584275
sg15
g2152
sbs(I-10
I20
tp2156
g0
(g9
g2
Ntp2157
Rp2158
(dp2159
g13
I01
sg14
F-1.9248489371958726
sg15
g2156
sbs(I-12
I12
tp2160
g0
(g9
g2
Ntp2161
Rp2162
(dp2163
g13
I01
sg14
F0.07011097412997237
sg15
g2160
sbs(I-14
I12
tp2164
g0
(g9
g2
Ntp2165
Rp2166
(dp2167
g13
I01
sg14
F-0.9058592010060276
sg15
g2164
sbs(I-9
I17
tp2168
g0
(g9
g2
Ntp2169
Rp2170
(dp2171
g13
I01
sg14
F0.7638642327765205
sg15
g2168
sbs(I-24
I10
tp2172
g0
(g9
g2
Ntp2173
Rp2174
(dp2175
g13
I01
sg14
F-1.0329425811229627
sg15
g2172
sbs(I-10
I14
tp2176
g0
(g9
g2
Ntp2177
Rp2178
(dp2179
g13
I01
sg14
F0.6435163986790021
sg15
g2176
sbs(I-23
I11
tp2180
g0
(g9
g2
Ntp2181
Rp2182
(dp2183
g13
I01
sg14
F-1.543139501733599
sg15
g2180
sbs(I-9
I15
tp2184
g0
(g9
g2
Ntp2185
Rp2186
(dp2187
g13
I01
sg14
F-0.2856262052489832
sg15
g2184
sbs(I-24
I16
tp2188
g0
(g9
g2
Ntp2189
Rp2190
(dp2191
g13
I01
sg14
F0.22783367556404904
sg15
g2188
sbs(I-21
I13
tp2192
g0
(g9
g2
Ntp2193
Rp2194
(dp2195
g13
I01
sg14
F-1.0784425755577365
sg15
g2192
sbs(I-8
I19
tp2196
g0
(g9
g2
Ntp2197
Rp2198
(dp2199
g13
I01
sg14
F1.6798174440790306
sg15
g2196
sbs(I-18
I10
tp2200
g0
(g9
g2
Ntp2201
Rp2202
(dp2203
g13
I01
sg14
F-0.04767585322261486
sg15
g2200
sbs(I-20
I14
tp2204
g0
(g9
g2
Ntp2205
Rp2206
(dp2207
g13
I01
sg14
F1.3191076303348714
sg15
g2204
sbs(I-7
I18
tp2208
g0
(g9
g2
Ntp2209
Rp2210
(dp2211
g13
I01
sg14
F0.05483415977162122
sg15
g2208
sbs(I21
I1
tp2212
g0
(g9
g2
Ntp2213
Rp2214
(dp2215
g13
I01
sg14
F2.091377683355515
sg15
g2212
sbs(I-19
I15
tp2216
g0
(g9
g2
Ntp2217
Rp2218
(dp2219
g13
I01
sg14
F0.27448232470988826
sg15
g2216
sbs(I-30
I20
tp2220
g0
(g9
g2
Ntp2221
Rp2222
(dp2223
g13
I01
sg14
F0.13121382469180684
sg15
g2220
sbs(I10
I0
tp2224
g0
(g9
g2
Ntp2225
Rp2226
(dp2227
g13
I01
sg14
F0.288264967286534
sg15
g2224
sbs(I-30
I14
tp2228
g0
(g9
g2
Ntp2229
Rp2230
(dp2231
g13
I01
sg14
F1.6578636016591548
sg15
g2228
sbs(I-2
I21
tp2232
g0
(g9
g2
Ntp2233
Rp2234
(dp2235
g13
I01
sg14
F0.4739167017174646
sg15
g2232
sbs(I-13
I16
tp2236
g0
(g9
g2
Ntp2237
Rp2238
(dp2239
g13
I01
sg14
F-0.4117815896612189
sg15
g2236
sbs(I15
I3
tp2240
g0
(g9
g2
Ntp2241
Rp2242
(dp2243
g13
I01
sg14
F-0.701221719695584
sg15
g2240
sbs(I-25
I13
tp2244
g0
(g9
g2
Ntp2245
Rp2246
(dp2247
g13
I01
sg14
F0.9455702617239916
sg15
g2244
sbs(I-12
I11
tp2248
g0
(g9
g2
Ntp2249
Rp2250
(dp2251
g13
I01
sg14
F-0.6504488118833025
sg15
g2248
sbs(I-11
I10
tp2252
g0
(g9
g2
Ntp2253
Rp2254
(dp2255
g13
I01
sg14
F0.11252974189839664
sg15
g2252
sbs(I-23
I12
tp2256
g0
(g9
g2
Ntp2257
Rp2258
(dp2259
g13
I01
sg14
F-1.038372515161492
sg15
g2256
sbs(I-22
I11
tp2260
g0
(g9
g2
Ntp2261
Rp2262
(dp2263
g13
I01
sg14
F-0.8659442694548316
sg15
g2260
sbs(I-24
I23
tp2264
g0
(g9
g2
Ntp2265
Rp2266
(dp2267
g13
I01
sg14
F-1.1645630703356333
sg15
g2264
sbs(I17
I0
tp2268
g0
(g9
g2
Ntp2269
Rp2270
(dp2271
g13
I01
sg14
F2.428659177888944
sg15
g2268
sbs(I-23
I22
tp2272
g0
(g9
g2
Ntp2273
Rp2274
(dp2275
g13
I01
sg14
F0.14533170993339592
sg15
g2272
sbs(I-18
I13
tp2276
g0
(g9
g2
Ntp2277
Rp2278
(dp2279
g13
I01
sg14
F-1.5289175866000786
sg15
g2276
sbs(I18
I7
tp2280
g0
(g9
g2
Ntp2281
Rp2282
(dp2283
g13
I01
sg14
F-1.0961234544682257
sg15
g2280
sbs(I-22
I21
tp2284
g0
(g9
g2
Ntp2285
Rp2286
(dp2287
g13
I01
sg14
F0.007221701835310278
sg15
g2284
sbs(I-21
I24
tp2288
g0
(g9
g2
Ntp2289
Rp2290
(dp2291
g13
I01
sg14
F-0.8206136174444002
sg15
g2288
sbs(I-6
I16
tp2292
g0
(g9
g2
Ntp2293
Rp2294
(dp2295
g13
I01
sg14
F-0.5517188799973377
sg15
g2292
sbs(I22
I1
tp2296
g0
(g9
g2
Ntp2297
Rp2298
(dp2299
g13
I01
sg14
F-0.8368133587804769
sg15
g2296
sbs(I-29
I14
tp2300
g0
(g9
g2
Ntp2301
Rp2302
(dp2303
g13
I01
sg14
F-0.5603827184482977
sg15
g2300
sbs(I23
I4
tp2304
g0
(g9
g2
Ntp2305
Rp2306
(dp2307
g13
I01
sg14
F-0.736470383224578
sg15
g2304
sbs(I-27
I12
tp2308
g0
(g9
g2
Ntp2309
Rp2310
(dp2311
g13
I01
sg14
F0.9260328439385853
sg15
g2308
sbs(I-29
I20
tp2312
g0
(g9
g2
Ntp2313
Rp2314
(dp2315
g13
I01
sg14
F0.4066272506697231
sg15
g2312
sbs(I12
I5
tp2316
g0
(g9
g2
Ntp2317
Rp2318
(dp2319
g13
I01
sg14
F1.7852223096590614
sg15
g2316
sbs(I-28
I23
tp2320
g0
(g9
g2
Ntp2321
Rp2322
(dp2323
g13
I01
sg14
F0.649497955721775
sg15
g2320
sbs(I15
I8
tp2324
g0
(g9
g2
Ntp2325
Rp2326
(dp2327
g13
I01
sg14
F0.05580688631741146
sg15
g2324
sbs(I-25
I10
tp2328
g0
(g9
g2
Ntp2329
Rp2330
(dp2331
g13
I01
sg14
F0.8313211414475064
sg15
g2328
sbs(I-27
I22
tp2332
g0
(g9
g2
Ntp2333
Rp2334
(dp2335
g13
I01
sg14
F1.1075255817550935
sg15
g2332
sbs(I-12
I18
tp2336
g0
(g9
g2
Ntp2337
Rp2338
(dp2339
g13
I01
sg14
F0.2163261089666251
sg15
g2336
sbs(I24
I0
tp2340
g0
(g9
g2
Ntp2341
Rp2342
(dp2343
g13
I01
sg14
F-1.5123775064962413
sg15
g2340
sbs(I-16
I18
tp2344
g0
(g9
g2
Ntp2345
Rp2346
(dp2347
g13
I01
sg14
F0.10968425397393411
sg15
g2344
sbs(I-11
I19
tp2348
g0
(g9
g2
Ntp2349
Rp2350
(dp2351
g13
I01
sg14
F-1.714132876239392
sg15
g2348
sbs(I-15
I19
tp2352
g0
(g9
g2
Ntp2353
Rp2354
(dp2355
g13
I01
sg14
F0.36091138884279217
sg15
g2352
sbs(I-10
I24
tp2356
g0
(g9
g2
Ntp2357
Rp2358
(dp2359
g13
I01
sg14
F-1.3636417204529172
sg15
g2356
sbs(I-14
I24
tp2360
g0
(g9
g2
Ntp2361
Rp2362
(dp2363
g13
I01
sg14
F0.1824464694992018
sg15
g2360
sbs(I-18
I20
tp2364
g0
(g9
g2
Ntp2365
Rp2366
(dp2367
g13
I01
sg14
F-0.613126071459089
sg15
g2364
sbs(I-17
I17
tp2368
g0
(g9
g2
Ntp2369
Rp2370
(dp2371
g13
I01
sg14
F-0.5459747528094528
sg15
g2368
sbs(I-21
I17
tp2372
g0
(g9
g2
Ntp2373
Rp2374
(dp2375
g13
I01
sg14
F0.3013505185493899
sg15
g2372
sbs(I-5
I18
tp2376
g0
(g9
g2
Ntp2377
Rp2378
(dp2379
g13
I01
sg14
F0.7123035280283361
sg15
g2376
sbs(I-4
I21
tp2380
g0
(g9
g2
Ntp2381
Rp2382
(dp2383
g13
I01
sg14
F0.6303504501601528
sg15
g2380
sbs(I-3
I24
tp2384
g0
(g9
g2
Ntp2385
Rp2386
(dp2387
g13
I01
sg14
F1.3435102186029375
sg15
g2384
sbs(I13
I1
tp2388
g0
(g9
g2
Ntp2389
Rp2390
(dp2391
g13
I01
sg14
F-0.758285591270849
sg15
g2388
sbs(I24
I7
tp2392
g0
(g9
g2
Ntp2393
Rp2394
(dp2395
g13
I01
sg14
F-0.8023437424632449
sg15
g2392
sbs(I-15
I20
tp2396
g0
(g9
g2
Ntp2397
Rp2398
(dp2399
g13
I01
sg14
F2.019004678706509
sg15
g2396
sbs(I-10
I19
tp2400
g0
(g9
g2
Ntp2401
Rp2402
(dp2403
g13
I01
sg14
F-1.9498822564412366
sg15
g2400
sbs(I-14
I19
tp2404
g0
(g9
g2
Ntp2405
Rp2406
(dp2407
g13
I01
sg14
F-1.3999166734399262
sg15
g2404
sbs(I-2
I20
tp2408
g0
(g9
g2
Ntp2409
Rp2410
(dp2411
g13
I01
sg14
F-0.8739470601292634
sg15
g2408
sbssS'nodes'
p2412
(dp2413
I0
g0
(cneat.genes
DefaultNodeGene
p2414
g2
Ntp2415
Rp2416
(dp2417
S'activation'
p2418
S'sigmoid'
p2419
sS'bias'
p2420
F0.043925255627156184
sS'response'
p2421
F1.0
sg15
I0
sS'aggregation'
p2422
S'sum'
p2423
sbsI1
g0
(g2414
g2
Ntp2424
Rp2425
(dp2426
g2418
g2419
sg2420
F0.5834854649202533
sg2421
F1.0
sg15
I1
sg2422
g2423
sbsI2
g0
(g2414
g2
Ntp2427
Rp2428
(dp2429
g2418
g2419
sg2420
F0.4591058356272964
sg2421
F1.0
sg15
I2
sg2422
g2423
sbsI3
g0
(g2414
g2
Ntp2430
Rp2431
(dp2432
g2418
g2419
sg2420
F-0.002618606122349596
sg2421
F1.0
sg15
I3
sg2422
g2423
sbsI4
g0
(g2414
g2
Ntp2433
Rp2434
(dp2435
g2418
g2419
sg2420
F0.9116425069182759
sg2421
F1.0
sg15
I4
sg2422
g2423
sbsI5
g0
(g2414
g2
Ntp2436
Rp2437
(dp2438
g2418
g2419
sg2420
F0.098886213526345
sg2421
F1.0
sg15
I5
sg2422
g2423
sbsI6
g0
(g2414
g2
Ntp2439
Rp2440
(dp2441
g2418
g2419
sg2420
F-0.36945050454770834
sg2421
F1.0
sg15
I6
sg2422
g2423
sbsI7
g0
(g2414
g2
Ntp2442
Rp2443
(dp2444
g2418
g2419
sg2420
F-0.9138124876715358
sg2421
F1.0
sg15
I7
sg2422
g2423
sbsI8
g0
(g2414
g2
Ntp2445
Rp2446
(dp2447
g2418
g2419
sg2420
F0.5679993124195751
sg2421
F1.0
sg15
I8
sg2422
g2423
sbsI9
g0
(g2414
g2
Ntp2448
Rp2449
(dp2450
g2418
g2419
sg2420
F-0.7141958342067984
sg2421
F1.0
sg15
I9
sg2422
g2423
sbsI10
g0
(g2414
g2
Ntp2451
Rp2452
(dp2453
g2418
g2419
sg2420
F-0.8075855079962501
sg2421
F1.0
sg15
I10
sg2422
g2423
sbsI11
g0
(g2414
g2
Ntp2454
Rp2455
(dp2456
g2418
g2419
sg2420
F1.4712025938101596
sg2421
F1.0
sg15
I11
sg2422
g2423
sbsI12
g0
(g2414
g2
Ntp2457
Rp2458
(dp2459
g2418
g2419
sg2420
F1.229994783557817
sg2421
F1.0
sg15
I12
sg2422
g2423
sbsI13
g0
(g2414
g2
Ntp2460
Rp2461
(dp2462
g2418
g2419
sg2420
F-0.8327036275804834
sg2421
F1.0
sg15
I13
sg2422
g2423
sbsI14
g0
(g2414
g2
Ntp2463
Rp2464
(dp2465
g2418
g2419
sg2420
F1.168406842631503
sg2421
F1.0
sg15
I14
sg2422
g2423
sbsI15
g0
(g2414
g2
Ntp2466
Rp2467
(dp2468
g2418
g2419
sg2420
F-0.9792945193432844
sg2421
F1.0
sg15
I15
sg2422
g2423
sbsI16
g0
(g2414
g2
Ntp2469
Rp2470
(dp2471
g2418
g2419
sg2420
F-1.9689512094900536
sg2421
F1.0
sg15
I16
sg2422
g2423
sbsI17
g0
(g2414
g2
Ntp2472
Rp2473
(dp2474
g2418
g2419
sg2420
F0.5538572679742121
sg2421
F1.0
sg15
I17
sg2422
g2423
sbsI18
g0
(g2414
g2
Ntp2475
Rp2476
(dp2477
g2418
g2419
sg2420
F0.20358369121141823
sg2421
F1.0
sg15
I18
sg2422
g2423
sbsI19
g0
(g2414
g2
Ntp2478
Rp2479
(dp2480
g2418
g2419
sg2420
F-0.1628961615075073
sg2421
F1.0
sg15
I19
sg2422
g2423
sbsI20
g0
(g2414
g2
Ntp2481
Rp2482
(dp2483
g2418
g2419
sg2420
F-0.5501187415135801
sg2421
F1.0
sg15
I20
sg2422
g2423
sbsI21
g0
(g2414
g2
Ntp2484
Rp2485
(dp2486
g2418
g2419
sg2420
F0.19288740187230743
sg2421
F1.0
sg15
I21
sg2422
g2423
sbsI22
g0
(g2414
g2
Ntp2487
Rp2488
(dp2489
g2418
g2419
sg2420
F-1.0259930821810235
sg2421
F1.0
sg15
I22
sg2422
g2423
sbsI23
g0
(g2414
g2
Ntp2490
Rp2491
(dp2492
g2418
g2419
sg2420
F-0.6137607685183962
sg2421
F1.0
sg15
I23
sg2422
g2423
sbsI24
g0
(g2414
g2
Ntp2493
Rp2494
(dp2495
g2418
g2419
sg2420
F-0.29186039271162006
sg2421
F1.0
sg15
I24
sg2422
g2423
sbssg15
I49
sS'fitness'
p2496
I1
sb.