ccopy_reg
_reconstructor
p0
(cneat.genome
DefaultGenome
p1
c__builtin__
object
p2
Ntp3
Rp4
(dp5
S'connections'
p6
(dp7
(I-16
I10
tp8
g0
(cneat.genes
DefaultConnectionGene
p9
g2
Ntp10
Rp11
(dp12
S'enabled'
p13
I01
sS'weight'
p14
F0.06391363316970188
sS'key'
p15
g8
sbs(I10
I6
tp16
g0
(g9
g2
Ntp17
Rp18
(dp19
g13
I01
sg14
F1.1007322891197704
sg15
g16
sbs(I-5
I10
tp20
g0
(g9
g2
Ntp21
Rp22
(dp23
g13
I01
sg14
F1.2303042196271652
sg15
g20
sbs(I-20
I10
tp24
g0
(g9
g2
Ntp25
Rp26
(dp27
g13
I01
sg14
F2.805990486015543
sg15
g24
sbs(I-13
I10
tp28
g0
(g9
g2
Ntp29
Rp30
(dp31
g13
I01
sg14
F-0.5367630535433233
sg15
g28
sbs(I-10
I10
tp32
g0
(g9
g2
Ntp33
Rp34
(dp35
g13
I01
sg14
F-1.125824294501509
sg15
g32
sbs(I10
I3
tp36
g0
(g9
g2
Ntp37
Rp38
(dp39
g13
I01
sg14
F-1.151848122335509
sg15
g36
sbs(I-8
I10
tp40
g0
(g9
g2
Ntp41
Rp42
(dp43
g13
I01
sg14
F-0.08621263119719856
sg15
g40
sbs(I10
I8
tp44
g0
(g9
g2
Ntp45
Rp46
(dp47
g13
I01
sg14
F0.27559321102001766
sg15
g44
sbs(I-18
I10
tp48
g0
(g9
g2
Ntp49
Rp50
(dp51
g13
I01
sg14
F0.26391482586763143
sg15
g48
sbs(I-9
I10
tp52
g0
(g9
g2
Ntp53
Rp54
(dp55
g13
I01
sg14
F-1.5427082532975596
sg15
g52
sbs(I-15
I10
tp56
g0
(g9
g2
Ntp57
Rp58
(dp59
g13
I01
sg14
F-0.4745236662531064
sg15
g56
sbs(I-4
I10
tp60
g0
(g9
g2
Ntp61
Rp62
(dp63
g13
I01
sg14
F1.4611249130258426
sg15
g60
sbs(I-17
I10
tp64
g0
(g9
g2
Ntp65
Rp66
(dp67
g13
I01
sg14
F-0.36903062506123613
sg15
g64
sbs(I-12
I10
tp68
g0
(g9
g2
Ntp69
Rp70
(dp71
g13
I01
sg14
F-1.002232405764958
sg15
g68
sbs(I-2
I10
tp72
g0
(g9
g2
Ntp73
Rp74
(dp75
g13
I01
sg14
F-0.579984885456748
sg15
g72
sbs(I10
I0
tp76
g0
(g9
g2
Ntp77
Rp78
(dp79
g13
I01
sg14
F-1.176857129053925
sg15
g76
sbs(I-19
I10
tp80
g0
(g9
g2
Ntp81
Rp82
(dp83
g13
I01
sg14
F0.6123850056253748
sg15
g80
sbs(I10
I9
tp84
g0
(g9
g2
Ntp85
Rp86
(dp87
g13
I01
sg14
F-0.36554398744876676
sg15
g84
sbs(I-14
I10
tp88
g0
(g9
g2
Ntp89
Rp90
(dp91
g13
I01
sg14
F-0.6272091709592278
sg15
g88
sbs(I-7
I10
tp92
g0
(g9
g2
Ntp93
Rp94
(dp95
g13
I01
sg14
F-1.1594397941553691
sg15
g92
sbs(I10
I4
tp96
g0
(g9
g2
Ntp97
Rp98
(dp99
g13
I01
sg14
F0.6838188379434895
sg15
g96
sbs(I-3
I10
tp100
g0
(g9
g2
Ntp101
Rp102
(dp103
g13
I01
sg14
F1.534138267243184
sg15
g100
sbs(I-11
I10
tp104
g0
(g9
g2
Ntp105
Rp106
(dp107
g13
I01
sg14
F-1.3742515326818774
sg15
g104
sbs(I10
I1
tp108
g0
(g9
g2
Ntp109
Rp110
(dp111
g13
I01
sg14
F0.2261048569444215
sg15
g108
sbs(I-6
I10
tp112
g0
(g9
g2
Ntp113
Rp114
(dp115
g13
I01
sg14
F0.7685978824385193
sg15
g112
sbs(I10
I5
tp116
g0
(g9
g2
Ntp117
Rp118
(dp119
g13
I01
sg14
F0.35522481383754795
sg15
g116
sbs(I-1
I10
tp120
g0
(g9
g2
Ntp121
Rp122
(dp123
g13
I01
sg14
F-0.7228064323238761
sg15
g120
sbs(I10
I7
tp124
g0
(g9
g2
Ntp125
Rp126
(dp127
g13
I01
sg14
F-1.029888051111111
sg15
g124
sbs(I10
I2
tp128
g0
(g9
g2
Ntp129
Rp130
(dp131
g13
I01
sg14
F-0.9946745276088409
sg15
g128
sbssS'nodes'
p132
(dp133
I0
g0
(cneat.genes
DefaultNodeGene
p134
g2
Ntp135
Rp136
(dp137
S'activation'
p138
S'relu'
p139
sS'bias'
p140
F3.9744774805254224
sS'response'
p141
F1.0
sg15
I0
sS'aggregation'
p142
S'sum'
p143
sbsI1
g0
(g134
g2
Ntp144
Rp145
(dp146
g138
g139
sg140
F5.6741580769106505
sg141
F1.0
sg15
I1
sg142
g143
sbsI2
g0
(g134
g2
Ntp147
Rp148
(dp149
g138
g139
sg140
F2.3755862876756515
sg141
F1.0
sg15
I2
sg142
g143
sbsI3
g0
(g134
g2
Ntp150
Rp151
(dp152
g138
g139
sg140
F-17.69247147540273
sg141
F1.0
sg15
I3
sg142
g143
sbsI4
g0
(g134
g2
Ntp153
Rp154
(dp155
g138
g139
sg140
F1.1196699580708123
sg141
F1.0
sg15
I4
sg142
g143
sbsI5
g0
(g134
g2
Ntp156
Rp157
(dp158
g138
g139
sg140
F-7.62394413875451
sg141
F1.0
sg15
I5
sg142
g143
sbsI6
g0
(g134
g2
Ntp159
Rp160
(dp161
g138
g139
sg140
F2.439696851200148
sg141
F1.0
sg15
I6
sg142
g143
sbsI7
g0
(g134
g2
Ntp162
Rp163
(dp164
g138
g139
sg140
F5.680702667688161
sg141
F1.0
sg15
I7
sg142
g143
sbsI8
g0
(g134
g2
Ntp165
Rp166
(dp167
g138
g139
sg140
F1.7057007430678006
sg141
F1.0
sg15
I8
sg142
g143
sbsI9
g0
(g134
g2
Ntp168
Rp169
(dp170
g138
g139
sg140
F-4.04371539466173
sg141
F1.0
sg15
I9
sg142
g143
sbsI10
g0
(g134
g2
Ntp171
Rp172
(dp173
g138
g139
sg140
F-3.7157140756607347
sg141
F1.0
sg15
I10
sg142
g143
sbssg15
I1
sS'fitness'
p174
F0.12029220011375719
sb.