ccopy_reg
_reconstructor
p0
(cneat.genome
DefaultGenome
p1
c__builtin__
object
p2
Ntp3
Rp4
(dp5
S'connections'
p6
(dp7
(I-7
I10
tp8
g0
(cneat.genes
DefaultConnectionGene
p9
g2
Ntp10
Rp11
(dp12
S'enabled'
p13
I01
sS'weight'
p14
F0.6157187061588412
sS'key'
p15
g8
sbs(I10
I8
tp16
g0
(g9
g2
Ntp17
Rp18
(dp19
g13
I01
sg14
F1.1803542986424431
sg15
g16
sbs(I10
I5
tp20
g0
(g9
g2
Ntp21
Rp22
(dp23
g13
I01
sg14
F-0.9378442947197472
sg15
g20
sbs(I10
I4
tp24
g0
(g9
g2
Ntp25
Rp26
(dp27
g13
I01
sg14
F0.2623648608311218
sg15
g24
sbs(I-9
I10
tp28
g0
(g9
g2
Ntp29
Rp30
(dp31
g13
I01
sg14
F0.7867841342555195
sg15
g28
sbs(I10
I7
tp32
g0
(g9
g2
Ntp33
Rp34
(dp35
g13
I01
sg14
F-0.884491018757118
sg15
g32
sbs(I-4
I10
tp36
g0
(g9
g2
Ntp37
Rp38
(dp39
g13
I01
sg14
F0.3423713614952949
sg15
g36
sbs(I10
I6
tp40
g0
(g9
g2
Ntp41
Rp42
(dp43
g13
I01
sg14
F-0.7830271616619353
sg15
g40
sbs(I-3
I10
tp44
g0
(g9
g2
Ntp45
Rp46
(dp47
g13
I01
sg14
F0.8769407877373006
sg15
g44
sbs(I-2
I10
tp48
g0
(g9
g2
Ntp49
Rp50
(dp51
g13
I01
sg14
F0.790133251610849
sg15
g48
sbs(I-5
I10
tp52
g0
(g9
g2
Ntp53
Rp54
(dp55
g13
I01
sg14
F-0.8484235828976157
sg15
g52
sbs(I-1
I10
tp56
g0
(g9
g2
Ntp57
Rp58
(dp59
g13
I01
sg14
F1.197348799096776
sg15
g56
sbs(I10
I1
tp60
g0
(g9
g2
Ntp61
Rp62
(dp63
g13
I01
sg14
F0.327211037165855
sg15
g60
sbs(I-6
I10
tp64
g0
(g9
g2
Ntp65
Rp66
(dp67
g13
I01
sg14
F0.7507614908580255
sg15
g64
sbs(I10
I0
tp68
g0
(g9
g2
Ntp69
Rp70
(dp71
g13
I01
sg14
F0.2818395757658378
sg15
g68
sbs(I-10
I10
tp72
g0
(g9
g2
Ntp73
Rp74
(dp75
g13
I01
sg14
F-0.28835291086289466
sg15
g72
sbs(I10
I3
tp76
g0
(g9
g2
Ntp77
Rp78
(dp79
g13
I01
sg14
F-1.0120989823918474
sg15
g76
sbs(I-8
I10
tp80
g0
(g9
g2
Ntp81
Rp82
(dp83
g13
I01
sg14
F0.8876855301824802
sg15
g80
sbs(I10
I9
tp84
g0
(g9
g2
Ntp85
Rp86
(dp87
g13
I01
sg14
F-0.06238711264355221
sg15
g84
sbs(I10
I2
tp88
g0
(g9
g2
Ntp89
Rp90
(dp91
g13
I01
sg14
F-0.20298181012350885
sg15
g88
sbssS'nodes'
p92
(dp93
I0
g0
(cneat.genes
DefaultNodeGene
p94
g2
Ntp95
Rp96
(dp97
S'activation'
p98
S'relu'
p99
sS'bias'
p100
F4.625217969041186
sS'response'
p101
F1.0
sg15
I0
sS'aggregation'
p102
S'sum'
p103
sbsI1
g0
(g94
g2
Ntp104
Rp105
(dp106
g98
g99
sg100
F8.337969966127183
sg101
F1.0
sg15
I1
sg102
g103
sbsI2
g0
(g94
g2
Ntp107
Rp108
(dp109
g98
g99
sg100
F-1.2697697273077284
sg101
F1.0
sg15
I2
sg102
g103
sbsI3
g0
(g94
g2
Ntp110
Rp111
(dp112
g98
g99
sg100
F-1.6546078002842368
sg101
F1.0
sg15
I3
sg102
g103
sbsI4
g0
(g94
g2
Ntp113
Rp114
(dp115
g98
g99
sg100
F0.6528260153277743
sg101
F1.0
sg15
I4
sg102
g103
sbsI5
g0
(g94
g2
Ntp116
Rp117
(dp118
g98
g99
sg100
F9.570873065421024
sg101
F1.0
sg15
I5
sg102
g103
sbsI6
g0
(g94
g2
Ntp119
Rp120
(dp121
g98
g99
sg100
F-1.7576087878513722
sg101
F1.0
sg15
I6
sg102
g103
sbsI7
g0
(g94
g2
Ntp122
Rp123
(dp124
g98
g99
sg100
F5.278994385451419
sg101
F1.0
sg15
I7
sg102
g103
sbsI8
g0
(g94
g2
Ntp125
Rp126
(dp127
g98
g99
sg100
F3.1649040407544886
sg101
F1.0
sg15
I8
sg102
g103
sbsI9
g0
(g94
g2
Ntp128
Rp129
(dp130
g98
g99
sg100
F2.2111359852030876
sg101
F1.0
sg15
I9
sg102
g103
sbsI10
g0
(g94
g2
Ntp131
Rp132
(dp133
g98
g99
sg100
F-13.103610658772338
sg101
F1.0
sg15
I10
sg102
g103
sbssg15
I1
sS'fitness'
p134
F-0.03041516906566022
sb.