ccopy_reg
_reconstructor
p0
(cneat.genome
DefaultGenome
p1
c__builtin__
object
p2
Ntp3
Rp4
(dp5
S'connections'
p6
(dp7
(I189
I6
tp8
g0
(cneat.genes
DefaultConnectionGene
p9
g2
Ntp10
Rp11
(dp12
S'enabled'
p13
I01
sS'weight'
p14
F2.037893826601846
sS'key'
p15
g8
sbs(I-5
I186
tp16
g0
(g9
g2
Ntp17
Rp18
(dp19
g13
I00
sg14
F0.8955340250253487
sg15
g16
sbs(I-2
I186
tp20
g0
(g9
g2
Ntp21
Rp22
(dp23
g13
I01
sg14
F-0.4204594739583319
sg15
g20
sbs(I186
I1
tp24
g0
(g9
g2
Ntp25
Rp26
(dp27
g13
I00
sg14
F0.2097701638840241
sg15
g24
sbs(I6
I6
tp28
g0
(g9
g2
Ntp29
Rp30
(dp31
g13
I01
sg14
F1.382159574810104
sg15
g28
sbs(I-9
I189
tp32
g0
(g9
g2
Ntp33
Rp34
(dp35
g13
I01
sg14
F-0.543110313450262
sg15
g32
sbs(I-3
I188
tp36
g0
(g9
g2
Ntp37
Rp38
(dp39
g13
I01
sg14
F0.9538612105943531
sg15
g36
sbs(I189
I1
tp40
g0
(g9
g2
Ntp41
Rp42
(dp43
g13
I01
sg14
F0.7542965014099383
sg15
g40
sbs(I186
I5
tp44
g0
(g9
g2
Ntp45
Rp46
(dp47
g13
I00
sg14
F-1.1608624233342149
sg15
g44
sbs(I189
I0
tp48
g0
(g9
g2
Ntp49
Rp50
(dp51
g13
I01
sg14
F-0.08171646007499139
sg15
g48
sbs(I-4
I186
tp52
g0
(g9
g2
Ntp53
Rp54
(dp55
g13
I01
sg14
F-2.249481270579805
sg15
g52
sbs(I188
I4
tp56
g0
(g9
g2
Ntp57
Rp58
(dp59
g13
I00
sg14
F-1.3965350150839757
sg15
g56
sbs(I3
I3
tp60
g0
(g9
g2
Ntp61
Rp62
(dp63
g13
I01
sg14
F-0.19352070426618329
sg15
g60
sbs(I189
I9
tp64
g0
(g9
g2
Ntp65
Rp66
(dp67
g13
I01
sg14
F-0.4839895163792117
sg15
g64
sbs(I4
I4
tp68
g0
(g9
g2
Ntp69
Rp70
(dp71
g13
I01
sg14
F-0.2382349901011186
sg15
g68
sbs(I546
I1
tp72
g0
(g9
g2
Ntp73
Rp74
(dp75
g13
I01
sg14
F1.040531280445263
sg15
g72
sbs(I-7
I186
tp76
g0
(g9
g2
Ntp77
Rp78
(dp79
g13
I01
sg14
F0.1159239656071403
sg15
g76
sbs(I188
I1
tp80
g0
(g9
g2
Ntp81
Rp82
(dp83
g13
I01
sg14
F-0.021771734955563834
sg15
g80
sbs(I186
I6
tp84
g0
(g9
g2
Ntp85
Rp86
(dp87
g13
I01
sg14
F2.526922799885491
sg15
g84
sbs(I-3
I186
tp88
g0
(g9
g2
Ntp89
Rp90
(dp91
g13
I01
sg14
F-0.7413851937900034
sg15
g88
sbs(I188
I5
tp92
g0
(g9
g2
Ntp93
Rp94
(dp95
g13
I01
sg14
F0.7692950629393023
sg15
g92
sbs(I0
I0
tp96
g0
(g9
g2
Ntp97
Rp98
(dp99
g13
I00
sg14
F1.9314564915736756
sg15
g96
sbs(I189
I8
tp100
g0
(g9
g2
Ntp101
Rp102
(dp103
g13
I01
sg14
F-1.1783151733062829
sg15
g100
sbs(I-6
I186
tp104
g0
(g9
g2
Ntp105
Rp106
(dp107
g13
I01
sg14
F0.009257348129455667
sg15
g104
sbs(I-10
I186
tp108
g0
(g9
g2
Ntp109
Rp110
(dp111
g13
I00
sg14
F0.9796503970192407
sg15
g108
sbs(I188
I188
tp112
g0
(g9
g2
Ntp113
Rp114
(dp115
g13
I01
sg14
F1.1853526035929793
sg15
g112
sbs(I186
I546
tp116
g0
(g9
g2
Ntp117
Rp118
(dp119
g13
I01
sg14
F0.7821521457633163
sg15
g116
sbs(I186
I8
tp120
g0
(g9
g2
Ntp121
Rp122
(dp123
g13
I01
sg14
F1.2884106879074728
sg15
g120
sbs(I-7
I437
tp124
g0
(g9
g2
Ntp125
Rp126
(dp127
g13
I01
sg14
F-0.8047531278514874
sg15
g124
sbs(I189
I7
tp128
g0
(g9
g2
Ntp129
Rp130
(dp131
g13
I01
sg14
F-1.3175953567167165
sg15
g128
sbs(I-5
I188
tp132
g0
(g9
g2
Ntp133
Rp134
(dp135
g13
I00
sg14
F-0.6384565723708665
sg15
g132
sbs(I-4
I188
tp136
g0
(g9
g2
Ntp137
Rp138
(dp139
g13
I01
sg14
F-0.3940756703072968
sg15
g136
sbs(I8
I8
tp140
g0
(g9
g2
Ntp141
Rp142
(dp143
g13
I01
sg14
F-0.18606160881061373
sg15
g140
sbs(I189
I2
tp144
g0
(g9
g2
Ntp145
Rp146
(dp147
g13
I01
sg14
F-0.591649238445853
sg15
g144
sbs(I186
I4
tp148
g0
(g9
g2
Ntp149
Rp150
(dp151
g13
I01
sg14
F0.9084913848204206
sg15
g148
sbs(I186
I0
tp152
g0
(g9
g2
Ntp153
Rp154
(dp155
g13
I01
sg14
F-1.2991066675444323
sg15
g152
sbs(I-10
I188
tp156
g0
(g9
g2
Ntp157
Rp158
(dp159
g13
I01
sg14
F-0.808735157724813
sg15
g156
sbssS'nodes'
p160
(dp161
I0
g0
(cneat.genes
DefaultNodeGene
p162
g2
Ntp163
Rp164
(dp165
S'activation'
p166
S'relu'
p167
sS'bias'
p168
F-7.588055301915385
sS'response'
p169
F1.0
sg15
I0
sS'aggregation'
p170
S'sum'
p171
sbsI1
g0
(g162
g2
Ntp172
Rp173
(dp174
g166
S'tanh'
p175
sg168
F5.22190708996876
sg169
F1.0
sg15
I1
sg170
g171
sbsI2
g0
(g162
g2
Ntp176
Rp177
(dp178
g166
g175
sg168
F12.366815048612255
sg169
F1.0
sg15
I2
sg170
g171
sbsI3
g0
(g162
g2
Ntp179
Rp180
(dp181
g166
g175
sg168
F17.162938165207624
sg169
F1.0
sg15
I3
sg170
g171
sbsI4
g0
(g162
g2
Ntp182
Rp183
(dp184
g166
g175
sg168
F2.869788865158948
sg169
F1.0
sg15
I4
sg170
g171
sbsI5
g0
(g162
g2
Ntp185
Rp186
(dp187
g166
g175
sg168
F-7.199351613688857
sg169
F1.0
sg15
I5
sg170
g171
sbsI6
g0
(g162
g2
Ntp188
Rp189
(dp190
g166
g175
sg168
F4.823587847867822
sg169
F1.0
sg15
I6
sg170
g171
sbsI7
g0
(g162
g2
Ntp191
Rp192
(dp193
g166
g175
sg168
F-1.6269651100870468
sg169
F1.0
sg15
I7
sg170
g171
sbsI8
g0
(g162
g2
Ntp194
Rp195
(dp196
g166
g175
sg168
F-11.340538691232815
sg169
F1.0
sg15
I8
sg170
g171
sbsI9
g0
(g162
g2
Ntp197
Rp198
(dp199
g166
g175
sg168
F8.189180964543308
sg169
F1.0
sg15
I9
sg170
g171
sbsI546
g0
(g162
g2
Ntp200
Rp201
(dp202
g166
g175
sg168
F16.875021108497464
sg169
F1.0
sg15
I546
sg170
g171
sbsI437
g0
(g162
g2
Ntp203
Rp204
(dp205
g166
g175
sg168
F1.6389971304039874
sg169
F1.0
sg15
I437
sg170
g171
sbsI186
g0
(g162
g2
Ntp206
Rp207
(dp208
g166
g175
sg168
F-5.35618830809021
sg169
F1.0
sg15
I186
sg170
g171
sbsI188
g0
(g162
g2
Ntp209
Rp210
(dp211
g166
g175
sg168
F-9.852175205336533
sg169
F1.0
sg15
I188
sg170
g171
sbsI189
g0
(g162
g2
Ntp212
Rp213
(dp214
g166
g175
sg168
F13.998886489188047
sg169
F1.0
sg15
I189
sg170
g171
sbssg15
I10
sS'fitness'
p215
F0.01045715374989653
sb.