ccopy_reg
_reconstructor
p0
(cneat.genome
DefaultGenome
p1
c__builtin__
object
p2
Ntp3
Rp4
(dp5
S'connections'
p6
(dp7
(I299
I7
tp8
g0
(cneat.genes
DefaultConnectionGene
p9
g2
Ntp10
Rp11
(dp12
S'enabled'
p13
I01
sS'weight'
p14
F0.9002598367568537
sS'key'
p15
g8
sbs(I296
I3
tp16
g0
(g9
g2
Ntp17
Rp18
(dp19
g13
I01
sg14
F-1.6419745874202594
sg15
g16
sbs(I-8
I296
tp20
g0
(g9
g2
Ntp21
Rp22
(dp23
g13
I01
sg14
F0.28254004925427384
sg15
g20
sbs(I299
I299
tp24
g0
(g9
g2
Ntp25
Rp26
(dp27
g13
I01
sg14
F-0.597496176253839
sg15
g24
sbs(I299
I8
tp28
g0
(g9
g2
Ntp29
Rp30
(dp31
g13
I01
sg14
F-0.41643002036426846
sg15
g28
sbs(I-1
I296
tp32
g0
(g9
g2
Ntp33
Rp34
(dp35
g13
I01
sg14
F2.34798555985639
sg15
g32
sbs(I539
I6
tp36
g0
(g9
g2
Ntp37
Rp38
(dp39
g13
I01
sg14
F-0.2649843989066521
sg15
g36
sbs(I-2
I296
tp40
g0
(g9
g2
Ntp41
Rp42
(dp43
g13
I01
sg14
F-2.476742162045081
sg15
g40
sbs(I296
I8
tp44
g0
(g9
g2
Ntp45
Rp46
(dp47
g13
I01
sg14
F0.4945304087356243
sg15
g44
sbs(I616
I295
tp48
g0
(g9
g2
Ntp49
Rp50
(dp51
g13
I01
sg14
F-0.6113967348020501
sg15
g48
sbs(I295
I3
tp52
g0
(g9
g2
Ntp53
Rp54
(dp55
g13
I01
sg14
F-2.655530677476423
sg15
g52
sbs(I3
I3
tp56
g0
(g9
g2
Ntp57
Rp58
(dp59
g13
I01
sg14
F-0.7497355900855515
sg15
g56
sbs(I-3
I296
tp60
g0
(g9
g2
Ntp61
Rp62
(dp63
g13
I01
sg14
F-0.08737644192569782
sg15
g60
sbs(I4
I4
tp64
g0
(g9
g2
Ntp65
Rp66
(dp67
g13
I01
sg14
F0.2554483103011329
sg15
g64
sbs(I-6
I296
tp68
g0
(g9
g2
Ntp69
Rp70
(dp71
g13
I01
sg14
F-0.4088348174759679
sg15
g68
sbs(I-10
I296
tp72
g0
(g9
g2
Ntp73
Rp74
(dp75
g13
I01
sg14
F1.3082047596563307
sg15
g72
sbs(I-6
I295
tp76
g0
(g9
g2
Ntp77
Rp78
(dp79
g13
I01
sg14
F1.0491128481400636
sg15
g76
sbs(I1
I1
tp80
g0
(g9
g2
Ntp81
Rp82
(dp83
g13
I01
sg14
F1.893799371474515
sg15
g80
sbs(I-3
I295
tp84
g0
(g9
g2
Ntp85
Rp86
(dp87
g13
I01
sg14
F-1.3717066090545071
sg15
g84
sbs(I-1
I616
tp88
g0
(g9
g2
Ntp89
Rp90
(dp91
g13
I01
sg14
F0.9950116952271261
sg15
g88
sbs(I299
I3
tp92
g0
(g9
g2
Ntp93
Rp94
(dp95
g13
I01
sg14
F-1.1934426948363521
sg15
g92
sbs(I296
I6
tp96
g0
(g9
g2
Ntp97
Rp98
(dp99
g13
I01
sg14
F0.08813079024660378
sg15
g96
sbs(I-4
I295
tp100
g0
(g9
g2
Ntp101
Rp102
(dp103
g13
I01
sg14
F0.536447608660242
sg15
g100
sbs(I-7
I295
tp104
g0
(g9
g2
Ntp105
Rp106
(dp107
g13
I01
sg14
F1.3694794200859546
sg15
g104
sbs(I-9
I295
tp108
g0
(g9
g2
Ntp109
Rp110
(dp111
g13
I01
sg14
F-0.1843364360071031
sg15
g108
sbs(I5
I5
tp112
g0
(g9
g2
Ntp113
Rp114
(dp115
g13
I01
sg14
F2.37466187181624
sg15
g112
sbs(I7
I7
tp116
g0
(g9
g2
Ntp117
Rp118
(dp119
g13
I01
sg14
F0.9710204728856947
sg15
g116
sbs(I296
I2
tp120
g0
(g9
g2
Ntp121
Rp122
(dp123
g13
I01
sg14
F0.021176325994097356
sg15
g120
sbs(I-8
I295
tp124
g0
(g9
g2
Ntp125
Rp126
(dp127
g13
I01
sg14
F-0.11293260771111285
sg15
g124
sbs(I295
I1
tp128
g0
(g9
g2
Ntp129
Rp130
(dp131
g13
I01
sg14
F-0.6757593372687233
sg15
g128
sbs(I-9
I299
tp132
g0
(g9
g2
Ntp133
Rp134
(dp135
g13
I01
sg14
F-0.27206484758572774
sg15
g132
sbs(I299
I9
tp136
g0
(g9
g2
Ntp137
Rp138
(dp139
g13
I01
sg14
F-1.51671031463711
sg15
g136
sbs(I-9
I8
tp140
g0
(g9
g2
Ntp141
Rp142
(dp143
g13
I01
sg14
F1.1417975809071599
sg15
g140
sbs(I-2
I299
tp144
g0
(g9
g2
Ntp145
Rp146
(dp147
g13
I01
sg14
F0.4597018734415448
sg15
g144
sbs(I-1
I295
tp148
g0
(g9
g2
Ntp149
Rp150
(dp151
g13
I00
sg14
F-0.102830157216661
sg15
g148
sbssS'nodes'
p152
(dp153
I0
g0
(cneat.genes
DefaultNodeGene
p154
g2
Ntp155
Rp156
(dp157
S'activation'
p158
S'relu'
p159
sS'bias'
p160
F5.114592383151778
sS'response'
p161
F1.0
sg15
I0
sS'aggregation'
p162
S'sum'
p163
sbsI1
g0
(g154
g2
Ntp164
Rp165
(dp166
g158
g159
sg160
F19.845669150514844
sg161
F1.0
sg15
I1
sg162
g163
sbsI2
g0
(g154
g2
Ntp167
Rp168
(dp169
g158
S'tanh'
p170
sg160
F21.18786587509812
sg161
F1.0
sg15
I2
sg162
g163
sbsI3
g0
(g154
g2
Ntp171
Rp172
(dp173
g158
g170
sg160
F-9.46402603242566
sg161
F1.0
sg15
I3
sg162
g163
sbsI4
g0
(g154
g2
Ntp174
Rp175
(dp176
g158
g170
sg160
F2.450682492334895
sg161
F1.0
sg15
I4
sg162
g163
sbsI5
g0
(g154
g2
Ntp177
Rp178
(dp179
g158
g170
sg160
F-5.180274740629945
sg161
F1.0
sg15
I5
sg162
g163
sbsI6
g0
(g154
g2
Ntp180
Rp181
(dp182
g158
g159
sg160
F-5.659452414861265
sg161
F1.0
sg15
I6
sg162
g163
sbsI7
g0
(g154
g2
Ntp183
Rp184
(dp185
g158
g170
sg160
F17.57901164262687
sg161
F1.0
sg15
I7
sg162
g163
sbsI8
g0
(g154
g2
Ntp186
Rp187
(dp188
g158
g170
sg160
F-11.176279438855513
sg161
F1.0
sg15
I8
sg162
g163
sbsI9
g0
(g154
g2
Ntp189
Rp190
(dp191
g158
g170
sg160
F-5.774810409458006
sg161
F1.0
sg15
I9
sg162
g163
sbsI295
g0
(g154
g2
Ntp192
Rp193
(dp194
g158
g159
sg160
F-7.984213670332284
sg161
F1.0
sg15
I295
sg162
g163
sbsI616
g0
(g154
g2
Ntp195
Rp196
(dp197
g158
g159
sg160
F7.675897170029601
sg161
F1.0
sg15
I616
sg162
g163
sbsI296
g0
(g154
g2
Ntp198
Rp199
(dp200
g158
g170
sg160
F-11.837588286222521
sg161
F1.0
sg15
I296
sg162
g163
sbsI299
g0
(g154
g2
Ntp201
Rp202
(dp203
g158
g170
sg160
F11.964789282230115
sg161
F1.0
sg15
I299
sg162
g163
sbsI539
g0
(g154
g2
Ntp204
Rp205
(dp206
g158
g170
sg160
F11.992398332692144
sg161
F1.0
sg15
I539
sg162
g163
sbssg15
I10
sS'fitness'
p207
Nsb.