ccopy_reg
_reconstructor
p0
(cneat.genome
DefaultGenome
p1
c__builtin__
object
p2
Ntp3
Rp4
(dp5
S'connections'
p6
(dp7
(I19
I8
tp8
g0
(cneat.genes
DefaultConnectionGene
p9
g2
Ntp10
Rp11
(dp12
S'enabled'
p13
I01
sS'weight'
p14
F-0.24928765241930387
sS'key'
p15
g8
sbs(I-7
I19
tp16
g0
(g9
g2
Ntp17
Rp18
(dp19
g13
I01
sg14
F1.2730244383992313
sg15
g16
sbs(I19
I4
tp20
g0
(g9
g2
Ntp21
Rp22
(dp23
g13
I01
sg14
F-0.17378984451440824
sg15
g20
sbs(I-2
I19
tp24
g0
(g9
g2
Ntp25
Rp26
(dp27
g13
I01
sg14
F1.3231310542065258
sg15
g24
sbs(I19
I0
tp28
g0
(g9
g2
Ntp29
Rp30
(dp31
g13
I01
sg14
F1.2595798198575734
sg15
g28
sbs(I-11
I19
tp32
g0
(g9
g2
Ntp33
Rp34
(dp35
g13
I01
sg14
F0.23394508934452066
sg15
g32
sbs(I-8
I19
tp36
g0
(g9
g2
Ntp37
Rp38
(dp39
g13
I01
sg14
F0.2925719955503613
sg15
g36
sbs(I-15
I19
tp40
g0
(g9
g2
Ntp41
Rp42
(dp43
g13
I01
sg14
F1.2649705341224855
sg15
g40
sbs(I-18
I19
tp44
g0
(g9
g2
Ntp45
Rp46
(dp47
g13
I01
sg14
F-0.34632044507956117
sg15
g44
sbs(I19
I7
tp48
g0
(g9
g2
Ntp49
Rp50
(dp51
g13
I01
sg14
F-0.4087832386922886
sg15
g48
sbs(I-5
I19
tp52
g0
(g9
g2
Ntp53
Rp54
(dp55
g13
I01
sg14
F0.19124211149317044
sg15
g52
sbs(I19
I3
tp56
g0
(g9
g2
Ntp57
Rp58
(dp59
g13
I01
sg14
F0.7006854570933789
sg15
g56
sbs(I-12
I19
tp60
g0
(g9
g2
Ntp61
Rp62
(dp63
g13
I01
sg14
F-0.45109321645951667
sg15
g60
sbs(I-19
I19
tp64
g0
(g9
g2
Ntp65
Rp66
(dp67
g13
I01
sg14
F0.25226856554247085
sg15
g64
sbs(I-16
I19
tp68
g0
(g9
g2
Ntp69
Rp70
(dp71
g13
I01
sg14
F-0.4770033270302611
sg15
g68
sbs(I-9
I19
tp72
g0
(g9
g2
Ntp73
Rp74
(dp75
g13
I01
sg14
F-0.694505110577401
sg15
g72
sbs(I19
I6
tp76
g0
(g9
g2
Ntp77
Rp78
(dp79
g13
I01
sg14
F1.6127496233771774
sg15
g76
sbs(I-20
I19
tp80
g0
(g9
g2
Ntp81
Rp82
(dp83
g13
I01
sg14
F-2.091308259089334
sg15
g80
sbs(I19
I2
tp84
g0
(g9
g2
Ntp85
Rp86
(dp87
g13
I01
sg14
F-0.14220089088993254
sg15
g84
sbs(I-6
I19
tp88
g0
(g9
g2
Ntp89
Rp90
(dp91
g13
I01
sg14
F-1.4638492130058158
sg15
g88
sbs(I19
I9
tp92
g0
(g9
g2
Ntp93
Rp94
(dp95
g13
I01
sg14
F-0.35750702264088313
sg15
g92
sbs(I-13
I19
tp96
g0
(g9
g2
Ntp97
Rp98
(dp99
g13
I01
sg14
F1.5315781749562434
sg15
g96
sbs(I-3
I19
tp100
g0
(g9
g2
Ntp101
Rp102
(dp103
g13
I01
sg14
F0.48052036974041135
sg15
g100
sbs(I19
I5
tp104
g0
(g9
g2
Ntp105
Rp106
(dp107
g13
I01
sg14
F1.4791314991617714
sg15
g104
sbs(I-10
I19
tp108
g0
(g9
g2
Ntp109
Rp110
(dp111
g13
I01
sg14
F0.38574053342216746
sg15
g108
sbs(I-1
I19
tp112
g0
(g9
g2
Ntp113
Rp114
(dp115
g13
I01
sg14
F-0.01901357956463235
sg15
g112
sbs(I-14
I19
tp116
g0
(g9
g2
Ntp117
Rp118
(dp119
g13
I01
sg14
F1.0588728052617133
sg15
g116
sbs(I-17
I19
tp120
g0
(g9
g2
Ntp121
Rp122
(dp123
g13
I01
sg14
F0.6110596232279837
sg15
g120
sbs(I19
I1
tp124
g0
(g9
g2
Ntp125
Rp126
(dp127
g13
I01
sg14
F-0.8632074273610985
sg15
g124
sbs(I-4
I19
tp128
g0
(g9
g2
Ntp129
Rp130
(dp131
g13
I01
sg14
F1.6360694606979633
sg15
g128
sbssS'nodes'
p132
(dp133
I0
g0
(cneat.genes
DefaultNodeGene
p134
g2
Ntp135
Rp136
(dp137
S'activation'
p138
S'relu'
p139
sS'bias'
p140
F-1.6826834337835848
sS'response'
p141
F1.0
sg15
I0
sS'aggregation'
p142
S'sum'
p143
sbsI1
g0
(g134
g2
Ntp144
Rp145
(dp146
g138
g139
sg140
F-5.5998636767736345
sg141
F1.0
sg15
I1
sg142
g143
sbsI2
g0
(g134
g2
Ntp147
Rp148
(dp149
g138
g139
sg140
F-6.565306226587561
sg141
F1.0
sg15
I2
sg142
g143
sbsI3
g0
(g134
g2
Ntp150
Rp151
(dp152
g138
g139
sg140
F-1.795990550898322
sg141
F1.0
sg15
I3
sg142
g143
sbsI4
g0
(g134
g2
Ntp153
Rp154
(dp155
g138
g139
sg140
F-12.13551420408897
sg141
F1.0
sg15
I4
sg142
g143
sbsI5
g0
(g134
g2
Ntp156
Rp157
(dp158
g138
g139
sg140
F-18.88652453436454
sg141
F1.0
sg15
I5
sg142
g143
sbsI6
g0
(g134
g2
Ntp159
Rp160
(dp161
g138
g139
sg140
F19.489289458684564
sg141
F1.0
sg15
I6
sg142
g143
sbsI7
g0
(g134
g2
Ntp162
Rp163
(dp164
g138
g139
sg140
F-0.49526203900610194
sg141
F1.0
sg15
I7
sg142
g143
sbsI8
g0
(g134
g2
Ntp165
Rp166
(dp167
g138
g139
sg140
F4.155810522442863
sg141
F1.0
sg15
I8
sg142
g143
sbsI9
g0
(g134
g2
Ntp168
Rp169
(dp170
g138
g139
sg140
F7.237661034305609
sg141
F1.0
sg15
I9
sg142
g143
sbsI19
g0
(g134
g2
Ntp171
Rp172
(dp173
g138
g139
sg140
F-0.4107270750536858
sg141
F1.0
sg15
I19
sg142
g143
sbssg15
I10
sS'fitness'
p174
F0.07148365013714539
sb.