ccopy_reg
_reconstructor
p0
(cneat.genome
DefaultGenome
p1
c__builtin__
object
p2
Ntp3
Rp4
(dp5
S'connections'
p6
(dp7
(I-9
I31
tp8
g0
(cneat.genes
DefaultConnectionGene
p9
g2
Ntp10
Rp11
(dp12
S'enabled'
p13
I01
sS'weight'
p14
F-0.10688588277765887
sS'key'
p15
g8
sbs(I31
I6
tp16
g0
(g9
g2
Ntp17
Rp18
(dp19
g13
I01
sg14
F2.8400550863185936
sg15
g16
sbs(I31
I485
tp20
g0
(g9
g2
Ntp21
Rp22
(dp23
g13
I00
sg14
F0.1399617809727579
sg15
g20
sbs(I5
I5
tp24
g0
(g9
g2
Ntp25
Rp26
(dp27
g13
I00
sg14
F-1.006298701548293
sg15
g24
sbs(I31
I4
tp28
g0
(g9
g2
Ntp29
Rp30
(dp31
g13
I00
sg14
F0.6296031660117375
sg15
g28
sbs(I2
I2
tp32
g0
(g9
g2
Ntp33
Rp34
(dp35
g13
I01
sg14
F-1.0730969605562788
sg15
g32
sbs(I-3
I31
tp36
g0
(g9
g2
Ntp37
Rp38
(dp39
g13
I01
sg14
F-1.2789638811059891
sg15
g36
sbs(I485
I4
tp40
g0
(g9
g2
Ntp41
Rp42
(dp43
g13
I01
sg14
F-0.08331442101260411
sg15
g40
sbs(I7
I7
tp44
g0
(g9
g2
Ntp45
Rp46
(dp47
g13
I01
sg14
F1.5855297305094287
sg15
g44
sbs(I-6
I31
tp48
g0
(g9
g2
Ntp49
Rp50
(dp51
g13
I00
sg14
F4.015430813532667
sg15
g48
sbs(I-8
I1
tp52
g0
(g9
g2
Ntp53
Rp54
(dp55
g13
I00
sg14
F2.4018614087560253
sg15
g52
sbs(I8
I8
tp56
g0
(g9
g2
Ntp57
Rp58
(dp59
g13
I01
sg14
F-0.1987914119273014
sg15
g56
sbs(I-1
I31
tp60
g0
(g9
g2
Ntp61
Rp62
(dp63
g13
I01
sg14
F-0.6297590170333618
sg15
g60
sbs(I31
I2
tp64
g0
(g9
g2
Ntp65
Rp66
(dp67
g13
I01
sg14
F-1.6722814635853638
sg15
g64
sbs(I9
I31
tp68
g0
(g9
g2
Ntp69
Rp70
(dp71
g13
I01
sg14
F4.264368367523132
sg15
g68
sbs(I31
I770
tp72
g0
(g9
g2
Ntp73
Rp74
(dp75
g13
I01
sg14
F1.4316243955505878
sg15
g72
sbs(I31
I3
tp76
g0
(g9
g2
Ntp77
Rp78
(dp79
g13
I01
sg14
F0.2204295301142912
sg15
g76
sbs(I31
I0
tp80
g0
(g9
g2
Ntp81
Rp82
(dp83
g13
I00
sg14
F-0.9260610405616174
sg15
g80
sbs(I-10
I31
tp84
g0
(g9
g2
Ntp85
Rp86
(dp87
g13
I01
sg14
F0.7361055447781646
sg15
g84
sbs(I4
I4
tp88
g0
(g9
g2
Ntp89
Rp90
(dp91
g13
I01
sg14
F1.660271484665282
sg15
g88
sbssS'nodes'
p92
(dp93
I0
g0
(cneat.genes
DefaultNodeGene
p94
g2
Ntp95
Rp96
(dp97
S'activation'
p98
S'tanh'
p99
sS'bias'
p100
F4.349960714742837
sS'response'
p101
F1.0
sg15
I0
sS'aggregation'
p102
S'sum'
p103
sbsI1
g0
(g94
g2
Ntp104
Rp105
(dp106
g98
g99
sg100
F-11.241906820611769
sg101
F1.0
sg15
I1
sg102
g103
sbsI2
g0
(g94
g2
Ntp107
Rp108
(dp109
g98
g99
sg100
F2.3223808676289193
sg101
F1.0
sg15
I2
sg102
g103
sbsI3
g0
(g94
g2
Ntp110
Rp111
(dp112
g98
g99
sg100
F-2.865214018632927
sg101
F1.0
sg15
I3
sg102
g103
sbsI4
g0
(g94
g2
Ntp113
Rp114
(dp115
g98
g99
sg100
F-11.722328791862456
sg101
F1.0
sg15
I4
sg102
g103
sbsI5
g0
(g94
g2
Ntp116
Rp117
(dp118
g98
g99
sg100
F-5.373390628300359
sg101
F1.0
sg15
I5
sg102
g103
sbsI6
g0
(g94
g2
Ntp119
Rp120
(dp121
g98
g99
sg100
F-15.464124791375268
sg101
F1.0
sg15
I6
sg102
g103
sbsI7
g0
(g94
g2
Ntp122
Rp123
(dp124
g98
g99
sg100
F1.379428847331878
sg101
F1.0
sg15
I7
sg102
g103
sbsI8
g0
(g94
g2
Ntp125
Rp126
(dp127
g98
g99
sg100
F5.3693894536918245
sg101
F1.0
sg15
I8
sg102
g103
sbsI9
g0
(g94
g2
Ntp128
Rp129
(dp130
g98
g99
sg100
F-0.8152084462952802
sg101
F1.0
sg15
I9
sg102
g103
sbsI485
g0
(g94
g2
Ntp131
Rp132
(dp133
g98
g99
sg100
F-19.78286284701888
sg101
F1.0
sg15
I485
sg102
g103
sbsI770
g0
(g94
g2
Ntp134
Rp135
(dp136
g98
g99
sg100
F4.986131794814123
sg101
F1.0
sg15
I770
sg102
g103
sbsI31
g0
(g94
g2
Ntp137
Rp138
(dp139
g98
g99
sg100
F-4.3095504977577885
sg101
F1.0
sg15
I31
sg102
g103
sbssg15
I100
sS'fitness'
p140
Nsb.