ccopy_reg
_reconstructor
p0
(cneat.genome
DefaultGenome
p1
c__builtin__
object
p2
Ntp3
Rp4
(dp5
S'connections'
p6
(dp7
(I-9
I31
tp8
g0
(cneat.genes
DefaultConnectionGene
p9
g2
Ntp10
Rp11
(dp12
S'enabled'
p13
I01
sS'weight'
p14
F-1.1300480053023843
sS'key'
p15
g8
sbs(I31
I6
tp16
g0
(g9
g2
Ntp17
Rp18
(dp19
g13
I01
sg14
F2.9628865547615506
sg15
g16
sbs(I31
I485
tp20
g0
(g9
g2
Ntp21
Rp22
(dp23
g13
I00
sg14
F0.6029888924362963
sg15
g20
sbs(I5
I5
tp24
g0
(g9
g2
Ntp25
Rp26
(dp27
g13
I00
sg14
F-1.2273452814120391
sg15
g24
sbs(I31
I4
tp28
g0
(g9
g2
Ntp29
Rp30
(dp31
g13
I00
sg14
F0.5039343325207257
sg15
g28
sbs(I2
I2
tp32
g0
(g9
g2
Ntp33
Rp34
(dp35
g13
I01
sg14
F-0.9530380877450784
sg15
g32
sbs(I-3
I31
tp36
g0
(g9
g2
Ntp37
Rp38
(dp39
g13
I01
sg14
F-1.3357407668132006
sg15
g36
sbs(I485
I4
tp40
g0
(g9
g2
Ntp41
Rp42
(dp43
g13
I01
sg14
F0.5362648018801907
sg15
g40
sbs(I7
I7
tp44
g0
(g9
g2
Ntp45
Rp46
(dp47
g13
I01
sg14
F1.6594700955513988
sg15
g44
sbs(I-6
I31
tp48
g0
(g9
g2
Ntp49
Rp50
(dp51
g13
I00
sg14
F3.5320866868789893
sg15
g48
sbs(I8
I8
tp52
g0
(g9
g2
Ntp53
Rp54
(dp55
g13
I00
sg14
F2.8376457684084753
sg15
g52
sbs(I-1
I31
tp56
g0
(g9
g2
Ntp57
Rp58
(dp59
g13
I01
sg14
F0.9383278291948618
sg15
g56
sbs(I31
I2
tp60
g0
(g9
g2
Ntp61
Rp62
(dp63
g13
I01
sg14
F-1.527171892335413
sg15
g60
sbs(I9
I31
tp64
g0
(g9
g2
Ntp65
Rp66
(dp67
g13
I01
sg14
F4.613066344086265
sg15
g64
sbs(I31
I770
tp68
g0
(g9
g2
Ntp69
Rp70
(dp71
g13
I01
sg14
F1.1658857391508226
sg15
g68
sbs(I31
I3
tp72
g0
(g9
g2
Ntp73
Rp74
(dp75
g13
I01
sg14
F1.0561527217327438
sg15
g72
sbs(I-8
I0
tp76
g0
(g9
g2
Ntp77
Rp78
(dp79
g13
I01
sg14
F-0.5172154337180127
sg15
g76
sbs(I31
I0
tp80
g0
(g9
g2
Ntp81
Rp82
(dp83
g13
I00
sg14
F-1.3768841817142872
sg15
g80
sbs(I-10
I31
tp84
g0
(g9
g2
Ntp85
Rp86
(dp87
g13
I01
sg14
F1.4245515691071287
sg15
g84
sbs(I4
I4
tp88
g0
(g9
g2
Ntp89
Rp90
(dp91
g13
I01
sg14
F0.5581453434734642
sg15
g88
sbs(I770
I4
tp92
g0
(g9
g2
Ntp93
Rp94
(dp95
g13
I01
sg14
F-0.8055767295287961
sg15
g92
sbssS'nodes'
p96
(dp97
I0
g0
(cneat.genes
DefaultNodeGene
p98
g2
Ntp99
Rp100
(dp101
S'activation'
p102
S'tanh'
p103
sS'bias'
p104
F4.433927157049407
sS'response'
p105
F1.0
sg15
I0
sS'aggregation'
p106
S'sum'
p107
sbsI1
g0
(g98
g2
Ntp108
Rp109
(dp110
g102
g103
sg104
F-0.8258515951292664
sg105
F1.0
sg15
I1
sg106
g107
sbsI2
g0
(g98
g2
Ntp111
Rp112
(dp113
g102
g103
sg104
F2.0143719028346667
sg105
F1.0
sg15
I2
sg106
g107
sbsI3
g0
(g98
g2
Ntp114
Rp115
(dp116
g102
g103
sg104
F-4.182574727339716
sg105
F1.0
sg15
I3
sg106
g107
sbsI4
g0
(g98
g2
Ntp117
Rp118
(dp119
g102
g103
sg104
F-12.445518782163028
sg105
F1.0
sg15
I4
sg106
g107
sbsI5
g0
(g98
g2
Ntp120
Rp121
(dp122
g102
g103
sg104
F-4.6715286255878885
sg105
F1.0
sg15
I5
sg106
g107
sbsI6
g0
(g98
g2
Ntp123
Rp124
(dp125
g102
g103
sg104
F-16.244842283286264
sg105
F1.0
sg15
I6
sg106
g107
sbsI7
g0
(g98
g2
Ntp126
Rp127
(dp128
g102
g103
sg104
F0.654367170318898
sg105
F1.0
sg15
I7
sg106
g107
sbsI8
g0
(g98
g2
Ntp129
Rp130
(dp131
g102
g103
sg104
F5.3490275526155715
sg105
F1.0
sg15
I8
sg106
g107
sbsI9
g0
(g98
g2
Ntp132
Rp133
(dp134
g102
g103
sg104
F13.890349767335566
sg105
F1.0
sg15
I9
sg106
g107
sbsI485
g0
(g98
g2
Ntp135
Rp136
(dp137
g102
g103
sg104
F3.6177179595747653
sg105
F1.0
sg15
I485
sg106
g107
sbsI770
g0
(g98
g2
Ntp138
Rp139
(dp140
g102
g103
sg104
F5.826105181419587
sg105
F1.0
sg15
I770
sg106
g107
sbsI31
g0
(g98
g2
Ntp141
Rp142
(dp143
g102
g103
sg104
F-2.274680788124625
sg105
F1.0
sg15
I31
sg106
g107
sbssg15
I101
sS'fitness'
p144
Nsb.