ccopy_reg
_reconstructor
p0
(cneat.genome
DefaultGenome
p1
c__builtin__
object
p2
Ntp3
Rp4
(dp5
S'connections'
p6
(dp7
(I23
I4
tp8
g0
(cneat.genes
DefaultConnectionGene
p9
g2
Ntp10
Rp11
(dp12
S'enabled'
p13
I01
sS'weight'
p14
F-4.382329674692677
sS'key'
p15
g8
sbs(I610
I7
tp16
g0
(g9
g2
Ntp17
Rp18
(dp19
g13
I01
sg14
F0.6825563050267927
sg15
g16
sbs(I-2
I23
tp20
g0
(g9
g2
Ntp21
Rp22
(dp23
g13
I01
sg14
F1.4833136836270606
sg15
g20
sbs(I7
I7
tp24
g0
(g9
g2
Ntp25
Rp26
(dp27
g13
I01
sg14
F3.658674851947393
sg15
g24
sbs(I23
I610
tp28
g0
(g9
g2
Ntp29
Rp30
(dp31
g13
I01
sg14
F1.1580398055177121
sg15
g28
sbs(I23
I3
tp32
g0
(g9
g2
Ntp33
Rp34
(dp35
g13
I00
sg14
F-1.3159665971474315
sg15
g32
sbs(I9
I23
tp36
g0
(g9
g2
Ntp37
Rp38
(dp39
g13
I01
sg14
F1.7577107946650852
sg15
g36
sbs(I23
I7
tp40
g0
(g9
g2
Ntp41
Rp42
(dp43
g13
I00
sg14
F-0.5904665566375922
sg15
g40
sbs(I-5
I23
tp44
g0
(g9
g2
Ntp45
Rp46
(dp47
g13
I00
sg14
F1.866750896762008
sg15
g44
sbs(I783
I23
tp48
g0
(g9
g2
Ntp49
Rp50
(dp51
g13
I01
sg14
F2.567682894677783
sg15
g48
sbs(I-5
I4
tp52
g0
(g9
g2
Ntp53
Rp54
(dp55
g13
I00
sg14
F-0.8306833662158735
sg15
g52
sbs(I2
I2
tp56
g0
(g9
g2
Ntp57
Rp58
(dp59
g13
I00
sg14
F-0.5582924044822858
sg15
g56
sbs(I2
I551
tp60
g0
(g9
g2
Ntp61
Rp62
(dp63
g13
I00
sg14
F1.9468128810823488
sg15
g60
sbs(I-3
I669
tp64
g0
(g9
g2
Ntp65
Rp66
(dp67
g13
I01
sg14
F2.7952527869567803
sg15
g64
sbs(I669
I3
tp68
g0
(g9
g2
Ntp69
Rp70
(dp71
g13
I00
sg14
F-1.026319832819341
sg15
g68
sbs(I559
I0
tp72
g0
(g9
g2
Ntp73
Rp74
(dp75
g13
I01
sg14
F-2.073250953635588
sg15
g72
sbs(I23
I1
tp76
g0
(g9
g2
Ntp77
Rp78
(dp79
g13
I01
sg14
F2.0053228142790314
sg15
g76
sbs(I23
I5
tp80
g0
(g9
g2
Ntp81
Rp82
(dp83
g13
I01
sg14
F1.1774078356315258
sg15
g80
sbs(I-1
I559
tp84
g0
(g9
g2
Ntp85
Rp86
(dp87
g13
I00
sg14
F-1.4528299897934032
sg15
g84
sbs(I-5
I783
tp88
g0
(g9
g2
Ntp89
Rp90
(dp91
g13
I01
sg14
F1.3152539558133274
sg15
g88
sbs(I9
I9
tp92
g0
(g9
g2
Ntp93
Rp94
(dp95
g13
I01
sg14
F0.016249402657464048
sg15
g92
sbs(I23
I9
tp96
g0
(g9
g2
Ntp97
Rp98
(dp99
g13
I01
sg14
F0.7809462479930643
sg15
g96
sbs(I8
I8
tp100
g0
(g9
g2
Ntp101
Rp102
(dp103
g13
I01
sg14
F-1.7623483991286388
sg15
g100
sbs(I-7
I23
tp104
g0
(g9
g2
Ntp105
Rp106
(dp107
g13
I00
sg14
F-0.6601024566605624
sg15
g104
sbssS'nodes'
p108
(dp109
I0
g0
(cneat.genes
DefaultNodeGene
p110
g2
Ntp111
Rp112
(dp113
S'activation'
p114
S'tanh'
p115
sS'bias'
p116
F4.328387827221072
sS'response'
p117
F1.0
sg15
I0
sS'aggregation'
p118
S'sum'
p119
sbsI1
g0
(g110
g2
Ntp120
Rp121
(dp122
g114
g115
sg116
F-4.34127592026741
sg117
F1.0
sg15
I1
sg118
g119
sbsI2
g0
(g110
g2
Ntp123
Rp124
(dp125
g114
g115
sg116
F14.983853925464537
sg117
F1.0
sg15
I2
sg118
g119
sbsI3
g0
(g110
g2
Ntp126
Rp127
(dp128
g114
g115
sg116
F-0.9537341533124228
sg117
F1.0
sg15
I3
sg118
g119
sbsI4
g0
(g110
g2
Ntp129
Rp130
(dp131
g114
S'relu'
p132
sg116
F4.237152524174913
sg117
F1.0
sg15
I4
sg118
g119
sbsI5
g0
(g110
g2
Ntp133
Rp134
(dp135
g114
g115
sg116
F-2.7966861665272944
sg117
F1.0
sg15
I5
sg118
g119
sbsI6
g0
(g110
g2
Ntp136
Rp137
(dp138
g114
g115
sg116
F18.46831207391392
sg117
F1.0
sg15
I6
sg118
g119
sbsI7
g0
(g110
g2
Ntp139
Rp140
(dp141
g114
g115
sg116
F5.822843437012727
sg117
F1.0
sg15
I7
sg118
g119
sbsI8
g0
(g110
g2
Ntp142
Rp143
(dp144
g114
g115
sg116
F3.054652212485475
sg117
F1.0
sg15
I8
sg118
g119
sbsI9
g0
(g110
g2
Ntp145
Rp146
(dp147
g114
g115
sg116
F14.679410319763004
sg117
F1.0
sg15
I9
sg118
g119
sbsI551
g0
(g110
g2
Ntp148
Rp149
(dp150
g114
g115
sg116
F1.295419139291626
sg117
F1.0
sg15
I551
sg118
g119
sbsI610
g0
(g110
g2
Ntp151
Rp152
(dp153
g114
g115
sg116
F-0.5996155589092134
sg117
F1.0
sg15
I610
sg118
g119
sbsI559
g0
(g110
g2
Ntp154
Rp155
(dp156
g114
g115
sg116
F13.459405171359144
sg117
F1.0
sg15
I559
sg118
g119
sbsI23
g0
(g110
g2
Ntp157
Rp158
(dp159
g114
g115
sg116
F-4.93608041540448
sg117
F1.0
sg15
I23
sg118
g119
sbsI783
g0
(g110
g2
Ntp160
Rp161
(dp162
g114
g115
sg116
F-0.074800355776524
sg117
F1.0
sg15
I783
sg118
g119
sbsI669
g0
(g110
g2
Ntp163
Rp164
(dp165
g114
g115
sg116
F0.6473591433589952
sg117
F1.0
sg15
I669
sg118
g119
sbssg15
I102
sS'fitness'
p166
Nsb.