ccopy_reg
_reconstructor
p0
(cneat.genome
DefaultGenome
p1
c__builtin__
object
p2
Ntp3
Rp4
(dp5
S'connections'
p6
(dp7
(I-17
I52
tp8
g0
(cneat.genes
DefaultConnectionGene
p9
g2
Ntp10
Rp11
(dp12
S'enabled'
p13
I01
sS'weight'
p14
F0.9834853574738858
sS'key'
p15
g8
sbs(I52
I2
tp16
g0
(g9
g2
Ntp17
Rp18
(dp19
g13
I01
sg14
F-1.5006451789397093
sg15
g16
sbs(I-15
I52
tp20
g0
(g9
g2
Ntp21
Rp22
(dp23
g13
I01
sg14
F-0.4754184267571989
sg15
g20
sbs(I-9
I52
tp24
g0
(g9
g2
Ntp25
Rp26
(dp27
g13
I01
sg14
F1.3350912579735636
sg15
g24
sbs(I52
I6
tp28
g0
(g9
g2
Ntp29
Rp30
(dp31
g13
I01
sg14
F0.8739354679177384
sg15
g28
sbs(I-13
I52
tp32
g0
(g9
g2
Ntp33
Rp34
(dp35
g13
I01
sg14
F-1.6201685641517884
sg15
g32
sbs(I-5
I52
tp36
g0
(g9
g2
Ntp37
Rp38
(dp39
g13
I01
sg14
F-2.038214164032294
sg15
g36
sbs(I-6
I52
tp40
g0
(g9
g2
Ntp41
Rp42
(dp43
g13
I01
sg14
F0.5125356944194872
sg15
g40
sbs(I52
I3
tp44
g0
(g9
g2
Ntp45
Rp46
(dp47
g13
I01
sg14
F-1.5456515870469265
sg15
g44
sbs(I52
I8
tp48
g0
(g9
g2
Ntp49
Rp50
(dp51
g13
I01
sg14
F-0.6086587776235752
sg15
g48
sbs(I52
I7
tp52
g0
(g9
g2
Ntp53
Rp54
(dp55
g13
I01
sg14
F-0.824418689782453
sg15
g52
sbs(I-1
I52
tp56
g0
(g9
g2
Ntp57
Rp58
(dp59
g13
I01
sg14
F1.8396174675500068
sg15
g56
sbs(I-14
I52
tp60
g0
(g9
g2
Ntp61
Rp62
(dp63
g13
I01
sg14
F-0.3021650809812142
sg15
g60
sbs(I-2
I52
tp64
g0
(g9
g2
Ntp65
Rp66
(dp67
g13
I01
sg14
F1.8293734035322615
sg15
g64
sbs(I-12
I52
tp68
g0
(g9
g2
Ntp69
Rp70
(dp71
g13
I01
sg14
F0.4170389605290539
sg15
g68
sbs(I52
I0
tp72
g0
(g9
g2
Ntp73
Rp74
(dp75
g13
I01
sg14
F0.7261068070816997
sg15
g72
sbs(I-6
I5
tp76
g0
(g9
g2
Ntp77
Rp78
(dp79
g13
I01
sg14
F0.6579699345097327
sg15
g76
sbs(I-4
I52
tp80
g0
(g9
g2
Ntp81
Rp82
(dp83
g13
I01
sg14
F-1.3637082454054588
sg15
g80
sbs(I52
I9
tp84
g0
(g9
g2
Ntp85
Rp86
(dp87
g13
I01
sg14
F1.0985936174099018
sg15
g84
sbs(I-18
I52
tp88
g0
(g9
g2
Ntp89
Rp90
(dp91
g13
I01
sg14
F-1.082775357802019
sg15
g88
sbs(I52
I4
tp92
g0
(g9
g2
Ntp93
Rp94
(dp95
g13
I01
sg14
F3.046666649931733
sg15
g92
sbs(I-8
I52
tp96
g0
(g9
g2
Ntp97
Rp98
(dp99
g13
I01
sg14
F-1.0810964944620476
sg15
g96
sbs(I-10
I52
tp100
g0
(g9
g2
Ntp101
Rp102
(dp103
g13
I01
sg14
F-0.8356482333438543
sg15
g100
sbs(I-11
I52
tp104
g0
(g9
g2
Ntp105
Rp106
(dp107
g13
I01
sg14
F-1.776518245646827
sg15
g104
sbs(I-20
I52
tp108
g0
(g9
g2
Ntp109
Rp110
(dp111
g13
I01
sg14
F-0.6429147919044317
sg15
g108
sbs(I-3
I52
tp112
g0
(g9
g2
Ntp113
Rp114
(dp115
g13
I01
sg14
F-0.17014724296035844
sg15
g112
sbs(I52
I1
tp116
g0
(g9
g2
Ntp117
Rp118
(dp119
g13
I01
sg14
F-1.0939473964503255
sg15
g116
sbs(I-7
I52
tp120
g0
(g9
g2
Ntp121
Rp122
(dp123
g13
I01
sg14
F-0.7434547698686254
sg15
g120
sbs(I-16
I52
tp124
g0
(g9
g2
Ntp125
Rp126
(dp127
g13
I01
sg14
F-0.6533251372378469
sg15
g124
sbs(I52
I5
tp128
g0
(g9
g2
Ntp129
Rp130
(dp131
g13
I01
sg14
F-1.213692457117123
sg15
g128
sbs(I-19
I52
tp132
g0
(g9
g2
Ntp133
Rp134
(dp135
g13
I01
sg14
F-1.1718349325935995
sg15
g132
sbssS'nodes'
p136
(dp137
I0
g0
(cneat.genes
DefaultNodeGene
p138
g2
Ntp139
Rp140
(dp141
S'activation'
p142
S'relu'
p143
sS'bias'
p144
F-10.646546852991012
sS'response'
p145
F1.0
sg15
I0
sS'aggregation'
p146
S'sum'
p147
sbsI1
g0
(g138
g2
Ntp148
Rp149
(dp150
g142
g143
sg144
F-2.0321735923104853
sg145
F1.0
sg15
I1
sg146
g147
sbsI2
g0
(g138
g2
Ntp151
Rp152
(dp153
g142
g143
sg144
F24.989176244396898
sg145
F1.0
sg15
I2
sg146
g147
sbsI3
g0
(g138
g2
Ntp154
Rp155
(dp156
g142
g143
sg144
F-8.542959101982033
sg145
F1.0
sg15
I3
sg146
g147
sbsI4
g0
(g138
g2
Ntp157
Rp158
(dp159
g142
g143
sg144
F8.930814073090499
sg145
F1.0
sg15
I4
sg146
g147
sbsI5
g0
(g138
g2
Ntp160
Rp161
(dp162
g142
g143
sg144
F-5.552828630703306
sg145
F1.0
sg15
I5
sg146
g147
sbsI6
g0
(g138
g2
Ntp163
Rp164
(dp165
g142
g143
sg144
F-1.0680707235957845
sg145
F1.0
sg15
I6
sg146
g147
sbsI7
g0
(g138
g2
Ntp166
Rp167
(dp168
g142
g143
sg144
F-10.085306908660154
sg145
F1.0
sg15
I7
sg146
g147
sbsI8
g0
(g138
g2
Ntp169
Rp170
(dp171
g142
g143
sg144
F4.196149335458532
sg145
F1.0
sg15
I8
sg146
g147
sbsI9
g0
(g138
g2
Ntp172
Rp173
(dp174
g142
g143
sg144
F-22.69836322455662
sg145
F1.0
sg15
I9
sg146
g147
sbsI52
g0
(g138
g2
Ntp175
Rp176
(dp177
g142
g143
sg144
F13.540765135218791
sg145
F1.0
sg15
I52
sg146
g147
sbssg15
I102
sS'fitness'
p178
Nsb.