ccopy_reg
_reconstructor
p0
(cneat.genome
DefaultGenome
p1
c__builtin__
object
p2
Ntp3
Rp4
(dp5
S'connections'
p6
(dp7
(I39
I3
tp8
g0
(cneat.genes
DefaultConnectionGene
p9
g2
Ntp10
Rp11
(dp12
S'enabled'
p13
I01
sS'weight'
p14
F-1.8676283381359429
sS'key'
p15
g8
sbs(I-3
I39
tp16
g0
(g9
g2
Ntp17
Rp18
(dp19
g13
I01
sg14
F0.5419069826815526
sg15
g16
sbs(I39
I0
tp20
g0
(g9
g2
Ntp21
Rp22
(dp23
g13
I01
sg14
F1.3830429868056893
sg15
g20
sbs(I-8
I39
tp24
g0
(g9
g2
Ntp25
Rp26
(dp27
g13
I01
sg14
F-0.9911538986406869
sg15
g24
sbs(I39
I1
tp28
g0
(g9
g2
Ntp29
Rp30
(dp31
g13
I01
sg14
F1.4856526301061743
sg15
g28
sbs(I39
I8
tp32
g0
(g9
g2
Ntp33
Rp34
(dp35
g13
I01
sg14
F0.30254187745628924
sg15
g32
sbs(I39
I6
tp36
g0
(g9
g2
Ntp37
Rp38
(dp39
g13
I01
sg14
F0.9215610036689718
sg15
g36
sbs(I39
I7
tp40
g0
(g9
g2
Ntp41
Rp42
(dp43
g13
I01
sg14
F-0.32549063996976535
sg15
g40
sbs(I-7
I39
tp44
g0
(g9
g2
Ntp45
Rp46
(dp47
g13
I01
sg14
F-0.533481089819186
sg15
g44
sbs(I39
I4
tp48
g0
(g9
g2
Ntp49
Rp50
(dp51
g13
I01
sg14
F-0.7643185146076168
sg15
g48
sbs(I-5
I39
tp52
g0
(g9
g2
Ntp53
Rp54
(dp55
g13
I00
sg14
F-0.9375004401572882
sg15
g52
sbs(I39
I5
tp56
g0
(g9
g2
Ntp57
Rp58
(dp59
g13
I01
sg14
F1.26924490444342
sg15
g56
sbs(I-10
I39
tp60
g0
(g9
g2
Ntp61
Rp62
(dp63
g13
I01
sg14
F-1.4242125821874065
sg15
g60
sbs(I-6
I39
tp64
g0
(g9
g2
Ntp65
Rp66
(dp67
g13
I01
sg14
F0.3753686785869037
sg15
g64
sbs(I-2
I39
tp68
g0
(g9
g2
Ntp69
Rp70
(dp71
g13
I01
sg14
F0.8455680740957032
sg15
g68
sbs(I-4
I39
tp72
g0
(g9
g2
Ntp73
Rp74
(dp75
g13
I00
sg14
F0.33016322025548045
sg15
g72
sbs(I-1
I39
tp76
g0
(g9
g2
Ntp77
Rp78
(dp79
g13
I01
sg14
F0.37313611351451587
sg15
g76
sbs(I-9
I39
tp80
g0
(g9
g2
Ntp81
Rp82
(dp83
g13
I01
sg14
F1.9232200528030425
sg15
g80
sbs(I39
I2
tp84
g0
(g9
g2
Ntp85
Rp86
(dp87
g13
I01
sg14
F-0.1722520673496141
sg15
g84
sbs(I39
I9
tp88
g0
(g9
g2
Ntp89
Rp90
(dp91
g13
I01
sg14
F-0.07506900502919245
sg15
g88
sbssS'nodes'
p92
(dp93
I0
g0
(cneat.genes
DefaultNodeGene
p94
g2
Ntp95
Rp96
(dp97
S'activation'
p98
S'relu'
p99
sS'bias'
p100
F9.238262708079867
sS'response'
p101
F1.0
sg15
I0
sS'aggregation'
p102
S'sum'
p103
sbsI1
g0
(g94
g2
Ntp104
Rp105
(dp106
g98
g99
sg100
F-16.490384317412143
sg101
F1.0
sg15
I1
sg102
g103
sbsI2
g0
(g94
g2
Ntp107
Rp108
(dp109
g98
g99
sg100
F13.15860279062261
sg101
F1.0
sg15
I2
sg102
g103
sbsI3
g0
(g94
g2
Ntp110
Rp111
(dp112
g98
g99
sg100
F-15.81224210253084
sg101
F1.0
sg15
I3
sg102
g103
sbsI4
g0
(g94
g2
Ntp113
Rp114
(dp115
g98
g99
sg100
F19.96785192031006
sg101
F1.0
sg15
I4
sg102
g103
sbsI5
g0
(g94
g2
Ntp116
Rp117
(dp118
g98
g99
sg100
F3.9253713886709827
sg101
F1.0
sg15
I5
sg102
g103
sbsI6
g0
(g94
g2
Ntp119
Rp120
(dp121
g98
g99
sg100
F0.6078013462118977
sg101
F1.0
sg15
I6
sg102
g103
sbsI7
g0
(g94
g2
Ntp122
Rp123
(dp124
g98
g99
sg100
F-5.3719690527555795
sg101
F1.0
sg15
I7
sg102
g103
sbsI8
g0
(g94
g2
Ntp125
Rp126
(dp127
g98
g99
sg100
F-2.981458651348091
sg101
F1.0
sg15
I8
sg102
g103
sbsI9
g0
(g94
g2
Ntp128
Rp129
(dp130
g98
g99
sg100
F12.011308057471092
sg101
F1.0
sg15
I9
sg102
g103
sbsI39
g0
(g94
g2
Ntp131
Rp132
(dp133
g98
g99
sg100
F3.258343620696017
sg101
F1.0
sg15
I39
sg102
g103
sbssg15
I102
sS'fitness'
p134
F-0.32462227790514575
sb.