ccopy_reg
_reconstructor
p0
(cneat.genome
DefaultGenome
p1
c__builtin__
object
p2
Ntp3
Rp4
(dp5
S'connections'
p6
(dp7
(I23
I4
tp8
g0
(cneat.genes
DefaultConnectionGene
p9
g2
Ntp10
Rp11
(dp12
S'enabled'
p13
I00
sS'weight'
p14
F-3.8910612692427273
sS'key'
p15
g8
sbs(I610
I7
tp16
g0
(g9
g2
Ntp17
Rp18
(dp19
g13
I01
sg14
F0.7660321974724625
sg15
g16
sbs(I-2
I23
tp20
g0
(g9
g2
Ntp21
Rp22
(dp23
g13
I01
sg14
F0.5488918527142659
sg15
g20
sbs(I7
I7
tp24
g0
(g9
g2
Ntp25
Rp26
(dp27
g13
I01
sg14
F4.254496280656136
sg15
g24
sbs(I23
I610
tp28
g0
(g9
g2
Ntp29
Rp30
(dp31
g13
I01
sg14
F0.18625575093694569
sg15
g28
sbs(I23
I3
tp32
g0
(g9
g2
Ntp33
Rp34
(dp35
g13
I00
sg14
F-1.0222368561941768
sg15
g32
sbs(I23
I7
tp36
g0
(g9
g2
Ntp37
Rp38
(dp39
g13
I00
sg14
F-0.5809484049715189
sg15
g36
sbs(I-5
I23
tp40
g0
(g9
g2
Ntp41
Rp42
(dp43
g13
I00
sg14
F1.9616578551088462
sg15
g40
sbs(I0
I610
tp44
g0
(g9
g2
Ntp45
Rp46
(dp47
g13
I01
sg14
F0.6839938269940027
sg15
g44
sbs(I-5
I4
tp48
g0
(g9
g2
Ntp49
Rp50
(dp51
g13
I00
sg14
F0.4948397646972177
sg15
g48
sbs(I2
I2
tp52
g0
(g9
g2
Ntp53
Rp54
(dp55
g13
I00
sg14
F0.3744286264451761
sg15
g52
sbs(I2
I551
tp56
g0
(g9
g2
Ntp57
Rp58
(dp59
g13
I01
sg14
F2.303238464398275
sg15
g56
sbs(I23
I784
tp60
g0
(g9
g2
Ntp61
Rp62
(dp63
g13
I01
sg14
F0.8988959696368456
sg15
g60
sbs(I-3
I669
tp64
g0
(g9
g2
Ntp65
Rp66
(dp67
g13
I01
sg14
F1.713758511004221
sg15
g64
sbs(I784
I4
tp68
g0
(g9
g2
Ntp69
Rp70
(dp71
g13
I01
sg14
F-4.307287149797999
sg15
g68
sbs(I669
I3
tp72
g0
(g9
g2
Ntp73
Rp74
(dp75
g13
I00
sg14
F-1.5271768462093798
sg15
g72
sbs(I559
I0
tp76
g0
(g9
g2
Ntp77
Rp78
(dp79
g13
I01
sg14
F-0.7603395311040209
sg15
g76
sbs(I23
I1
tp80
g0
(g9
g2
Ntp81
Rp82
(dp83
g13
I01
sg14
F-0.014575399215887616
sg15
g80
sbs(I23
I5
tp84
g0
(g9
g2
Ntp85
Rp86
(dp87
g13
I01
sg14
F0.5748031005283607
sg15
g84
sbs(I-1
I559
tp88
g0
(g9
g2
Ntp89
Rp90
(dp91
g13
I00
sg14
F-0.8083716115613516
sg15
g88
sbs(I9
I9
tp92
g0
(g9
g2
Ntp93
Rp94
(dp95
g13
I01
sg14
F3.1552420898143607
sg15
g92
sbs(I23
I9
tp96
g0
(g9
g2
Ntp97
Rp98
(dp99
g13
I01
sg14
F1.3769327404205198
sg15
g96
sbs(I8
I8
tp100
g0
(g9
g2
Ntp101
Rp102
(dp103
g13
I01
sg14
F-1.8358567753098338
sg15
g100
sbs(I-7
I23
tp104
g0
(g9
g2
Ntp105
Rp106
(dp107
g13
I00
sg14
F-0.5496727828861414
sg15
g104
sbssS'nodes'
p108
(dp109
I0
g0
(cneat.genes
DefaultNodeGene
p110
g2
Ntp111
Rp112
(dp113
S'activation'
p114
S'tanh'
p115
sS'bias'
p116
F4.895761745873582
sS'response'
p117
F1.0
sg15
I0
sS'aggregation'
p118
S'sum'
p119
sbsI1
g0
(g110
g2
Ntp120
Rp121
(dp122
g114
g115
sg116
F-15.9053868955214
sg117
F1.0
sg15
I1
sg118
g119
sbsI2
g0
(g110
g2
Ntp123
Rp124
(dp125
g114
g115
sg116
F16.477422723621423
sg117
F1.0
sg15
I2
sg118
g119
sbsI3
g0
(g110
g2
Ntp126
Rp127
(dp128
g114
g115
sg116
F-1.060872201675464
sg117
F1.0
sg15
I3
sg118
g119
sbsI4
g0
(g110
g2
Ntp129
Rp130
(dp131
g114
g115
sg116
F4.351937424358933
sg117
F1.0
sg15
I4
sg118
g119
sbsI5
g0
(g110
g2
Ntp132
Rp133
(dp134
g114
g115
sg116
F-2.785625191108173
sg117
F1.0
sg15
I5
sg118
g119
sbsI6
g0
(g110
g2
Ntp135
Rp136
(dp137
g114
g115
sg116
F18.268830687665947
sg117
F1.0
sg15
I6
sg118
g119
sbsI7
g0
(g110
g2
Ntp138
Rp139
(dp140
g114
g115
sg116
F7.119888977513652
sg117
F1.0
sg15
I7
sg118
g119
sbsI8
g0
(g110
g2
Ntp141
Rp142
(dp143
g114
g115
sg116
F2.907789216909498
sg117
F1.0
sg15
I8
sg118
g119
sbsI9
g0
(g110
g2
Ntp144
Rp145
(dp146
g114
g115
sg116
F13.436464179623048
sg117
F1.0
sg15
I9
sg118
g119
sbsI551
g0
(g110
g2
Ntp147
Rp148
(dp149
g114
g115
sg116
F1.1552643042970367
sg117
F1.0
sg15
I551
sg118
g119
sbsI610
g0
(g110
g2
Ntp150
Rp151
(dp152
g114
g115
sg116
F0.8198730401631997
sg117
F1.0
sg15
I610
sg118
g119
sbsI559
g0
(g110
g2
Ntp153
Rp154
(dp155
g114
g115
sg116
F12.538918841763373
sg117
F1.0
sg15
I559
sg118
g119
sbsI784
g0
(g110
g2
Ntp156
Rp157
(dp158
g114
S'relu'
p159
sg116
F7.003819721809575
sg117
F1.0
sg15
I784
sg118
g119
sbsI23
g0
(g110
g2
Ntp160
Rp161
(dp162
g114
g115
sg116
F-4.184783586822766
sg117
F1.0
sg15
I23
sg118
g119
sbsI669
g0
(g110
g2
Ntp163
Rp164
(dp165
g114
g115
sg116
F0.5126817471098295
sg117
F1.0
sg15
I669
sg118
g119
sbssg15
I103
sS'fitness'
p166
Nsb.