ccopy_reg
_reconstructor
p0
(cneat.genome
DefaultGenome
p1
c__builtin__
object
p2
Ntp3
Rp4
(dp5
S'connections'
p6
(dp7
(I-10
I67
tp8
g0
(cneat.genes
DefaultConnectionGene
p9
g2
Ntp10
Rp11
(dp12
S'enabled'
p13
I01
sS'weight'
p14
F0.27514437703155137
sS'key'
p15
g8
sbs(I67
I2
tp16
g0
(g9
g2
Ntp17
Rp18
(dp19
g13
I01
sg14
F0.1346628695972747
sg15
g16
sbs(I-7
I67
tp20
g0
(g9
g2
Ntp21
Rp22
(dp23
g13
I01
sg14
F0.08916446660993058
sg15
g20
sbs(I67
I3
tp24
g0
(g9
g2
Ntp25
Rp26
(dp27
g13
I01
sg14
F0.7713281937236003
sg15
g24
sbs(I-9
I67
tp28
g0
(g9
g2
Ntp29
Rp30
(dp31
g13
I01
sg14
F0.18156786078832202
sg15
g28
sbs(I67
I0
tp32
g0
(g9
g2
Ntp33
Rp34
(dp35
g13
I01
sg14
F0.6954559343699295
sg15
g32
sbs(I67
I1
tp36
g0
(g9
g2
Ntp37
Rp38
(dp39
g13
I01
sg14
F0.021601219698347746
sg15
g36
sbs(I-6
I67
tp40
g0
(g9
g2
Ntp41
Rp42
(dp43
g13
I01
sg14
F0.2942379433340003
sg15
g40
sbs(I-4
I67
tp44
g0
(g9
g2
Ntp45
Rp46
(dp47
g13
I01
sg14
F2.2824274114488263
sg15
g44
sbs(I67
I8
tp48
g0
(g9
g2
Ntp49
Rp50
(dp51
g13
I01
sg14
F-1.1494159747257706
sg15
g48
sbs(I-1
I67
tp52
g0
(g9
g2
Ntp53
Rp54
(dp55
g13
I01
sg14
F0.4556515488743691
sg15
g52
sbs(I-8
I67
tp56
g0
(g9
g2
Ntp57
Rp58
(dp59
g13
I01
sg14
F0.5117605490629009
sg15
g56
sbs(I67
I9
tp60
g0
(g9
g2
Ntp61
Rp62
(dp63
g13
I01
sg14
F0.5586261516503828
sg15
g60
sbs(I67
I6
tp64
g0
(g9
g2
Ntp65
Rp66
(dp67
g13
I01
sg14
F1.4621823138819343
sg15
g64
sbs(I-3
I67
tp68
g0
(g9
g2
Ntp69
Rp70
(dp71
g13
I01
sg14
F0.5365207532519354
sg15
g68
sbs(I67
I7
tp72
g0
(g9
g2
Ntp73
Rp74
(dp75
g13
I01
sg14
F0.18446037724138598
sg15
g72
sbs(I-2
I67
tp76
g0
(g9
g2
Ntp77
Rp78
(dp79
g13
I01
sg14
F0.7951575006261
sg15
g76
sbs(I67
I4
tp80
g0
(g9
g2
Ntp81
Rp82
(dp83
g13
I01
sg14
F0.5471191626624103
sg15
g80
sbs(I-5
I67
tp84
g0
(g9
g2
Ntp85
Rp86
(dp87
g13
I01
sg14
F-1.9330995897701784
sg15
g84
sbs(I67
I5
tp88
g0
(g9
g2
Ntp89
Rp90
(dp91
g13
I01
sg14
F-0.8772953273095527
sg15
g88
sbssS'nodes'
p92
(dp93
I0
g0
(cneat.genes
DefaultNodeGene
p94
g2
Ntp95
Rp96
(dp97
S'activation'
p98
S'relu'
p99
sS'bias'
p100
F-11.139741014124033
sS'response'
p101
F1.0
sg15
I0
sS'aggregation'
p102
S'sum'
p103
sbsI1
g0
(g94
g2
Ntp104
Rp105
(dp106
g98
g99
sg100
F1.5303841105575655
sg101
F1.0
sg15
I1
sg102
g103
sbsI2
g0
(g94
g2
Ntp107
Rp108
(dp109
g98
g99
sg100
F-4.4896707967144405
sg101
F1.0
sg15
I2
sg102
g103
sbsI3
g0
(g94
g2
Ntp110
Rp111
(dp112
g98
g99
sg100
F11.617324825191988
sg101
F1.0
sg15
I3
sg102
g103
sbsI4
g0
(g94
g2
Ntp113
Rp114
(dp115
g98
g99
sg100
F13.766750867750373
sg101
F1.0
sg15
I4
sg102
g103
sbsI5
g0
(g94
g2
Ntp116
Rp117
(dp118
g98
g99
sg100
F-1.5736669699498067
sg101
F1.0
sg15
I5
sg102
g103
sbsI6
g0
(g94
g2
Ntp119
Rp120
(dp121
g98
g99
sg100
F0.4954575737321406
sg101
F1.0
sg15
I6
sg102
g103
sbsI7
g0
(g94
g2
Ntp122
Rp123
(dp124
g98
g99
sg100
F13.48400014138618
sg101
F1.0
sg15
I7
sg102
g103
sbsI8
g0
(g94
g2
Ntp125
Rp126
(dp127
g98
g99
sg100
F-14.23070194015704
sg101
F1.0
sg15
I8
sg102
g103
sbsI9
g0
(g94
g2
Ntp128
Rp129
(dp130
g98
g99
sg100
F-29.365973157074922
sg101
F1.0
sg15
I9
sg102
g103
sbsI67
g0
(g94
g2
Ntp131
Rp132
(dp133
g98
g99
sg100
F-13.23904466958366
sg101
F1.0
sg15
I67
sg102
g103
sbssg15
I104
sS'fitness'
p134
F-0.17840235653713243
sb.