ccopy_reg
_reconstructor
p0
(cneat.genome
DefaultGenome
p1
c__builtin__
object
p2
Ntp3
Rp4
(dp5
S'connections'
p6
(dp7
(I23
I4
tp8
g0
(cneat.genes
DefaultConnectionGene
p9
g2
Ntp10
Rp11
(dp12
S'enabled'
p13
I01
sS'weight'
p14
F-5.185638676732972
sS'key'
p15
g8
sbs(I610
I7
tp16
g0
(g9
g2
Ntp17
Rp18
(dp19
g13
I01
sg14
F0.5180845020205368
sg15
g16
sbs(I-2
I23
tp20
g0
(g9
g2
Ntp21
Rp22
(dp23
g13
I01
sg14
F0.977150988379818
sg15
g20
sbs(I7
I7
tp24
g0
(g9
g2
Ntp25
Rp26
(dp27
g13
I01
sg14
F3.666845062878208
sg15
g24
sbs(I23
I610
tp28
g0
(g9
g2
Ntp29
Rp30
(dp31
g13
I01
sg14
F0.332348447965397
sg15
g28
sbs(I23
I3
tp32
g0
(g9
g2
Ntp33
Rp34
(dp35
g13
I00
sg14
F-0.25733527952750923
sg15
g32
sbs(I9
I23
tp36
g0
(g9
g2
Ntp37
Rp38
(dp39
g13
I01
sg14
F1.0788038010919903
sg15
g36
sbs(I23
I7
tp40
g0
(g9
g2
Ntp41
Rp42
(dp43
g13
I00
sg14
F1.7852862331777428
sg15
g40
sbs(I-5
I23
tp44
g0
(g9
g2
Ntp45
Rp46
(dp47
g13
I00
sg14
F0.881979158043551
sg15
g44
sbs(I-5
I4
tp48
g0
(g9
g2
Ntp49
Rp50
(dp51
g13
I00
sg14
F-0.43574031368415556
sg15
g48
sbs(I2
I2
tp52
g0
(g9
g2
Ntp53
Rp54
(dp55
g13
I00
sg14
F0.9660957583408921
sg15
g52
sbs(I2
I551
tp56
g0
(g9
g2
Ntp57
Rp58
(dp59
g13
I00
sg14
F2.142723469835144
sg15
g56
sbs(I-3
I669
tp60
g0
(g9
g2
Ntp61
Rp62
(dp63
g13
I01
sg14
F1.101157843858388
sg15
g60
sbs(I669
I3
tp64
g0
(g9
g2
Ntp65
Rp66
(dp67
g13
I00
sg14
F-0.8487639765307029
sg15
g64
sbs(I669
I2
tp68
g0
(g9
g2
Ntp69
Rp70
(dp71
g13
I01
sg14
F0.15440809495879518
sg15
g68
sbs(I23
I1
tp72
g0
(g9
g2
Ntp73
Rp74
(dp75
g13
I01
sg14
F0.01091024327071422
sg15
g72
sbs(I23
I5
tp76
g0
(g9
g2
Ntp77
Rp78
(dp79
g13
I01
sg14
F0.7231128392795748
sg15
g76
sbs(I-1
I559
tp80
g0
(g9
g2
Ntp81
Rp82
(dp83
g13
I00
sg14
F-1.4704687888604573
sg15
g80
sbs(I9
I9
tp84
g0
(g9
g2
Ntp85
Rp86
(dp87
g13
I01
sg14
F3.815466543308065
sg15
g84
sbs(I23
I9
tp88
g0
(g9
g2
Ntp89
Rp90
(dp91
g13
I01
sg14
F1.1573722794445438
sg15
g88
sbs(I8
I8
tp92
g0
(g9
g2
Ntp93
Rp94
(dp95
g13
I01
sg14
F-1.366299018861596
sg15
g92
sbs(I-7
I23
tp96
g0
(g9
g2
Ntp97
Rp98
(dp99
g13
I00
sg14
F-0.2927165867740432
sg15
g96
sbssS'nodes'
p100
(dp101
I0
g0
(cneat.genes
DefaultNodeGene
p102
g2
Ntp103
Rp104
(dp105
S'activation'
p106
S'tanh'
p107
sS'bias'
p108
F4.049448307060147
sS'response'
p109
F1.0
sg15
I0
sS'aggregation'
p110
S'sum'
p111
sbsI1
g0
(g102
g2
Ntp112
Rp113
(dp114
g106
g107
sg108
F-15.098383688006399
sg109
F1.0
sg15
I1
sg110
g111
sbsI2
g0
(g102
g2
Ntp115
Rp116
(dp117
g106
g107
sg108
F16.42069220983626
sg109
F1.0
sg15
I2
sg110
g111
sbsI3
g0
(g102
g2
Ntp118
Rp119
(dp120
g106
g107
sg108
F-1.5231802401576164
sg109
F1.0
sg15
I3
sg110
g111
sbsI4
g0
(g102
g2
Ntp121
Rp122
(dp123
g106
S'relu'
p124
sg108
F10.613176648511127
sg109
F1.0
sg15
I4
sg110
g111
sbsI5
g0
(g102
g2
Ntp125
Rp126
(dp127
g106
g107
sg108
F-3.1612025096249936
sg109
F1.0
sg15
I5
sg110
g111
sbsI6
g0
(g102
g2
Ntp128
Rp129
(dp130
g106
g107
sg108
F18.472856338146585
sg109
F1.0
sg15
I6
sg110
g111
sbsI7
g0
(g102
g2
Ntp131
Rp132
(dp133
g106
g107
sg108
F7.274407819171415
sg109
F1.0
sg15
I7
sg110
g111
sbsI8
g0
(g102
g2
Ntp134
Rp135
(dp136
g106
g107
sg108
F3.061109286412323
sg109
F1.0
sg15
I8
sg110
g111
sbsI9
g0
(g102
g2
Ntp137
Rp138
(dp139
g106
g107
sg108
F14.053222371723916
sg109
F1.0
sg15
I9
sg110
g111
sbsI551
g0
(g102
g2
Ntp140
Rp141
(dp142
g106
g107
sg108
F0.6889655603943412
sg109
F1.0
sg15
I551
sg110
g111
sbsI610
g0
(g102
g2
Ntp143
Rp144
(dp145
g106
g107
sg108
F-2.0696379039936805
sg109
F1.0
sg15
I610
sg110
g111
sbsI559
g0
(g102
g2
Ntp146
Rp147
(dp148
g106
g107
sg108
F13.47980440997391
sg109
F1.0
sg15
I559
sg110
g111
sbsI23
g0
(g102
g2
Ntp149
Rp150
(dp151
g106
g107
sg108
F-4.390256640377454
sg109
F1.0
sg15
I23
sg110
g111
sbsI669
g0
(g102
g2
Ntp152
Rp153
(dp154
g106
g107
sg108
F1.2379383178130412
sg109
F1.0
sg15
I669
sg110
g111
sbssg15
I105
sS'fitness'
p155
Nsb.