ccopy_reg
_reconstructor
p0
(cneat.genome
DefaultGenome
p1
c__builtin__
object
p2
Ntp3
Rp4
(dp5
S'connections'
p6
(dp7
(I88
I9
tp8
g0
(cneat.genes
DefaultConnectionGene
p9
g2
Ntp10
Rp11
(dp12
S'enabled'
p13
I01
sS'weight'
p14
F-0.7678005489577135
sS'key'
p15
g8
sbs(I-6
I88
tp16
g0
(g9
g2
Ntp17
Rp18
(dp19
g13
I01
sg14
F0.9025731176689276
sg15
g16
sbs(I88
I8
tp20
g0
(g9
g2
Ntp21
Rp22
(dp23
g13
I01
sg14
F1.9914629596239304
sg15
g20
sbs(I-10
I88
tp24
g0
(g9
g2
Ntp25
Rp26
(dp27
g13
I01
sg14
F-0.9732722888174999
sg15
g24
sbs(I88
I7
tp28
g0
(g9
g2
Ntp29
Rp30
(dp31
g13
I01
sg14
F-0.13482407580386013
sg15
g28
sbs(I-5
I88
tp32
g0
(g9
g2
Ntp33
Rp34
(dp35
g13
I01
sg14
F0.6512443346011904
sg15
g32
sbs(I88
I6
tp36
g0
(g9
g2
Ntp37
Rp38
(dp39
g13
I01
sg14
F1.1687319355392103
sg15
g36
sbs(I-7
I88
tp40
g0
(g9
g2
Ntp41
Rp42
(dp43
g13
I01
sg14
F0.2834302042125718
sg15
g40
sbs(I88
I5
tp44
g0
(g9
g2
Ntp45
Rp46
(dp47
g13
I01
sg14
F0.84665724988397
sg15
g44
sbs(I-1
I88
tp48
g0
(g9
g2
Ntp49
Rp50
(dp51
g13
I01
sg14
F-0.36396161867954746
sg15
g48
sbs(I88
I3
tp52
g0
(g9
g2
Ntp53
Rp54
(dp55
g13
I01
sg14
F-0.7880605992769514
sg15
g52
sbs(I-8
I88
tp56
g0
(g9
g2
Ntp57
Rp58
(dp59
g13
I01
sg14
F0.08018462541420321
sg15
g56
sbs(I88
I2
tp60
g0
(g9
g2
Ntp61
Rp62
(dp63
g13
I01
sg14
F0.4658368740283024
sg15
g60
sbs(I-3
I88
tp64
g0
(g9
g2
Ntp65
Rp66
(dp67
g13
I01
sg14
F-0.18094217410018554
sg15
g64
sbs(I88
I1
tp68
g0
(g9
g2
Ntp69
Rp70
(dp71
g13
I01
sg14
F-0.5932986002606117
sg15
g68
sbs(I88
I0
tp72
g0
(g9
g2
Ntp73
Rp74
(dp75
g13
I01
sg14
F-0.8464293748029834
sg15
g72
sbs(I-9
I88
tp76
g0
(g9
g2
Ntp77
Rp78
(dp79
g13
I01
sg14
F0.944663305131901
sg15
g76
sbs(I-2
I88
tp80
g0
(g9
g2
Ntp81
Rp82
(dp83
g13
I01
sg14
F-0.041164926982415376
sg15
g80
sbs(I88
I4
tp84
g0
(g9
g2
Ntp85
Rp86
(dp87
g13
I01
sg14
F0.18066220574105424
sg15
g84
sbs(I-4
I88
tp88
g0
(g9
g2
Ntp89
Rp90
(dp91
g13
I01
sg14
F2.639698781784694
sg15
g88
sbssS'nodes'
p92
(dp93
I0
g0
(cneat.genes
DefaultNodeGene
p94
g2
Ntp95
Rp96
(dp97
S'activation'
p98
S'relu'
p99
sS'bias'
p100
F-7.706808901643843
sS'response'
p101
F1.0
sg15
I0
sS'aggregation'
p102
S'sum'
p103
sbsI1
g0
(g94
g2
Ntp104
Rp105
(dp106
g98
g99
sg100
F-2.1210920253458343
sg101
F1.0
sg15
I1
sg102
g103
sbsI2
g0
(g94
g2
Ntp107
Rp108
(dp109
g98
g99
sg100
F0.3192183589318787
sg101
F1.0
sg15
I2
sg102
g103
sbsI3
g0
(g94
g2
Ntp110
Rp111
(dp112
g98
g99
sg100
F-7.805186660614073
sg101
F1.0
sg15
I3
sg102
g103
sbsI4
g0
(g94
g2
Ntp113
Rp114
(dp115
g98
g99
sg100
F2.441383556132184
sg101
F1.0
sg15
I4
sg102
g103
sbsI5
g0
(g94
g2
Ntp116
Rp117
(dp118
g98
g99
sg100
F-15.378511066481247
sg101
F1.0
sg15
I5
sg102
g103
sbsI6
g0
(g94
g2
Ntp119
Rp120
(dp121
g98
g99
sg100
F-22.3560121769312
sg101
F1.0
sg15
I6
sg102
g103
sbsI7
g0
(g94
g2
Ntp122
Rp123
(dp124
g98
g99
sg100
F7.762353073602576
sg101
F1.0
sg15
I7
sg102
g103
sbsI8
g0
(g94
g2
Ntp125
Rp126
(dp127
g98
g99
sg100
F9.7770272268995
sg101
F1.0
sg15
I8
sg102
g103
sbsI9
g0
(g94
g2
Ntp128
Rp129
(dp130
g98
g99
sg100
F-13.527604609891107
sg101
F1.0
sg15
I9
sg102
g103
sbsI88
g0
(g94
g2
Ntp131
Rp132
(dp133
g98
g99
sg100
F-19.877319743389098
sg101
F1.0
sg15
I88
sg102
g103
sbssg15
I105
sS'fitness'
p134
F-0.25641915919416025
sb.