ccopy_reg
_reconstructor
p0
(cneat.genome
DefaultGenome
p1
c__builtin__
object
p2
Ntp3
Rp4
(dp5
S'connections'
p6
(dp7
(I-10
I35
tp8
g0
(cneat.genes
DefaultConnectionGene
p9
g2
Ntp10
Rp11
(dp12
S'enabled'
p13
I01
sS'weight'
p14
F0.9643826092222224
sS'key'
p15
g8
sbs(I-1
I35
tp16
g0
(g9
g2
Ntp17
Rp18
(dp19
g13
I01
sg14
F-0.6268637876399938
sg15
g16
sbs(I35
I1
tp20
g0
(g9
g2
Ntp21
Rp22
(dp23
g13
I01
sg14
F-1.0329303294059184
sg15
g20
sbs(I35
I8
tp24
g0
(g9
g2
Ntp25
Rp26
(dp27
g13
I01
sg14
F-1.5635927313686333
sg15
g24
sbs(I-15
I35
tp28
g0
(g9
g2
Ntp29
Rp30
(dp31
g13
I01
sg14
F-0.9933658352499319
sg15
g28
sbs(I35
I4
tp32
g0
(g9
g2
Ntp33
Rp34
(dp35
g13
I01
sg14
F-0.3572117278131223
sg15
g32
sbs(I35
I0
tp36
g0
(g9
g2
Ntp37
Rp38
(dp39
g13
I01
sg14
F-0.494468983540135
sg15
g36
sbs(I-16
I35
tp40
g0
(g9
g2
Ntp41
Rp42
(dp43
g13
I01
sg14
F-1.617421241636887
sg15
g40
sbs(I-6
I35
tp44
g0
(g9
g2
Ntp45
Rp46
(dp47
g13
I01
sg14
F-0.5788676672279692
sg15
g44
sbs(I-11
I35
tp48
g0
(g9
g2
Ntp49
Rp50
(dp51
g13
I01
sg14
F1.6580067691874256
sg15
g48
sbs(I-2
I35
tp52
g0
(g9
g2
Ntp53
Rp54
(dp55
g13
I01
sg14
F1.0748068952202288
sg15
g52
sbs(I-3
I35
tp56
g0
(g9
g2
Ntp57
Rp58
(dp59
g13
I01
sg14
F1.5697132645498562
sg15
g56
sbs(I35
I7
tp60
g0
(g9
g2
Ntp61
Rp62
(dp63
g13
I01
sg14
F0.016190799492699803
sg15
g60
sbs(I35
I3
tp64
g0
(g9
g2
Ntp65
Rp66
(dp67
g13
I01
sg14
F0.7491213463849772
sg15
g64
sbs(I-12
I35
tp68
g0
(g9
g2
Ntp69
Rp70
(dp71
g13
I01
sg14
F0.00022031471432251704
sg15
g68
sbs(I-17
I35
tp72
g0
(g9
g2
Ntp73
Rp74
(dp75
g13
I01
sg14
F0.5718429008041129
sg15
g72
sbs(I-4
I35
tp76
g0
(g9
g2
Ntp77
Rp78
(dp79
g13
I01
sg14
F-0.41381934163990813
sg15
g76
sbs(I-9
I35
tp80
g0
(g9
g2
Ntp81
Rp82
(dp83
g13
I00
sg14
F-0.6344386806101021
sg15
g80
sbs(I35
I6
tp84
g0
(g9
g2
Ntp85
Rp86
(dp87
g13
I01
sg14
F0.04434417935451962
sg15
g84
sbs(I-7
I35
tp88
g0
(g9
g2
Ntp89
Rp90
(dp91
g13
I01
sg14
F-2.3806437034823764
sg15
g88
sbs(I35
I2
tp92
g0
(g9
g2
Ntp93
Rp94
(dp95
g13
I01
sg14
F-0.6745191241439757
sg15
g92
sbs(I-14
I35
tp96
g0
(g9
g2
Ntp97
Rp98
(dp99
g13
I01
sg14
F1.0388183455397364
sg15
g96
sbs(I-19
I35
tp100
g0
(g9
g2
Ntp101
Rp102
(dp103
g13
I01
sg14
F1.2364625565049718
sg15
g100
sbs(I-8
I35
tp104
g0
(g9
g2
Ntp105
Rp106
(dp107
g13
I01
sg14
F0.35725756906962447
sg15
g104
sbs(I35
I9
tp108
g0
(g9
g2
Ntp109
Rp110
(dp111
g13
I01
sg14
F-2.919933955372662
sg15
g108
sbs(I-13
I35
tp112
g0
(g9
g2
Ntp113
Rp114
(dp115
g13
I01
sg14
F2.295167546485888
sg15
g112
sbs(I-18
I35
tp116
g0
(g9
g2
Ntp117
Rp118
(dp119
g13
I01
sg14
F0.36056913545764424
sg15
g116
sbs(I-5
I35
tp120
g0
(g9
g2
Ntp121
Rp122
(dp123
g13
I01
sg14
F0.21789828010133128
sg15
g120
sbs(I-20
I35
tp124
g0
(g9
g2
Ntp125
Rp126
(dp127
g13
I01
sg14
F0.13541058377722962
sg15
g124
sbs(I35
I5
tp128
g0
(g9
g2
Ntp129
Rp130
(dp131
g13
I01
sg14
F-0.16323550793540653
sg15
g128
sbssS'nodes'
p132
(dp133
I0
g0
(cneat.genes
DefaultNodeGene
p134
g2
Ntp135
Rp136
(dp137
S'activation'
p138
S'relu'
p139
sS'bias'
p140
F-6.020716329087167
sS'response'
p141
F1.0
sg15
I0
sS'aggregation'
p142
S'sum'
p143
sbsI1
g0
(g134
g2
Ntp144
Rp145
(dp146
g138
g139
sg140
F-16.897022884984594
sg141
F1.0
sg15
I1
sg142
g143
sbsI2
g0
(g134
g2
Ntp147
Rp148
(dp149
g138
g139
sg140
F1.786259992704671
sg141
F1.0
sg15
I2
sg142
g143
sbsI3
g0
(g134
g2
Ntp150
Rp151
(dp152
g138
g139
sg140
F-7.924808334382704
sg141
F1.0
sg15
I3
sg142
g143
sbsI4
g0
(g134
g2
Ntp153
Rp154
(dp155
g138
g139
sg140
F-12.98617101614523
sg141
F1.0
sg15
I4
sg142
g143
sbsI5
g0
(g134
g2
Ntp156
Rp157
(dp158
g138
g139
sg140
F-2.655573481161571
sg141
F1.0
sg15
I5
sg142
g143
sbsI6
g0
(g134
g2
Ntp159
Rp160
(dp161
g138
g139
sg140
F6.949166078777815
sg141
F1.0
sg15
I6
sg142
g143
sbsI7
g0
(g134
g2
Ntp162
Rp163
(dp164
g138
g139
sg140
F13.4424463937593
sg141
F1.0
sg15
I7
sg142
g143
sbsI8
g0
(g134
g2
Ntp165
Rp166
(dp167
g138
g139
sg140
F-15.408554120178476
sg141
F1.0
sg15
I8
sg142
g143
sbsI9
g0
(g134
g2
Ntp168
Rp169
(dp170
g138
g139
sg140
F-7.729789664780161
sg141
F1.0
sg15
I9
sg142
g143
sbsI35
g0
(g134
g2
Ntp171
Rp172
(dp173
g138
g139
sg140
F1.4683096608975594
sg141
F1.0
sg15
I35
sg142
g143
sbssg15
I105
sS'fitness'
p174
Nsb.