ccopy_reg
_reconstructor
p0
(cneat.genome
DefaultGenome
p1
c__builtin__
object
p2
Ntp3
Rp4
(dp5
S'connections'
p6
(dp7
(I34
I7
tp8
g0
(cneat.genes
DefaultConnectionGene
p9
g2
Ntp10
Rp11
(dp12
S'enabled'
p13
I01
sS'weight'
p14
F-2.266549879457493
sS'key'
p15
g8
sbs(I34
I6
tp16
g0
(g9
g2
Ntp17
Rp18
(dp19
g13
I01
sg14
F1.8514312011460672
sg15
g16
sbs(I34
I9
tp20
g0
(g9
g2
Ntp21
Rp22
(dp23
g13
I01
sg14
F0.3575691560142179
sg15
g20
sbs(I-4
I34
tp24
g0
(g9
g2
Ntp25
Rp26
(dp27
g13
I01
sg14
F-0.4114976070059244
sg15
g24
sbs(I34
I8
tp28
g0
(g9
g2
Ntp29
Rp30
(dp31
g13
I01
sg14
F1.5825734042548025
sg15
g28
sbs(I-2
I34
tp32
g0
(g9
g2
Ntp33
Rp34
(dp35
g13
I01
sg14
F0.1254995623211887
sg15
g32
sbs(I34
I4
tp36
g0
(g9
g2
Ntp37
Rp38
(dp39
g13
I01
sg14
F-0.021693437276710137
sg15
g36
sbs(I-9
I34
tp40
g0
(g9
g2
Ntp41
Rp42
(dp43
g13
I01
sg14
F-0.2761389720211658
sg15
g40
sbs(I-6
I34
tp44
g0
(g9
g2
Ntp45
Rp46
(dp47
g13
I01
sg14
F0.16846419668000087
sg15
g44
sbs(I34
I0
tp48
g0
(g9
g2
Ntp49
Rp50
(dp51
g13
I01
sg14
F1.4314184037225768
sg15
g48
sbs(I-1
I34
tp52
g0
(g9
g2
Ntp53
Rp54
(dp55
g13
I01
sg14
F0.2413247584373141
sg15
g52
sbs(I-3
I34
tp56
g0
(g9
g2
Ntp57
Rp58
(dp59
g13
I01
sg14
F-0.6494260968328427
sg15
g56
sbs(I-8
I34
tp60
g0
(g9
g2
Ntp61
Rp62
(dp63
g13
I01
sg14
F-0.14939751836103476
sg15
g60
sbs(I34
I2
tp64
g0
(g9
g2
Ntp65
Rp66
(dp67
g13
I01
sg14
F0.1152133693444371
sg15
g64
sbs(I-10
I34
tp68
g0
(g9
g2
Ntp69
Rp70
(dp71
g13
I01
sg14
F2.1272027135851737
sg15
g68
sbs(I-7
I34
tp72
g0
(g9
g2
Ntp73
Rp74
(dp75
g13
I01
sg14
F0.17903615676824772
sg15
g72
sbs(I34
I3
tp76
g0
(g9
g2
Ntp77
Rp78
(dp79
g13
I01
sg14
F0.41505638063345124
sg15
g76
sbs(I34
I5
tp80
g0
(g9
g2
Ntp81
Rp82
(dp83
g13
I01
sg14
F-0.17099697832480365
sg15
g80
sbs(I34
I1
tp84
g0
(g9
g2
Ntp85
Rp86
(dp87
g13
I01
sg14
F-0.3820450314373587
sg15
g84
sbs(I-5
I34
tp88
g0
(g9
g2
Ntp89
Rp90
(dp91
g13
I01
sg14
F-0.5411074286281465
sg15
g88
sbssS'nodes'
p92
(dp93
I0
g0
(cneat.genes
DefaultNodeGene
p94
g2
Ntp95
Rp96
(dp97
S'activation'
p98
S'relu'
p99
sS'bias'
p100
F-8.751549167451975
sS'response'
p101
F1.0
sg15
I0
sS'aggregation'
p102
S'sum'
p103
sbsI1
g0
(g94
g2
Ntp104
Rp105
(dp106
g98
g99
sg100
F-0.0646459272160873
sg101
F1.0
sg15
I1
sg102
g103
sbsI2
g0
(g94
g2
Ntp107
Rp108
(dp109
g98
g99
sg100
F3.642082143398333
sg101
F1.0
sg15
I2
sg102
g103
sbsI3
g0
(g94
g2
Ntp110
Rp111
(dp112
g98
g99
sg100
F-8.483712377098087
sg101
F1.0
sg15
I3
sg102
g103
sbsI4
g0
(g94
g2
Ntp113
Rp114
(dp115
g98
g99
sg100
F15.613594602804168
sg101
F1.0
sg15
I4
sg102
g103
sbsI5
g0
(g94
g2
Ntp116
Rp117
(dp118
g98
g99
sg100
F10.678531269643829
sg101
F1.0
sg15
I5
sg102
g103
sbsI6
g0
(g94
g2
Ntp119
Rp120
(dp121
g98
g99
sg100
F-7.426859805997198
sg101
F1.0
sg15
I6
sg102
g103
sbsI7
g0
(g94
g2
Ntp122
Rp123
(dp124
g98
g99
sg100
F6.29312319597945
sg101
F1.0
sg15
I7
sg102
g103
sbsI8
g0
(g94
g2
Ntp125
Rp126
(dp127
g98
g99
sg100
F-18.352993423362715
sg101
F1.0
sg15
I8
sg102
g103
sbsI9
g0
(g94
g2
Ntp128
Rp129
(dp130
g98
g99
sg100
F-2.7112257865810285
sg101
F1.0
sg15
I9
sg102
g103
sbsI34
g0
(g94
g2
Ntp131
Rp132
(dp133
g98
g99
sg100
F-15.90621057960801
sg101
F1.0
sg15
I34
sg102
g103
sbssg15
I106
sS'fitness'
p134
F-0.1555110934510755
sb.