ccopy_reg
_reconstructor
p0
(cneat.genome
DefaultGenome
p1
c__builtin__
object
p2
Ntp3
Rp4
(dp5
S'connections'
p6
(dp7
(I327
I3
tp8
g0
(cneat.genes
DefaultConnectionGene
p9
g2
Ntp10
Rp11
(dp12
S'enabled'
p13
I01
sS'weight'
p14
F1.8245597478452105
sS'key'
p15
g8
sbs(I0
I0
tp16
g0
(g9
g2
Ntp17
Rp18
(dp19
g13
I00
sg14
F-1.512159644028169
sg15
g16
sbs(I3
I3
tp20
g0
(g9
g2
Ntp21
Rp22
(dp23
g13
I01
sg14
F-0.9876818733692301
sg15
g20
sbs(I-8
I327
tp24
g0
(g9
g2
Ntp25
Rp26
(dp27
g13
I00
sg14
F-0.9277424782026723
sg15
g24
sbs(I327
I6
tp28
g0
(g9
g2
Ntp29
Rp30
(dp31
g13
I00
sg14
F2.538596633348819
sg15
g28
sbs(I327
I7
tp32
g0
(g9
g2
Ntp33
Rp34
(dp35
g13
I01
sg14
F-0.3690541705878958
sg15
g32
sbs(I-3
I327
tp36
g0
(g9
g2
Ntp37
Rp38
(dp39
g13
I00
sg14
F-1.1075930515219772
sg15
g36
sbs(I8
I8
tp40
g0
(g9
g2
Ntp41
Rp42
(dp43
g13
I01
sg14
F0.1956354777097004
sg15
g40
sbs(I-10
I327
tp44
g0
(g9
g2
Ntp45
Rp46
(dp47
g13
I01
sg14
F-1.8603606640706973
sg15
g44
sbs(I2
I2
tp48
g0
(g9
g2
Ntp49
Rp50
(dp51
g13
I01
sg14
F-2.0235464885450085
sg15
g48
sbs(I-7
I2
tp52
g0
(g9
g2
Ntp53
Rp54
(dp55
g13
I01
sg14
F-0.5065330087602267
sg15
g52
sbs(I-4
I327
tp56
g0
(g9
g2
Ntp57
Rp58
(dp59
g13
I01
sg14
F-1.9902763832719033
sg15
g56
sbs(I327
I8
tp60
g0
(g9
g2
Ntp61
Rp62
(dp63
g13
I00
sg14
F-3.397666428153726
sg15
g60
sbs(I1
I1
tp64
g0
(g9
g2
Ntp65
Rp66
(dp67
g13
I01
sg14
F2.863431446259596
sg15
g64
sbs(I327
I2
tp68
g0
(g9
g2
Ntp69
Rp70
(dp71
g13
I01
sg14
F-0.769806179236171
sg15
g68
sbs(I327
I9
tp72
g0
(g9
g2
Ntp73
Rp74
(dp75
g13
I01
sg14
F0.19743910579487944
sg15
g72
sbssS'nodes'
p76
(dp77
I0
g0
(cneat.genes
DefaultNodeGene
p78
g2
Ntp79
Rp80
(dp81
S'activation'
p82
S'tanh'
p83
sS'bias'
p84
F-0.0205985958732825
sS'response'
p85
F1.0
sg15
I0
sS'aggregation'
p86
S'sum'
p87
sbsI1
g0
(g78
g2
Ntp88
Rp89
(dp90
g82
g83
sg84
F-11.683229280998548
sg85
F1.0
sg15
I1
sg86
g87
sbsI2
g0
(g78
g2
Ntp91
Rp92
(dp93
g82
g83
sg84
F-12.782081260479337
sg85
F1.0
sg15
I2
sg86
g87
sbsI3
g0
(g78
g2
Ntp94
Rp95
(dp96
g82
g83
sg84
F-3.3670070473611937
sg85
F1.0
sg15
I3
sg86
g87
sbsI4
g0
(g78
g2
Ntp97
Rp98
(dp99
g82
g83
sg84
F-13.825299100710259
sg85
F1.0
sg15
I4
sg86
g87
sbsI5
g0
(g78
g2
Ntp100
Rp101
(dp102
g82
g83
sg84
F-5.491216587265822
sg85
F1.0
sg15
I5
sg86
g87
sbsI6
g0
(g78
g2
Ntp103
Rp104
(dp105
g82
g83
sg84
F-11.32115865262043
sg85
F1.0
sg15
I6
sg86
g87
sbsI7
g0
(g78
g2
Ntp106
Rp107
(dp108
g82
g83
sg84
F7.991801386599443
sg85
F1.0
sg15
I7
sg86
g87
sbsI8
g0
(g78
g2
Ntp109
Rp110
(dp111
g82
g83
sg84
F-5.797013242056426
sg85
F1.0
sg15
I8
sg86
g87
sbsI9
g0
(g78
g2
Ntp112
Rp113
(dp114
g82
g83
sg84
F-0.15477438868492044
sg85
F1.0
sg15
I9
sg86
g87
sbsI327
g0
(g78
g2
Ntp115
Rp116
(dp117
g82
g83
sg84
F-4.495453932146431
sg85
F1.0
sg15
I327
sg86
g87
sbssg15
I106
sS'fitness'
p118
Nsb.