ccopy_reg
_reconstructor
p0
(cneat.genome
DefaultGenome
p1
c__builtin__
object
p2
Ntp3
Rp4
(dp5
S'connections'
p6
(dp7
(I327
I3
tp8
g0
(cneat.genes
DefaultConnectionGene
p9
g2
Ntp10
Rp11
(dp12
S'enabled'
p13
I01
sS'weight'
p14
F3.096870316100279
sS'key'
p15
g8
sbs(I0
I0
tp16
g0
(g9
g2
Ntp17
Rp18
(dp19
g13
I00
sg14
F-1.4499041739053682
sg15
g16
sbs(I3
I3
tp20
g0
(g9
g2
Ntp21
Rp22
(dp23
g13
I00
sg14
F-0.2887575575133219
sg15
g20
sbs(I-8
I327
tp24
g0
(g9
g2
Ntp25
Rp26
(dp27
g13
I00
sg14
F-1.8830048285462873
sg15
g24
sbs(I327
I6
tp28
g0
(g9
g2
Ntp29
Rp30
(dp31
g13
I00
sg14
F0.9906700534681303
sg15
g28
sbs(I327
I7
tp32
g0
(g9
g2
Ntp33
Rp34
(dp35
g13
I01
sg14
F0.33280842907300967
sg15
g32
sbs(I8
I8
tp36
g0
(g9
g2
Ntp37
Rp38
(dp39
g13
I01
sg14
F0.2860352345952061
sg15
g36
sbs(I327
I4
tp40
g0
(g9
g2
Ntp41
Rp42
(dp43
g13
I01
sg14
F-0.019132810330084245
sg15
g40
sbs(I-3
I327
tp44
g0
(g9
g2
Ntp45
Rp46
(dp47
g13
I01
sg14
F-1.616240313830041
sg15
g44
sbs(I-10
I327
tp48
g0
(g9
g2
Ntp49
Rp50
(dp51
g13
I01
sg14
F-0.0737297016693762
sg15
g48
sbs(I2
I2
tp52
g0
(g9
g2
Ntp53
Rp54
(dp55
g13
I01
sg14
F0.8105237579582604
sg15
g52
sbs(I-4
I327
tp56
g0
(g9
g2
Ntp57
Rp58
(dp59
g13
I01
sg14
F-1.2001018639526302
sg15
g56
sbs(I327
I8
tp60
g0
(g9
g2
Ntp61
Rp62
(dp63
g13
I01
sg14
F-0.5663357246198935
sg15
g60
sbs(I1
I1
tp64
g0
(g9
g2
Ntp65
Rp66
(dp67
g13
I01
sg14
F1.9807217268141657
sg15
g64
sbs(I327
I2
tp68
g0
(g9
g2
Ntp69
Rp70
(dp71
g13
I01
sg14
F-0.48424175672836833
sg15
g68
sbs(I327
I9
tp72
g0
(g9
g2
Ntp73
Rp74
(dp75
g13
I01
sg14
F0.7754803607608572
sg15
g72
sbssS'nodes'
p76
(dp77
I0
g0
(cneat.genes
DefaultNodeGene
p78
g2
Ntp79
Rp80
(dp81
S'activation'
p82
S'tanh'
p83
sS'bias'
p84
F-1.3169245970507273
sS'response'
p85
F1.0
sg15
I0
sS'aggregation'
p86
S'sum'
p87
sbsI1
g0
(g78
g2
Ntp88
Rp89
(dp90
g82
g83
sg84
F-7.795799912292763
sg85
F1.0
sg15
I1
sg86
g87
sbsI2
g0
(g78
g2
Ntp91
Rp92
(dp93
g82
g83
sg84
F-0.85602400999621
sg85
F1.0
sg15
I2
sg86
g87
sbsI3
g0
(g78
g2
Ntp94
Rp95
(dp96
g82
g83
sg84
F-6.306643382391052
sg85
F1.0
sg15
I3
sg86
g87
sbsI4
g0
(g78
g2
Ntp97
Rp98
(dp99
g82
S'relu'
p100
sg84
F3.1499203642771683
sg85
F1.0
sg15
I4
sg86
g87
sbsI5
g0
(g78
g2
Ntp101
Rp102
(dp103
g82
g83
sg84
F1.37940489988338
sg85
F1.0
sg15
I5
sg86
g87
sbsI6
g0
(g78
g2
Ntp104
Rp105
(dp106
g82
g83
sg84
F-4.980372061025393
sg85
F1.0
sg15
I6
sg86
g87
sbsI7
g0
(g78
g2
Ntp107
Rp108
(dp109
g82
g83
sg84
F-10.33512981591638
sg85
F1.0
sg15
I7
sg86
g87
sbsI8
g0
(g78
g2
Ntp110
Rp111
(dp112
g82
g83
sg84
F-5.953398786475026
sg85
F1.0
sg15
I8
sg86
g87
sbsI9
g0
(g78
g2
Ntp113
Rp114
(dp115
g82
g83
sg84
F2.9365555719065264
sg85
F1.0
sg15
I9
sg86
g87
sbsI327
g0
(g78
g2
Ntp116
Rp117
(dp118
g82
g83
sg84
F-4.339552800340823
sg85
F1.0
sg15
I327
sg86
g87
sbssg15
I107
sS'fitness'
p119
Nsb.