ccopy_reg
_reconstructor
p0
(cneat.genome
DefaultGenome
p1
c__builtin__
object
p2
Ntp3
Rp4
(dp5
S'connections'
p6
(dp7
(I327
I3
tp8
g0
(cneat.genes
DefaultConnectionGene
p9
g2
Ntp10
Rp11
(dp12
S'enabled'
p13
I01
sS'weight'
p14
F2.272370398299033
sS'key'
p15
g8
sbs(I0
I0
tp16
g0
(g9
g2
Ntp17
Rp18
(dp19
g13
I00
sg14
F-2.0140150952262306
sg15
g16
sbs(I3
I3
tp20
g0
(g9
g2
Ntp21
Rp22
(dp23
g13
I01
sg14
F-2.21727103645935
sg15
g20
sbs(I-8
I327
tp24
g0
(g9
g2
Ntp25
Rp26
(dp27
g13
I00
sg14
F1.996746306590054
sg15
g24
sbs(I786
I6
tp28
g0
(g9
g2
Ntp29
Rp30
(dp31
g13
I01
sg14
F2.697094878478061
sg15
g28
sbs(I622
I327
tp32
g0
(g9
g2
Ntp33
Rp34
(dp35
g13
I01
sg14
F0.8105720946111447
sg15
g32
sbs(I327
I6
tp36
g0
(g9
g2
Ntp37
Rp38
(dp39
g13
I00
sg14
F3.0920712636864307
sg15
g36
sbs(I1
I622
tp40
g0
(g9
g2
Ntp41
Rp42
(dp43
g13
I00
sg14
F0.44448424060220904
sg15
g40
sbs(I327
I7
tp44
g0
(g9
g2
Ntp45
Rp46
(dp47
g13
I01
sg14
F1.0061755569331665
sg15
g44
sbs(I327
I786
tp48
g0
(g9
g2
Ntp49
Rp50
(dp51
g13
I01
sg14
F0.6282291285784627
sg15
g48
sbs(I-3
I327
tp52
g0
(g9
g2
Ntp53
Rp54
(dp55
g13
I00
sg14
F-1.072219243516211
sg15
g52
sbs(I8
I8
tp56
g0
(g9
g2
Ntp57
Rp58
(dp59
g13
I01
sg14
F-0.77147096873064
sg15
g56
sbs(I-10
I327
tp60
g0
(g9
g2
Ntp61
Rp62
(dp63
g13
I01
sg14
F-0.8308010448372066
sg15
g60
sbs(I2
I2
tp64
g0
(g9
g2
Ntp65
Rp66
(dp67
g13
I01
sg14
F-1.7848712893973302
sg15
g64
sbs(I-7
I2
tp68
g0
(g9
g2
Ntp69
Rp70
(dp71
g13
I01
sg14
F2.3703993940528796
sg15
g68
sbs(I-4
I327
tp72
g0
(g9
g2
Ntp73
Rp74
(dp75
g13
I01
sg14
F-0.06340100601736731
sg15
g72
sbs(I327
I8
tp76
g0
(g9
g2
Ntp77
Rp78
(dp79
g13
I00
sg14
F-3.397666428153726
sg15
g76
sbs(I1
I1
tp80
g0
(g9
g2
Ntp81
Rp82
(dp83
g13
I01
sg14
F2.481827660397779
sg15
g80
sbs(I327
I2
tp84
g0
(g9
g2
Ntp85
Rp86
(dp87
g13
I01
sg14
F-3.314091268522182
sg15
g84
sbs(I327
I9
tp88
g0
(g9
g2
Ntp89
Rp90
(dp91
g13
I01
sg14
F-1.5262387010777467
sg15
g88
sbssS'nodes'
p92
(dp93
I0
g0
(cneat.genes
DefaultNodeGene
p94
g2
Ntp95
Rp96
(dp97
S'activation'
p98
S'tanh'
p99
sS'bias'
p100
F0.25496961659150946
sS'response'
p101
F1.0
sg15
I0
sS'aggregation'
p102
S'sum'
p103
sbsI1
g0
(g94
g2
Ntp104
Rp105
(dp106
g98
g99
sg100
F4.661903082134202
sg101
F1.0
sg15
I1
sg102
g103
sbsI2
g0
(g94
g2
Ntp107
Rp108
(dp109
g98
g99
sg100
F-12.994886710901424
sg101
F1.0
sg15
I2
sg102
g103
sbsI3
g0
(g94
g2
Ntp110
Rp111
(dp112
g98
g99
sg100
F-4.283851305224683
sg101
F1.0
sg15
I3
sg102
g103
sbsI4
g0
(g94
g2
Ntp113
Rp114
(dp115
g98
g99
sg100
F-14.482970429292156
sg101
F1.0
sg15
I4
sg102
g103
sbsI5
g0
(g94
g2
Ntp116
Rp117
(dp118
g98
g99
sg100
F5.858887034434736
sg101
F1.0
sg15
I5
sg102
g103
sbsI6
g0
(g94
g2
Ntp119
Rp120
(dp121
g98
g99
sg100
F-10.556825300949598
sg101
F1.0
sg15
I6
sg102
g103
sbsI7
g0
(g94
g2
Ntp122
Rp123
(dp124
g98
g99
sg100
F-8.333483640172393
sg101
F1.0
sg15
I7
sg102
g103
sbsI8
g0
(g94
g2
Ntp125
Rp126
(dp127
g98
g99
sg100
F-6.522116277787792
sg101
F1.0
sg15
I8
sg102
g103
sbsI9
g0
(g94
g2
Ntp128
Rp129
(dp130
g98
g99
sg100
F0.9288139064143321
sg101
F1.0
sg15
I9
sg102
g103
sbsI327
g0
(g94
g2
Ntp131
Rp132
(dp133
g98
g99
sg100
F-4.265378093033289
sg101
F1.0
sg15
I327
sg102
g103
sbsI622
g0
(g94
g2
Ntp134
Rp135
(dp136
g98
g99
sg100
F-1.9077536654026133
sg101
F1.0
sg15
I622
sg102
g103
sbsI786
g0
(g94
g2
Ntp137
Rp138
(dp139
g98
g99
sg100
F-16.84454067561437
sg101
F1.0
sg15
I786
sg102
g103
sbssg15
I107
sS'fitness'
p140
Nsb.