ccopy_reg
_reconstructor
p0
(cneat.genome
DefaultGenome
p1
c__builtin__
object
p2
Ntp3
Rp4
(dp5
S'connections'
p6
(dp7
(I-2
I71
tp8
g0
(cneat.genes
DefaultConnectionGene
p9
g2
Ntp10
Rp11
(dp12
S'enabled'
p13
I01
sS'weight'
p14
F-0.32122697215172036
sS'key'
p15
g8
sbs(I71
I3
tp16
g0
(g9
g2
Ntp17
Rp18
(dp19
g13
I01
sg14
F0.6389511892863414
sg15
g16
sbs(I-3
I71
tp20
g0
(g9
g2
Ntp21
Rp22
(dp23
g13
I01
sg14
F0.14956912239181966
sg15
g20
sbs(I71
I0
tp24
g0
(g9
g2
Ntp25
Rp26
(dp27
g13
I01
sg14
F1.046428939848988
sg15
g24
sbs(I-8
I71
tp28
g0
(g9
g2
Ntp29
Rp30
(dp31
g13
I01
sg14
F-1.580000189846676
sg15
g28
sbs(I71
I1
tp32
g0
(g9
g2
Ntp33
Rp34
(dp35
g13
I01
sg14
F1.5042435134620074
sg15
g32
sbs(I-1
I71
tp36
g0
(g9
g2
Ntp37
Rp38
(dp39
g13
I01
sg14
F2.280534672794087
sg15
g36
sbs(I71
I6
tp40
g0
(g9
g2
Ntp41
Rp42
(dp43
g13
I01
sg14
F0.31310775654614326
sg15
g40
sbs(I71
I7
tp44
g0
(g9
g2
Ntp45
Rp46
(dp47
g13
I01
sg14
F-2.6689636187712433
sg15
g44
sbs(I-7
I71
tp48
g0
(g9
g2
Ntp49
Rp50
(dp51
g13
I01
sg14
F0.4284593385993476
sg15
g48
sbs(I71
I4
tp52
g0
(g9
g2
Ntp53
Rp54
(dp55
g13
I01
sg14
F-0.22328555823388058
sg15
g52
sbs(I-5
I71
tp56
g0
(g9
g2
Ntp57
Rp58
(dp59
g13
I01
sg14
F0.8865285288781173
sg15
g56
sbs(I71
I5
tp60
g0
(g9
g2
Ntp61
Rp62
(dp63
g13
I01
sg14
F-1.9188147435187775
sg15
g60
sbs(I-10
I71
tp64
g0
(g9
g2
Ntp65
Rp66
(dp67
g13
I01
sg14
F-0.05327041864971783
sg15
g64
sbs(I-6
I71
tp68
g0
(g9
g2
Ntp69
Rp70
(dp71
g13
I01
sg14
F0.6785897536749721
sg15
g68
sbs(I-4
I71
tp72
g0
(g9
g2
Ntp73
Rp74
(dp75
g13
I01
sg14
F1.9721605230675125
sg15
g72
sbs(I71
I8
tp76
g0
(g9
g2
Ntp77
Rp78
(dp79
g13
I01
sg14
F-0.17924004573537583
sg15
g76
sbs(I-9
I71
tp80
g0
(g9
g2
Ntp81
Rp82
(dp83
g13
I01
sg14
F1.1098378912195481
sg15
g80
sbs(I71
I2
tp84
g0
(g9
g2
Ntp85
Rp86
(dp87
g13
I01
sg14
F-0.6731464417589768
sg15
g84
sbs(I71
I9
tp88
g0
(g9
g2
Ntp89
Rp90
(dp91
g13
I01
sg14
F1.0150105647450833
sg15
g88
sbssS'nodes'
p92
(dp93
I0
g0
(cneat.genes
DefaultNodeGene
p94
g2
Ntp95
Rp96
(dp97
S'activation'
p98
S'relu'
p99
sS'bias'
p100
F-5.933167727565525
sS'response'
p101
F1.0
sg15
I0
sS'aggregation'
p102
S'sum'
p103
sbsI1
g0
(g94
g2
Ntp104
Rp105
(dp106
g98
g99
sg100
F12.953755986805634
sg101
F1.0
sg15
I1
sg102
g103
sbsI2
g0
(g94
g2
Ntp107
Rp108
(dp109
g98
g99
sg100
F15.032495331045551
sg101
F1.0
sg15
I2
sg102
g103
sbsI3
g0
(g94
g2
Ntp110
Rp111
(dp112
g98
g99
sg100
F-1.0735508065347088
sg101
F1.0
sg15
I3
sg102
g103
sbsI4
g0
(g94
g2
Ntp113
Rp114
(dp115
g98
g99
sg100
F-14.591963552599687
sg101
F1.0
sg15
I4
sg102
g103
sbsI5
g0
(g94
g2
Ntp116
Rp117
(dp118
g98
g99
sg100
F15.663536194819727
sg101
F1.0
sg15
I5
sg102
g103
sbsI6
g0
(g94
g2
Ntp119
Rp120
(dp121
g98
g99
sg100
F-1.1594673996739557
sg101
F1.0
sg15
I6
sg102
g103
sbsI7
g0
(g94
g2
Ntp122
Rp123
(dp124
g98
g99
sg100
F-24.12417351408496
sg101
F1.0
sg15
I7
sg102
g103
sbsI8
g0
(g94
g2
Ntp125
Rp126
(dp127
g98
g99
sg100
F10.619378016744056
sg101
F1.0
sg15
I8
sg102
g103
sbsI9
g0
(g94
g2
Ntp128
Rp129
(dp130
g98
g99
sg100
F-18.56977607967514
sg101
F1.0
sg15
I9
sg102
g103
sbsI71
g0
(g94
g2
Ntp131
Rp132
(dp133
g98
g99
sg100
F-16.528184733082107
sg101
F1.0
sg15
I71
sg102
g103
sbssg15
I107
sS'fitness'
p134
F-0.2009304966918104
sb.