ccopy_reg
_reconstructor
p0
(cneat.genome
DefaultGenome
p1
c__builtin__
object
p2
Ntp3
Rp4
(dp5
S'connections'
p6
(dp7
(I327
I3
tp8
g0
(cneat.genes
DefaultConnectionGene
p9
g2
Ntp10
Rp11
(dp12
S'enabled'
p13
I01
sS'weight'
p14
F0.5206140658075804
sS'key'
p15
g8
sbs(I0
I0
tp16
g0
(g9
g2
Ntp17
Rp18
(dp19
g13
I00
sg14
F-1.7779809378690576
sg15
g16
sbs(I3
I3
tp20
g0
(g9
g2
Ntp21
Rp22
(dp23
g13
I01
sg14
F-2.496828784955813
sg15
g20
sbs(I-8
I327
tp24
g0
(g9
g2
Ntp25
Rp26
(dp27
g13
I00
sg14
F1.7173074688493433
sg15
g24
sbs(I622
I327
tp28
g0
(g9
g2
Ntp29
Rp30
(dp31
g13
I01
sg14
F0.31183531657909425
sg15
g28
sbs(I327
I6
tp32
g0
(g9
g2
Ntp33
Rp34
(dp35
g13
I00
sg14
F-0.07482510172296306
sg15
g32
sbs(I-7
I787
tp36
g0
(g9
g2
Ntp37
Rp38
(dp39
g13
I01
sg14
F1.4222665939783181
sg15
g36
sbs(I1
I622
tp40
g0
(g9
g2
Ntp41
Rp42
(dp43
g13
I00
sg14
F0.6864939433175086
sg15
g40
sbs(I327
I7
tp44
g0
(g9
g2
Ntp45
Rp46
(dp47
g13
I01
sg14
F-0.2802227394830341
sg15
g44
sbs(I-3
I327
tp48
g0
(g9
g2
Ntp49
Rp50
(dp51
g13
I00
sg14
F-1.0477372053635745
sg15
g48
sbs(I787
I2
tp52
g0
(g9
g2
Ntp53
Rp54
(dp55
g13
I01
sg14
F1.8753405636561347
sg15
g52
sbs(I8
I8
tp56
g0
(g9
g2
Ntp57
Rp58
(dp59
g13
I01
sg14
F-0.7655467847600979
sg15
g56
sbs(I-10
I327
tp60
g0
(g9
g2
Ntp61
Rp62
(dp63
g13
I01
sg14
F-0.13696947081780836
sg15
g60
sbs(I-7
I2
tp64
g0
(g9
g2
Ntp65
Rp66
(dp67
g13
I00
sg14
F1.8917255570424232
sg15
g64
sbs(I-4
I327
tp68
g0
(g9
g2
Ntp69
Rp70
(dp71
g13
I01
sg14
F-1.3682473651314404
sg15
g68
sbs(I327
I8
tp72
g0
(g9
g2
Ntp73
Rp74
(dp75
g13
I00
sg14
F-2.6630586057533643
sg15
g72
sbs(I1
I1
tp76
g0
(g9
g2
Ntp77
Rp78
(dp79
g13
I01
sg14
F2.7238923034115663
sg15
g76
sbs(I327
I2
tp80
g0
(g9
g2
Ntp81
Rp82
(dp83
g13
I01
sg14
F0.7663882175748044
sg15
g80
sbs(I327
I9
tp84
g0
(g9
g2
Ntp85
Rp86
(dp87
g13
I01
sg14
F-0.8563802176284352
sg15
g84
sbssS'nodes'
p88
(dp89
I0
g0
(cneat.genes
DefaultNodeGene
p90
g2
Ntp91
Rp92
(dp93
S'activation'
p94
S'tanh'
p95
sS'bias'
p96
F-0.2301030168925543
sS'response'
p97
F1.0
sg15
I0
sS'aggregation'
p98
S'sum'
p99
sbsI1
g0
(g90
g2
Ntp100
Rp101
(dp102
g94
g95
sg96
F4.26106730591436
sg97
F1.0
sg15
I1
sg98
g99
sbsI2
g0
(g90
g2
Ntp103
Rp104
(dp105
g94
g95
sg96
F-13.992074273701371
sg97
F1.0
sg15
I2
sg98
g99
sbsI3
g0
(g90
g2
Ntp106
Rp107
(dp108
g94
g95
sg96
F-2.986864026445627
sg97
F1.0
sg15
I3
sg98
g99
sbsI4
g0
(g90
g2
Ntp109
Rp110
(dp111
g94
g95
sg96
F-14.352317168895341
sg97
F1.0
sg15
I4
sg98
g99
sbsI5
g0
(g90
g2
Ntp112
Rp113
(dp114
g94
g95
sg96
F5.199553167209804
sg97
F1.0
sg15
I5
sg98
g99
sbsI6
g0
(g90
g2
Ntp115
Rp116
(dp117
g94
g95
sg96
F-11.040911423754881
sg97
F1.0
sg15
I6
sg98
g99
sbsI7
g0
(g90
g2
Ntp118
Rp119
(dp120
g94
g95
sg96
F12.416225309480588
sg97
F1.0
sg15
I7
sg98
g99
sbsI8
g0
(g90
g2
Ntp121
Rp122
(dp123
g94
g95
sg96
F-6.775050146789276
sg97
F1.0
sg15
I8
sg98
g99
sbsI9
g0
(g90
g2
Ntp124
Rp125
(dp126
g94
g95
sg96
F0.4021875003341362
sg97
F1.0
sg15
I9
sg98
g99
sbsI327
g0
(g90
g2
Ntp127
Rp128
(dp129
g94
g95
sg96
F-5.130868974449943
sg97
F1.0
sg15
I327
sg98
g99
sbsI622
g0
(g90
g2
Ntp130
Rp131
(dp132
g94
g95
sg96
F5.837792673550677
sg97
F1.0
sg15
I622
sg98
g99
sbsI787
g0
(g90
g2
Ntp133
Rp134
(dp135
g94
S'relu'
p136
sg96
F12.22172944275301
sg97
F1.0
sg15
I787
sg98
g99
sbssg15
I108
sS'fitness'
p137
Nsb.