ccopy_reg
_reconstructor
p0
(cneat.genome
DefaultGenome
p1
c__builtin__
object
p2
Ntp3
Rp4
(dp5
S'connections'
p6
(dp7
(I255
I8
tp8
g0
(cneat.genes
DefaultConnectionGene
p9
g2
Ntp10
Rp11
(dp12
S'enabled'
p13
I01
sS'weight'
p14
F-0.49798111449230353
sS'key'
p15
g8
sbs(I-9
I255
tp16
g0
(g9
g2
Ntp17
Rp18
(dp19
g13
I01
sg14
F-0.07390045904179343
sg15
g16
sbs(I6
I6
tp20
g0
(g9
g2
Ntp21
Rp22
(dp23
g13
I01
sg14
F1.7287648552960464
sg15
g20
sbs(I256
I7
tp24
g0
(g9
g2
Ntp25
Rp26
(dp27
g13
I01
sg14
F-0.03926178207273484
sg15
g24
sbs(I-7
I256
tp28
g0
(g9
g2
Ntp29
Rp30
(dp31
g13
I01
sg14
F-0.8851530873210273
sg15
g28
sbs(I257
I3
tp32
g0
(g9
g2
Ntp33
Rp34
(dp35
g13
I00
sg14
F2.5569150274340102
sg15
g32
sbs(I257
I6
tp36
g0
(g9
g2
Ntp37
Rp38
(dp39
g13
I00
sg14
F2.0164090831601507
sg15
g36
sbs(I-5
I255
tp40
g0
(g9
g2
Ntp41
Rp42
(dp43
g13
I01
sg14
F-2.0754769697712727
sg15
g40
sbs(I255
I0
tp44
g0
(g9
g2
Ntp45
Rp46
(dp47
g13
I00
sg14
F-0.03772677182050649
sg15
g44
sbs(I257
I2
tp48
g0
(g9
g2
Ntp49
Rp50
(dp51
g13
I01
sg14
F1.2938538237413453
sg15
g48
sbs(I411
I3
tp52
g0
(g9
g2
Ntp53
Rp54
(dp55
g13
I00
sg14
F0.38561867055396254
sg15
g52
sbs(I-5
I257
tp56
g0
(g9
g2
Ntp57
Rp58
(dp59
g13
I01
sg14
F0.3140922924566969
sg15
g56
sbs(I3
I3
tp60
g0
(g9
g2
Ntp61
Rp62
(dp63
g13
I00
sg14
F-2.494196198729846
sg15
g60
sbs(I255
I4
tp64
g0
(g9
g2
Ntp65
Rp66
(dp67
g13
I01
sg14
F-0.16412986552629955
sg15
g64
sbs(I-10
I255
tp68
g0
(g9
g2
Ntp69
Rp70
(dp71
g13
I01
sg14
F2.4945179308280094
sg15
g68
sbs(I257
I5
tp72
g0
(g9
g2
Ntp73
Rp74
(dp75
g13
I00
sg14
F5.216744679497674
sg15
g72
sbs(I-8
I536
tp76
g0
(g9
g2
Ntp77
Rp78
(dp79
g13
I01
sg14
F1.0
sg15
g76
sbs(I255
I3
tp80
g0
(g9
g2
Ntp81
Rp82
(dp83
g13
I01
sg14
F0.4560187348922131
sg15
g80
sbs(I257
I1
tp84
g0
(g9
g2
Ntp85
Rp86
(dp87
g13
I01
sg14
F-0.597688400070292
sg15
g84
sbs(I536
I255
tp88
g0
(g9
g2
Ntp89
Rp90
(dp91
g13
I01
sg14
F2.8970804321990338
sg15
g88
sbs(I-5
I256
tp92
g0
(g9
g2
Ntp93
Rp94
(dp95
g13
I00
sg14
F0.14370349998252124
sg15
g92
sbs(I256
I0
tp96
g0
(g9
g2
Ntp97
Rp98
(dp99
g13
I01
sg14
F0.15613388194491445
sg15
g96
sbs(I-7
I255
tp100
g0
(g9
g2
Ntp101
Rp102
(dp103
g13
I00
sg14
F0.625964628502581
sg15
g100
sbs(I255
I255
tp104
g0
(g9
g2
Ntp105
Rp106
(dp107
g13
I01
sg14
F0.44718081914332836
sg15
g104
sbs(I257
I4
tp108
g0
(g9
g2
Ntp109
Rp110
(dp111
g13
I01
sg14
F0.04852843287317177
sg15
g108
sbs(I-2
I255
tp112
g0
(g9
g2
Ntp113
Rp114
(dp115
g13
I00
sg14
F-1.1258094570026158
sg15
g112
sbs(I255
I2
tp116
g0
(g9
g2
Ntp117
Rp118
(dp119
g13
I01
sg14
F-0.12636839375740294
sg15
g116
sbs(I-4
I256
tp120
g0
(g9
g2
Ntp121
Rp122
(dp123
g13
I01
sg14
F-1.3160639208041092
sg15
g120
sbs(I255
I1
tp124
g0
(g9
g2
Ntp125
Rp126
(dp127
g13
I01
sg14
F-0.24367182456649536
sg15
g124
sbs(I-10
I1
tp128
g0
(g9
g2
Ntp129
Rp130
(dp131
g13
I01
sg14
F1.0174148364102196
sg15
g128
sbs(I256
I8
tp132
g0
(g9
g2
Ntp133
Rp134
(dp135
g13
I01
sg14
F-3.199065004824875
sg15
g132
sbs(I-8
I255
tp136
g0
(g9
g2
Ntp137
Rp138
(dp139
g13
I00
sg14
F2.1068868376920653
sg15
g136
sbs(I256
I1
tp140
g0
(g9
g2
Ntp141
Rp142
(dp143
g13
I01
sg14
F1.083879481535113
sg15
g140
sbs(I-3
I255
tp144
g0
(g9
g2
Ntp145
Rp146
(dp147
g13
I01
sg14
F1.2309979701614147
sg15
g144
sbs(I2
I2
tp148
g0
(g9
g2
Ntp149
Rp150
(dp151
g13
I00
sg14
F-1.883886495792868
sg15
g148
sbs(I-3
I256
tp152
g0
(g9
g2
Ntp153
Rp154
(dp155
g13
I01
sg14
F3.127065753748149
sg15
g152
sbs(I257
I257
tp156
g0
(g9
g2
Ntp157
Rp158
(dp159
g13
I01
sg14
F0.4319207186823329
sg15
g156
sbs(I-8
I256
tp160
g0
(g9
g2
Ntp161
Rp162
(dp163
g13
I01
sg14
F-1.0177404324152048
sg15
g160
sbs(I257
I9
tp164
g0
(g9
g2
Ntp165
Rp166
(dp167
g13
I01
sg14
F-0.12347298604189916
sg15
g164
sbssS'nodes'
p168
(dp169
I0
g0
(cneat.genes
DefaultNodeGene
p170
g2
Ntp171
Rp172
(dp173
S'activation'
p174
S'tanh'
p175
sS'bias'
p176
F31.54134211454836
sS'response'
p177
F1.0
sg15
I0
sS'aggregation'
p178
S'sum'
p179
sbsI1
g0
(g170
g2
Ntp180
Rp181
(dp182
g174
S'relu'
p183
sg176
F7.915528214833043
sg177
F1.0
sg15
I1
sg178
g179
sbsI2
g0
(g170
g2
Ntp184
Rp185
(dp186
g174
g175
sg176
F-11.33068824154033
sg177
F1.0
sg15
I2
sg178
g179
sbsI3
g0
(g170
g2
Ntp187
Rp188
(dp189
g174
g175
sg176
F7.23409484256513
sg177
F1.0
sg15
I3
sg178
g179
sbsI4
g0
(g170
g2
Ntp190
Rp191
(dp192
g174
g175
sg176
F4.479910875830976
sg177
F1.0
sg15
I4
sg178
g179
sbsI5
g0
(g170
g2
Ntp193
Rp194
(dp195
g174
g175
sg176
F27.86275599421996
sg177
F1.0
sg15
I5
sg178
g179
sbsI6
g0
(g170
g2
Ntp196
Rp197
(dp198
g174
g183
sg176
F-15.472931556957992
sg177
F1.0
sg15
I6
sg178
g179
sbsI7
g0
(g170
g2
Ntp199
Rp200
(dp201
g174
g183
sg176
F-8.361075937002585
sg177
F1.0
sg15
I7
sg178
g179
sbsI8
g0
(g170
g2
Ntp202
Rp203
(dp204
g174
g175
sg176
F-14.686534314694857
sg177
F1.0
sg15
I8
sg178
g179
sbsI9
g0
(g170
g2
Ntp205
Rp206
(dp207
g174
g175
sg176
F5.993643774838672
sg177
F1.0
sg15
I9
sg178
g179
sbsI257
g0
(g170
g2
Ntp208
Rp209
(dp210
g174
g175
sg176
F-7.949649497118379
sg177
F1.0
sg15
I257
sg178
g179
sbsI256
g0
(g170
g2
Ntp211
Rp212
(dp213
g174
g175
sg176
F3.8205303795814567
sg177
F1.0
sg15
I256
sg178
g179
sbsI536
g0
(g170
g2
Ntp214
Rp215
(dp216
g174
g183
sg176
F-17.435560144553204
sg177
F1.0
sg15
I536
sg178
g179
sbsI411
g0
(g170
g2
Ntp217
Rp218
(dp219
g174
g175
sg176
F3.9917093368403584
sg177
F1.0
sg15
I411
sg178
g179
sbsI255
g0
(g170
g2
Ntp220
Rp221
(dp222
g174
g175
sg176
F5.6033976463093795
sg177
F1.0
sg15
I255
sg178
g179
sbssg15
I108
sS'fitness'
p223
Nsb.