ccopy_reg
_reconstructor
p0
(cneat.genome
DefaultGenome
p1
c__builtin__
object
p2
Ntp3
Rp4
(dp5
S'connections'
p6
(dp7
(I168
I3
tp8
g0
(cneat.genes
DefaultConnectionGene
p9
g2
Ntp10
Rp11
(dp12
S'enabled'
p13
I01
sS'weight'
p14
F0.515825194314485
sS'key'
p15
g8
sbs(I-2
I0
tp16
g0
(g9
g2
Ntp17
Rp18
(dp19
g13
I01
sg14
F1.2731194415733393
sg15
g16
sbs(I6
I6
tp20
g0
(g9
g2
Ntp21
Rp22
(dp23
g13
I01
sg14
F-0.8700099019928732
sg15
g20
sbs(I2294
I2737
tp24
g0
(g9
g2
Ntp25
Rp26
(dp27
g13
I01
sg14
F2.4327718096347537
sg15
g24
sbs(I-2
I168
tp28
g0
(g9
g2
Ntp29
Rp30
(dp31
g13
I00
sg14
F0.609037017736477
sg15
g28
sbs(I1199
I9
tp32
g0
(g9
g2
Ntp33
Rp34
(dp35
g13
I01
sg14
F-0.7238911942809022
sg15
g32
sbs(I168
I4
tp36
g0
(g9
g2
Ntp37
Rp38
(dp39
g13
I00
sg14
F-0.43418044259217753
sg15
g36
sbs(I168
I2787
tp40
g0
(g9
g2
Ntp41
Rp42
(dp43
g13
I01
sg14
F2.869335368700652
sg15
g40
sbs(I-3
I7
tp44
g0
(g9
g2
Ntp45
Rp46
(dp47
g13
I01
sg14
F1.4429557640045452
sg15
g44
sbs(I5
I5
tp48
g0
(g9
g2
Ntp49
Rp50
(dp51
g13
I00
sg14
F-0.16603273220344122
sg15
g48
sbs(I-3
I168
tp52
g0
(g9
g2
Ntp53
Rp54
(dp55
g13
I01
sg14
F0.22670708520415006
sg15
g52
sbs(I-6
I0
tp56
g0
(g9
g2
Ntp57
Rp58
(dp59
g13
I00
sg14
F1.0591025192368824
sg15
g56
sbs(I4
I4
tp60
g0
(g9
g2
Ntp61
Rp62
(dp63
g13
I01
sg14
F1.564610183188426
sg15
g60
sbs(I1199
I1
tp64
g0
(g9
g2
Ntp65
Rp66
(dp67
g13
I01
sg14
F0.7360275447358868
sg15
g64
sbs(I-6
I168
tp68
g0
(g9
g2
Ntp69
Rp70
(dp71
g13
I00
sg14
F-0.8897126131192875
sg15
g68
sbs(I-10
I168
tp72
g0
(g9
g2
Ntp73
Rp74
(dp75
g13
I01
sg14
F-0.5750300612432466
sg15
g72
sbs(I-7
I1199
tp76
g0
(g9
g2
Ntp77
Rp78
(dp79
g13
I01
sg14
F0.07819626610223318
sg15
g76
sbs(I168
I5
tp80
g0
(g9
g2
Ntp81
Rp82
(dp83
g13
I00
sg14
F0.6052750697289911
sg15
g80
sbs(I1
I1
tp84
g0
(g9
g2
Ntp85
Rp86
(dp87
g13
I00
sg14
F-1.2153293321172147
sg15
g84
sbs(I168
I1199
tp88
g0
(g9
g2
Ntp89
Rp90
(dp91
g13
I01
sg14
F-0.41104568515469286
sg15
g88
sbs(I-1
I6
tp92
g0
(g9
g2
Ntp93
Rp94
(dp95
g13
I01
sg14
F1.7849446933266309
sg15
g92
sbs(I1199
I2294
tp96
g0
(g9
g2
Ntp97
Rp98
(dp99
g13
I01
sg14
F-1.4262612105146997
sg15
g96
sbs(I-9
I168
tp100
g0
(g9
g2
Ntp101
Rp102
(dp103
g13
I00
sg14
F-0.028270531359913795
sg15
g100
sbs(I2294
I1
tp104
g0
(g9
g2
Ntp105
Rp106
(dp107
g13
I00
sg14
F-0.246076710675267
sg15
g104
sbs(I3
I3
tp108
g0
(g9
g2
Ntp109
Rp110
(dp111
g13
I01
sg14
F-0.41520343938258164
sg15
g108
sbs(I2787
I3
tp112
g0
(g9
g2
Ntp113
Rp114
(dp115
g13
I01
sg14
F0.025303636853101368
sg15
g112
sbs(I2737
I5
tp116
g0
(g9
g2
Ntp117
Rp118
(dp119
g13
I01
sg14
F0.948359695169807
sg15
g116
sbs(I-7
I2737
tp120
g0
(g9
g2
Ntp121
Rp122
(dp123
g13
I01
sg14
F0.7777551793829943
sg15
g120
sbs(I2737
I1
tp124
g0
(g9
g2
Ntp125
Rp126
(dp127
g13
I01
sg14
F10.033549986955508
sg15
g124
sbs(I-9
I3
tp128
g0
(g9
g2
Ntp129
Rp130
(dp131
g13
I01
sg14
F-0.07826233066310578
sg15
g128
sbs(I8
I8
tp132
g0
(g9
g2
Ntp133
Rp134
(dp135
g13
I01
sg14
F0.13704844345975614
sg15
g132
sbs(I-10
I6
tp136
g0
(g9
g2
Ntp137
Rp138
(dp139
g13
I01
sg14
F0.7600042342674357
sg15
g136
sbssS'nodes'
p140
(dp141
I0
g0
(cneat.genes
DefaultNodeGene
p142
g2
Ntp143
Rp144
(dp145
S'activation'
p146
S'tanh'
p147
sS'bias'
p148
F8.77134950005064
sS'response'
p149
F1.0
sg15
I0
sS'aggregation'
p150
S'sum'
p151
sbsI1
g0
(g142
g2
Ntp152
Rp153
(dp154
g146
S'relu'
p155
sg148
F-5.061141643164961
sg149
F1.0
sg15
I1
sg150
g151
sbsI2
g0
(g142
g2
Ntp156
Rp157
(dp158
g146
g147
sg148
F-6.593307896550723
sg149
F1.0
sg15
I2
sg150
g151
sbsI3
g0
(g142
g2
Ntp159
Rp160
(dp161
g146
g147
sg148
F-1.813984488965706
sg149
F1.0
sg15
I3
sg150
g151
sbsI4
g0
(g142
g2
Ntp162
Rp163
(dp164
g146
g147
sg148
F-11.859634387390125
sg149
F1.0
sg15
I4
sg150
g151
sbsI5
g0
(g142
g2
Ntp165
Rp166
(dp167
g146
g147
sg148
F11.009813578486622
sg149
F1.0
sg15
I5
sg150
g151
sbsI6
g0
(g142
g2
Ntp168
Rp169
(dp170
g146
g147
sg148
F-0.1796636087687895
sg149
F1.0
sg15
I6
sg150
g151
sbsI7
g0
(g142
g2
Ntp171
Rp172
(dp173
g146
g147
sg148
F-2.0536808429320867
sg149
F1.0
sg15
I7
sg150
g151
sbsI8
g0
(g142
g2
Ntp174
Rp175
(dp176
g146
g147
sg148
F-1.7336338943636678
sg149
F1.0
sg15
I8
sg150
g151
sbsI9
g0
(g142
g2
Ntp177
Rp178
(dp179
g146
g147
sg148
F8.516340319401193
sg149
F1.0
sg15
I9
sg150
g151
sbsI1199
g0
(g142
g2
Ntp180
Rp181
(dp182
g146
g147
sg148
F-7.950289294928392
sg149
F1.0
sg15
I1199
sg150
g151
sbsI168
g0
(g142
g2
Ntp183
Rp184
(dp185
g146
g147
sg148
F13.524124515613368
sg149
F1.0
sg15
I168
sg150
g151
sbsI2787
g0
(g142
g2
Ntp186
Rp187
(dp188
g146
g147
sg148
F-20.801254919161835
sg149
F1.0
sg15
I2787
sg150
g151
sbsI2294
g0
(g142
g2
Ntp189
Rp190
(dp191
g146
g155
sg148
F10.755179504664197
sg149
F1.0
sg15
I2294
sg150
g151
sbsI2737
g0
(g142
g2
Ntp192
Rp193
(dp194
g146
g155
sg148
F-1.0130356222051136
sg149
F1.0
sg15
I2737
sg150
g151
sbssg15
I10814
sS'fitness'
p195
F3.9572068257239006
sb.