ccopy_reg
_reconstructor
p0
(cneat.genome
DefaultGenome
p1
c__builtin__
object
p2
Ntp3
Rp4
(dp5
S'connections'
p6
(dp7
(I-1
I2619
tp8
g0
(cneat.genes
DefaultConnectionGene
p9
g2
Ntp10
Rp11
(dp12
S'enabled'
p13
I01
sS'weight'
p14
F-0.7557631513782856
sS'key'
p15
g8
sbs(I-3
I7
tp16
g0
(g9
g2
Ntp17
Rp18
(dp19
g13
I00
sg14
F-0.6072363098628656
sg15
g16
sbs(I8
I8
tp20
g0
(g9
g2
Ntp21
Rp22
(dp23
g13
I00
sg14
F-0.05452811544391177
sg15
g20
sbs(I5
I5
tp24
g0
(g9
g2
Ntp25
Rp26
(dp27
g13
I01
sg14
F0.06071154377619137
sg15
g24
sbs(I1551
I9
tp28
g0
(g9
g2
Ntp29
Rp30
(dp31
g13
I01
sg14
F0.8502301705806394
sg15
g28
sbs(I-5
I2223
tp32
g0
(g9
g2
Ntp33
Rp34
(dp35
g13
I01
sg14
F0.8739313801529358
sg15
g32
sbs(I2388
I8
tp36
g0
(g9
g2
Ntp37
Rp38
(dp39
g13
I01
sg14
F-1.031363094280575
sg15
g36
sbs(I4
I4
tp40
g0
(g9
g2
Ntp41
Rp42
(dp43
g13
I01
sg14
F0.2594204067108623
sg15
g40
sbs(I8
I2388
tp44
g0
(g9
g2
Ntp45
Rp46
(dp47
g13
I01
sg14
F-3.241564348648473
sg15
g44
sbs(I3578
I5
tp48
g0
(g9
g2
Ntp49
Rp50
(dp51
g13
I01
sg14
F-0.459017165470613
sg15
g48
sbs(I2619
I2223
tp52
g0
(g9
g2
Ntp53
Rp54
(dp55
g13
I01
sg14
F3.805772676975967
sg15
g52
sbs(I-4
I8
tp56
g0
(g9
g2
Ntp57
Rp58
(dp59
g13
I01
sg14
F-0.5087597835797176
sg15
g56
sbs(I-7
I0
tp60
g0
(g9
g2
Ntp61
Rp62
(dp63
g13
I00
sg14
F2.3277688441167967
sg15
g60
sbs(I-2
I3578
tp64
g0
(g9
g2
Ntp65
Rp66
(dp67
g13
I01
sg14
F1.3562691708956658
sg15
g64
sbs(I-2
I5
tp68
g0
(g9
g2
Ntp69
Rp70
(dp71
g13
I00
sg14
F0.05178294222319002
sg15
g68
sbs(I-6
I0
tp72
g0
(g9
g2
Ntp73
Rp74
(dp75
g13
I00
sg14
F-1.7421852095439814
sg15
g72
sbs(I-10
I3404
tp76
g0
(g9
g2
Ntp77
Rp78
(dp79
g13
I01
sg14
F1.7172222715796308
sg15
g76
sbs(I2223
I1
tp80
g0
(g9
g2
Ntp81
Rp82
(dp83
g13
I01
sg14
F6.862156450943866
sg15
g80
sbs(I-10
I0
tp84
g0
(g9
g2
Ntp85
Rp86
(dp87
g13
I01
sg14
F0.4927979359875405
sg15
g84
sbs(I-5
I2619
tp88
g0
(g9
g2
Ntp89
Rp90
(dp91
g13
I00
sg14
F1.0651020247808451
sg15
g88
sbssS'nodes'
p92
(dp93
I0
g0
(cneat.genes
DefaultNodeGene
p94
g2
Ntp95
Rp96
(dp97
S'activation'
p98
S'tanh'
p99
sS'bias'
p100
F-6.204701633095865
sS'response'
p101
F1.0
sg15
I0
sS'aggregation'
p102
S'sum'
p103
sbsI1
g0
(g94
g2
Ntp104
Rp105
(dp106
g98
S'relu'
p107
sg100
F35.14121966632002
sg101
F1.0
sg15
I1
sg102
g103
sbsI2
g0
(g94
g2
Ntp108
Rp109
(dp110
g98
g99
sg100
F3.3221557629167817
sg101
F1.0
sg15
I2
sg102
g103
sbsI3
g0
(g94
g2
Ntp111
Rp112
(dp113
g98
g99
sg100
F1.2946933533101712
sg101
F1.0
sg15
I3
sg102
g103
sbsI4
g0
(g94
g2
Ntp114
Rp115
(dp116
g98
g99
sg100
F3.372414823577687
sg101
F1.0
sg15
I4
sg102
g103
sbsI5
g0
(g94
g2
Ntp117
Rp118
(dp119
g98
g99
sg100
F-9.027247226645978
sg101
F1.0
sg15
I5
sg102
g103
sbsI6
g0
(g94
g2
Ntp120
Rp121
(dp122
g98
g99
sg100
F-5.432858873619834
sg101
F1.0
sg15
I6
sg102
g103
sbsI7
g0
(g94
g2
Ntp123
Rp124
(dp125
g98
g99
sg100
F2.063149894461847
sg101
F1.0
sg15
I7
sg102
g103
sbsI8
g0
(g94
g2
Ntp126
Rp127
(dp128
g98
g99
sg100
F7.9047419000212304
sg101
F1.0
sg15
I8
sg102
g103
sbsI9
g0
(g94
g2
Ntp129
Rp130
(dp131
g98
g99
sg100
F-1.6391786359591272
sg101
F1.0
sg15
I9
sg102
g103
sbsI3404
g0
(g94
g2
Ntp132
Rp133
(dp134
g98
g99
sg100
F-11.783841764042116
sg101
F1.0
sg15
I3404
sg102
g103
sbsI2223
g0
(g94
g2
Ntp135
Rp136
(dp137
g98
g107
sg100
F17.21383986900741
sg101
F1.0
sg15
I2223
sg102
g103
sbsI2388
g0
(g94
g2
Ntp138
Rp139
(dp140
g98
g99
sg100
F6.592308417134974
sg101
F1.0
sg15
I2388
sg102
g103
sbsI1551
g0
(g94
g2
Ntp141
Rp142
(dp143
g98
g99
sg100
F-10.938135876122802
sg101
F1.0
sg15
I1551
sg102
g103
sbsI3578
g0
(g94
g2
Ntp144
Rp145
(dp146
g98
g107
sg100
F-19.21376605568863
sg101
F1.0
sg15
I3578
sg102
g103
sbsI2619
g0
(g94
g2
Ntp147
Rp148
(dp149
g98
g107
sg100
F5.068483800974746
sg101
F1.0
sg15
I2619
sg102
g103
sbssg15
I10829
sS'fitness'
p150
F4.412171846378392
sb.