ccopy_reg
_reconstructor
p0
(cneat.genome
DefaultGenome
p1
c__builtin__
object
p2
Ntp3
Rp4
(dp5
S'connections'
p6
(dp7
(I-10
I1827
tp8
g0
(cneat.genes
DefaultConnectionGene
p9
g2
Ntp10
Rp11
(dp12
S'enabled'
p13
I01
sS'weight'
p14
F1.7835290385897111
sS'key'
p15
g8
sbs(I7
I1827
tp16
g0
(g9
g2
Ntp17
Rp18
(dp19
g13
I01
sg14
F0.04876733869794655
sg15
g16
sbs(I8
I8
tp20
g0
(g9
g2
Ntp21
Rp22
(dp23
g13
I00
sg14
F-0.6109436754393296
sg15
g20
sbs(I3
I1827
tp24
g0
(g9
g2
Ntp25
Rp26
(dp27
g13
I01
sg14
F-1.7795684221829418
sg15
g24
sbs(I-2
I1827
tp28
g0
(g9
g2
Ntp29
Rp30
(dp31
g13
I01
sg14
F1.0589786459228459
sg15
g28
sbs(I-5
I2223
tp32
g0
(g9
g2
Ntp33
Rp34
(dp35
g13
I01
sg14
F-2.7093161312391922
sg15
g32
sbs(I4
I4
tp36
g0
(g9
g2
Ntp37
Rp38
(dp39
g13
I00
sg14
F1.192547099254074
sg15
g36
sbs(I2619
I2223
tp40
g0
(g9
g2
Ntp41
Rp42
(dp43
g13
I01
sg14
F8.736292827710658
sg15
g40
sbs(I3316
I0
tp44
g0
(g9
g2
Ntp45
Rp46
(dp47
g13
I01
sg14
F0.5915948423967856
sg15
g44
sbs(I-7
I0
tp48
g0
(g9
g2
Ntp49
Rp50
(dp51
g13
I01
sg14
F-1.1824652007459657
sg15
g48
sbs(I-5
I2619
tp52
g0
(g9
g2
Ntp53
Rp54
(dp55
g13
I01
sg14
F-3.572966004245199
sg15
g52
sbs(I-6
I4
tp56
g0
(g9
g2
Ntp57
Rp58
(dp59
g13
I00
sg14
F-0.7281967535617533
sg15
g56
sbs(I-3
I0
tp60
g0
(g9
g2
Ntp61
Rp62
(dp63
g13
I01
sg14
F2.283808267606033
sg15
g60
sbs(I-6
I0
tp64
g0
(g9
g2
Ntp65
Rp66
(dp67
g13
I00
sg14
F-0.007215984264955622
sg15
g64
sbs(I-8
I1
tp68
g0
(g9
g2
Ntp69
Rp70
(dp71
g13
I01
sg14
F-0.37759671203465095
sg15
g68
sbs(I2223
I1
tp72
g0
(g9
g2
Ntp73
Rp74
(dp75
g13
I01
sg14
F10.275042956380034
sg15
g72
sbs(I-7
I9
tp76
g0
(g9
g2
Ntp77
Rp78
(dp79
g13
I00
sg14
F-0.6800131977376042
sg15
g76
sbs(I5
I5
tp80
g0
(g9
g2
Ntp81
Rp82
(dp83
g13
I01
sg14
F-1.1756849756919554
sg15
g80
sbssS'nodes'
p84
(dp85
I0
g0
(cneat.genes
DefaultNodeGene
p86
g2
Ntp87
Rp88
(dp89
S'activation'
p90
S'tanh'
p91
sS'bias'
p92
F-9.088357881578425
sS'response'
p93
F1.0
sg15
I0
sS'aggregation'
p94
S'sum'
p95
sbsI1
g0
(g86
g2
Ntp96
Rp97
(dp98
g90
S'relu'
p99
sg92
F-14.93694282514846
sg93
F1.0
sg15
I1
sg94
g95
sbsI2
g0
(g86
g2
Ntp100
Rp101
(dp102
g90
g91
sg92
F0.14823230931448
sg93
F1.0
sg15
I2
sg94
g95
sbsI3
g0
(g86
g2
Ntp103
Rp104
(dp105
g90
g91
sg92
F-6.352696155683779
sg93
F1.0
sg15
I3
sg94
g95
sbsI4
g0
(g86
g2
Ntp106
Rp107
(dp108
g90
g91
sg92
F-8.87470079956262
sg93
F1.0
sg15
I4
sg94
g95
sbsI5
g0
(g86
g2
Ntp109
Rp110
(dp111
g90
g91
sg92
F-10.545834153385764
sg93
F1.0
sg15
I5
sg94
g95
sbsI6
g0
(g86
g2
Ntp112
Rp113
(dp114
g90
g91
sg92
F-11.71406514965472
sg93
F1.0
sg15
I6
sg94
g95
sbsI7
g0
(g86
g2
Ntp115
Rp116
(dp117
g90
g91
sg92
F26.564484125937682
sg93
F1.0
sg15
I7
sg94
g95
sbsI8
g0
(g86
g2
Ntp118
Rp119
(dp120
g90
g91
sg92
F-14.63115052325751
sg93
F1.0
sg15
I8
sg94
g95
sbsI9
g0
(g86
g2
Ntp121
Rp122
(dp123
g90
g91
sg92
F23.815026829359955
sg93
F1.0
sg15
I9
sg94
g95
sbsI2223
g0
(g86
g2
Ntp124
Rp125
(dp126
g90
g99
sg92
F-2.838621143042155
sg93
F1.0
sg15
I2223
sg94
g95
sbsI1827
g0
(g86
g2
Ntp127
Rp128
(dp129
g90
g91
sg92
F-0.03089401639004208
sg93
F1.0
sg15
I1827
sg94
g95
sbsI3316
g0
(g86
g2
Ntp130
Rp131
(dp132
g90
g91
sg92
F-8.692867762020933
sg93
F1.0
sg15
I3316
sg94
g95
sbsI2619
g0
(g86
g2
Ntp133
Rp134
(dp135
g90
g99
sg92
F3.983964972792356
sg93
F1.0
sg15
I2619
sg94
g95
sbsI3165
g0
(g86
g2
Ntp136
Rp137
(dp138
g90
g91
sg92
F-8.137835402980324
sg93
F1.0
sg15
I3165
sg94
g95
sbssg15
I10892
sS'fitness'
p139
F3.8483997902608116
sb.