ccopy_reg
_reconstructor
p0
(cneat.genome
DefaultGenome
p1
c__builtin__
object
p2
Ntp3
Rp4
(dp5
S'connections'
p6
(dp7
(I-10
I1827
tp8
g0
(cneat.genes
DefaultConnectionGene
p9
g2
Ntp10
Rp11
(dp12
S'enabled'
p13
I01
sS'weight'
p14
F-0.34902608965003384
sS'key'
p15
g8
sbs(I3
I1827
tp16
g0
(g9
g2
Ntp17
Rp18
(dp19
g13
I01
sg14
F-0.9119575953394935
sg15
g16
sbs(I-5
I2223
tp20
g0
(g9
g2
Ntp21
Rp22
(dp23
g13
I01
sg14
F-3.1083851198301202
sg15
g20
sbs(I3316
I0
tp24
g0
(g9
g2
Ntp25
Rp26
(dp27
g13
I01
sg14
F1.3236254727774481
sg15
g24
sbs(I-7
I0
tp28
g0
(g9
g2
Ntp29
Rp30
(dp31
g13
I01
sg14
F1.3639206875490404
sg15
g28
sbs(I-3
I0
tp32
g0
(g9
g2
Ntp33
Rp34
(dp35
g13
I01
sg14
F-0.64519806077757
sg15
g32
sbs(I-8
I1
tp36
g0
(g9
g2
Ntp37
Rp38
(dp39
g13
I01
sg14
F1.0024251159055648
sg15
g36
sbs(I-3
I3226
tp40
g0
(g9
g2
Ntp41
Rp42
(dp43
g13
I01
sg14
F-0.24033500106349065
sg15
g40
sbs(I5
I5
tp44
g0
(g9
g2
Ntp45
Rp46
(dp47
g13
I01
sg14
F-1.7753357941301138
sg15
g44
sbs(I-6
I0
tp48
g0
(g9
g2
Ntp49
Rp50
(dp51
g13
I00
sg14
F-1.0325642199051641
sg15
g48
sbs(I4
I4
tp52
g0
(g9
g2
Ntp53
Rp54
(dp55
g13
I00
sg14
F0.4513785498626411
sg15
g52
sbs(I2223
I1
tp56
g0
(g9
g2
Ntp57
Rp58
(dp59
g13
I01
sg14
F10.62766687181333
sg15
g56
sbs(I-6
I4
tp60
g0
(g9
g2
Ntp61
Rp62
(dp63
g13
I00
sg14
F-1.17451658683201
sg15
g60
sbs(I3226
I7
tp64
g0
(g9
g2
Ntp65
Rp66
(dp67
g13
I00
sg14
F2.7521711135966145
sg15
g64
sbs(I2619
I2223
tp68
g0
(g9
g2
Ntp69
Rp70
(dp71
g13
I01
sg14
F8.972060238709254
sg15
g68
sbs(I-6
I3165
tp72
g0
(g9
g2
Ntp73
Rp74
(dp75
g13
I00
sg14
F-0.22428147533332082
sg15
g72
sbs(I2223
I4
tp76
g0
(g9
g2
Ntp77
Rp78
(dp79
g13
I01
sg14
F3.259399040281325
sg15
g76
sbs(I-7
I9
tp80
g0
(g9
g2
Ntp81
Rp82
(dp83
g13
I00
sg14
F-1.6962551594992112
sg15
g80
sbs(I7
I1827
tp84
g0
(g9
g2
Ntp85
Rp86
(dp87
g13
I01
sg14
F0.09987228637660202
sg15
g84
sbs(I-5
I2619
tp88
g0
(g9
g2
Ntp89
Rp90
(dp91
g13
I01
sg14
F-2.464447874288055
sg15
g88
sbs(I4
I3643
tp92
g0
(g9
g2
Ntp93
Rp94
(dp95
g13
I01
sg14
F0.8487763486176221
sg15
g92
sbs(I8
I8
tp96
g0
(g9
g2
Ntp97
Rp98
(dp99
g13
I01
sg14
F-0.4371732219533608
sg15
g96
sbs(I3643
I4
tp100
g0
(g9
g2
Ntp101
Rp102
(dp103
g13
I01
sg14
F0.26683896941076884
sg15
g100
sbssS'nodes'
p104
(dp105
I0
g0
(cneat.genes
DefaultNodeGene
p106
g2
Ntp107
Rp108
(dp109
S'activation'
p110
S'tanh'
p111
sS'bias'
p112
F5.760822739692181
sS'response'
p113
F1.0
sg15
I0
sS'aggregation'
p114
S'sum'
p115
sbsI1
g0
(g106
g2
Ntp116
Rp117
(dp118
g110
S'relu'
p119
sg112
F-1.7860661950953218
sg113
F1.0
sg15
I1
sg114
g115
sbsI2
g0
(g106
g2
Ntp120
Rp121
(dp122
g110
g111
sg112
F-3.6090310803230783
sg113
F1.0
sg15
I2
sg114
g115
sbsI3
g0
(g106
g2
Ntp123
Rp124
(dp125
g110
g111
sg112
F-6.834649493332213
sg113
F1.0
sg15
I3
sg114
g115
sbsI4
g0
(g106
g2
Ntp126
Rp127
(dp128
g110
g111
sg112
F12.342393175838382
sg113
F1.0
sg15
I4
sg114
g115
sbsI5
g0
(g106
g2
Ntp129
Rp130
(dp131
g110
g111
sg112
F-9.79485020059718
sg113
F1.0
sg15
I5
sg114
g115
sbsI6
g0
(g106
g2
Ntp132
Rp133
(dp134
g110
g111
sg112
F-11.43854683250555
sg113
F1.0
sg15
I6
sg114
g115
sbsI7
g0
(g106
g2
Ntp135
Rp136
(dp137
g110
g111
sg112
F-3.9448129406906274
sg113
F1.0
sg15
I7
sg114
g115
sbsI8
g0
(g106
g2
Ntp138
Rp139
(dp140
g110
g111
sg112
F-13.699749537566326
sg113
F1.0
sg15
I8
sg114
g115
sbsI9
g0
(g106
g2
Ntp141
Rp142
(dp143
g110
g111
sg112
F21.582744141680585
sg113
F1.0
sg15
I9
sg114
g115
sbsI3643
g0
(g106
g2
Ntp144
Rp145
(dp146
g110
g119
sg112
F19.027131260976997
sg113
F1.0
sg15
I3643
sg114
g115
sbsI2223
g0
(g106
g2
Ntp147
Rp148
(dp149
g110
g119
sg112
F-3.9107813383094165
sg113
F1.0
sg15
I2223
sg114
g115
sbsI1827
g0
(g106
g2
Ntp150
Rp151
(dp152
g110
g111
sg112
F0.08406923730733562
sg113
F1.0
sg15
I1827
sg114
g115
sbsI3316
g0
(g106
g2
Ntp153
Rp154
(dp155
g110
g119
sg112
F10.876331811121695
sg113
F1.0
sg15
I3316
sg114
g115
sbsI3226
g0
(g106
g2
Ntp156
Rp157
(dp158
g110
g111
sg112
F-7.418034998668684
sg113
F1.0
sg15
I3226
sg114
g115
sbsI2619
g0
(g106
g2
Ntp159
Rp160
(dp161
g110
g119
sg112
F3.616929285667361
sg113
F1.0
sg15
I2619
sg114
g115
sbsI3165
g0
(g106
g2
Ntp162
Rp163
(dp164
g110
g111
sg112
F-7.440801055664516
sg113
F1.0
sg15
I3165
sg114
g115
sbssg15
I10895
sS'fitness'
p165
F4.793877858722727
sb.