ccopy_reg
_reconstructor
p0
(cneat.genome
DefaultGenome
p1
c__builtin__
object
p2
Ntp3
Rp4
(dp5
S'connections'
p6
(dp7
(I257
I3
tp8
g0
(cneat.genes
DefaultConnectionGene
p9
g2
Ntp10
Rp11
(dp12
S'enabled'
p13
I00
sS'weight'
p14
F1.8333540081425603
sS'key'
p15
g8
sbs(I255
I8
tp16
g0
(g9
g2
Ntp17
Rp18
(dp19
g13
I01
sg14
F0.5624615857133546
sg15
g16
sbs(I-9
I255
tp20
g0
(g9
g2
Ntp21
Rp22
(dp23
g13
I01
sg14
F0.1959657685876407
sg15
g20
sbs(I6
I6
tp24
g0
(g9
g2
Ntp25
Rp26
(dp27
g13
I01
sg14
F-0.26904581401477684
sg15
g24
sbs(I258
I1
tp28
g0
(g9
g2
Ntp29
Rp30
(dp31
g13
I01
sg14
F-2.324007687626752
sg15
g28
sbs(I-4
I258
tp32
g0
(g9
g2
Ntp33
Rp34
(dp35
g13
I01
sg14
F-3.3799064880412804
sg15
g32
sbs(I-10
I258
tp36
g0
(g9
g2
Ntp37
Rp38
(dp39
g13
I00
sg14
F-1.5353510380836932
sg15
g36
sbs(I257
I6
tp40
g0
(g9
g2
Ntp41
Rp42
(dp43
g13
I00
sg14
F-0.054757055764630656
sg15
g40
sbs(I-5
I255
tp44
g0
(g9
g2
Ntp45
Rp46
(dp47
g13
I01
sg14
F-1.5670130542353866
sg15
g44
sbs(I258
I5
tp48
g0
(g9
g2
Ntp49
Rp50
(dp51
g13
I01
sg14
F-0.4653462558021582
sg15
g48
sbs(I-6
I258
tp52
g0
(g9
g2
Ntp53
Rp54
(dp55
g13
I01
sg14
F0.9354470673600789
sg15
g52
sbs(I255
I0
tp56
g0
(g9
g2
Ntp57
Rp58
(dp59
g13
I00
sg14
F-0.7778529346703993
sg15
g56
sbs(I257
I2
tp60
g0
(g9
g2
Ntp61
Rp62
(dp63
g13
I01
sg14
F0.8649605196680181
sg15
g60
sbs(I411
I3
tp64
g0
(g9
g2
Ntp65
Rp66
(dp67
g13
I00
sg14
F0.9415419690861647
sg15
g64
sbs(I-5
I257
tp68
g0
(g9
g2
Ntp69
Rp70
(dp71
g13
I01
sg14
F0.29606199584540716
sg15
g68
sbs(I3
I3
tp72
g0
(g9
g2
Ntp73
Rp74
(dp75
g13
I00
sg14
F-1.6399790424819023
sg15
g72
sbs(I537
I4
tp76
g0
(g9
g2
Ntp77
Rp78
(dp79
g13
I01
sg14
F0.4792005348736358
sg15
g76
sbs(I255
I4
tp80
g0
(g9
g2
Ntp81
Rp82
(dp83
g13
I01
sg14
F-0.31249628273203217
sg15
g80
sbs(I-10
I255
tp84
g0
(g9
g2
Ntp85
Rp86
(dp87
g13
I01
sg14
F3.0192511266645705
sg15
g84
sbs(I257
I5
tp88
g0
(g9
g2
Ntp89
Rp90
(dp91
g13
I00
sg14
F3.980614865180397
sg15
g88
sbs(I258
I2
tp92
g0
(g9
g2
Ntp93
Rp94
(dp95
g13
I01
sg14
F-0.4841320835147365
sg15
g92
sbs(I255
I3
tp96
g0
(g9
g2
Ntp97
Rp98
(dp99
g13
I01
sg14
F-0.06942650343706624
sg15
g96
sbs(I257
I411
tp100
g0
(g9
g2
Ntp101
Rp102
(dp103
g13
I01
sg14
F0.5470374011391176
sg15
g100
sbs(I257
I1
tp104
g0
(g9
g2
Ntp105
Rp106
(dp107
g13
I01
sg14
F-0.8927263462675161
sg15
g104
sbs(I-2
I258
tp108
g0
(g9
g2
Ntp109
Rp110
(dp111
g13
I00
sg14
F-0.3410652946164585
sg15
g108
sbs(I-7
I255
tp112
g0
(g9
g2
Ntp113
Rp114
(dp115
g13
I00
sg14
F0.9941235238833301
sg15
g112
sbs(I-1
I258
tp116
g0
(g9
g2
Ntp117
Rp118
(dp119
g13
I01
sg14
F-0.7055225261389987
sg15
g116
sbs(I255
I255
tp120
g0
(g9
g2
Ntp121
Rp122
(dp123
g13
I01
sg14
F0.9639649955585434
sg15
g120
sbs(I257
I4
tp124
g0
(g9
g2
Ntp125
Rp126
(dp127
g13
I01
sg14
F0.6610498300788157
sg15
g124
sbs(I-2
I255
tp128
g0
(g9
g2
Ntp129
Rp130
(dp131
g13
I00
sg14
F0.3065978773448417
sg15
g128
sbs(I257
I9
tp132
g0
(g9
g2
Ntp133
Rp134
(dp135
g13
I01
sg14
F0.2655744301949152
sg15
g132
sbs(I255
I2
tp136
g0
(g9
g2
Ntp137
Rp138
(dp139
g13
I01
sg14
F0.8406826841893505
sg15
g136
sbs(I-8
I255
tp140
g0
(g9
g2
Ntp141
Rp142
(dp143
g13
I01
sg14
F3.4549549922057166
sg15
g140
sbs(I-3
I255
tp144
g0
(g9
g2
Ntp145
Rp146
(dp147
g13
I01
sg14
F1.5709954060734836
sg15
g144
sbs(I2
I2
tp148
g0
(g9
g2
Ntp149
Rp150
(dp151
g13
I01
sg14
F-1.3713428352966677
sg15
g148
sbs(I257
I257
tp152
g0
(g9
g2
Ntp153
Rp154
(dp155
g13
I01
sg14
F-1.3653259557919761
sg15
g152
sbs(I258
I537
tp156
g0
(g9
g2
Ntp157
Rp158
(dp159
g13
I01
sg14
F1.49446578669258
sg15
g156
sbs(I258
I4
tp160
g0
(g9
g2
Ntp161
Rp162
(dp163
g13
I00
sg14
F0.5163146070480477
sg15
g160
sbs(I255
I1
tp164
g0
(g9
g2
Ntp165
Rp166
(dp167
g13
I01
sg14
F-0.490717937556597
sg15
g164
sbssS'nodes'
p168
(dp169
I0
g0
(cneat.genes
DefaultNodeGene
p170
g2
Ntp171
Rp172
(dp173
S'activation'
p174
S'tanh'
p175
sS'bias'
p176
F30.31142478740033
sS'response'
p177
F1.0
sg15
I0
sS'aggregation'
p178
S'sum'
p179
sbsI1
g0
(g170
g2
Ntp180
Rp181
(dp182
g174
S'relu'
p183
sg176
F6.8691616902078145
sg177
F1.0
sg15
I1
sg178
g179
sbsI2
g0
(g170
g2
Ntp184
Rp185
(dp186
g174
g175
sg176
F-9.86459637637559
sg177
F1.0
sg15
I2
sg178
g179
sbsI3
g0
(g170
g2
Ntp187
Rp188
(dp189
g174
g175
sg176
F6.5468284975436095
sg177
F1.0
sg15
I3
sg178
g179
sbsI4
g0
(g170
g2
Ntp190
Rp191
(dp192
g174
g175
sg176
F-10.02453926155806
sg177
F1.0
sg15
I4
sg178
g179
sbsI5
g0
(g170
g2
Ntp193
Rp194
(dp195
g174
g175
sg176
F28.423311390392254
sg177
F1.0
sg15
I5
sg178
g179
sbsI6
g0
(g170
g2
Ntp196
Rp197
(dp198
g174
g175
sg176
F-13.67731454688804
sg177
F1.0
sg15
I6
sg178
g179
sbsI7
g0
(g170
g2
Ntp199
Rp200
(dp201
g174
g183
sg176
F-9.258675715899818
sg177
F1.0
sg15
I7
sg178
g179
sbsI8
g0
(g170
g2
Ntp202
Rp203
(dp204
g174
g175
sg176
F-13.677848417943302
sg177
F1.0
sg15
I8
sg178
g179
sbsI9
g0
(g170
g2
Ntp205
Rp206
(dp207
g174
g175
sg176
F8.958561280822364
sg177
F1.0
sg15
I9
sg178
g179
sbsI257
g0
(g170
g2
Ntp208
Rp209
(dp210
g174
g175
sg176
F-15.73301799931622
sg177
F1.0
sg15
I257
sg178
g179
sbsI258
g0
(g170
g2
Ntp211
Rp212
(dp213
g174
g175
sg176
F11.594776829892252
sg177
F1.0
sg15
I258
sg178
g179
sbsI537
g0
(g170
g2
Ntp214
Rp215
(dp216
g174
g183
sg176
F-11.971550954483108
sg177
F1.0
sg15
I537
sg178
g179
sbsI411
g0
(g170
g2
Ntp217
Rp218
(dp219
g174
g175
sg176
F4.459531173890991
sg177
F1.0
sg15
I411
sg178
g179
sbsI255
g0
(g170
g2
Ntp220
Rp221
(dp222
g174
g175
sg176
F0.7947319273549128
sg177
F1.0
sg15
I255
sg178
g179
sbssg15
I109
sS'fitness'
p223
F0.010820139895720171
sb.