ccopy_reg
_reconstructor
p0
(cneat.genome
DefaultGenome
p1
c__builtin__
object
p2
Ntp3
Rp4
(dp5
S'connections'
p6
(dp7
(I-3
I70
tp8
g0
(cneat.genes
DefaultConnectionGene
p9
g2
Ntp10
Rp11
(dp12
S'enabled'
p13
I01
sS'weight'
p14
F0.779462254069157
sS'key'
p15
g8
sbs(I70
I4
tp16
g0
(g9
g2
Ntp17
Rp18
(dp19
g13
I01
sg14
F-0.5564948299905572
sg15
g16
sbs(I-7
I70
tp20
g0
(g9
g2
Ntp21
Rp22
(dp23
g13
I01
sg14
F-0.5361622739036197
sg15
g20
sbs(I70
I0
tp24
g0
(g9
g2
Ntp25
Rp26
(dp27
g13
I01
sg14
F1.595960494654944
sg15
g24
sbs(I-17
I70
tp28
g0
(g9
g2
Ntp29
Rp30
(dp31
g13
I01
sg14
F-0.6191120667252834
sg15
g28
sbs(I-12
I70
tp32
g0
(g9
g2
Ntp33
Rp34
(dp35
g13
I01
sg14
F1.3151405682201798
sg15
g32
sbs(I70
I5
tp36
g0
(g9
g2
Ntp37
Rp38
(dp39
g13
I01
sg14
F1.6280685142851263
sg15
g36
sbs(I-16
I70
tp40
g0
(g9
g2
Ntp41
Rp42
(dp43
g13
I01
sg14
F1.1557487260100883
sg15
g40
sbs(I70
I8
tp44
g0
(g9
g2
Ntp45
Rp46
(dp47
g13
I01
sg14
F0.10061586779262148
sg15
g44
sbs(I70
I1
tp48
g0
(g9
g2
Ntp49
Rp50
(dp51
g13
I01
sg14
F0.45706958139294185
sg15
g48
sbs(I-5
I70
tp52
g0
(g9
g2
Ntp53
Rp54
(dp55
g13
I01
sg14
F-0.49893168727862713
sg15
g52
sbs(I-10
I70
tp56
g0
(g9
g2
Ntp57
Rp58
(dp59
g13
I01
sg14
F-0.6516412691949007
sg15
g56
sbs(I-11
I70
tp60
g0
(g9
g2
Ntp61
Rp62
(dp63
g13
I01
sg14
F-1.1621966739016198
sg15
g60
sbs(I-6
I70
tp64
g0
(g9
g2
Ntp65
Rp66
(dp67
g13
I01
sg14
F0.11434278558012528
sg15
g64
sbs(I70
I9
tp68
g0
(g9
g2
Ntp69
Rp70
(dp71
g13
I01
sg14
F-1.5203956625841142
sg15
g68
sbs(I-15
I70
tp72
g0
(g9
g2
Ntp73
Rp74
(dp75
g13
I01
sg14
F1.2146378314709614
sg15
g72
sbs(I70
I6
tp76
g0
(g9
g2
Ntp77
Rp78
(dp79
g13
I01
sg14
F-0.4633284649912678
sg15
g76
sbs(I-20
I70
tp80
g0
(g9
g2
Ntp81
Rp82
(dp83
g13
I01
sg14
F1.352113295447519
sg15
g80
sbs(I70
I2
tp84
g0
(g9
g2
Ntp85
Rp86
(dp87
g13
I01
sg14
F-0.1899283709812778
sg15
g84
sbs(I-9
I70
tp88
g0
(g9
g2
Ntp89
Rp90
(dp91
g13
I01
sg14
F0.38420818067648466
sg15
g88
sbs(I-4
I70
tp92
g0
(g9
g2
Ntp93
Rp94
(dp95
g13
I01
sg14
F1.0738681005590571
sg15
g92
sbs(I70
I7
tp96
g0
(g9
g2
Ntp97
Rp98
(dp99
g13
I01
sg14
F0.6747460814006025
sg15
g96
sbs(I-13
I70
tp100
g0
(g9
g2
Ntp101
Rp102
(dp103
g13
I01
sg14
F1.0530678085853755
sg15
g100
sbs(I-8
I70
tp104
g0
(g9
g2
Ntp105
Rp106
(dp107
g13
I01
sg14
F-1.102600894249891
sg15
g104
sbs(I-18
I70
tp108
g0
(g9
g2
Ntp109
Rp110
(dp111
g13
I01
sg14
F0.6529258922241999
sg15
g108
sbs(I-19
I70
tp112
g0
(g9
g2
Ntp113
Rp114
(dp115
g13
I01
sg14
F0.8143384933719443
sg15
g112
sbs(I-14
I70
tp116
g0
(g9
g2
Ntp117
Rp118
(dp119
g13
I01
sg14
F-0.6693438279852454
sg15
g116
sbs(I70
I3
tp120
g0
(g9
g2
Ntp121
Rp122
(dp123
g13
I01
sg14
F-0.04803512472927782
sg15
g120
sbs(I-1
I70
tp124
g0
(g9
g2
Ntp125
Rp126
(dp127
g13
I01
sg14
F1.738908855052197
sg15
g124
sbs(I-2
I70
tp128
g0
(g9
g2
Ntp129
Rp130
(dp131
g13
I01
sg14
F2.0790120934229974
sg15
g128
sbssS'nodes'
p132
(dp133
I0
g0
(cneat.genes
DefaultNodeGene
p134
g2
Ntp135
Rp136
(dp137
S'activation'
p138
S'relu'
p139
sS'bias'
p140
F18.589506420454573
sS'response'
p141
F1.0
sg15
I0
sS'aggregation'
p142
S'sum'
p143
sbsI1
g0
(g134
g2
Ntp144
Rp145
(dp146
g138
g139
sg140
F-0.0983818472091357
sg141
F1.0
sg15
I1
sg142
g143
sbsI2
g0
(g134
g2
Ntp147
Rp148
(dp149
g138
S'tanh'
p150
sg140
F-3.881957038675907
sg141
F1.0
sg15
I2
sg142
g143
sbsI3
g0
(g134
g2
Ntp151
Rp152
(dp153
g138
g139
sg140
F6.985955168491034
sg141
F1.0
sg15
I3
sg142
g143
sbsI4
g0
(g134
g2
Ntp154
Rp155
(dp156
g138
g139
sg140
F22.010868632545815
sg141
F1.0
sg15
I4
sg142
g143
sbsI5
g0
(g134
g2
Ntp157
Rp158
(dp159
g138
g139
sg140
F-4.149914022728422
sg141
F1.0
sg15
I5
sg142
g143
sbsI6
g0
(g134
g2
Ntp160
Rp161
(dp162
g138
g139
sg140
F5.490883618974683
sg141
F1.0
sg15
I6
sg142
g143
sbsI7
g0
(g134
g2
Ntp163
Rp164
(dp165
g138
g139
sg140
F4.7907115894626005
sg141
F1.0
sg15
I7
sg142
g143
sbsI8
g0
(g134
g2
Ntp166
Rp167
(dp168
g138
g139
sg140
F-5.712111269822339
sg141
F1.0
sg15
I8
sg142
g143
sbsI9
g0
(g134
g2
Ntp169
Rp170
(dp171
g138
g139
sg140
F3.019191736764073
sg141
F1.0
sg15
I9
sg142
g143
sbsI70
g0
(g134
g2
Ntp172
Rp173
(dp174
g138
g139
sg140
F-17.502506909831766
sg141
F1.0
sg15
I70
sg142
g143
sbssg15
I109
sS'fitness'
p175
Nsb.