ccopy_reg
_reconstructor
p0
(cneat.genome
DefaultGenome
p1
c__builtin__
object
p2
Ntp3
Rp4
(dp5
S'connections'
p6
(dp7
(I-8
I168
tp8
g0
(cneat.genes
DefaultConnectionGene
p9
g2
Ntp10
Rp11
(dp12
S'enabled'
p13
I01
sS'weight'
p14
F-1.1458411150402386
sS'key'
p15
g8
sbs(I-5
I2223
tp16
g0
(g9
g2
Ntp17
Rp18
(dp19
g13
I01
sg14
F1.9676357732334462
sg15
g16
sbs(I-2
I168
tp20
g0
(g9
g2
Ntp21
Rp22
(dp23
g13
I01
sg14
F1.8430704863674179
sg15
g20
sbs(I-7
I0
tp24
g0
(g9
g2
Ntp25
Rp26
(dp27
g13
I00
sg14
F3.566951395891043
sg15
g24
sbs(I-2
I5
tp28
g0
(g9
g2
Ntp29
Rp30
(dp31
g13
I00
sg14
F-0.19777226319429847
sg15
g28
sbs(I168
I4
tp32
g0
(g9
g2
Ntp33
Rp34
(dp35
g13
I00
sg14
F-3.178952562586724
sg15
g32
sbs(I-3
I7
tp36
g0
(g9
g2
Ntp37
Rp38
(dp39
g13
I01
sg14
F-2.813473774835116
sg15
g36
sbs(I5
I5
tp40
g0
(g9
g2
Ntp41
Rp42
(dp43
g13
I01
sg14
F1.153740507198687
sg15
g40
sbs(I168
I0
tp44
g0
(g9
g2
Ntp45
Rp46
(dp47
g13
I00
sg14
F1.3410246734124056
sg15
g44
sbs(I4
I4
tp48
g0
(g9
g2
Ntp49
Rp50
(dp51
g13
I01
sg14
F1.566167751558687
sg15
g48
sbs(I3253
I168
tp52
g0
(g9
g2
Ntp53
Rp54
(dp55
g13
I01
sg14
F0.3875939302197417
sg15
g52
sbs(I2223
I1
tp56
g0
(g9
g2
Ntp57
Rp58
(dp59
g13
I01
sg14
F6.976172915898154
sg15
g56
sbs(I-10
I168
tp60
g0
(g9
g2
Ntp61
Rp62
(dp63
g13
I00
sg14
F1.7421968485371222
sg15
g60
sbs(I3289
I5
tp64
g0
(g9
g2
Ntp65
Rp66
(dp67
g13
I01
sg14
F-0.2115815369112896
sg15
g64
sbs(I-6
I3289
tp68
g0
(g9
g2
Ntp69
Rp70
(dp71
g13
I01
sg14
F0.6776957894239235
sg15
g68
sbs(I168
I1
tp72
g0
(g9
g2
Ntp73
Rp74
(dp75
g13
I00
sg14
F-0.9219340940759392
sg15
g72
sbs(I2619
I2223
tp76
g0
(g9
g2
Ntp77
Rp78
(dp79
g13
I01
sg14
F0.06990869744655975
sg15
g76
sbs(I-9
I168
tp80
g0
(g9
g2
Ntp81
Rp82
(dp83
g13
I01
sg14
F1.4031909924790205
sg15
g80
sbs(I-6
I5
tp84
g0
(g9
g2
Ntp85
Rp86
(dp87
g13
I00
sg14
F0.667149913065566
sg15
g84
sbs(I-7
I9
tp88
g0
(g9
g2
Ntp89
Rp90
(dp91
g13
I01
sg14
F-0.9955884139610192
sg15
g88
sbs(I-8
I3636
tp92
g0
(g9
g2
Ntp93
Rp94
(dp95
g13
I01
sg14
F0.9490701849117716
sg15
g92
sbs(I-5
I2619
tp96
g0
(g9
g2
Ntp97
Rp98
(dp99
g13
I00
sg14
F1.2030456445497608
sg15
g96
sbs(I-7
I3289
tp100
g0
(g9
g2
Ntp101
Rp102
(dp103
g13
I01
sg14
F0.5745786557999151
sg15
g100
sbs(I8
I8
tp104
g0
(g9
g2
Ntp105
Rp106
(dp107
g13
I00
sg14
F-0.2928133684090314
sg15
g104
sbs(I-6
I6
tp108
g0
(g9
g2
Ntp109
Rp110
(dp111
g13
I01
sg14
F1.03565431187245
sg15
g108
sbssS'nodes'
p112
(dp113
I0
g0
(cneat.genes
DefaultNodeGene
p114
g2
Ntp115
Rp116
(dp117
S'activation'
p118
S'tanh'
p119
sS'bias'
p120
F10.05562584696171
sS'response'
p121
F1.0
sg15
I0
sS'aggregation'
p122
S'sum'
p123
sbsI1
g0
(g114
g2
Ntp124
Rp125
(dp126
g118
S'relu'
p127
sg120
F38.405146796886015
sg121
F1.0
sg15
I1
sg122
g123
sbsI2
g0
(g114
g2
Ntp128
Rp129
(dp130
g118
g119
sg120
F-1.1594259210114863
sg121
F1.0
sg15
I2
sg122
g123
sbsI3
g0
(g114
g2
Ntp131
Rp132
(dp133
g118
g119
sg120
F-13.222843206713163
sg121
F1.0
sg15
I3
sg122
g123
sbsI4
g0
(g114
g2
Ntp134
Rp135
(dp136
g118
g119
sg120
F4.140157309951962
sg121
F1.0
sg15
I4
sg122
g123
sbsI5
g0
(g114
g2
Ntp137
Rp138
(dp139
g118
g119
sg120
F3.054844038921838
sg121
F1.0
sg15
I5
sg122
g123
sbsI6
g0
(g114
g2
Ntp140
Rp141
(dp142
g118
g119
sg120
F-0.9798328368485366
sg121
F1.0
sg15
I6
sg122
g123
sbsI7
g0
(g114
g2
Ntp143
Rp144
(dp145
g118
g119
sg120
F4.882519334278943
sg121
F1.0
sg15
I7
sg122
g123
sbsI8
g0
(g114
g2
Ntp146
Rp147
(dp148
g118
g119
sg120
F-9.166639297900259
sg121
F1.0
sg15
I8
sg122
g123
sbsI9
g0
(g114
g2
Ntp149
Rp150
(dp151
g118
g119
sg120
F1.651652929203921
sg121
F1.0
sg15
I9
sg122
g123
sbsI2223
g0
(g114
g2
Ntp152
Rp153
(dp154
g118
g119
sg120
F-22.285934233751206
sg121
F1.0
sg15
I2223
sg122
g123
sbsI168
g0
(g114
g2
Ntp155
Rp156
(dp157
g118
g119
sg120
F-1.1427005593972823
sg121
F1.0
sg15
I168
sg122
g123
sbsI3636
g0
(g114
g2
Ntp158
Rp159
(dp160
g118
g119
sg120
F11.190483132048756
sg121
F1.0
sg15
I3636
sg122
g123
sbsI3253
g0
(g114
g2
Ntp161
Rp162
(dp163
g118
g119
sg120
F-3.783593296772179
sg121
F1.0
sg15
I3253
sg122
g123
sbsI3289
g0
(g114
g2
Ntp164
Rp165
(dp166
g118
g119
sg120
F-7.845473559513273
sg121
F1.0
sg15
I3289
sg122
g123
sbsI2619
g0
(g114
g2
Ntp167
Rp168
(dp169
g118
g119
sg120
F1.0767561027248607
sg121
F1.0
sg15
I2619
sg122
g123
sbssg15
I10949
sS'fitness'
p170
Nsb.