ccopy_reg
_reconstructor
p0
(cneat.genome
DefaultGenome
p1
c__builtin__
object
p2
Ntp3
Rp4
(dp5
S'connections'
p6
(dp7
(I-8
I168
tp8
g0
(cneat.genes
DefaultConnectionGene
p9
g2
Ntp10
Rp11
(dp12
S'enabled'
p13
I00
sS'weight'
p14
F0.6125674554603869
sS'key'
p15
g8
sbs(I3
I1827
tp16
g0
(g9
g2
Ntp17
Rp18
(dp19
g13
I01
sg14
F1.5564653876538173
sg15
g16
sbs(I-5
I2223
tp20
g0
(g9
g2
Ntp21
Rp22
(dp23
g13
I01
sg14
F3.0912434873644714
sg15
g20
sbs(I-2
I168
tp24
g0
(g9
g2
Ntp25
Rp26
(dp27
g13
I01
sg14
F1.9233200993461068
sg15
g24
sbs(I-7
I0
tp28
g0
(g9
g2
Ntp29
Rp30
(dp31
g13
I00
sg14
F2.9376490062425185
sg15
g28
sbs(I-2
I5
tp32
g0
(g9
g2
Ntp33
Rp34
(dp35
g13
I00
sg14
F-1.8140549962324326
sg15
g32
sbs(I168
I4
tp36
g0
(g9
g2
Ntp37
Rp38
(dp39
g13
I00
sg14
F-0.2364236308285744
sg15
g36
sbs(I-3
I7
tp40
g0
(g9
g2
Ntp41
Rp42
(dp43
g13
I01
sg14
F-0.4477457120752558
sg15
g40
sbs(I5
I5
tp44
g0
(g9
g2
Ntp45
Rp46
(dp47
g13
I01
sg14
F1.7018371459471155
sg15
g44
sbs(I168
I0
tp48
g0
(g9
g2
Ntp49
Rp50
(dp51
g13
I01
sg14
F0.06785631254016461
sg15
g48
sbs(I-6
I1827
tp52
g0
(g9
g2
Ntp53
Rp54
(dp55
g13
I00
sg14
F0.2919888620622861
sg15
g52
sbs(I4
I4
tp56
g0
(g9
g2
Ntp57
Rp58
(dp59
g13
I01
sg14
F0.25892902341490215
sg15
g56
sbs(I2223
I1
tp60
g0
(g9
g2
Ntp61
Rp62
(dp63
g13
I01
sg14
F8.470186248606055
sg15
g60
sbs(I1827
I168
tp64
g0
(g9
g2
Ntp65
Rp66
(dp67
g13
I00
sg14
F-0.2880296902082353
sg15
g64
sbs(I-10
I168
tp68
g0
(g9
g2
Ntp69
Rp70
(dp71
g13
I00
sg14
F-1.585885313609922
sg15
g68
sbs(I3289
I5
tp72
g0
(g9
g2
Ntp73
Rp74
(dp75
g13
I01
sg14
F-0.21133508964273062
sg15
g72
sbs(I-6
I3289
tp76
g0
(g9
g2
Ntp77
Rp78
(dp79
g13
I01
sg14
F-0.07260213638852397
sg15
g76
sbs(I5
I1827
tp80
g0
(g9
g2
Ntp81
Rp82
(dp83
g13
I01
sg14
F-2.381909497753908
sg15
g80
sbs(I168
I1
tp84
g0
(g9
g2
Ntp85
Rp86
(dp87
g13
I00
sg14
F-0.35446975366870226
sg15
g84
sbs(I2619
I2223
tp88
g0
(g9
g2
Ntp89
Rp90
(dp91
g13
I01
sg14
F-0.111815380648391
sg15
g88
sbs(I-9
I168
tp92
g0
(g9
g2
Ntp93
Rp94
(dp95
g13
I01
sg14
F0.8114225943917586
sg15
g92
sbs(I-6
I5
tp96
g0
(g9
g2
Ntp97
Rp98
(dp99
g13
I00
sg14
F-0.2289181230710288
sg15
g96
sbs(I-7
I9
tp100
g0
(g9
g2
Ntp101
Rp102
(dp103
g13
I01
sg14
F-0.8281726349873038
sg15
g100
sbs(I-8
I3636
tp104
g0
(g9
g2
Ntp105
Rp106
(dp107
g13
I01
sg14
F0.35036896136166573
sg15
g104
sbs(I-5
I2619
tp108
g0
(g9
g2
Ntp109
Rp110
(dp111
g13
I01
sg14
F2.0215587004100053
sg15
g108
sbs(I-7
I3289
tp112
g0
(g9
g2
Ntp113
Rp114
(dp115
g13
I01
sg14
F0.2225081357655948
sg15
g112
sbs(I1
I2223
tp116
g0
(g9
g2
Ntp117
Rp118
(dp119
g13
I01
sg14
F0.9574175724478063
sg15
g116
sbs(I8
I8
tp120
g0
(g9
g2
Ntp121
Rp122
(dp123
g13
I00
sg14
F-1.4352700190540801
sg15
g120
sbs(I-2
I3289
tp124
g0
(g9
g2
Ntp125
Rp126
(dp127
g13
I01
sg14
F0.2167517674731787
sg15
g124
sbs(I-6
I6
tp128
g0
(g9
g2
Ntp129
Rp130
(dp131
g13
I01
sg14
F1.178079421975881
sg15
g128
sbssS'nodes'
p132
(dp133
I0
g0
(cneat.genes
DefaultNodeGene
p134
g2
Ntp135
Rp136
(dp137
S'activation'
p138
S'tanh'
p139
sS'bias'
p140
F-3.3884858789870846
sS'response'
p141
F1.0
sg15
I0
sS'aggregation'
p142
S'sum'
p143
sbsI1
g0
(g134
g2
Ntp144
Rp145
(dp146
g138
g139
sg140
F38.257794681646764
sg141
F1.0
sg15
I1
sg142
g143
sbsI2
g0
(g134
g2
Ntp147
Rp148
(dp149
g138
g139
sg140
F0.008040674932798364
sg141
F1.0
sg15
I2
sg142
g143
sbsI3
g0
(g134
g2
Ntp150
Rp151
(dp152
g138
g139
sg140
F-13.508937318731219
sg141
F1.0
sg15
I3
sg142
g143
sbsI4
g0
(g134
g2
Ntp153
Rp154
(dp155
g138
g139
sg140
F4.070592933989433
sg141
F1.0
sg15
I4
sg142
g143
sbsI5
g0
(g134
g2
Ntp156
Rp157
(dp158
g138
g139
sg140
F3.1765431256235495
sg141
F1.0
sg15
I5
sg142
g143
sbsI6
g0
(g134
g2
Ntp159
Rp160
(dp161
g138
g139
sg140
F-13.21837276396719
sg141
F1.0
sg15
I6
sg142
g143
sbsI7
g0
(g134
g2
Ntp162
Rp163
(dp164
g138
g139
sg140
F-1.1448297165122612
sg141
F1.0
sg15
I7
sg142
g143
sbsI8
g0
(g134
g2
Ntp165
Rp166
(dp167
g138
g139
sg140
F-7.346803292867168
sg141
F1.0
sg15
I8
sg142
g143
sbsI9
g0
(g134
g2
Ntp168
Rp169
(dp170
g138
g139
sg140
F1.8323187371284624
sg141
F1.0
sg15
I9
sg142
g143
sbsI2223
g0
(g134
g2
Ntp171
Rp172
(dp173
g138
S'relu'
p174
sg140
F7.784496947983335
sg141
F1.0
sg15
I2223
sg142
g143
sbsI168
g0
(g134
g2
Ntp175
Rp176
(dp177
g138
g139
sg140
F-2.6384025644397493
sg141
F1.0
sg15
I168
sg142
g143
sbsI1827
g0
(g134
g2
Ntp178
Rp179
(dp180
g138
g139
sg140
F-5.702752861289545
sg141
F1.0
sg15
I1827
sg142
g143
sbsI3636
g0
(g134
g2
Ntp181
Rp182
(dp183
g138
g139
sg140
F11.523596279628876
sg141
F1.0
sg15
I3636
sg142
g143
sbsI3253
g0
(g134
g2
Ntp184
Rp185
(dp186
g138
g139
sg140
F-3.853433517041885
sg141
F1.0
sg15
I3253
sg142
g143
sbsI3289
g0
(g134
g2
Ntp187
Rp188
(dp189
g138
g139
sg140
F-13.808722093643468
sg141
F1.0
sg15
I3289
sg142
g143
sbsI2619
g0
(g134
g2
Ntp190
Rp191
(dp192
g138
g139
sg140
F3.713564188387922
sg141
F1.0
sg15
I2619
sg142
g143
sbssg15
I10958
sS'fitness'
p193
Nsb.