ccopy_reg
_reconstructor
p0
(cneat.genome
DefaultGenome
p1
c__builtin__
object
p2
Ntp3
Rp4
(dp5
S'connections'
p6
(dp7
(I-8
I168
tp8
g0
(cneat.genes
DefaultConnectionGene
p9
g2
Ntp10
Rp11
(dp12
S'enabled'
p13
I01
sS'weight'
p14
F-1.9421619137655495
sS'key'
p15
g8
sbs(I3
I1827
tp16
g0
(g9
g2
Ntp17
Rp18
(dp19
g13
I01
sg14
F-0.6462313853446062
sg15
g16
sbs(I-5
I2223
tp20
g0
(g9
g2
Ntp21
Rp22
(dp23
g13
I01
sg14
F1.4188171805794547
sg15
g20
sbs(I-2
I168
tp24
g0
(g9
g2
Ntp25
Rp26
(dp27
g13
I01
sg14
F1.671405671704603
sg15
g24
sbs(I-5
I3565
tp28
g0
(g9
g2
Ntp29
Rp30
(dp31
g13
I00
sg14
F0.9799371923678226
sg15
g28
sbs(I-7
I0
tp32
g0
(g9
g2
Ntp33
Rp34
(dp35
g13
I00
sg14
F1.9756863070152435
sg15
g32
sbs(I-2
I5
tp36
g0
(g9
g2
Ntp37
Rp38
(dp39
g13
I00
sg14
F0.271153067818395
sg15
g36
sbs(I2223
I1
tp40
g0
(g9
g2
Ntp41
Rp42
(dp43
g13
I01
sg14
F5.556687829700859
sg15
g40
sbs(I168
I4
tp44
g0
(g9
g2
Ntp45
Rp46
(dp47
g13
I01
sg14
F1.060257573364414
sg15
g44
sbs(I-3
I7
tp48
g0
(g9
g2
Ntp49
Rp50
(dp51
g13
I01
sg14
F-3.20258411484343
sg15
g48
sbs(I5
I5
tp52
g0
(g9
g2
Ntp53
Rp54
(dp55
g13
I01
sg14
F1.851385726913124
sg15
g52
sbs(I168
I0
tp56
g0
(g9
g2
Ntp57
Rp58
(dp59
g13
I01
sg14
F0.10945792831806767
sg15
g56
sbs(I-6
I1827
tp60
g0
(g9
g2
Ntp61
Rp62
(dp63
g13
I01
sg14
F-0.4874714365038022
sg15
g60
sbs(I4
I4
tp64
g0
(g9
g2
Ntp65
Rp66
(dp67
g13
I00
sg14
F-0.6941596088992215
sg15
g64
sbs(I3253
I168
tp68
g0
(g9
g2
Ntp69
Rp70
(dp71
g13
I01
sg14
F-1.2056869138653235
sg15
g68
sbs(I3565
I2619
tp72
g0
(g9
g2
Ntp73
Rp74
(dp75
g13
I01
sg14
F0.3292690139731659
sg15
g72
sbs(I1827
I168
tp76
g0
(g9
g2
Ntp77
Rp78
(dp79
g13
I00
sg14
F1.1704329237405333
sg15
g76
sbs(I-10
I168
tp80
g0
(g9
g2
Ntp81
Rp82
(dp83
g13
I00
sg14
F2.1301172431979998
sg15
g80
sbs(I3289
I5
tp84
g0
(g9
g2
Ntp85
Rp86
(dp87
g13
I01
sg14
F-1.2657635163314431
sg15
g84
sbs(I-6
I3289
tp88
g0
(g9
g2
Ntp89
Rp90
(dp91
g13
I01
sg14
F-0.8484936361180982
sg15
g88
sbs(I5
I1827
tp92
g0
(g9
g2
Ntp93
Rp94
(dp95
g13
I01
sg14
F-1.1210188758380293
sg15
g92
sbs(I168
I1
tp96
g0
(g9
g2
Ntp97
Rp98
(dp99
g13
I00
sg14
F0.6361927092288083
sg15
g96
sbs(I2619
I2223
tp100
g0
(g9
g2
Ntp101
Rp102
(dp103
g13
I01
sg14
F-0.1826902424090526
sg15
g100
sbs(I-9
I168
tp104
g0
(g9
g2
Ntp105
Rp106
(dp107
g13
I01
sg14
F1.655726211493259
sg15
g104
sbs(I-6
I5
tp108
g0
(g9
g2
Ntp109
Rp110
(dp111
g13
I00
sg14
F0.014425420039340825
sg15
g108
sbs(I-7
I9
tp112
g0
(g9
g2
Ntp113
Rp114
(dp115
g13
I01
sg14
F-1.0834014316742953
sg15
g112
sbs(I-5
I2619
tp116
g0
(g9
g2
Ntp117
Rp118
(dp119
g13
I00
sg14
F1.5832512009377506
sg15
g116
sbs(I-7
I3289
tp120
g0
(g9
g2
Ntp121
Rp122
(dp123
g13
I01
sg14
F2.0699207495505534
sg15
g120
sbs(I8
I8
tp124
g0
(g9
g2
Ntp125
Rp126
(dp127
g13
I00
sg14
F-0.17079012820519113
sg15
g124
sbs(I-2
I3289
tp128
g0
(g9
g2
Ntp129
Rp130
(dp131
g13
I01
sg14
F0.045121104855762234
sg15
g128
sbs(I-6
I6
tp132
g0
(g9
g2
Ntp133
Rp134
(dp135
g13
I01
sg14
F0.07451153657660237
sg15
g132
sbssS'nodes'
p136
(dp137
I0
g0
(cneat.genes
DefaultNodeGene
p138
g2
Ntp139
Rp140
(dp141
S'activation'
p142
S'tanh'
p143
sS'bias'
p144
F-9.157102138968485
sS'response'
p145
F1.0
sg15
I0
sS'aggregation'
p146
S'sum'
p147
sbsI1
g0
(g138
g2
Ntp148
Rp149
(dp150
g142
S'relu'
p151
sg144
F39.243000730864956
sg145
F1.0
sg15
I1
sg146
g147
sbsI2
g0
(g138
g2
Ntp152
Rp153
(dp154
g142
g143
sg144
F-1.6140571299464295
sg145
F1.0
sg15
I2
sg146
g147
sbsI3
g0
(g138
g2
Ntp155
Rp156
(dp157
g142
g143
sg144
F-12.22141437155287
sg145
F1.0
sg15
I3
sg146
g147
sbsI4
g0
(g138
g2
Ntp158
Rp159
(dp160
g142
g143
sg144
F4.478313769297157
sg145
F1.0
sg15
I4
sg146
g147
sbsI5
g0
(g138
g2
Ntp161
Rp162
(dp163
g142
g143
sg144
F2.126487046015522
sg145
F1.0
sg15
I5
sg146
g147
sbsI6
g0
(g138
g2
Ntp164
Rp165
(dp166
g142
g143
sg144
F-7.780152483909043
sg145
F1.0
sg15
I6
sg146
g147
sbsI7
g0
(g138
g2
Ntp167
Rp168
(dp169
g142
g143
sg144
F4.94878285183214
sg145
F1.0
sg15
I7
sg146
g147
sbsI8
g0
(g138
g2
Ntp170
Rp171
(dp172
g142
g143
sg144
F27.364175140304553
sg145
F1.0
sg15
I8
sg146
g147
sbsI9
g0
(g138
g2
Ntp173
Rp174
(dp175
g142
g143
sg144
F2.4792857258134453
sg145
F1.0
sg15
I9
sg146
g147
sbsI3565
g0
(g138
g2
Ntp176
Rp177
(dp178
g142
g151
sg144
F-17.52531784020346
sg145
F1.0
sg15
I3565
sg146
g147
sbsI2223
g0
(g138
g2
Ntp179
Rp180
(dp181
g142
g151
sg144
F8.754148192206078
sg145
F1.0
sg15
I2223
sg146
g147
sbsI168
g0
(g138
g2
Ntp182
Rp183
(dp184
g142
g143
sg144
F-1.7976533426736359
sg145
F1.0
sg15
I168
sg146
g147
sbsI1827
g0
(g138
g2
Ntp185
Rp186
(dp187
g142
g143
sg144
F4.9394051741765255
sg145
F1.0
sg15
I1827
sg146
g147
sbsI3253
g0
(g138
g2
Ntp188
Rp189
(dp190
g142
g143
sg144
F-3.635438104040376
sg145
F1.0
sg15
I3253
sg146
g147
sbsI3289
g0
(g138
g2
Ntp191
Rp192
(dp193
g142
g143
sg144
F-13.274145934718286
sg145
F1.0
sg15
I3289
sg146
g147
sbsI2619
g0
(g138
g2
Ntp194
Rp195
(dp196
g142
g143
sg144
F0.014565788878255215
sg145
F1.0
sg15
I2619
sg146
g147
sbssg15
I10951
sS'fitness'
p197
Nsb.