ccopy_reg
_reconstructor
p0
(cneat.genome
DefaultGenome
p1
c__builtin__
object
p2
Ntp3
Rp4
(dp5
S'connections'
p6
(dp7
(I-8
I168
tp8
g0
(cneat.genes
DefaultConnectionGene
p9
g2
Ntp10
Rp11
(dp12
S'enabled'
p13
I01
sS'weight'
p14
F-1.2437525843748165
sS'key'
p15
g8
sbs(I3
I1827
tp16
g0
(g9
g2
Ntp17
Rp18
(dp19
g13
I01
sg14
F2.023864439575489
sg15
g16
sbs(I-5
I2223
tp20
g0
(g9
g2
Ntp21
Rp22
(dp23
g13
I01
sg14
F1.1074773066541868
sg15
g20
sbs(I-2
I168
tp24
g0
(g9
g2
Ntp25
Rp26
(dp27
g13
I01
sg14
F1.2543283251208883
sg15
g24
sbs(I-5
I3565
tp28
g0
(g9
g2
Ntp29
Rp30
(dp31
g13
I01
sg14
F1.3822555755923571
sg15
g28
sbs(I-7
I0
tp32
g0
(g9
g2
Ntp33
Rp34
(dp35
g13
I00
sg14
F-0.5342870710856868
sg15
g32
sbs(I-2
I5
tp36
g0
(g9
g2
Ntp37
Rp38
(dp39
g13
I00
sg14
F0.3030667534586577
sg15
g36
sbs(I168
I4
tp40
g0
(g9
g2
Ntp41
Rp42
(dp43
g13
I01
sg14
F-3.2133705418849496
sg15
g40
sbs(I-3
I7
tp44
g0
(g9
g2
Ntp45
Rp46
(dp47
g13
I01
sg14
F-5.82480173995333
sg15
g44
sbs(I5
I5
tp48
g0
(g9
g2
Ntp49
Rp50
(dp51
g13
I01
sg14
F1.7048325632084462
sg15
g48
sbs(I168
I0
tp52
g0
(g9
g2
Ntp53
Rp54
(dp55
g13
I01
sg14
F1.8985095959008862
sg15
g52
sbs(I4
I4
tp56
g0
(g9
g2
Ntp57
Rp58
(dp59
g13
I00
sg14
F0.4987353687332302
sg15
g56
sbs(I3253
I168
tp60
g0
(g9
g2
Ntp61
Rp62
(dp63
g13
I01
sg14
F-1.2956336971526055
sg15
g60
sbs(I2223
I1
tp64
g0
(g9
g2
Ntp65
Rp66
(dp67
g13
I01
sg14
F6.469398605205812
sg15
g64
sbs(I1827
I168
tp68
g0
(g9
g2
Ntp69
Rp70
(dp71
g13
I00
sg14
F0.4238110187920362
sg15
g68
sbs(I-10
I168
tp72
g0
(g9
g2
Ntp73
Rp74
(dp75
g13
I00
sg14
F1.3868491367884288
sg15
g72
sbs(I-6
I3289
tp76
g0
(g9
g2
Ntp77
Rp78
(dp79
g13
I01
sg14
F-0.8065028771970345
sg15
g76
sbs(I5
I1827
tp80
g0
(g9
g2
Ntp81
Rp82
(dp83
g13
I01
sg14
F-0.3243886553605769
sg15
g80
sbs(I3588
I5
tp84
g0
(g9
g2
Ntp85
Rp86
(dp87
g13
I01
sg14
F0.12859483514555253
sg15
g84
sbs(I3289
I5
tp88
g0
(g9
g2
Ntp89
Rp90
(dp91
g13
I01
sg14
F1.1519161084782896
sg15
g88
sbs(I-9
I168
tp92
g0
(g9
g2
Ntp93
Rp94
(dp95
g13
I01
sg14
F0.6665971461470097
sg15
g92
sbs(I-6
I5
tp96
g0
(g9
g2
Ntp97
Rp98
(dp99
g13
I00
sg14
F0.16831707350670772
sg15
g96
sbs(I3289
I2223
tp100
g0
(g9
g2
Ntp101
Rp102
(dp103
g13
I01
sg14
F1.0604528629365992
sg15
g100
sbs(I-7
I9
tp104
g0
(g9
g2
Ntp105
Rp106
(dp107
g13
I01
sg14
F-0.6962342424829483
sg15
g104
sbs(I-6
I3588
tp108
g0
(g9
g2
Ntp109
Rp110
(dp111
g13
I01
sg14
F-1.317680086912996
sg15
g108
sbs(I-7
I3289
tp112
g0
(g9
g2
Ntp113
Rp114
(dp115
g13
I01
sg14
F0.5827524836341965
sg15
g112
sbs(I8
I8
tp116
g0
(g9
g2
Ntp117
Rp118
(dp119
g13
I00
sg14
F-0.32223043467078233
sg15
g116
sbssS'nodes'
p120
(dp121
I0
g0
(cneat.genes
DefaultNodeGene
p122
g2
Ntp123
Rp124
(dp125
S'activation'
p126
S'tanh'
p127
sS'bias'
p128
F7.87986358276423
sS'response'
p129
F1.0
sg15
I0
sS'aggregation'
p130
S'sum'
p131
sbsI1
g0
(g122
g2
Ntp132
Rp133
(dp134
g126
g127
sg128
F37.4293994030756
sg129
F1.0
sg15
I1
sg130
g131
sbsI2
g0
(g122
g2
Ntp135
Rp136
(dp137
g126
g127
sg128
F-2.0568497445562506
sg129
F1.0
sg15
I2
sg130
g131
sbsI3
g0
(g122
g2
Ntp138
Rp139
(dp140
g126
g127
sg128
F-13.126329416102006
sg129
F1.0
sg15
I3
sg130
g131
sbsI4
g0
(g122
g2
Ntp141
Rp142
(dp143
g126
g127
sg128
F3.993697422658596
sg129
F1.0
sg15
I4
sg130
g131
sbsI5
g0
(g122
g2
Ntp144
Rp145
(dp146
g126
g127
sg128
F4.203240801699724
sg129
F1.0
sg15
I5
sg130
g131
sbsI6
g0
(g122
g2
Ntp147
Rp148
(dp149
g126
g127
sg128
F4.470241616813832
sg129
F1.0
sg15
I6
sg130
g131
sbsI7
g0
(g122
g2
Ntp150
Rp151
(dp152
g126
g127
sg128
F2.8754003851039176
sg129
F1.0
sg15
I7
sg130
g131
sbsI8
g0
(g122
g2
Ntp153
Rp154
(dp155
g126
g127
sg128
F28.5860443520243
sg129
F1.0
sg15
I8
sg130
g131
sbsI9
g0
(g122
g2
Ntp156
Rp157
(dp158
g126
g127
sg128
F2.427446983638646
sg129
F1.0
sg15
I9
sg130
g131
sbsI3565
g0
(g122
g2
Ntp159
Rp160
(dp161
g126
g127
sg128
F-17.8264814347479
sg129
F1.0
sg15
I3565
sg130
g131
sbsI2223
g0
(g122
g2
Ntp162
Rp163
(dp164
g126
S'relu'
p165
sg128
F-1.4444600702822696
sg129
F1.0
sg15
I2223
sg130
g131
sbsI168
g0
(g122
g2
Ntp166
Rp167
(dp168
g126
g127
sg128
F-2.210429201376293
sg129
F1.0
sg15
I168
sg130
g131
sbsI1827
g0
(g122
g2
Ntp169
Rp170
(dp171
g126
g127
sg128
F5.395526211888925
sg129
F1.0
sg15
I1827
sg130
g131
sbsI3253
g0
(g122
g2
Ntp172
Rp173
(dp174
g126
g127
sg128
F-6.661826989124809
sg129
F1.0
sg15
I3253
sg130
g131
sbsI3289
g0
(g122
g2
Ntp175
Rp176
(dp177
g126
g127
sg128
F-12.251875811980446
sg129
F1.0
sg15
I3289
sg130
g131
sbsI3588
g0
(g122
g2
Ntp178
Rp179
(dp180
g126
g165
sg128
F6.685672585573329
sg129
F1.0
sg15
I3588
sg130
g131
sbssg15
I10954
sS'fitness'
p181
Nsb.