ccopy_reg
_reconstructor
p0
(cneat.genome
DefaultGenome
p1
c__builtin__
object
p2
Ntp3
Rp4
(dp5
S'connections'
p6
(dp7
(I3
I1827
tp8
g0
(cneat.genes
DefaultConnectionGene
p9
g2
Ntp10
Rp11
(dp12
S'enabled'
p13
I01
sS'weight'
p14
F-0.47867560431930434
sS'key'
p15
g8
sbs(I-5
I2223
tp16
g0
(g9
g2
Ntp17
Rp18
(dp19
g13
I01
sg14
F1.8257306267233449
sg15
g16
sbs(I-2
I168
tp20
g0
(g9
g2
Ntp21
Rp22
(dp23
g13
I01
sg14
F0.978883636381906
sg15
g20
sbs(I-7
I0
tp24
g0
(g9
g2
Ntp25
Rp26
(dp27
g13
I00
sg14
F3.5137173726468487
sg15
g24
sbs(I-2
I5
tp28
g0
(g9
g2
Ntp29
Rp30
(dp31
g13
I00
sg14
F0.7131270304423006
sg15
g28
sbs(I168
I4
tp32
g0
(g9
g2
Ntp33
Rp34
(dp35
g13
I00
sg14
F-3.760701243750145
sg15
g32
sbs(I-3
I7
tp36
g0
(g9
g2
Ntp37
Rp38
(dp39
g13
I01
sg14
F-3.612517242890741
sg15
g36
sbs(I5
I5
tp40
g0
(g9
g2
Ntp41
Rp42
(dp43
g13
I01
sg14
F2.3641444339687805
sg15
g40
sbs(I168
I0
tp44
g0
(g9
g2
Ntp45
Rp46
(dp47
g13
I01
sg14
F0.475595375737363
sg15
g44
sbs(I-6
I1827
tp48
g0
(g9
g2
Ntp49
Rp50
(dp51
g13
I00
sg14
F0.5140022305774343
sg15
g48
sbs(I4
I4
tp52
g0
(g9
g2
Ntp53
Rp54
(dp55
g13
I00
sg14
F-0.5644303674098781
sg15
g52
sbs(I2223
I1
tp56
g0
(g9
g2
Ntp57
Rp58
(dp59
g13
I01
sg14
F7.4471235925366175
sg15
g56
sbs(I1827
I168
tp60
g0
(g9
g2
Ntp61
Rp62
(dp63
g13
I00
sg14
F2.1036138242815907
sg15
g60
sbs(I-10
I168
tp64
g0
(g9
g2
Ntp65
Rp66
(dp67
g13
I00
sg14
F1.9875692090532329
sg15
g64
sbs(I3289
I5
tp68
g0
(g9
g2
Ntp69
Rp70
(dp71
g13
I01
sg14
F-0.44606746084293086
sg15
g68
sbs(I-6
I3289
tp72
g0
(g9
g2
Ntp73
Rp74
(dp75
g13
I01
sg14
F-0.6107921305140875
sg15
g72
sbs(I5
I1827
tp76
g0
(g9
g2
Ntp77
Rp78
(dp79
g13
I01
sg14
F-2.194639429970057
sg15
g76
sbs(I168
I1
tp80
g0
(g9
g2
Ntp81
Rp82
(dp83
g13
I00
sg14
F1.1249180905802851
sg15
g80
sbs(I2619
I2223
tp84
g0
(g9
g2
Ntp85
Rp86
(dp87
g13
I01
sg14
F-0.30930678992485416
sg15
g84
sbs(I-9
I168
tp88
g0
(g9
g2
Ntp89
Rp90
(dp91
g13
I01
sg14
F1.3145778123169685
sg15
g88
sbs(I-6
I5
tp92
g0
(g9
g2
Ntp93
Rp94
(dp95
g13
I00
sg14
F0.510328193295452
sg15
g92
sbs(I-7
I9
tp96
g0
(g9
g2
Ntp97
Rp98
(dp99
g13
I01
sg14
F-1.3806752024500102
sg15
g96
sbs(I-8
I3636
tp100
g0
(g9
g2
Ntp101
Rp102
(dp103
g13
I01
sg14
F1.6186133694126803
sg15
g100
sbs(I-5
I2619
tp104
g0
(g9
g2
Ntp105
Rp106
(dp107
g13
I00
sg14
F2.3548203132204186
sg15
g104
sbs(I-7
I3289
tp108
g0
(g9
g2
Ntp109
Rp110
(dp111
g13
I01
sg14
F0.9959201550694412
sg15
g108
sbs(I8
I8
tp112
g0
(g9
g2
Ntp113
Rp114
(dp115
g13
I00
sg14
F0.5603762056481993
sg15
g112
sbs(I-2
I3289
tp116
g0
(g9
g2
Ntp117
Rp118
(dp119
g13
I01
sg14
F0.27316736199774583
sg15
g116
sbs(I-6
I6
tp120
g0
(g9
g2
Ntp121
Rp122
(dp123
g13
I01
sg14
F-1.2509246510250471
sg15
g120
sbssS'nodes'
p124
(dp125
I0
g0
(cneat.genes
DefaultNodeGene
p126
g2
Ntp127
Rp128
(dp129
S'activation'
p130
S'tanh'
p131
sS'bias'
p132
F9.487403548172862
sS'response'
p133
F1.0
sg15
I0
sS'aggregation'
p134
S'sum'
p135
sbsI1
g0
(g126
g2
Ntp136
Rp137
(dp138
g130
S'relu'
p139
sg132
F37.86349162621525
sg133
F1.0
sg15
I1
sg134
g135
sbsI2
g0
(g126
g2
Ntp140
Rp141
(dp142
g130
g131
sg132
F-0.7736898433301311
sg133
F1.0
sg15
I2
sg134
g135
sbsI3
g0
(g126
g2
Ntp143
Rp144
(dp145
g130
g131
sg132
F-12.796692301596988
sg133
F1.0
sg15
I3
sg134
g135
sbsI4
g0
(g126
g2
Ntp146
Rp147
(dp148
g130
g131
sg132
F4.690490270412761
sg133
F1.0
sg15
I4
sg134
g135
sbsI5
g0
(g126
g2
Ntp149
Rp150
(dp151
g130
g131
sg132
F2.7562339074287703
sg133
F1.0
sg15
I5
sg134
g135
sbsI6
g0
(g126
g2
Ntp152
Rp153
(dp154
g130
g131
sg132
F-6.528378546237563
sg133
F1.0
sg15
I6
sg134
g135
sbsI7
g0
(g126
g2
Ntp155
Rp156
(dp157
g130
g131
sg132
F4.678235234517905
sg133
F1.0
sg15
I7
sg134
g135
sbsI8
g0
(g126
g2
Ntp158
Rp159
(dp160
g130
g131
sg132
F-8.011411599354897
sg133
F1.0
sg15
I8
sg134
g135
sbsI9
g0
(g126
g2
Ntp161
Rp162
(dp163
g130
g131
sg132
F2.7200170425795616
sg133
F1.0
sg15
I9
sg134
g135
sbsI2223
g0
(g126
g2
Ntp164
Rp165
(dp166
g130
g139
sg132
F7.332322799421606
sg133
F1.0
sg15
I2223
sg134
g135
sbsI168
g0
(g126
g2
Ntp167
Rp168
(dp169
g130
g131
sg132
F-2.8506259315065274
sg133
F1.0
sg15
I168
sg134
g135
sbsI1827
g0
(g126
g2
Ntp170
Rp171
(dp172
g130
g131
sg132
F-5.237160078794242
sg133
F1.0
sg15
I1827
sg134
g135
sbsI3636
g0
(g126
g2
Ntp173
Rp174
(dp175
g130
g139
sg132
F11.959523185611225
sg133
F1.0
sg15
I3636
sg134
g135
sbsI3289
g0
(g126
g2
Ntp176
Rp177
(dp178
g130
g131
sg132
F-11.895286170795726
sg133
F1.0
sg15
I3289
sg134
g135
sbsI2619
g0
(g126
g2
Ntp179
Rp180
(dp181
g130
g131
sg132
F3.521764779186743
sg133
F1.0
sg15
I2619
sg134
g135
sbssg15
I10957
sS'fitness'
p182
Nsb.