ccopy_reg
_reconstructor
p0
(cneat.genome
DefaultGenome
p1
c__builtin__
object
p2
Ntp3
Rp4
(dp5
S'connections'
p6
(dp7
(I-8
I168
tp8
g0
(cneat.genes
DefaultConnectionGene
p9
g2
Ntp10
Rp11
(dp12
S'enabled'
p13
I00
sS'weight'
p14
F0.5514866956470112
sS'key'
p15
g8
sbs(I3
I1827
tp16
g0
(g9
g2
Ntp17
Rp18
(dp19
g13
I01
sg14
F1.9443657366800748
sg15
g16
sbs(I-2
I168
tp20
g0
(g9
g2
Ntp21
Rp22
(dp23
g13
I01
sg14
F-1.3670183629550952
sg15
g20
sbs(I-7
I0
tp24
g0
(g9
g2
Ntp25
Rp26
(dp27
g13
I00
sg14
F4.126741984894298
sg15
g24
sbs(I-2
I5
tp28
g0
(g9
g2
Ntp29
Rp30
(dp31
g13
I00
sg14
F0.23166505794551606
sg15
g28
sbs(I168
I4
tp32
g0
(g9
g2
Ntp33
Rp34
(dp35
g13
I00
sg14
F-0.10715763453673738
sg15
g32
sbs(I-3
I7
tp36
g0
(g9
g2
Ntp37
Rp38
(dp39
g13
I01
sg14
F-0.5741890739409337
sg15
g36
sbs(I5
I5
tp40
g0
(g9
g2
Ntp41
Rp42
(dp43
g13
I01
sg14
F1.2181820105021441
sg15
g40
sbs(I168
I0
tp44
g0
(g9
g2
Ntp45
Rp46
(dp47
g13
I01
sg14
F0.2240423850149218
sg15
g44
sbs(I-6
I1827
tp48
g0
(g9
g2
Ntp49
Rp50
(dp51
g13
I00
sg14
F-0.32933955718202684
sg15
g48
sbs(I4
I4
tp52
g0
(g9
g2
Ntp53
Rp54
(dp55
g13
I01
sg14
F0.09331534673479747
sg15
g52
sbs(I3253
I168
tp56
g0
(g9
g2
Ntp57
Rp58
(dp59
g13
I01
sg14
F-1.2937306312696077
sg15
g56
sbs(I1827
I168
tp60
g0
(g9
g2
Ntp61
Rp62
(dp63
g13
I00
sg14
F0.3101261206364122
sg15
g60
sbs(I-10
I168
tp64
g0
(g9
g2
Ntp65
Rp66
(dp67
g13
I00
sg14
F2.073287162021814
sg15
g64
sbs(I3289
I5
tp68
g0
(g9
g2
Ntp69
Rp70
(dp71
g13
I01
sg14
F-0.241178187697073
sg15
g68
sbs(I-6
I3289
tp72
g0
(g9
g2
Ntp73
Rp74
(dp75
g13
I01
sg14
F0.5994884094791731
sg15
g72
sbs(I5
I1827
tp76
g0
(g9
g2
Ntp77
Rp78
(dp79
g13
I01
sg14
F-0.9297222110694342
sg15
g76
sbs(I168
I1
tp80
g0
(g9
g2
Ntp81
Rp82
(dp83
g13
I00
sg14
F-1.1129737499430996
sg15
g80
sbs(I-9
I168
tp84
g0
(g9
g2
Ntp85
Rp86
(dp87
g13
I01
sg14
F0.7790558199446546
sg15
g84
sbs(I-6
I5
tp88
g0
(g9
g2
Ntp89
Rp90
(dp91
g13
I00
sg14
F0.773337630454916
sg15
g88
sbs(I-7
I9
tp92
g0
(g9
g2
Ntp93
Rp94
(dp95
g13
I01
sg14
F-1.4401925892413534
sg15
g92
sbs(I-8
I3636
tp96
g0
(g9
g2
Ntp97
Rp98
(dp99
g13
I01
sg14
F1.4262008824317272
sg15
g96
sbs(I-5
I2619
tp100
g0
(g9
g2
Ntp101
Rp102
(dp103
g13
I01
sg14
F2.311410259425843
sg15
g100
sbs(I-7
I3289
tp104
g0
(g9
g2
Ntp105
Rp106
(dp107
g13
I01
sg14
F-1.2865805096499512
sg15
g104
sbs(I8
I8
tp108
g0
(g9
g2
Ntp109
Rp110
(dp111
g13
I00
sg14
F-1.618582518108308
sg15
g108
sbs(I-2
I3289
tp112
g0
(g9
g2
Ntp113
Rp114
(dp115
g13
I00
sg14
F-1.2543983320631997
sg15
g112
sbs(I-6
I6
tp116
g0
(g9
g2
Ntp117
Rp118
(dp119
g13
I01
sg14
F1.2883266530805164
sg15
g116
sbssS'nodes'
p120
(dp121
I0
g0
(cneat.genes
DefaultNodeGene
p122
g2
Ntp123
Rp124
(dp125
S'activation'
p126
S'tanh'
p127
sS'bias'
p128
F7.886427178369157
sS'response'
p129
F1.0
sg15
I0
sS'aggregation'
p130
S'sum'
p131
sbsI1
g0
(g122
g2
Ntp132
Rp133
(dp134
g126
S'relu'
p135
sg128
F27.29759637368748
sg129
F1.0
sg15
I1
sg130
g131
sbsI2
g0
(g122
g2
Ntp136
Rp137
(dp138
g126
g127
sg128
F2.5454734447219964
sg129
F1.0
sg15
I2
sg130
g131
sbsI3
g0
(g122
g2
Ntp139
Rp140
(dp141
g126
g127
sg128
F-12.757378919771257
sg129
F1.0
sg15
I3
sg130
g131
sbsI4
g0
(g122
g2
Ntp142
Rp143
(dp144
g126
g127
sg128
F3.6418560777271156
sg129
F1.0
sg15
I4
sg130
g131
sbsI5
g0
(g122
g2
Ntp145
Rp146
(dp147
g126
g127
sg128
F4.356502865157061
sg129
F1.0
sg15
I5
sg130
g131
sbsI6
g0
(g122
g2
Ntp148
Rp149
(dp150
g126
g127
sg128
F-7.258757210951609
sg129
F1.0
sg15
I6
sg130
g131
sbsI7
g0
(g122
g2
Ntp151
Rp152
(dp153
g126
g127
sg128
F2.8001479226904666
sg129
F1.0
sg15
I7
sg130
g131
sbsI8
g0
(g122
g2
Ntp154
Rp155
(dp156
g126
g127
sg128
F27.072854594107447
sg129
F1.0
sg15
I8
sg130
g131
sbsI9
g0
(g122
g2
Ntp157
Rp158
(dp159
g126
g127
sg128
F1.3433734550432113
sg129
F1.0
sg15
I9
sg130
g131
sbsI168
g0
(g122
g2
Ntp160
Rp161
(dp162
g126
g127
sg128
F-2.831299213540123
sg129
F1.0
sg15
I168
sg130
g131
sbsI1827
g0
(g122
g2
Ntp163
Rp164
(dp165
g126
g127
sg128
F-0.45385227972887243
sg129
F1.0
sg15
I1827
sg130
g131
sbsI3636
g0
(g122
g2
Ntp166
Rp167
(dp168
g126
g135
sg128
F11.192620815688159
sg129
F1.0
sg15
I3636
sg130
g131
sbsI3253
g0
(g122
g2
Ntp169
Rp170
(dp171
g126
g127
sg128
F-8.548837538753059
sg129
F1.0
sg15
I3253
sg130
g131
sbsI3289
g0
(g122
g2
Ntp172
Rp173
(dp174
g126
g127
sg128
F-7.725894268999474
sg129
F1.0
sg15
I3289
sg130
g131
sbsI2619
g0
(g122
g2
Ntp175
Rp176
(dp177
g126
g127
sg128
F3.9426410148195257
sg129
F1.0
sg15
I2619
sg130
g131
sbssg15
I10956
sS'fitness'
p178
Nsb.