ccopy_reg
_reconstructor
p0
(cneat.genome
DefaultGenome
p1
c__builtin__
object
p2
Ntp3
Rp4
(dp5
S'connections'
p6
(dp7
(I-8
I168
tp8
g0
(cneat.genes
DefaultConnectionGene
p9
g2
Ntp10
Rp11
(dp12
S'enabled'
p13
I00
sS'weight'
p14
F-1.3447753196399852
sS'key'
p15
g8
sbs(I3
I1827
tp16
g0
(g9
g2
Ntp17
Rp18
(dp19
g13
I01
sg14
F2.0984914363964604
sg15
g16
sbs(I-5
I2223
tp20
g0
(g9
g2
Ntp21
Rp22
(dp23
g13
I01
sg14
F-2.457632745456025
sg15
g20
sbs(I-2
I168
tp24
g0
(g9
g2
Ntp25
Rp26
(dp27
g13
I01
sg14
F1.5787790810129676
sg15
g24
sbs(I-7
I0
tp28
g0
(g9
g2
Ntp29
Rp30
(dp31
g13
I00
sg14
F4.455779990990202
sg15
g28
sbs(I-2
I5
tp32
g0
(g9
g2
Ntp33
Rp34
(dp35
g13
I00
sg14
F0.8149448839538788
sg15
g32
sbs(I-8
I3660
tp36
g0
(g9
g2
Ntp37
Rp38
(dp39
g13
I01
sg14
F0.6337579933344083
sg15
g36
sbs(I168
I4
tp40
g0
(g9
g2
Ntp41
Rp42
(dp43
g13
I00
sg14
F-2.937501349655391
sg15
g40
sbs(I-3
I7
tp44
g0
(g9
g2
Ntp45
Rp46
(dp47
g13
I01
sg14
F-1.158815789009189
sg15
g44
sbs(I5
I5
tp48
g0
(g9
g2
Ntp49
Rp50
(dp51
g13
I01
sg14
F1.9116939408662894
sg15
g48
sbs(I168
I0
tp52
g0
(g9
g2
Ntp53
Rp54
(dp55
g13
I01
sg14
F0.405764613151818
sg15
g52
sbs(I-6
I1827
tp56
g0
(g9
g2
Ntp57
Rp58
(dp59
g13
I00
sg14
F0.754851221892954
sg15
g56
sbs(I4
I4
tp60
g0
(g9
g2
Ntp61
Rp62
(dp63
g13
I01
sg14
F-0.5411026062102355
sg15
g60
sbs(I3253
I168
tp64
g0
(g9
g2
Ntp65
Rp66
(dp67
g13
I01
sg14
F-0.18254480638084647
sg15
g64
sbs(I2223
I1
tp68
g0
(g9
g2
Ntp69
Rp70
(dp71
g13
I01
sg14
F7.812581441192922
sg15
g68
sbs(I1827
I168
tp72
g0
(g9
g2
Ntp73
Rp74
(dp75
g13
I00
sg14
F0.09263781064309334
sg15
g72
sbs(I-10
I168
tp76
g0
(g9
g2
Ntp77
Rp78
(dp79
g13
I00
sg14
F2.307917627443134
sg15
g76
sbs(I3289
I5
tp80
g0
(g9
g2
Ntp81
Rp82
(dp83
g13
I01
sg14
F-0.8569500768177334
sg15
g80
sbs(I3660
I168
tp84
g0
(g9
g2
Ntp85
Rp86
(dp87
g13
I01
sg14
F-0.8806354624371242
sg15
g84
sbs(I-6
I3289
tp88
g0
(g9
g2
Ntp89
Rp90
(dp91
g13
I01
sg14
F1.882365593786349
sg15
g88
sbs(I5
I1827
tp92
g0
(g9
g2
Ntp93
Rp94
(dp95
g13
I01
sg14
F-2.5899365500141514
sg15
g92
sbs(I168
I1
tp96
g0
(g9
g2
Ntp97
Rp98
(dp99
g13
I00
sg14
F-0.6321613557674626
sg15
g96
sbs(I2619
I2223
tp100
g0
(g9
g2
Ntp101
Rp102
(dp103
g13
I01
sg14
F0.29583494472042204
sg15
g100
sbs(I-9
I168
tp104
g0
(g9
g2
Ntp105
Rp106
(dp107
g13
I01
sg14
F1.1644290059248177
sg15
g104
sbs(I-6
I5
tp108
g0
(g9
g2
Ntp109
Rp110
(dp111
g13
I00
sg14
F0.5451342666445818
sg15
g108
sbs(I-7
I9
tp112
g0
(g9
g2
Ntp113
Rp114
(dp115
g13
I01
sg14
F-0.4651393510537895
sg15
g112
sbs(I-8
I3636
tp116
g0
(g9
g2
Ntp117
Rp118
(dp119
g13
I01
sg14
F1.0217201087112675
sg15
g116
sbs(I-5
I2619
tp120
g0
(g9
g2
Ntp121
Rp122
(dp123
g13
I01
sg14
F2.4730418488775054
sg15
g120
sbs(I-7
I3289
tp124
g0
(g9
g2
Ntp125
Rp126
(dp127
g13
I01
sg14
F1.0259828275050995
sg15
g124
sbs(I3253
I1827
tp128
g0
(g9
g2
Ntp129
Rp130
(dp131
g13
I01
sg14
F2.3343383530188158
sg15
g128
sbs(I8
I8
tp132
g0
(g9
g2
Ntp133
Rp134
(dp135
g13
I00
sg14
F-1.1237247141629882
sg15
g132
sbs(I-2
I3289
tp136
g0
(g9
g2
Ntp137
Rp138
(dp139
g13
I01
sg14
F-0.2798548670505785
sg15
g136
sbs(I-6
I6
tp140
g0
(g9
g2
Ntp141
Rp142
(dp143
g13
I01
sg14
F0.6362957247630175
sg15
g140
sbssS'nodes'
p144
(dp145
I0
g0
(cneat.genes
DefaultNodeGene
p146
g2
Ntp147
Rp148
(dp149
S'activation'
p150
S'tanh'
p151
sS'bias'
p152
F-5.985362577199565
sS'response'
p153
F1.0
sg15
I0
sS'aggregation'
p154
S'sum'
p155
sbsI1
g0
(g146
g2
Ntp156
Rp157
(dp158
g150
S'relu'
p159
sg152
F37.314035753519875
sg153
F1.0
sg15
I1
sg154
g155
sbsI2
g0
(g146
g2
Ntp160
Rp161
(dp162
g150
g151
sg152
F-16.510877887109285
sg153
F1.0
sg15
I2
sg154
g155
sbsI3
g0
(g146
g2
Ntp163
Rp164
(dp165
g150
g151
sg152
F-13.451301090576031
sg153
F1.0
sg15
I3
sg154
g155
sbsI4
g0
(g146
g2
Ntp166
Rp167
(dp168
g150
g151
sg152
F4.504609515040609
sg153
F1.0
sg15
I4
sg154
g155
sbsI5
g0
(g146
g2
Ntp169
Rp170
(dp171
g150
g151
sg152
F11.289442025164956
sg153
F1.0
sg15
I5
sg154
g155
sbsI6
g0
(g146
g2
Ntp172
Rp173
(dp174
g150
g151
sg152
F-9.090449054580446
sg153
F1.0
sg15
I6
sg154
g155
sbsI7
g0
(g146
g2
Ntp175
Rp176
(dp177
g150
g151
sg152
F2.532341670884242
sg153
F1.0
sg15
I7
sg154
g155
sbsI8
g0
(g146
g2
Ntp178
Rp179
(dp180
g150
g151
sg152
F-7.775544868269053
sg153
F1.0
sg15
I8
sg154
g155
sbsI9
g0
(g146
g2
Ntp181
Rp182
(dp183
g150
g151
sg152
F-6.912698476571909
sg153
F1.0
sg15
I9
sg154
g155
sbsI3660
g0
(g146
g2
Ntp184
Rp185
(dp186
g150
g159
sg152
F-1.889301237597289
sg153
F1.0
sg15
I3660
sg154
g155
sbsI2223
g0
(g146
g2
Ntp187
Rp188
(dp189
g150
g159
sg152
F6.85044264986242
sg153
F1.0
sg15
I2223
sg154
g155
sbsI168
g0
(g146
g2
Ntp190
Rp191
(dp192
g150
g151
sg152
F8.837424051547755
sg153
F1.0
sg15
I168
sg154
g155
sbsI1827
g0
(g146
g2
Ntp193
Rp194
(dp195
g150
g151
sg152
F-1.3051045278128124
sg153
F1.0
sg15
I1827
sg154
g155
sbsI3636
g0
(g146
g2
Ntp196
Rp197
(dp198
g150
g151
sg152
F11.413667134487888
sg153
F1.0
sg15
I3636
sg154
g155
sbsI3253
g0
(g146
g2
Ntp199
Rp200
(dp201
g150
g151
sg152
F-5.082121103244524
sg153
F1.0
sg15
I3253
sg154
g155
sbsI3289
g0
(g146
g2
Ntp202
Rp203
(dp204
g150
g151
sg152
F-2.4013448634092094
sg153
F1.0
sg15
I3289
sg154
g155
sbsI2619
g0
(g146
g2
Ntp205
Rp206
(dp207
g150
g151
sg152
F3.3111141553442267
sg153
F1.0
sg15
I2619
sg154
g155
sbssg15
I10955
sS'fitness'
p208
Nsb.