ccopy_reg
_reconstructor
p0
(cneat.genome
DefaultGenome
p1
c__builtin__
object
p2
Ntp3
Rp4
(dp5
S'connections'
p6
(dp7
(I-8
I168
tp8
g0
(cneat.genes
DefaultConnectionGene
p9
g2
Ntp10
Rp11
(dp12
S'enabled'
p13
I00
sS'weight'
p14
F-1.092984597647543
sS'key'
p15
g8
sbs(I3
I1827
tp16
g0
(g9
g2
Ntp17
Rp18
(dp19
g13
I01
sg14
F-0.32740053785135215
sg15
g16
sbs(I-5
I2223
tp20
g0
(g9
g2
Ntp21
Rp22
(dp23
g13
I01
sg14
F2.5252754244845925
sg15
g20
sbs(I-2
I168
tp24
g0
(g9
g2
Ntp25
Rp26
(dp27
g13
I01
sg14
F0.8558794250982491
sg15
g24
sbs(I-9
I3636
tp28
g0
(g9
g2
Ntp29
Rp30
(dp31
g13
I01
sg14
F-0.41001389652602566
sg15
g28
sbs(I-7
I0
tp32
g0
(g9
g2
Ntp33
Rp34
(dp35
g13
I00
sg14
F3.259971320450389
sg15
g32
sbs(I-2
I5
tp36
g0
(g9
g2
Ntp37
Rp38
(dp39
g13
I00
sg14
F0.903227198612848
sg15
g36
sbs(I168
I4
tp40
g0
(g9
g2
Ntp41
Rp42
(dp43
g13
I01
sg14
F-0.9185782205495496
sg15
g40
sbs(I-3
I7
tp44
g0
(g9
g2
Ntp45
Rp46
(dp47
g13
I01
sg14
F-0.6983996113294083
sg15
g44
sbs(I5
I5
tp48
g0
(g9
g2
Ntp49
Rp50
(dp51
g13
I01
sg14
F2.218327517641789
sg15
g48
sbs(I168
I0
tp52
g0
(g9
g2
Ntp53
Rp54
(dp55
g13
I01
sg14
F1.4677691848436127
sg15
g52
sbs(I-6
I1827
tp56
g0
(g9
g2
Ntp57
Rp58
(dp59
g13
I00
sg14
F-1.0176955747544127
sg15
g56
sbs(I4
I4
tp60
g0
(g9
g2
Ntp61
Rp62
(dp63
g13
I00
sg14
F-0.1301442125011907
sg15
g60
sbs(I3253
I168
tp64
g0
(g9
g2
Ntp65
Rp66
(dp67
g13
I01
sg14
F-1.2056869138653235
sg15
g64
sbs(I2223
I1
tp68
g0
(g9
g2
Ntp69
Rp70
(dp71
g13
I01
sg14
F8.209144802983205
sg15
g68
sbs(I1827
I168
tp72
g0
(g9
g2
Ntp73
Rp74
(dp75
g13
I00
sg14
F1.5855504034268604
sg15
g72
sbs(I-2
I3658
tp76
g0
(g9
g2
Ntp77
Rp78
(dp79
g13
I01
sg14
F1.595024715579433
sg15
g76
sbs(I-10
I168
tp80
g0
(g9
g2
Ntp81
Rp82
(dp83
g13
I00
sg14
F1.7686361530281112
sg15
g80
sbs(I3289
I5
tp84
g0
(g9
g2
Ntp85
Rp86
(dp87
g13
I01
sg14
F0.40341066179899443
sg15
g84
sbs(I-6
I3289
tp88
g0
(g9
g2
Ntp89
Rp90
(dp91
g13
I01
sg14
F0.38267483766256905
sg15
g88
sbs(I5
I1827
tp92
g0
(g9
g2
Ntp93
Rp94
(dp95
g13
I01
sg14
F-1.0612320173346437
sg15
g92
sbs(I168
I1
tp96
g0
(g9
g2
Ntp97
Rp98
(dp99
g13
I00
sg14
F0.5875205750765821
sg15
g96
sbs(I2619
I2223
tp100
g0
(g9
g2
Ntp101
Rp102
(dp103
g13
I01
sg14
F0.052033617207653246
sg15
g100
sbs(I-9
I168
tp104
g0
(g9
g2
Ntp105
Rp106
(dp107
g13
I01
sg14
F0.9196574251104852
sg15
g104
sbs(I-6
I5
tp108
g0
(g9
g2
Ntp109
Rp110
(dp111
g13
I00
sg14
F0.3337488879005841
sg15
g108
sbs(I-7
I9
tp112
g0
(g9
g2
Ntp113
Rp114
(dp115
g13
I01
sg14
F-1.5761457907491718
sg15
g112
sbs(I-8
I3636
tp116
g0
(g9
g2
Ntp117
Rp118
(dp119
g13
I01
sg14
F1.1533161396544187
sg15
g116
sbs(I-5
I2619
tp120
g0
(g9
g2
Ntp121
Rp122
(dp123
g13
I00
sg14
F1.0880527877921606
sg15
g120
sbs(I-7
I3289
tp124
g0
(g9
g2
Ntp125
Rp126
(dp127
g13
I01
sg14
F1.2874307109002205
sg15
g124
sbs(I3658
I3289
tp128
g0
(g9
g2
Ntp129
Rp130
(dp131
g13
I01
sg14
F-0.2798548670505785
sg15
g128
sbs(I8
I8
tp132
g0
(g9
g2
Ntp133
Rp134
(dp135
g13
I00
sg14
F-0.3396565040695887
sg15
g132
sbs(I-2
I3289
tp136
g0
(g9
g2
Ntp137
Rp138
(dp139
g13
I00
sg14
F-0.03453288253979975
sg15
g136
sbs(I-6
I6
tp140
g0
(g9
g2
Ntp141
Rp142
(dp143
g13
I01
sg14
F0.9220272251619196
sg15
g140
sbssS'nodes'
p144
(dp145
I0
g0
(cneat.genes
DefaultNodeGene
p146
g2
Ntp147
Rp148
(dp149
S'activation'
p150
S'tanh'
p151
sS'bias'
p152
F-3.3753773260562
sS'response'
p153
F1.0
sg15
I0
sS'aggregation'
p154
S'sum'
p155
sbsI1
g0
(g146
g2
Ntp156
Rp157
(dp158
g150
S'relu'
p159
sg152
F38.078916588980036
sg153
F1.0
sg15
I1
sg154
g155
sbsI2
g0
(g146
g2
Ntp160
Rp161
(dp162
g150
g151
sg152
F-0.7186341296113098
sg153
F1.0
sg15
I2
sg154
g155
sbsI3
g0
(g146
g2
Ntp163
Rp164
(dp165
g150
g151
sg152
F-12.979708347720344
sg153
F1.0
sg15
I3
sg154
g155
sbsI4
g0
(g146
g2
Ntp166
Rp167
(dp168
g150
g151
sg152
F4.187253731666154
sg153
F1.0
sg15
I4
sg154
g155
sbsI5
g0
(g146
g2
Ntp169
Rp170
(dp171
g150
g151
sg152
F2.457907746604407
sg153
F1.0
sg15
I5
sg154
g155
sbsI6
g0
(g146
g2
Ntp172
Rp173
(dp174
g150
g151
sg152
F-6.160274242550467
sg153
F1.0
sg15
I6
sg154
g155
sbsI7
g0
(g146
g2
Ntp175
Rp176
(dp177
g150
g151
sg152
F0.38272783394985554
sg153
F1.0
sg15
I7
sg154
g155
sbsI8
g0
(g146
g2
Ntp178
Rp179
(dp180
g150
g151
sg152
F-7.670731905467408
sg153
F1.0
sg15
I8
sg154
g155
sbsI9
g0
(g146
g2
Ntp181
Rp182
(dp183
g150
g151
sg152
F1.2766397252655974
sg153
F1.0
sg15
I9
sg154
g155
sbsI3658
g0
(g146
g2
Ntp184
Rp185
(dp186
g150
g159
sg152
F22.199746091853164
sg153
F1.0
sg15
I3658
sg154
g155
sbsI2223
g0
(g146
g2
Ntp187
Rp188
(dp189
g150
g159
sg152
F7.618965361970638
sg153
F1.0
sg15
I2223
sg154
g155
sbsI168
g0
(g146
g2
Ntp190
Rp191
(dp192
g150
g151
sg152
F-1.9488929808804785
sg153
F1.0
sg15
I168
sg154
g155
sbsI1827
g0
(g146
g2
Ntp193
Rp194
(dp195
g150
g151
sg152
F-5.53286645367424
sg153
F1.0
sg15
I1827
sg154
g155
sbsI3636
g0
(g146
g2
Ntp196
Rp197
(dp198
g150
g159
sg152
F11.126163772899854
sg153
F1.0
sg15
I3636
sg154
g155
sbsI3253
g0
(g146
g2
Ntp199
Rp200
(dp201
g150
g151
sg152
F4.411439341138458
sg153
F1.0
sg15
I3253
sg154
g155
sbsI3289
g0
(g146
g2
Ntp202
Rp203
(dp204
g150
g151
sg152
F-12.406471005495684
sg153
F1.0
sg15
I3289
sg154
g155
sbsI2619
g0
(g146
g2
Ntp205
Rp206
(dp207
g150
g151
sg152
F3.282022674018627
sg153
F1.0
sg15
I2619
sg154
g155
sbssg15
I10952
sS'fitness'
p208
Nsb.