ccopy_reg
_reconstructor
p0
(cneat.genome
DefaultGenome
p1
c__builtin__
object
p2
Ntp3
Rp4
(dp5
S'connections'
p6
(dp7
(I-8
I168
tp8
g0
(cneat.genes
DefaultConnectionGene
p9
g2
Ntp10
Rp11
(dp12
S'enabled'
p13
I01
sS'weight'
p14
F0.9774039925337601
sS'key'
p15
g8
sbs(I3
I1827
tp16
g0
(g9
g2
Ntp17
Rp18
(dp19
g13
I01
sg14
F2.1468835933129635
sg15
g16
sbs(I-5
I2223
tp20
g0
(g9
g2
Ntp21
Rp22
(dp23
g13
I01
sg14
F-2.2385576765350907
sg15
g20
sbs(I-2
I168
tp24
g0
(g9
g2
Ntp25
Rp26
(dp27
g13
I01
sg14
F1.194057287091221
sg15
g24
sbs(I-7
I0
tp28
g0
(g9
g2
Ntp29
Rp30
(dp31
g13
I00
sg14
F4.299965293379138
sg15
g28
sbs(I-2
I5
tp32
g0
(g9
g2
Ntp33
Rp34
(dp35
g13
I00
sg14
F0.2801797482770357
sg15
g32
sbs(I168
I4
tp36
g0
(g9
g2
Ntp37
Rp38
(dp39
g13
I00
sg14
F-2.7437975034040507
sg15
g36
sbs(I5
I5
tp40
g0
(g9
g2
Ntp41
Rp42
(dp43
g13
I01
sg14
F2.41430352864022
sg15
g40
sbs(I168
I0
tp44
g0
(g9
g2
Ntp45
Rp46
(dp47
g13
I01
sg14
F0.2282699767396271
sg15
g44
sbs(I-6
I1827
tp48
g0
(g9
g2
Ntp49
Rp50
(dp51
g13
I00
sg14
F-0.04383600485224998
sg15
g48
sbs(I4
I4
tp52
g0
(g9
g2
Ntp53
Rp54
(dp55
g13
I01
sg14
F-1.023803435633163
sg15
g52
sbs(I3253
I168
tp56
g0
(g9
g2
Ntp57
Rp58
(dp59
g13
I01
sg14
F0.18291655274436353
sg15
g56
sbs(I2223
I1
tp60
g0
(g9
g2
Ntp61
Rp62
(dp63
g13
I01
sg14
F7.21713578209931
sg15
g60
sbs(I1827
I168
tp64
g0
(g9
g2
Ntp65
Rp66
(dp67
g13
I00
sg14
F0.21941235625516098
sg15
g64
sbs(I-10
I168
tp68
g0
(g9
g2
Ntp69
Rp70
(dp71
g13
I00
sg14
F1.303686880193211
sg15
g68
sbs(I3289
I5
tp72
g0
(g9
g2
Ntp73
Rp74
(dp75
g13
I01
sg14
F-1.2380483819620913
sg15
g72
sbs(I-6
I3289
tp76
g0
(g9
g2
Ntp77
Rp78
(dp79
g13
I01
sg14
F1.0340705264981898
sg15
g76
sbs(I5
I1827
tp80
g0
(g9
g2
Ntp81
Rp82
(dp83
g13
I01
sg14
F-0.36079908689992024
sg15
g80
sbs(I168
I1
tp84
g0
(g9
g2
Ntp85
Rp86
(dp87
g13
I00
sg14
F0.10477877465440777
sg15
g84
sbs(I2619
I2223
tp88
g0
(g9
g2
Ntp89
Rp90
(dp91
g13
I01
sg14
F-0.4039682976468677
sg15
g88
sbs(I-9
I168
tp92
g0
(g9
g2
Ntp93
Rp94
(dp95
g13
I01
sg14
F0.35640508187866043
sg15
g92
sbs(I-6
I5
tp96
g0
(g9
g2
Ntp97
Rp98
(dp99
g13
I00
sg14
F0.6360718798486727
sg15
g96
sbs(I-7
I9
tp100
g0
(g9
g2
Ntp101
Rp102
(dp103
g13
I01
sg14
F-0.12509848055079192
sg15
g100
sbs(I-8
I3636
tp104
g0
(g9
g2
Ntp105
Rp106
(dp107
g13
I01
sg14
F0.9151679686157641
sg15
g104
sbs(I-5
I2619
tp108
g0
(g9
g2
Ntp109
Rp110
(dp111
g13
I01
sg14
F2.8680134547754204
sg15
g108
sbs(I-7
I3289
tp112
g0
(g9
g2
Ntp113
Rp114
(dp115
g13
I01
sg14
F0.30196492196576075
sg15
g112
sbs(I8
I8
tp116
g0
(g9
g2
Ntp117
Rp118
(dp119
g13
I00
sg14
F-1.420149754845811
sg15
g116
sbs(I-2
I3289
tp120
g0
(g9
g2
Ntp121
Rp122
(dp123
g13
I01
sg14
F-0.6734573293405475
sg15
g120
sbs(I-6
I6
tp124
g0
(g9
g2
Ntp125
Rp126
(dp127
g13
I01
sg14
F2.1427075359363004
sg15
g124
sbssS'nodes'
p128
(dp129
I0
g0
(cneat.genes
DefaultNodeGene
p130
g2
Ntp131
Rp132
(dp133
S'activation'
p134
S'tanh'
p135
sS'bias'
p136
F-3.3348269593357234
sS'response'
p137
F1.0
sg15
I0
sS'aggregation'
p138
S'sum'
p139
sbsI1
g0
(g130
g2
Ntp140
Rp141
(dp142
g134
S'relu'
p143
sg136
F38.313582100629226
sg137
F1.0
sg15
I1
sg138
g139
sbsI2
g0
(g130
g2
Ntp144
Rp145
(dp146
g134
g135
sg136
F-0.5013420829655051
sg137
F1.0
sg15
I2
sg138
g139
sbsI3
g0
(g130
g2
Ntp147
Rp148
(dp149
g134
g135
sg136
F-12.389843271849646
sg137
F1.0
sg15
I3
sg138
g139
sbsI4
g0
(g130
g2
Ntp150
Rp151
(dp152
g134
g135
sg136
F3.8899276079679432
sg137
F1.0
sg15
I4
sg138
g139
sbsI5
g0
(g130
g2
Ntp153
Rp154
(dp155
g134
g135
sg136
F2.857495923106486
sg137
F1.0
sg15
I5
sg138
g139
sbsI6
g0
(g130
g2
Ntp156
Rp157
(dp158
g134
g135
sg136
F6.247067206360029
sg137
F1.0
sg15
I6
sg138
g139
sbsI7
g0
(g130
g2
Ntp159
Rp160
(dp161
g134
g135
sg136
F2.5194411666042
sg137
F1.0
sg15
I7
sg138
g139
sbsI8
g0
(g130
g2
Ntp162
Rp163
(dp164
g134
g135
sg136
F-7.8888275220769435
sg137
F1.0
sg15
I8
sg138
g139
sbsI9
g0
(g130
g2
Ntp165
Rp166
(dp167
g134
g135
sg136
F1.817089814827725
sg137
F1.0
sg15
I9
sg138
g139
sbsI2223
g0
(g130
g2
Ntp168
Rp169
(dp170
g134
g143
sg136
F-13.023476751818626
sg137
F1.0
sg15
I2223
sg138
g139
sbsI168
g0
(g130
g2
Ntp171
Rp172
(dp173
g134
g135
sg136
F0.370485937497263
sg137
F1.0
sg15
I168
sg138
g139
sbsI1827
g0
(g130
g2
Ntp174
Rp175
(dp176
g134
g135
sg136
F-1.0074791171752644
sg137
F1.0
sg15
I1827
sg138
g139
sbsI3636
g0
(g130
g2
Ntp177
Rp178
(dp179
g134
g143
sg136
F11.559711956749338
sg137
F1.0
sg15
I3636
sg138
g139
sbsI3253
g0
(g130
g2
Ntp180
Rp181
(dp182
g134
g135
sg136
F-2.7438947867258356
sg137
F1.0
sg15
I3253
sg138
g139
sbsI3289
g0
(g130
g2
Ntp183
Rp184
(dp185
g134
g135
sg136
F18.095492643468248
sg137
F1.0
sg15
I3289
sg138
g139
sbsI2619
g0
(g130
g2
Ntp186
Rp187
(dp188
g134
g135
sg136
F2.1856989028221294
sg137
F1.0
sg15
I2619
sg138
g139
sbssg15
I10950
sS'fitness'
p189
Nsb.