ccopy_reg
_reconstructor
p0
(cneat.genome
DefaultGenome
p1
c__builtin__
object
p2
Ntp3
Rp4
(dp5
S'connections'
p6
(dp7
(I-8
I168
tp8
g0
(cneat.genes
DefaultConnectionGene
p9
g2
Ntp10
Rp11
(dp12
S'enabled'
p13
I01
sS'weight'
p14
F0.4606077390586092
sS'key'
p15
g8
sbs(I3
I1827
tp16
g0
(g9
g2
Ntp17
Rp18
(dp19
g13
I01
sg14
F1.8027238828919914
sg15
g16
sbs(I-5
I2223
tp20
g0
(g9
g2
Ntp21
Rp22
(dp23
g13
I01
sg14
F-2.7492315639247735
sg15
g20
sbs(I-2
I168
tp24
g0
(g9
g2
Ntp25
Rp26
(dp27
g13
I01
sg14
F1.1010126073624302
sg15
g24
sbs(I-7
I0
tp28
g0
(g9
g2
Ntp29
Rp30
(dp31
g13
I00
sg14
F3.6896948843063972
sg15
g28
sbs(I-2
I5
tp32
g0
(g9
g2
Ntp33
Rp34
(dp35
g13
I00
sg14
F0.3409400305384679
sg15
g32
sbs(I168
I4
tp36
g0
(g9
g2
Ntp37
Rp38
(dp39
g13
I00
sg14
F-2.621541949278401
sg15
g36
sbs(I-3
I7
tp40
g0
(g9
g2
Ntp41
Rp42
(dp43
g13
I01
sg14
F-1.290388327396092
sg15
g40
sbs(I5
I5
tp44
g0
(g9
g2
Ntp45
Rp46
(dp47
g13
I01
sg14
F2.663058442651874
sg15
g44
sbs(I168
I0
tp48
g0
(g9
g2
Ntp49
Rp50
(dp51
g13
I01
sg14
F1.2390740825595261
sg15
g48
sbs(I-6
I1827
tp52
g0
(g9
g2
Ntp53
Rp54
(dp55
g13
I00
sg14
F-0.16319402158572233
sg15
g52
sbs(I4
I4
tp56
g0
(g9
g2
Ntp57
Rp58
(dp59
g13
I01
sg14
F-0.6167996066099821
sg15
g56
sbs(I3253
I168
tp60
g0
(g9
g2
Ntp61
Rp62
(dp63
g13
I01
sg14
F-1.087808703049518
sg15
g60
sbs(I2223
I1
tp64
g0
(g9
g2
Ntp65
Rp66
(dp67
g13
I01
sg14
F8.862703740204664
sg15
g64
sbs(I1827
I168
tp68
g0
(g9
g2
Ntp69
Rp70
(dp71
g13
I00
sg14
F0.030564326207048076
sg15
g68
sbs(I-10
I168
tp72
g0
(g9
g2
Ntp73
Rp74
(dp75
g13
I00
sg14
F2.274224642035593
sg15
g72
sbs(I3289
I5
tp76
g0
(g9
g2
Ntp77
Rp78
(dp79
g13
I01
sg14
F-1.6444266050660676
sg15
g76
sbs(I-6
I3289
tp80
g0
(g9
g2
Ntp81
Rp82
(dp83
g13
I01
sg14
F1.4917832504513817
sg15
g80
sbs(I5
I1827
tp84
g0
(g9
g2
Ntp85
Rp86
(dp87
g13
I01
sg14
F-3.2549763546992136
sg15
g84
sbs(I168
I1
tp88
g0
(g9
g2
Ntp89
Rp90
(dp91
g13
I00
sg14
F-0.2691397328894504
sg15
g88
sbs(I2619
I2223
tp92
g0
(g9
g2
Ntp93
Rp94
(dp95
g13
I01
sg14
F0.3093861563535296
sg15
g92
sbs(I-9
I168
tp96
g0
(g9
g2
Ntp97
Rp98
(dp99
g13
I01
sg14
F1.2564262738549008
sg15
g96
sbs(I-6
I5
tp100
g0
(g9
g2
Ntp101
Rp102
(dp103
g13
I00
sg14
F-0.31243865235901636
sg15
g100
sbs(I-7
I9
tp104
g0
(g9
g2
Ntp105
Rp106
(dp107
g13
I01
sg14
F0.4464997996146852
sg15
g104
sbs(I-8
I3636
tp108
g0
(g9
g2
Ntp109
Rp110
(dp111
g13
I01
sg14
F-0.25066342875788644
sg15
g108
sbs(I-5
I2619
tp112
g0
(g9
g2
Ntp113
Rp114
(dp115
g13
I01
sg14
F2.4540247662973758
sg15
g112
sbs(I-7
I3289
tp116
g0
(g9
g2
Ntp117
Rp118
(dp119
g13
I01
sg14
F0.1557999689935915
sg15
g116
sbs(I8
I8
tp120
g0
(g9
g2
Ntp121
Rp122
(dp123
g13
I00
sg14
F0.35576308720890115
sg15
g120
sbs(I-6
I6
tp124
g0
(g9
g2
Ntp125
Rp126
(dp127
g13
I01
sg14
F0.8685263242127401
sg15
g124
sbssS'nodes'
p128
(dp129
I0
g0
(cneat.genes
DefaultNodeGene
p130
g2
Ntp131
Rp132
(dp133
S'activation'
p134
S'tanh'
p135
sS'bias'
p136
F-3.2307214789737273
sS'response'
p137
F1.0
sg15
I0
sS'aggregation'
p138
S'sum'
p139
sbsI1
g0
(g130
g2
Ntp140
Rp141
(dp142
g134
g135
sg136
F38.73683345113271
sg137
F1.0
sg15
I1
sg138
g139
sbsI2
g0
(g130
g2
Ntp143
Rp144
(dp145
g134
g135
sg136
F0.6852273687211061
sg137
F1.0
sg15
I2
sg138
g139
sbsI3
g0
(g130
g2
Ntp146
Rp147
(dp148
g134
g135
sg136
F-12.889566203991436
sg137
F1.0
sg15
I3
sg138
g139
sbsI4
g0
(g130
g2
Ntp149
Rp150
(dp151
g134
g135
sg136
F3.992020169487074
sg137
F1.0
sg15
I4
sg138
g139
sbsI5
g0
(g130
g2
Ntp152
Rp153
(dp154
g134
g135
sg136
F-6.5570609722534545
sg137
F1.0
sg15
I5
sg138
g139
sbsI6
g0
(g130
g2
Ntp155
Rp156
(dp157
g134
g135
sg136
F-5.775186570129842
sg137
F1.0
sg15
I6
sg138
g139
sbsI7
g0
(g130
g2
Ntp158
Rp159
(dp160
g134
g135
sg136
F-0.7270328149957379
sg137
F1.0
sg15
I7
sg138
g139
sbsI8
g0
(g130
g2
Ntp161
Rp162
(dp163
g134
g135
sg136
F26.755697325887528
sg137
F1.0
sg15
I8
sg138
g139
sbsI9
g0
(g130
g2
Ntp164
Rp165
(dp166
g134
g135
sg136
F1.0695884232755082
sg137
F1.0
sg15
I9
sg138
g139
sbsI2223
g0
(g130
g2
Ntp167
Rp168
(dp169
g134
S'relu'
p170
sg136
F8.152357715338331
sg137
F1.0
sg15
I2223
sg138
g139
sbsI168
g0
(g130
g2
Ntp171
Rp172
(dp173
g134
g135
sg136
F8.814959548269387
sg137
F1.0
sg15
I168
sg138
g139
sbsI1827
g0
(g130
g2
Ntp174
Rp175
(dp176
g134
g135
sg136
F-1.7426032190657834
sg137
F1.0
sg15
I1827
sg138
g139
sbsI3636
g0
(g130
g2
Ntp177
Rp178
(dp179
g134
g170
sg136
F5.155228097445238
sg137
F1.0
sg15
I3636
sg138
g139
sbsI3253
g0
(g130
g2
Ntp180
Rp181
(dp182
g134
g135
sg136
F-5.377963923280534
sg137
F1.0
sg15
I3253
sg138
g139
sbsI3289
g0
(g130
g2
Ntp183
Rp184
(dp185
g134
g135
sg136
F17.96593542356323
sg137
F1.0
sg15
I3289
sg138
g139
sbsI2619
g0
(g130
g2
Ntp186
Rp187
(dp188
g134
g135
sg136
F3.100430701541805
sg137
F1.0
sg15
I2619
sg138
g139
sbssg15
I10959
sS'fitness'
p189
Nsb.