ccopy_reg
_reconstructor
p0
(cneat.genome
DefaultGenome
p1
c__builtin__
object
p2
Ntp3
Rp4
(dp5
S'connections'
p6
(dp7
(I-8
I168
tp8
g0
(cneat.genes
DefaultConnectionGene
p9
g2
Ntp10
Rp11
(dp12
S'enabled'
p13
I01
sS'weight'
p14
F-1.5377442284974576
sS'key'
p15
g8
sbs(I3
I1827
tp16
g0
(g9
g2
Ntp17
Rp18
(dp19
g13
I01
sg14
F2.4896914838090787
sg15
g16
sbs(I5
I3659
tp20
g0
(g9
g2
Ntp21
Rp22
(dp23
g13
I01
sg14
F1.0
sg15
g20
sbs(I-2
I168
tp24
g0
(g9
g2
Ntp25
Rp26
(dp27
g13
I01
sg14
F2.054105503053176
sg15
g24
sbs(I-5
I3565
tp28
g0
(g9
g2
Ntp29
Rp30
(dp31
g13
I01
sg14
F2.030467488604558
sg15
g28
sbs(I-7
I0
tp32
g0
(g9
g2
Ntp33
Rp34
(dp35
g13
I00
sg14
F3.819810486277748
sg15
g32
sbs(I-2
I5
tp36
g0
(g9
g2
Ntp37
Rp38
(dp39
g13
I00
sg14
F-1.1992954912311369
sg15
g36
sbs(I168
I4
tp40
g0
(g9
g2
Ntp41
Rp42
(dp43
g13
I00
sg14
F-2.1184303105189475
sg15
g40
sbs(I-3
I7
tp44
g0
(g9
g2
Ntp45
Rp46
(dp47
g13
I01
sg14
F-5.78577133277415
sg15
g44
sbs(I5
I5
tp48
g0
(g9
g2
Ntp49
Rp50
(dp51
g13
I00
sg14
F1.6214313496637434
sg15
g48
sbs(I168
I0
tp52
g0
(g9
g2
Ntp53
Rp54
(dp55
g13
I01
sg14
F1.1503876359859135
sg15
g52
sbs(I4
I4
tp56
g0
(g9
g2
Ntp57
Rp58
(dp59
g13
I00
sg14
F-1.2377195449388076
sg15
g56
sbs(I3253
I168
tp60
g0
(g9
g2
Ntp61
Rp62
(dp63
g13
I01
sg14
F-0.04291426746429349
sg15
g60
sbs(I2223
I1
tp64
g0
(g9
g2
Ntp65
Rp66
(dp67
g13
I01
sg14
F0.3504719900986886
sg15
g64
sbs(I1827
I168
tp68
g0
(g9
g2
Ntp69
Rp70
(dp71
g13
I00
sg14
F-0.158351371651351
sg15
g68
sbs(I-10
I168
tp72
g0
(g9
g2
Ntp73
Rp74
(dp75
g13
I00
sg14
F1.0277682078264354
sg15
g72
sbs(I-6
I3289
tp76
g0
(g9
g2
Ntp77
Rp78
(dp79
g13
I01
sg14
F0.6916727553008946
sg15
g76
sbs(I5
I1827
tp80
g0
(g9
g2
Ntp81
Rp82
(dp83
g13
I00
sg14
F1.0132381082712614
sg15
g80
sbs(I3588
I5
tp84
g0
(g9
g2
Ntp85
Rp86
(dp87
g13
I01
sg14
F-0.005198989916324842
sg15
g84
sbs(I3289
I5
tp88
g0
(g9
g2
Ntp89
Rp90
(dp91
g13
I01
sg14
F-0.9615372468797523
sg15
g88
sbs(I-9
I168
tp92
g0
(g9
g2
Ntp93
Rp94
(dp95
g13
I01
sg14
F1.1186717095944883
sg15
g92
sbs(I3659
I1827
tp96
g0
(g9
g2
Ntp97
Rp98
(dp99
g13
I01
sg14
F-0.1640273289054941
sg15
g96
sbs(I-6
I5
tp100
g0
(g9
g2
Ntp101
Rp102
(dp103
g13
I00
sg14
F0.1844306040092557
sg15
g100
sbs(I3289
I2223
tp104
g0
(g9
g2
Ntp105
Rp106
(dp107
g13
I01
sg14
F0.10388076493119014
sg15
g104
sbs(I-7
I9
tp108
g0
(g9
g2
Ntp109
Rp110
(dp111
g13
I01
sg14
F-0.5763831019425705
sg15
g108
sbs(I-6
I3588
tp112
g0
(g9
g2
Ntp113
Rp114
(dp115
g13
I01
sg14
F0.03878227893515468
sg15
g112
sbs(I-7
I3289
tp116
g0
(g9
g2
Ntp117
Rp118
(dp119
g13
I01
sg14
F-0.19808785168880266
sg15
g116
sbs(I8
I8
tp120
g0
(g9
g2
Ntp121
Rp122
(dp123
g13
I00
sg14
F-2.2721656623862327
sg15
g120
sbssS'nodes'
p124
(dp125
I0
g0
(cneat.genes
DefaultNodeGene
p126
g2
Ntp127
Rp128
(dp129
S'activation'
p130
S'tanh'
p131
sS'bias'
p132
F7.592279553694542
sS'response'
p133
F1.0
sg15
I0
sS'aggregation'
p134
S'sum'
p135
sbsI1
g0
(g126
g2
Ntp136
Rp137
(dp138
g130
S'relu'
p139
sg132
F37.620840754645364
sg133
F1.0
sg15
I1
sg134
g135
sbsI2
g0
(g126
g2
Ntp140
Rp141
(dp142
g130
g131
sg132
F1.309330380263169
sg133
F1.0
sg15
I2
sg134
g135
sbsI3
g0
(g126
g2
Ntp143
Rp144
(dp145
g130
g131
sg132
F-12.784356263821136
sg133
F1.0
sg15
I3
sg134
g135
sbsI4
g0
(g126
g2
Ntp146
Rp147
(dp148
g130
g131
sg132
F4.349781284604426
sg133
F1.0
sg15
I4
sg134
g135
sbsI5
g0
(g126
g2
Ntp149
Rp150
(dp151
g130
g131
sg132
F4.312236990225961
sg133
F1.0
sg15
I5
sg134
g135
sbsI6
g0
(g126
g2
Ntp152
Rp153
(dp154
g130
g131
sg132
F5.007348134046176
sg133
F1.0
sg15
I6
sg134
g135
sbsI7
g0
(g126
g2
Ntp155
Rp156
(dp157
g130
g131
sg132
F3.9676360558289585
sg133
F1.0
sg15
I7
sg134
g135
sbsI8
g0
(g126
g2
Ntp158
Rp159
(dp160
g130
g131
sg132
F27.62263501790681
sg133
F1.0
sg15
I8
sg134
g135
sbsI9
g0
(g126
g2
Ntp161
Rp162
(dp163
g130
g131
sg132
F0.6178224414993003
sg133
F1.0
sg15
I9
sg134
g135
sbsI3659
g0
(g126
g2
Ntp164
Rp165
(dp166
g130
g131
sg132
F5.462992672120247
sg133
F1.0
sg15
I3659
sg134
g135
sbsI3565
g0
(g126
g2
Ntp167
Rp168
(dp169
g130
g131
sg132
F-0.4400771422871266
sg133
F1.0
sg15
I3565
sg134
g135
sbsI2223
g0
(g126
g2
Ntp170
Rp171
(dp172
g130
g139
sg132
F7.810680984781673
sg133
F1.0
sg15
I2223
sg134
g135
sbsI168
g0
(g126
g2
Ntp173
Rp174
(dp175
g130
g131
sg132
F8.659431952837416
sg133
F1.0
sg15
I168
sg134
g135
sbsI1827
g0
(g126
g2
Ntp176
Rp177
(dp178
g130
g131
sg132
F-0.7467710608867216
sg133
F1.0
sg15
I1827
sg134
g135
sbsI3253
g0
(g126
g2
Ntp179
Rp180
(dp181
g130
g131
sg132
F-5.216904742569077
sg133
F1.0
sg15
I3253
sg134
g135
sbsI3289
g0
(g126
g2
Ntp182
Rp183
(dp184
g130
g131
sg132
F18.46116805890094
sg133
F1.0
sg15
I3289
sg134
g135
sbsI3588
g0
(g126
g2
Ntp185
Rp186
(dp187
g130
g139
sg132
F8.146515617681052
sg133
F1.0
sg15
I3588
sg134
g135
sbssg15
I10953
sS'fitness'
p188
Nsb.