ccopy_reg
_reconstructor
p0
(cneat.genome
DefaultGenome
p1
c__builtin__
object
p2
Ntp3
Rp4
(dp5
S'connections'
p6
(dp7
(I-8
I168
tp8
g0
(cneat.genes
DefaultConnectionGene
p9
g2
Ntp10
Rp11
(dp12
S'enabled'
p13
I00
sS'weight'
p14
F-0.7420321561675465
sS'key'
p15
g8
sbs(I3
I1827
tp16
g0
(g9
g2
Ntp17
Rp18
(dp19
g13
I01
sg14
F-0.3959446814877785
sg15
g16
sbs(I-5
I2223
tp20
g0
(g9
g2
Ntp21
Rp22
(dp23
g13
I01
sg14
F2.578260256461307
sg15
g20
sbs(I-2
I168
tp24
g0
(g9
g2
Ntp25
Rp26
(dp27
g13
I01
sg14
F2.06129854974565
sg15
g24
sbs(I-7
I0
tp28
g0
(g9
g2
Ntp29
Rp30
(dp31
g13
I00
sg14
F2.430137056352133
sg15
g28
sbs(I-2
I5
tp32
g0
(g9
g2
Ntp33
Rp34
(dp35
g13
I00
sg14
F0.7678134597754092
sg15
g32
sbs(I168
I4
tp36
g0
(g9
g2
Ntp37
Rp38
(dp39
g13
I00
sg14
F-3.0257589394912667
sg15
g36
sbs(I-3
I7
tp40
g0
(g9
g2
Ntp41
Rp42
(dp43
g13
I01
sg14
F-0.48310703252665593
sg15
g40
sbs(I5
I5
tp44
g0
(g9
g2
Ntp45
Rp46
(dp47
g13
I01
sg14
F1.1764260464831857
sg15
g44
sbs(I168
I0
tp48
g0
(g9
g2
Ntp49
Rp50
(dp51
g13
I01
sg14
F1.0063546599154642
sg15
g48
sbs(I-6
I1827
tp52
g0
(g9
g2
Ntp53
Rp54
(dp55
g13
I01
sg14
F-0.9062670371203212
sg15
g52
sbs(I4
I4
tp56
g0
(g9
g2
Ntp57
Rp58
(dp59
g13
I01
sg14
F-0.5417665048605885
sg15
g56
sbs(I3253
I168
tp60
g0
(g9
g2
Ntp61
Rp62
(dp63
g13
I01
sg14
F-1.4778054951812984
sg15
g60
sbs(I2223
I1
tp64
g0
(g9
g2
Ntp65
Rp66
(dp67
g13
I01
sg14
F6.874501876228271
sg15
g64
sbs(I1827
I168
tp68
g0
(g9
g2
Ntp69
Rp70
(dp71
g13
I00
sg14
F0.7473464860676439
sg15
g68
sbs(I-10
I168
tp72
g0
(g9
g2
Ntp73
Rp74
(dp75
g13
I00
sg14
F1.3613572058848598
sg15
g72
sbs(I3289
I5
tp76
g0
(g9
g2
Ntp77
Rp78
(dp79
g13
I01
sg14
F0.5038105147980056
sg15
g76
sbs(I-6
I3289
tp80
g0
(g9
g2
Ntp81
Rp82
(dp83
g13
I01
sg14
F-1.4258186507443904
sg15
g80
sbs(I5
I1827
tp84
g0
(g9
g2
Ntp85
Rp86
(dp87
g13
I01
sg14
F-1.8220142357189362
sg15
g84
sbs(I168
I1
tp88
g0
(g9
g2
Ntp89
Rp90
(dp91
g13
I00
sg14
F0.9758180476935283
sg15
g88
sbs(I2619
I2223
tp92
g0
(g9
g2
Ntp93
Rp94
(dp95
g13
I01
sg14
F0.18680577428360795
sg15
g92
sbs(I-9
I168
tp96
g0
(g9
g2
Ntp97
Rp98
(dp99
g13
I01
sg14
F2.489333912424342
sg15
g96
sbs(I-6
I5
tp100
g0
(g9
g2
Ntp101
Rp102
(dp103
g13
I00
sg14
F-1.005659956898114
sg15
g100
sbs(I-7
I9
tp104
g0
(g9
g2
Ntp105
Rp106
(dp107
g13
I01
sg14
F-0.7576510852509224
sg15
g104
sbs(I-8
I3636
tp108
g0
(g9
g2
Ntp109
Rp110
(dp111
g13
I01
sg14
F1.1384531489409628
sg15
g108
sbs(I-5
I2619
tp112
g0
(g9
g2
Ntp113
Rp114
(dp115
g13
I01
sg14
F2.4246543925589394
sg15
g112
sbs(I-7
I3289
tp116
g0
(g9
g2
Ntp117
Rp118
(dp119
g13
I01
sg14
F1.3603753858023708
sg15
g116
sbs(I8
I8
tp120
g0
(g9
g2
Ntp121
Rp122
(dp123
g13
I00
sg14
F-0.40662854697421996
sg15
g120
sbs(I-2
I3289
tp124
g0
(g9
g2
Ntp125
Rp126
(dp127
g13
I01
sg14
F0.10619082547615086
sg15
g124
sbs(I-6
I6
tp128
g0
(g9
g2
Ntp129
Rp130
(dp131
g13
I01
sg14
F1.2038371772706953
sg15
g128
sbssS'nodes'
p132
(dp133
I0
g0
(cneat.genes
DefaultNodeGene
p134
g2
Ntp135
Rp136
(dp137
S'activation'
p138
S'tanh'
p139
sS'bias'
p140
F-3.713622419438959
sS'response'
p141
F1.0
sg15
I0
sS'aggregation'
p142
S'sum'
p143
sbsI1
g0
(g134
g2
Ntp144
Rp145
(dp146
g138
S'relu'
p147
sg140
F38.95285392964104
sg141
F1.0
sg15
I1
sg142
g143
sbsI2
g0
(g134
g2
Ntp148
Rp149
(dp150
g138
g139
sg140
F-1.5353758210678201
sg141
F1.0
sg15
I2
sg142
g143
sbsI3
g0
(g134
g2
Ntp151
Rp152
(dp153
g138
g139
sg140
F-12.635005478023215
sg141
F1.0
sg15
I3
sg142
g143
sbsI4
g0
(g134
g2
Ntp154
Rp155
(dp156
g138
g139
sg140
F4.46658103672625
sg141
F1.0
sg15
I4
sg142
g143
sbsI5
g0
(g134
g2
Ntp157
Rp158
(dp159
g138
g139
sg140
F2.0667969715375207
sg141
F1.0
sg15
I5
sg142
g143
sbsI6
g0
(g134
g2
Ntp160
Rp161
(dp162
g138
g139
sg140
F-5.968117341646699
sg141
F1.0
sg15
I6
sg142
g143
sbsI7
g0
(g134
g2
Ntp163
Rp164
(dp165
g138
g139
sg140
F-0.4729672154760172
sg141
F1.0
sg15
I7
sg142
g143
sbsI8
g0
(g134
g2
Ntp166
Rp167
(dp168
g138
g139
sg140
F-7.671382361813221
sg141
F1.0
sg15
I8
sg142
g143
sbsI9
g0
(g134
g2
Ntp169
Rp170
(dp171
g138
g139
sg140
F0.9901048186272854
sg141
F1.0
sg15
I9
sg142
g143
sbsI2223
g0
(g134
g2
Ntp172
Rp173
(dp174
g138
g139
sg140
F6.6645668204019195
sg141
F1.0
sg15
I2223
sg142
g143
sbsI168
g0
(g134
g2
Ntp175
Rp176
(dp177
g138
g139
sg140
F-2.061393230642395
sg141
F1.0
sg15
I168
sg142
g143
sbsI1827
g0
(g134
g2
Ntp178
Rp179
(dp180
g138
g139
sg140
F4.436274863673354
sg141
F1.0
sg15
I1827
sg142
g143
sbsI3636
g0
(g134
g2
Ntp181
Rp182
(dp183
g138
g147
sg140
F11.062697467518475
sg141
F1.0
sg15
I3636
sg142
g143
sbsI3253
g0
(g134
g2
Ntp184
Rp185
(dp186
g138
g139
sg140
F-4.0444877763677995
sg141
F1.0
sg15
I3253
sg142
g143
sbsI3289
g0
(g134
g2
Ntp187
Rp188
(dp189
g138
g139
sg140
F-14.192914064378733
sg141
F1.0
sg15
I3289
sg142
g143
sbsI2619
g0
(g134
g2
Ntp190
Rp191
(dp192
g138
g139
sg140
F3.3507977621311085
sg141
F1.0
sg15
I2619
sg142
g143
sbssg15
I10960
sS'fitness'
p193
Nsb.