ccopy_reg
_reconstructor
p0
(cneat.genome
DefaultGenome
p1
c__builtin__
object
p2
Ntp3
Rp4
(dp5
S'connections'
p6
(dp7
(I168
I3
tp8
g0
(cneat.genes
DefaultConnectionGene
p9
g2
Ntp10
Rp11
(dp12
S'enabled'
p13
I01
sS'weight'
p14
F0.10256157867280469
sS'key'
p15
g8
sbs(I-2
I0
tp16
g0
(g9
g2
Ntp17
Rp18
(dp19
g13
I01
sg14
F0.724432762726983
sg15
g16
sbs(I6
I6
tp20
g0
(g9
g2
Ntp21
Rp22
(dp23
g13
I00
sg14
F-0.5391135921977839
sg15
g20
sbs(I1199
I9
tp24
g0
(g9
g2
Ntp25
Rp26
(dp27
g13
I01
sg14
F-0.0044465879878285985
sg15
g24
sbs(I168
I4
tp28
g0
(g9
g2
Ntp29
Rp30
(dp31
g13
I00
sg14
F0.23785186668097508
sg15
g28
sbs(I168
I2787
tp32
g0
(g9
g2
Ntp33
Rp34
(dp35
g13
I00
sg14
F5.526373857007541
sg15
g32
sbs(I-3
I7
tp36
g0
(g9
g2
Ntp37
Rp38
(dp39
g13
I00
sg14
F-0.1821203518475461
sg15
g36
sbs(I5
I5
tp40
g0
(g9
g2
Ntp41
Rp42
(dp43
g13
I00
sg14
F-1.3134961727638683
sg15
g40
sbs(I-3
I168
tp44
g0
(g9
g2
Ntp45
Rp46
(dp47
g13
I00
sg14
F2.076436790892096
sg15
g44
sbs(I-6
I0
tp48
g0
(g9
g2
Ntp49
Rp50
(dp51
g13
I00
sg14
F-1.3535275841574943
sg15
g48
sbs(I4
I4
tp52
g0
(g9
g2
Ntp53
Rp54
(dp55
g13
I01
sg14
F-3.130165910332554
sg15
g52
sbs(I1199
I1
tp56
g0
(g9
g2
Ntp57
Rp58
(dp59
g13
I01
sg14
F3.1952403283089987
sg15
g56
sbs(I-6
I168
tp60
g0
(g9
g2
Ntp61
Rp62
(dp63
g13
I00
sg14
F-0.9672643288169449
sg15
g60
sbs(I-10
I168
tp64
g0
(g9
g2
Ntp65
Rp66
(dp67
g13
I01
sg14
F0.4743289322624711
sg15
g64
sbs(I-7
I1199
tp68
g0
(g9
g2
Ntp69
Rp70
(dp71
g13
I01
sg14
F0.16025392199640254
sg15
g68
sbs(I-4
I7
tp72
g0
(g9
g2
Ntp73
Rp74
(dp75
g13
I00
sg14
F-1.36924743152218
sg15
g72
sbs(I168
I5
tp76
g0
(g9
g2
Ntp77
Rp78
(dp79
g13
I00
sg14
F-0.7534762845370911
sg15
g76
sbs(I1
I1
tp80
g0
(g9
g2
Ntp81
Rp82
(dp83
g13
I00
sg14
F4.862863591906344
sg15
g80
sbs(I168
I1199
tp84
g0
(g9
g2
Ntp85
Rp86
(dp87
g13
I01
sg14
F-0.287026239039035
sg15
g84
sbs(I-9
I168
tp88
g0
(g9
g2
Ntp89
Rp90
(dp91
g13
I00
sg14
F0.6074818716520896
sg15
g88
sbs(I168
I3604
tp92
g0
(g9
g2
Ntp93
Rp94
(dp95
g13
I01
sg14
F1.168251789742041
sg15
g92
sbs(I3
I3
tp96
g0
(g9
g2
Ntp97
Rp98
(dp99
g13
I01
sg14
F2.296999204234146
sg15
g96
sbs(I2787
I3
tp100
g0
(g9
g2
Ntp101
Rp102
(dp103
g13
I01
sg14
F1.332769606075517
sg15
g100
sbs(I2737
I5
tp104
g0
(g9
g2
Ntp105
Rp106
(dp107
g13
I01
sg14
F0.44376576578944593
sg15
g104
sbs(I-7
I2737
tp108
g0
(g9
g2
Ntp109
Rp110
(dp111
g13
I01
sg14
F-0.9300843770890548
sg15
g108
sbs(I3604
I2787
tp112
g0
(g9
g2
Ntp113
Rp114
(dp115
g13
I01
sg14
F2.8863660704343608
sg15
g112
sbs(I2737
I1
tp116
g0
(g9
g2
Ntp117
Rp118
(dp119
g13
I01
sg14
F10.12244239997517
sg15
g116
sbs(I-9
I3
tp120
g0
(g9
g2
Ntp121
Rp122
(dp123
g13
I01
sg14
F2.5684375202251895
sg15
g120
sbs(I8
I8
tp124
g0
(g9
g2
Ntp125
Rp126
(dp127
g13
I00
sg14
F0.026911572751391354
sg15
g124
sbs(I-10
I6
tp128
g0
(g9
g2
Ntp129
Rp130
(dp131
g13
I00
sg14
F-0.5560095850313949
sg15
g128
sbssS'nodes'
p132
(dp133
I0
g0
(cneat.genes
DefaultNodeGene
p134
g2
Ntp135
Rp136
(dp137
S'activation'
p138
S'tanh'
p139
sS'bias'
p140
F-9.883211026946926
sS'response'
p141
F1.0
sg15
I0
sS'aggregation'
p142
S'sum'
p143
sbsI1
g0
(g134
g2
Ntp144
Rp145
(dp146
g138
S'relu'
p147
sg140
F-0.0885331060097625
sg141
F1.0
sg15
I1
sg142
g143
sbsI2
g0
(g134
g2
Ntp148
Rp149
(dp150
g138
g139
sg140
F2.6951790261416493
sg141
F1.0
sg15
I2
sg142
g143
sbsI3
g0
(g134
g2
Ntp151
Rp152
(dp153
g138
g139
sg140
F23.5229544892461
sg141
F1.0
sg15
I3
sg142
g143
sbsI4
g0
(g134
g2
Ntp154
Rp155
(dp156
g138
g139
sg140
F4.592606794257164
sg141
F1.0
sg15
I4
sg142
g143
sbsI5
g0
(g134
g2
Ntp157
Rp158
(dp159
g138
g139
sg140
F-0.06365579020561651
sg141
F1.0
sg15
I5
sg142
g143
sbsI6
g0
(g134
g2
Ntp160
Rp161
(dp162
g138
g139
sg140
F-12.248374786439657
sg141
F1.0
sg15
I6
sg142
g143
sbsI7
g0
(g134
g2
Ntp163
Rp164
(dp165
g138
g139
sg140
F-10.503347013109893
sg141
F1.0
sg15
I7
sg142
g143
sbsI8
g0
(g134
g2
Ntp166
Rp167
(dp168
g138
g139
sg140
F-9.450583102148363
sg141
F1.0
sg15
I8
sg142
g143
sbsI9
g0
(g134
g2
Ntp169
Rp170
(dp171
g138
g139
sg140
F-23.262190772191673
sg141
F1.0
sg15
I9
sg142
g143
sbsI1199
g0
(g134
g2
Ntp172
Rp173
(dp174
g138
g139
sg140
F5.425091589365398
sg141
F1.0
sg15
I1199
sg142
g143
sbsI168
g0
(g134
g2
Ntp175
Rp176
(dp177
g138
g139
sg140
F3.762805551718685
sg141
F1.0
sg15
I168
sg142
g143
sbsI2787
g0
(g134
g2
Ntp178
Rp179
(dp180
g138
g139
sg140
F16.45948282542746
sg141
F1.0
sg15
I2787
sg142
g143
sbsI3604
g0
(g134
g2
Ntp181
Rp182
(dp183
g138
g147
sg140
F-8.341618393484637
sg141
F1.0
sg15
I3604
sg142
g143
sbsI2737
g0
(g134
g2
Ntp184
Rp185
(dp186
g138
g147
sg140
F-14.786196998191032
sg141
F1.0
sg15
I2737
sg142
g143
sbssg15
I10963
sS'fitness'
p187
Nsb.