ccopy_reg
_reconstructor
p0
(cneat.genome
DefaultGenome
p1
c__builtin__
object
p2
Ntp3
Rp4
(dp5
S'connections'
p6
(dp7
(I168
I3
tp8
g0
(cneat.genes
DefaultConnectionGene
p9
g2
Ntp10
Rp11
(dp12
S'enabled'
p13
I01
sS'weight'
p14
F0.30520363962454694
sS'key'
p15
g8
sbs(I-2
I0
tp16
g0
(g9
g2
Ntp17
Rp18
(dp19
g13
I01
sg14
F0.44254645372652046
sg15
g16
sbs(I6
I6
tp20
g0
(g9
g2
Ntp21
Rp22
(dp23
g13
I00
sg14
F-0.1657557102319854
sg15
g20
sbs(I2294
I2737
tp24
g0
(g9
g2
Ntp25
Rp26
(dp27
g13
I01
sg14
F4.778489772209832
sg15
g24
sbs(I1199
I9
tp28
g0
(g9
g2
Ntp29
Rp30
(dp31
g13
I01
sg14
F-0.6858874748773218
sg15
g28
sbs(I168
I4
tp32
g0
(g9
g2
Ntp33
Rp34
(dp35
g13
I00
sg14
F-0.0781473476263504
sg15
g32
sbs(I168
I2787
tp36
g0
(g9
g2
Ntp37
Rp38
(dp39
g13
I00
sg14
F4.786948096947978
sg15
g36
sbs(I-3
I7
tp40
g0
(g9
g2
Ntp41
Rp42
(dp43
g13
I00
sg14
F-0.4483775749082127
sg15
g40
sbs(I5
I5
tp44
g0
(g9
g2
Ntp45
Rp46
(dp47
g13
I01
sg14
F-3.0472193760218254
sg15
g44
sbs(I-3
I168
tp48
g0
(g9
g2
Ntp49
Rp50
(dp51
g13
I00
sg14
F0.8978098981223412
sg15
g48
sbs(I-6
I0
tp52
g0
(g9
g2
Ntp53
Rp54
(dp55
g13
I00
sg14
F-0.4924621699828425
sg15
g52
sbs(I4
I4
tp56
g0
(g9
g2
Ntp57
Rp58
(dp59
g13
I00
sg14
F-1.2905967497568582
sg15
g56
sbs(I1199
I1
tp60
g0
(g9
g2
Ntp61
Rp62
(dp63
g13
I01
sg14
F0.4054194642275075
sg15
g60
sbs(I-6
I168
tp64
g0
(g9
g2
Ntp65
Rp66
(dp67
g13
I01
sg14
F-1.9086764853759692
sg15
g64
sbs(I-10
I168
tp68
g0
(g9
g2
Ntp69
Rp70
(dp71
g13
I00
sg14
F0.32543390996498933
sg15
g68
sbs(I-7
I1199
tp72
g0
(g9
g2
Ntp73
Rp74
(dp75
g13
I01
sg14
F1.668175468670829
sg15
g72
sbs(I-4
I7
tp76
g0
(g9
g2
Ntp77
Rp78
(dp79
g13
I00
sg14
F-2.1959632799627906
sg15
g76
sbs(I168
I5
tp80
g0
(g9
g2
Ntp81
Rp82
(dp83
g13
I00
sg14
F-2.155658532587036
sg15
g80
sbs(I1
I1
tp84
g0
(g9
g2
Ntp85
Rp86
(dp87
g13
I00
sg14
F5.44452148585561
sg15
g84
sbs(I168
I1199
tp88
g0
(g9
g2
Ntp89
Rp90
(dp91
g13
I01
sg14
F-2.186085808446361
sg15
g88
sbs(I1199
I2294
tp92
g0
(g9
g2
Ntp93
Rp94
(dp95
g13
I01
sg14
F0.4132114517115503
sg15
g92
sbs(I-9
I168
tp96
g0
(g9
g2
Ntp97
Rp98
(dp99
g13
I00
sg14
F1.2214011707406764
sg15
g96
sbs(I168
I3604
tp100
g0
(g9
g2
Ntp101
Rp102
(dp103
g13
I01
sg14
F1.5862564672002148
sg15
g100
sbs(I2294
I1
tp104
g0
(g9
g2
Ntp105
Rp106
(dp107
g13
I01
sg14
F8.666969051472936
sg15
g104
sbs(I3
I3
tp108
g0
(g9
g2
Ntp109
Rp110
(dp111
g13
I01
sg14
F2.6622261388758792
sg15
g108
sbs(I2787
I3
tp112
g0
(g9
g2
Ntp113
Rp114
(dp115
g13
I01
sg14
F1.0955496772587898
sg15
g112
sbs(I2737
I5
tp116
g0
(g9
g2
Ntp117
Rp118
(dp119
g13
I01
sg14
F0.25908146021710676
sg15
g116
sbs(I-7
I2737
tp120
g0
(g9
g2
Ntp121
Rp122
(dp123
g13
I01
sg14
F-0.4888117055230775
sg15
g120
sbs(I3604
I2787
tp124
g0
(g9
g2
Ntp125
Rp126
(dp127
g13
I01
sg14
F1.7547412535390623
sg15
g124
sbs(I2737
I1
tp128
g0
(g9
g2
Ntp129
Rp130
(dp131
g13
I01
sg14
F11.07443257985114
sg15
g128
sbs(I-9
I3
tp132
g0
(g9
g2
Ntp133
Rp134
(dp135
g13
I01
sg14
F2.01037979246916
sg15
g132
sbs(I8
I8
tp136
g0
(g9
g2
Ntp137
Rp138
(dp139
g13
I00
sg14
F0.28862990678333716
sg15
g136
sbs(I-10
I6
tp140
g0
(g9
g2
Ntp141
Rp142
(dp143
g13
I00
sg14
F-0.34144499743366186
sg15
g140
sbssS'nodes'
p144
(dp145
I0
g0
(cneat.genes
DefaultNodeGene
p146
g2
Ntp147
Rp148
(dp149
S'activation'
p150
S'tanh'
p151
sS'bias'
p152
F-0.09496908780698443
sS'response'
p153
F1.0
sg15
I0
sS'aggregation'
p154
S'sum'
p155
sbsI1
g0
(g146
g2
Ntp156
Rp157
(dp158
g150
S'relu'
p159
sg152
F6.1955482953483445
sg153
F1.0
sg15
I1
sg154
g155
sbsI2
g0
(g146
g2
Ntp160
Rp161
(dp162
g150
g151
sg152
F1.415172806640503
sg153
F1.0
sg15
I2
sg154
g155
sbsI3
g0
(g146
g2
Ntp163
Rp164
(dp165
g150
g151
sg152
F22.283146458916498
sg153
F1.0
sg15
I3
sg154
g155
sbsI4
g0
(g146
g2
Ntp166
Rp167
(dp168
g150
g151
sg152
F8.493829525773712
sg153
F1.0
sg15
I4
sg154
g155
sbsI5
g0
(g146
g2
Ntp169
Rp170
(dp171
g150
g151
sg152
F5.879661729999511
sg153
F1.0
sg15
I5
sg154
g155
sbsI6
g0
(g146
g2
Ntp172
Rp173
(dp174
g150
g151
sg152
F4.426291653955904
sg153
F1.0
sg15
I6
sg154
g155
sbsI7
g0
(g146
g2
Ntp175
Rp176
(dp177
g150
g151
sg152
F-10.405958421668794
sg153
F1.0
sg15
I7
sg154
g155
sbsI8
g0
(g146
g2
Ntp178
Rp179
(dp180
g150
g151
sg152
F-8.33329020178117
sg153
F1.0
sg15
I8
sg154
g155
sbsI9
g0
(g146
g2
Ntp181
Rp182
(dp183
g150
g151
sg152
F10.55244109909503
sg153
F1.0
sg15
I9
sg154
g155
sbsI1199
g0
(g146
g2
Ntp184
Rp185
(dp186
g150
g151
sg152
F6.658286361019674
sg153
F1.0
sg15
I1199
sg154
g155
sbsI168
g0
(g146
g2
Ntp187
Rp188
(dp189
g150
g151
sg152
F-5.890827170009445
sg153
F1.0
sg15
I168
sg154
g155
sbsI2787
g0
(g146
g2
Ntp190
Rp191
(dp192
g150
g151
sg152
F16.389321395694946
sg153
F1.0
sg15
I2787
sg154
g155
sbsI3604
g0
(g146
g2
Ntp193
Rp194
(dp195
g150
g159
sg152
F-8.898723109394878
sg153
F1.0
sg15
I3604
sg154
g155
sbsI2294
g0
(g146
g2
Ntp196
Rp197
(dp198
g150
g151
sg152
F6.89750025676997
sg153
F1.0
sg15
I2294
sg154
g155
sbsI2737
g0
(g146
g2
Ntp199
Rp200
(dp201
g150
g159
sg152
F-19.404115050869024
sg153
F1.0
sg15
I2737
sg154
g155
sbssg15
I10965
sS'fitness'
p202
Nsb.