ccopy_reg
_reconstructor
p0
(cneat.genome
DefaultGenome
p1
c__builtin__
object
p2
Ntp3
Rp4
(dp5
S'connections'
p6
(dp7
(I168
I3
tp8
g0
(cneat.genes
DefaultConnectionGene
p9
g2
Ntp10
Rp11
(dp12
S'enabled'
p13
I01
sS'weight'
p14
F0.6348665672604885
sS'key'
p15
g8
sbs(I-2
I0
tp16
g0
(g9
g2
Ntp17
Rp18
(dp19
g13
I01
sg14
F0.2229070286311691
sg15
g16
sbs(I6
I6
tp20
g0
(g9
g2
Ntp21
Rp22
(dp23
g13
I00
sg14
F-0.36258504505824646
sg15
g20
sbs(I2294
I2737
tp24
g0
(g9
g2
Ntp25
Rp26
(dp27
g13
I01
sg14
F4.132495472182304
sg15
g24
sbs(I1199
I9
tp28
g0
(g9
g2
Ntp29
Rp30
(dp31
g13
I01
sg14
F-0.8903824347260598
sg15
g28
sbs(I168
I4
tp32
g0
(g9
g2
Ntp33
Rp34
(dp35
g13
I00
sg14
F-0.33363245194067626
sg15
g32
sbs(I-3
I7
tp36
g0
(g9
g2
Ntp37
Rp38
(dp39
g13
I00
sg14
F-1.1362961645635563
sg15
g36
sbs(I5
I5
tp40
g0
(g9
g2
Ntp41
Rp42
(dp43
g13
I01
sg14
F0.08856051286266566
sg15
g40
sbs(I-3
I168
tp44
g0
(g9
g2
Ntp45
Rp46
(dp47
g13
I00
sg14
F1.7840623033337533
sg15
g44
sbs(I-6
I0
tp48
g0
(g9
g2
Ntp49
Rp50
(dp51
g13
I00
sg14
F-1.6311671319534269
sg15
g48
sbs(I4
I4
tp52
g0
(g9
g2
Ntp53
Rp54
(dp55
g13
I01
sg14
F-2.3546104588821044
sg15
g52
sbs(I1199
I1
tp56
g0
(g9
g2
Ntp57
Rp58
(dp59
g13
I01
sg14
F0.3723656816749605
sg15
g56
sbs(I-6
I168
tp60
g0
(g9
g2
Ntp61
Rp62
(dp63
g13
I01
sg14
F-0.9089986928062824
sg15
g60
sbs(I-10
I168
tp64
g0
(g9
g2
Ntp65
Rp66
(dp67
g13
I00
sg14
F1.3198896249218475
sg15
g64
sbs(I-7
I1199
tp68
g0
(g9
g2
Ntp69
Rp70
(dp71
g13
I00
sg14
F2.070367077105914
sg15
g68
sbs(I-4
I7
tp72
g0
(g9
g2
Ntp73
Rp74
(dp75
g13
I00
sg14
F-1.6538336722534015
sg15
g72
sbs(I168
I5
tp76
g0
(g9
g2
Ntp77
Rp78
(dp79
g13
I00
sg14
F-0.21440410878841937
sg15
g76
sbs(I1
I1
tp80
g0
(g9
g2
Ntp81
Rp82
(dp83
g13
I00
sg14
F4.624987495474747
sg15
g80
sbs(I168
I1199
tp84
g0
(g9
g2
Ntp85
Rp86
(dp87
g13
I01
sg14
F-0.375033370916966
sg15
g84
sbs(I1199
I2294
tp88
g0
(g9
g2
Ntp89
Rp90
(dp91
g13
I01
sg14
F0.8666856724621566
sg15
g88
sbs(I-9
I168
tp92
g0
(g9
g2
Ntp93
Rp94
(dp95
g13
I00
sg14
F0.4608659494814326
sg15
g92
sbs(I168
I3604
tp96
g0
(g9
g2
Ntp97
Rp98
(dp99
g13
I01
sg14
F1.7089744108755591
sg15
g96
sbs(I2294
I1
tp100
g0
(g9
g2
Ntp101
Rp102
(dp103
g13
I00
sg14
F9.309938980762057
sg15
g100
sbs(I3663
I1
tp104
g0
(g9
g2
Ntp105
Rp106
(dp107
g13
I01
sg14
F9.226773958816256
sg15
g104
sbs(I3
I3
tp108
g0
(g9
g2
Ntp109
Rp110
(dp111
g13
I01
sg14
F-1.1968043211445405
sg15
g108
sbs(I2737
I5
tp112
g0
(g9
g2
Ntp113
Rp114
(dp115
g13
I01
sg14
F0.3147697279988259
sg15
g112
sbs(I2294
I3663
tp116
g0
(g9
g2
Ntp117
Rp118
(dp119
g13
I01
sg14
F0.8793834322670572
sg15
g116
sbs(I2737
I1
tp120
g0
(g9
g2
Ntp121
Rp122
(dp123
g13
I01
sg14
F11.15714799149716
sg15
g120
sbs(I-9
I3
tp124
g0
(g9
g2
Ntp125
Rp126
(dp127
g13
I01
sg14
F1.7263681046606076
sg15
g124
sbs(I8
I8
tp128
g0
(g9
g2
Ntp129
Rp130
(dp131
g13
I00
sg14
F0.40662155230105057
sg15
g128
sbs(I-10
I6
tp132
g0
(g9
g2
Ntp133
Rp134
(dp135
g13
I01
sg14
F0.2811904735132248
sg15
g132
sbssS'nodes'
p136
(dp137
I0
g0
(cneat.genes
DefaultNodeGene
p138
g2
Ntp139
Rp140
(dp141
S'activation'
p142
S'tanh'
p143
sS'bias'
p144
F-10.876414758477017
sS'response'
p145
F1.0
sg15
I0
sS'aggregation'
p146
S'sum'
p147
sbsI1
g0
(g138
g2
Ntp148
Rp149
(dp150
g142
g143
sg144
F29.807150170292203
sg145
F1.0
sg15
I1
sg146
g147
sbsI2
g0
(g138
g2
Ntp151
Rp152
(dp153
g142
g143
sg144
F2.0966492267584926
sg145
F1.0
sg15
I2
sg146
g147
sbsI3
g0
(g138
g2
Ntp154
Rp155
(dp156
g142
g143
sg144
F-2.3484146055582573
sg145
F1.0
sg15
I3
sg146
g147
sbsI4
g0
(g138
g2
Ntp157
Rp158
(dp159
g142
g143
sg144
F10.369529546288556
sg145
F1.0
sg15
I4
sg146
g147
sbsI5
g0
(g138
g2
Ntp160
Rp161
(dp162
g142
g143
sg144
F1.4285105885759015
sg145
F1.0
sg15
I5
sg146
g147
sbsI6
g0
(g138
g2
Ntp163
Rp164
(dp165
g142
g143
sg144
F-11.214754814723497
sg145
F1.0
sg15
I6
sg146
g147
sbsI7
g0
(g138
g2
Ntp166
Rp167
(dp168
g142
g143
sg144
F-10.628480128915458
sg145
F1.0
sg15
I7
sg146
g147
sbsI8
g0
(g138
g2
Ntp169
Rp170
(dp171
g142
g143
sg144
F-8.673705061335538
sg145
F1.0
sg15
I8
sg146
g147
sbsI9
g0
(g138
g2
Ntp172
Rp173
(dp174
g142
g143
sg144
F-23.029714324039162
sg145
F1.0
sg15
I9
sg146
g147
sbsI1199
g0
(g138
g2
Ntp175
Rp176
(dp177
g142
g143
sg144
F-0.5603238402286743
sg145
F1.0
sg15
I1199
sg146
g147
sbsI168
g0
(g138
g2
Ntp178
Rp179
(dp180
g142
g143
sg144
F-6.919904566526229
sg145
F1.0
sg15
I168
sg146
g147
sbsI3604
g0
(g138
g2
Ntp181
Rp182
(dp183
g142
S'relu'
p184
sg144
F-8.383313696008694
sg145
F1.0
sg15
I3604
sg146
g147
sbsI2294
g0
(g138
g2
Ntp185
Rp186
(dp187
g142
g184
sg144
F6.772320343544836
sg145
F1.0
sg15
I2294
sg146
g147
sbsI2737
g0
(g138
g2
Ntp188
Rp189
(dp190
g142
g184
sg144
F-14.989302401519328
sg145
F1.0
sg15
I2737
sg146
g147
sbsI3663
g0
(g138
g2
Ntp191
Rp192
(dp193
g142
g184
sg144
F-7.405566708502834
sg145
F1.0
sg15
I3663
sg146
g147
sbssg15
I10974
sS'fitness'
p194
Nsb.