ccopy_reg
_reconstructor
p0
(cneat.genome
DefaultGenome
p1
c__builtin__
object
p2
Ntp3
Rp4
(dp5
S'connections'
p6
(dp7
(I168
I3
tp8
g0
(cneat.genes
DefaultConnectionGene
p9
g2
Ntp10
Rp11
(dp12
S'enabled'
p13
I01
sS'weight'
p14
F0.03512560345681903
sS'key'
p15
g8
sbs(I3
I2457
tp16
g0
(g9
g2
Ntp17
Rp18
(dp19
g13
I01
sg14
F1.3144091163820693
sg15
g16
sbs(I3613
I168
tp20
g0
(g9
g2
Ntp21
Rp22
(dp23
g13
I01
sg14
F-0.09539273783469795
sg15
g20
sbs(I3078
I3078
tp24
g0
(g9
g2
Ntp25
Rp26
(dp27
g13
I01
sg14
F0.05972182755315969
sg15
g24
sbs(I-2
I168
tp28
g0
(g9
g2
Ntp29
Rp30
(dp31
g13
I00
sg14
F0.5312933889503937
sg15
g28
sbs(I-8
I168
tp32
g0
(g9
g2
Ntp33
Rp34
(dp35
g13
I01
sg14
F1.2196808649086868
sg15
g32
sbs(I1
I3613
tp36
g0
(g9
g2
Ntp37
Rp38
(dp39
g13
I01
sg14
F-0.23361726670884264
sg15
g36
sbs(I-9
I6
tp40
g0
(g9
g2
Ntp41
Rp42
(dp43
g13
I01
sg14
F-1.1631443412985614
sg15
g40
sbs(I168
I4
tp44
g0
(g9
g2
Ntp45
Rp46
(dp47
g13
I00
sg14
F-1.806236471305963
sg15
g44
sbs(I2707
I168
tp48
g0
(g9
g2
Ntp49
Rp50
(dp51
g13
I01
sg14
F0.8269327145536907
sg15
g48
sbs(I-3
I7
tp52
g0
(g9
g2
Ntp53
Rp54
(dp55
g13
I01
sg14
F0.8485035110131431
sg15
g52
sbs(I5
I5
tp56
g0
(g9
g2
Ntp57
Rp58
(dp59
g13
I01
sg14
F-0.9555068628683953
sg15
g56
sbs(I-3
I168
tp60
g0
(g9
g2
Ntp61
Rp62
(dp63
g13
I00
sg14
F-0.11100957500002434
sg15
g60
sbs(I-6
I0
tp64
g0
(g9
g2
Ntp65
Rp66
(dp67
g13
I00
sg14
F-0.2902602307355584
sg15
g64
sbs(I4
I4
tp68
g0
(g9
g2
Ntp69
Rp70
(dp71
g13
I01
sg14
F0.5942546010358556
sg15
g68
sbs(I-5
I2707
tp72
g0
(g9
g2
Ntp73
Rp74
(dp75
g13
I01
sg14
F-0.8567131854651024
sg15
g72
sbs(I-2
I3613
tp76
g0
(g9
g2
Ntp77
Rp78
(dp79
g13
I01
sg14
F-0.01533129299367575
sg15
g76
sbs(I3059
I2
tp80
g0
(g9
g2
Ntp81
Rp82
(dp83
g13
I00
sg14
F-0.6604408939166557
sg15
g80
sbs(I-10
I168
tp84
g0
(g9
g2
Ntp85
Rp86
(dp87
g13
I01
sg14
F-0.673771860388351
sg15
g84
sbs(I-6
I2294
tp88
g0
(g9
g2
Ntp89
Rp90
(dp91
g13
I01
sg14
F-3.221870547214245
sg15
g88
sbs(I168
I5
tp92
g0
(g9
g2
Ntp93
Rp94
(dp95
g13
I00
sg14
F-0.09655758740104767
sg15
g92
sbs(I3078
I4
tp96
g0
(g9
g2
Ntp97
Rp98
(dp99
g13
I01
sg14
F1.6150970982943327
sg15
g96
sbs(I-9
I168
tp100
g0
(g9
g2
Ntp101
Rp102
(dp103
g13
I01
sg14
F0.530061743505635
sg15
g100
sbs(I-2
I1623
tp104
g0
(g9
g2
Ntp105
Rp106
(dp107
g13
I01
sg14
F0.7437620064647992
sg15
g104
sbs(I-1
I2294
tp108
g0
(g9
g2
Ntp109
Rp110
(dp111
g13
I01
sg14
F2.937288184332006
sg15
g108
sbs(I168
I3078
tp112
g0
(g9
g2
Ntp113
Rp114
(dp115
g13
I00
sg14
F0.4300999827608599
sg15
g112
sbs(I2294
I1
tp116
g0
(g9
g2
Ntp117
Rp118
(dp119
g13
I01
sg14
F11.122830740911573
sg15
g116
sbs(I2457
I3
tp120
g0
(g9
g2
Ntp121
Rp122
(dp123
g13
I01
sg14
F-1.4094109424636163
sg15
g120
sbs(I3
I3
tp124
g0
(g9
g2
Ntp125
Rp126
(dp127
g13
I01
sg14
F0.09757802721081454
sg15
g124
sbs(I1623
I168
tp128
g0
(g9
g2
Ntp129
Rp130
(dp131
g13
I00
sg14
F0.8439735082885333
sg15
g128
sbs(I-9
I3
tp132
g0
(g9
g2
Ntp133
Rp134
(dp135
g13
I00
sg14
F-1.8557012632241596
sg15
g132
sbs(I3
I3059
tp136
g0
(g9
g2
Ntp137
Rp138
(dp139
g13
I00
sg14
F-1.2867058560984967
sg15
g136
sbssS'nodes'
p140
(dp141
I0
g0
(cneat.genes
DefaultNodeGene
p142
g2
Ntp143
Rp144
(dp145
S'activation'
p146
S'tanh'
p147
sS'bias'
p148
F0.5563803500672733
sS'response'
p149
F1.0
sg15
I0
sS'aggregation'
p150
S'sum'
p151
sbsI1
g0
(g142
g2
Ntp152
Rp153
(dp154
g146
S'relu'
p155
sg148
F4.448980457814049
sg149
F1.0
sg15
I1
sg150
g151
sbsI2
g0
(g142
g2
Ntp156
Rp157
(dp158
g146
g147
sg148
F-2.102177729723246
sg149
F1.0
sg15
I2
sg150
g151
sbsI3
g0
(g142
g2
Ntp159
Rp160
(dp161
g146
g147
sg148
F3.6093947130309116
sg149
F1.0
sg15
I3
sg150
g151
sbsI4
g0
(g142
g2
Ntp162
Rp163
(dp164
g146
g147
sg148
F4.390284044104318
sg149
F1.0
sg15
I4
sg150
g151
sbsI5
g0
(g142
g2
Ntp165
Rp166
(dp167
g146
g147
sg148
F12.602132761116293
sg149
F1.0
sg15
I5
sg150
g151
sbsI6
g0
(g142
g2
Ntp168
Rp169
(dp170
g146
g147
sg148
F12.500188586837751
sg149
F1.0
sg15
I6
sg150
g151
sbsI7
g0
(g142
g2
Ntp171
Rp172
(dp173
g146
g147
sg148
F3.0765526061405177
sg149
F1.0
sg15
I7
sg150
g151
sbsI8
g0
(g142
g2
Ntp174
Rp175
(dp176
g146
g147
sg148
F-12.544493394956337
sg149
F1.0
sg15
I8
sg150
g151
sbsI9
g0
(g142
g2
Ntp177
Rp178
(dp179
g146
g147
sg148
F9.844519550316
sg149
F1.0
sg15
I9
sg150
g151
sbsI168
g0
(g142
g2
Ntp180
Rp181
(dp182
g146
g147
sg148
F17.799997061867405
sg149
F1.0
sg15
I168
sg150
g151
sbsI2707
g0
(g142
g2
Ntp183
Rp184
(dp185
g146
g147
sg148
F-20.125563777958522
sg149
F1.0
sg15
I2707
sg150
g151
sbsI2294
g0
(g142
g2
Ntp186
Rp187
(dp188
g146
g155
sg148
F17.215321791899395
sg149
F1.0
sg15
I2294
sg150
g151
sbsI1623
g0
(g142
g2
Ntp189
Rp190
(dp191
g146
g147
sg148
F3.122947362372577
sg149
F1.0
sg15
I1623
sg150
g151
sbsI2457
g0
(g142
g2
Ntp192
Rp193
(dp194
g146
g147
sg148
F4.451892666329108
sg149
F1.0
sg15
I2457
sg150
g151
sbsI3078
g0
(g142
g2
Ntp195
Rp196
(dp197
g146
g147
sg148
F-15.102989958137872
sg149
F1.0
sg15
I3078
sg150
g151
sbsI3613
g0
(g142
g2
Ntp198
Rp199
(dp200
g146
g155
sg148
F-1.4177465668791553
sg149
F1.0
sg15
I3613
sg150
g151
sbsI3059
g0
(g142
g2
Ntp201
Rp202
(dp203
g146
g147
sg148
F-11.69034820084425
sg149
F1.0
sg15
I3059
sg150
g151
sbssg15
I10978
sS'fitness'
p204
Nsb.