ccopy_reg
_reconstructor
p0
(cneat.genome
DefaultGenome
p1
c__builtin__
object
p2
Ntp3
Rp4
(dp5
S'connections'
p6
(dp7
(I168
I3
tp8
g0
(cneat.genes
DefaultConnectionGene
p9
g2
Ntp10
Rp11
(dp12
S'enabled'
p13
I01
sS'weight'
p14
F0.3337910675798018
sS'key'
p15
g8
sbs(I-2
I0
tp16
g0
(g9
g2
Ntp17
Rp18
(dp19
g13
I01
sg14
F1.4378301321344011
sg15
g16
sbs(I6
I6
tp20
g0
(g9
g2
Ntp21
Rp22
(dp23
g13
I00
sg14
F-0.28573110725407225
sg15
g20
sbs(I2294
I2737
tp24
g0
(g9
g2
Ntp25
Rp26
(dp27
g13
I01
sg14
F4.2544037140052655
sg15
g24
sbs(I168
I4
tp28
g0
(g9
g2
Ntp29
Rp30
(dp31
g13
I00
sg14
F-0.7834393671000552
sg15
g28
sbs(I168
I2787
tp32
g0
(g9
g2
Ntp33
Rp34
(dp35
g13
I00
sg14
F4.675154768333531
sg15
g32
sbs(I-3
I7
tp36
g0
(g9
g2
Ntp37
Rp38
(dp39
g13
I00
sg14
F-0.5835121028745166
sg15
g36
sbs(I5
I5
tp40
g0
(g9
g2
Ntp41
Rp42
(dp43
g13
I00
sg14
F-1.1392385310824573
sg15
g40
sbs(I-3
I168
tp44
g0
(g9
g2
Ntp45
Rp46
(dp47
g13
I00
sg14
F1.136604124720766
sg15
g44
sbs(I-6
I0
tp48
g0
(g9
g2
Ntp49
Rp50
(dp51
g13
I00
sg14
F0.09965964176610524
sg15
g48
sbs(I4
I4
tp52
g0
(g9
g2
Ntp53
Rp54
(dp55
g13
I01
sg14
F-1.6748329290278297
sg15
g52
sbs(I1199
I1
tp56
g0
(g9
g2
Ntp57
Rp58
(dp59
g13
I01
sg14
F0.34188225367629965
sg15
g56
sbs(I-6
I168
tp60
g0
(g9
g2
Ntp61
Rp62
(dp63
g13
I00
sg14
F-0.19101935790096958
sg15
g60
sbs(I-10
I168
tp64
g0
(g9
g2
Ntp65
Rp66
(dp67
g13
I01
sg14
F-0.7700306586361021
sg15
g64
sbs(I-7
I1199
tp68
g0
(g9
g2
Ntp69
Rp70
(dp71
g13
I00
sg14
F0.35989663895710844
sg15
g68
sbs(I-4
I7
tp72
g0
(g9
g2
Ntp73
Rp74
(dp75
g13
I00
sg14
F-1.0774644931295696
sg15
g72
sbs(I168
I5
tp76
g0
(g9
g2
Ntp77
Rp78
(dp79
g13
I00
sg14
F-2.85049451246818
sg15
g76
sbs(I1
I1
tp80
g0
(g9
g2
Ntp81
Rp82
(dp83
g13
I00
sg14
F1.2176918249487008
sg15
g80
sbs(I168
I1199
tp84
g0
(g9
g2
Ntp85
Rp86
(dp87
g13
I01
sg14
F-2.813777185151454
sg15
g84
sbs(I1199
I2294
tp88
g0
(g9
g2
Ntp89
Rp90
(dp91
g13
I01
sg14
F0.92285947136943
sg15
g88
sbs(I-9
I168
tp92
g0
(g9
g2
Ntp93
Rp94
(dp95
g13
I00
sg14
F-0.539903844705001
sg15
g92
sbs(I168
I3604
tp96
g0
(g9
g2
Ntp97
Rp98
(dp99
g13
I01
sg14
F1.5348878494402918
sg15
g96
sbs(I7
I2737
tp100
g0
(g9
g2
Ntp101
Rp102
(dp103
g13
I01
sg14
F0.10346365738163932
sg15
g100
sbs(I2294
I1
tp104
g0
(g9
g2
Ntp105
Rp106
(dp107
g13
I01
sg14
F9.123965969394064
sg15
g104
sbs(I3
I3
tp108
g0
(g9
g2
Ntp109
Rp110
(dp111
g13
I00
sg14
F3.077454922694906
sg15
g108
sbs(I2787
I3
tp112
g0
(g9
g2
Ntp113
Rp114
(dp115
g13
I00
sg14
F0.693843968450995
sg15
g112
sbs(I2737
I5
tp116
g0
(g9
g2
Ntp117
Rp118
(dp119
g13
I01
sg14
F1.7377806996197838
sg15
g116
sbs(I-7
I2737
tp120
g0
(g9
g2
Ntp121
Rp122
(dp123
g13
I01
sg14
F1.0231236339576866
sg15
g120
sbs(I3604
I2787
tp124
g0
(g9
g2
Ntp125
Rp126
(dp127
g13
I01
sg14
F2.5928474936283683
sg15
g124
sbs(I2737
I1
tp128
g0
(g9
g2
Ntp129
Rp130
(dp131
g13
I01
sg14
F9.807197039049731
sg15
g128
sbs(I-9
I3
tp132
g0
(g9
g2
Ntp133
Rp134
(dp135
g13
I01
sg14
F1.0537984515196421
sg15
g132
sbs(I8
I8
tp136
g0
(g9
g2
Ntp137
Rp138
(dp139
g13
I00
sg14
F-0.35504163292621643
sg15
g136
sbs(I-10
I6
tp140
g0
(g9
g2
Ntp141
Rp142
(dp143
g13
I01
sg14
F0.01140839247445899
sg15
g140
sbssS'nodes'
p144
(dp145
I0
g0
(cneat.genes
DefaultNodeGene
p146
g2
Ntp147
Rp148
(dp149
S'activation'
p150
S'tanh'
p151
sS'bias'
p152
F-9.537574539207986
sS'response'
p153
F1.0
sg15
I0
sS'aggregation'
p154
S'sum'
p155
sbsI1
g0
(g146
g2
Ntp156
Rp157
(dp158
g150
S'relu'
p159
sg152
F28.41055808019826
sg153
F1.0
sg15
I1
sg154
g155
sbsI2
g0
(g146
g2
Ntp160
Rp161
(dp162
g150
g151
sg152
F2.0074021694505864
sg153
F1.0
sg15
I2
sg154
g155
sbsI3
g0
(g146
g2
Ntp163
Rp164
(dp165
g150
g151
sg152
F-1.8038405924054262
sg153
F1.0
sg15
I3
sg154
g155
sbsI4
g0
(g146
g2
Ntp166
Rp167
(dp168
g150
g151
sg152
F4.468625725080593
sg153
F1.0
sg15
I4
sg154
g155
sbsI5
g0
(g146
g2
Ntp169
Rp170
(dp171
g150
g151
sg152
F0.9378473342116466
sg153
F1.0
sg15
I5
sg154
g155
sbsI6
g0
(g146
g2
Ntp172
Rp173
(dp174
g150
g151
sg152
F-11.2433011417899
sg153
F1.0
sg15
I6
sg154
g155
sbsI7
g0
(g146
g2
Ntp175
Rp176
(dp177
g150
g151
sg152
F-11.055898109379035
sg153
F1.0
sg15
I7
sg154
g155
sbsI8
g0
(g146
g2
Ntp178
Rp179
(dp180
g150
g151
sg152
F-7.777131644650366
sg153
F1.0
sg15
I8
sg154
g155
sbsI9
g0
(g146
g2
Ntp181
Rp182
(dp183
g150
g151
sg152
F10.287587887460703
sg153
F1.0
sg15
I9
sg154
g155
sbsI1199
g0
(g146
g2
Ntp184
Rp185
(dp186
g150
g151
sg152
F-5.2425938601668545
sg153
F1.0
sg15
I1199
sg154
g155
sbsI168
g0
(g146
g2
Ntp187
Rp188
(dp189
g150
g151
sg152
F5.026501953476905
sg153
F1.0
sg15
I168
sg154
g155
sbsI2787
g0
(g146
g2
Ntp190
Rp191
(dp192
g150
g151
sg152
F15.949198289246763
sg153
F1.0
sg15
I2787
sg154
g155
sbsI3604
g0
(g146
g2
Ntp193
Rp194
(dp195
g150
g159
sg152
F-8.306989604964583
sg153
F1.0
sg15
I3604
sg154
g155
sbsI2294
g0
(g146
g2
Ntp196
Rp197
(dp198
g150
g159
sg152
F-7.607435185962314
sg153
F1.0
sg15
I2294
sg154
g155
sbsI2737
g0
(g146
g2
Ntp199
Rp200
(dp201
g150
g159
sg152
F-15.087616836405447
sg153
F1.0
sg15
I2737
sg154
g155
sbssg15
I10973
sS'fitness'
p202
Nsb.