ccopy_reg
_reconstructor
p0
(cneat.genome
DefaultGenome
p1
c__builtin__
object
p2
Ntp3
Rp4
(dp5
S'connections'
p6
(dp7
(I168
I3
tp8
g0
(cneat.genes
DefaultConnectionGene
p9
g2
Ntp10
Rp11
(dp12
S'enabled'
p13
I01
sS'weight'
p14
F-0.7115800404379201
sS'key'
p15
g8
sbs(I3
I2457
tp16
g0
(g9
g2
Ntp17
Rp18
(dp19
g13
I01
sg14
F1.2171251911837828
sg15
g16
sbs(I3613
I168
tp20
g0
(g9
g2
Ntp21
Rp22
(dp23
g13
I01
sg14
F-0.1361866317723382
sg15
g20
sbs(I3078
I3078
tp24
g0
(g9
g2
Ntp25
Rp26
(dp27
g13
I01
sg14
F0.049931683597700505
sg15
g24
sbs(I-2
I168
tp28
g0
(g9
g2
Ntp29
Rp30
(dp31
g13
I00
sg14
F0.7450576985868729
sg15
g28
sbs(I-8
I168
tp32
g0
(g9
g2
Ntp33
Rp34
(dp35
g13
I01
sg14
F0.3261060858879745
sg15
g32
sbs(I3059
I3
tp36
g0
(g9
g2
Ntp37
Rp38
(dp39
g13
I00
sg14
F-0.13560930973302704
sg15
g36
sbs(I1
I3613
tp40
g0
(g9
g2
Ntp41
Rp42
(dp43
g13
I01
sg14
F-1.1311926810739141
sg15
g40
sbs(I-9
I6
tp44
g0
(g9
g2
Ntp45
Rp46
(dp47
g13
I01
sg14
F-0.5209715402474897
sg15
g44
sbs(I168
I4
tp48
g0
(g9
g2
Ntp49
Rp50
(dp51
g13
I00
sg14
F0.008713151323706148
sg15
g48
sbs(I2707
I168
tp52
g0
(g9
g2
Ntp53
Rp54
(dp55
g13
I01
sg14
F0.8348123573648907
sg15
g52
sbs(I-3
I7
tp56
g0
(g9
g2
Ntp57
Rp58
(dp59
g13
I01
sg14
F1.3361471049895093
sg15
g56
sbs(I5
I5
tp60
g0
(g9
g2
Ntp61
Rp62
(dp63
g13
I01
sg14
F-0.1041852966883123
sg15
g60
sbs(I-3
I168
tp64
g0
(g9
g2
Ntp65
Rp66
(dp67
g13
I00
sg14
F2.4523452708396642
sg15
g64
sbs(I-6
I0
tp68
g0
(g9
g2
Ntp69
Rp70
(dp71
g13
I00
sg14
F1.2919238514523104
sg15
g68
sbs(I4
I4
tp72
g0
(g9
g2
Ntp73
Rp74
(dp75
g13
I01
sg14
F1.1034128713624758
sg15
g72
sbs(I-5
I2707
tp76
g0
(g9
g2
Ntp77
Rp78
(dp79
g13
I01
sg14
F0.49026860166676417
sg15
g76
sbs(I-2
I3613
tp80
g0
(g9
g2
Ntp81
Rp82
(dp83
g13
I01
sg14
F-2.5231101804663805
sg15
g80
sbs(I3059
I2
tp84
g0
(g9
g2
Ntp85
Rp86
(dp87
g13
I00
sg14
F-1.6985654174581648
sg15
g84
sbs(I-6
I2294
tp88
g0
(g9
g2
Ntp89
Rp90
(dp91
g13
I01
sg14
F-2.146878592165807
sg15
g88
sbs(I168
I5
tp92
g0
(g9
g2
Ntp93
Rp94
(dp95
g13
I00
sg14
F-0.6223199612274154
sg15
g92
sbs(I3078
I4
tp96
g0
(g9
g2
Ntp97
Rp98
(dp99
g13
I01
sg14
F-0.23315398458655107
sg15
g96
sbs(I-9
I168
tp100
g0
(g9
g2
Ntp101
Rp102
(dp103
g13
I01
sg14
F-0.4937909496817763
sg15
g100
sbs(I-2
I1623
tp104
g0
(g9
g2
Ntp105
Rp106
(dp107
g13
I01
sg14
F0.6392424747586415
sg15
g104
sbs(I-1
I2294
tp108
g0
(g9
g2
Ntp109
Rp110
(dp111
g13
I01
sg14
F2.6608641396842816
sg15
g108
sbs(I168
I3078
tp112
g0
(g9
g2
Ntp113
Rp114
(dp115
g13
I00
sg14
F-0.19507260610230842
sg15
g112
sbs(I2294
I1
tp116
g0
(g9
g2
Ntp117
Rp118
(dp119
g13
I01
sg14
F10.490436239826707
sg15
g116
sbs(I2457
I3
tp120
g0
(g9
g2
Ntp121
Rp122
(dp123
g13
I01
sg14
F0.6851819364134215
sg15
g120
sbs(I3
I3
tp124
g0
(g9
g2
Ntp125
Rp126
(dp127
g13
I01
sg14
F0.43099813913203977
sg15
g124
sbs(I1623
I168
tp128
g0
(g9
g2
Ntp129
Rp130
(dp131
g13
I00
sg14
F1.6217744070065843
sg15
g128
sbs(I-9
I3
tp132
g0
(g9
g2
Ntp133
Rp134
(dp135
g13
I00
sg14
F-2.0824002340973577
sg15
g132
sbssS'nodes'
p136
(dp137
I0
g0
(cneat.genes
DefaultNodeGene
p138
g2
Ntp139
Rp140
(dp141
S'activation'
p142
S'tanh'
p143
sS'bias'
p144
F15.455556270827445
sS'response'
p145
F1.0
sg15
I0
sS'aggregation'
p146
S'sum'
p147
sbsI1
g0
(g138
g2
Ntp148
Rp149
(dp150
g142
S'relu'
p151
sg144
F5.893085829470491
sg145
F1.0
sg15
I1
sg146
g147
sbsI2
g0
(g138
g2
Ntp152
Rp153
(dp154
g142
g143
sg144
F-2.1564381333654765
sg145
F1.0
sg15
I2
sg146
g147
sbsI3
g0
(g138
g2
Ntp155
Rp156
(dp157
g142
g143
sg144
F-0.22308550416198158
sg145
F1.0
sg15
I3
sg146
g147
sbsI4
g0
(g138
g2
Ntp158
Rp159
(dp160
g142
g143
sg144
F6.749415837644891
sg145
F1.0
sg15
I4
sg146
g147
sbsI5
g0
(g138
g2
Ntp161
Rp162
(dp163
g142
g143
sg144
F5.272313187540154
sg145
F1.0
sg15
I5
sg146
g147
sbsI6
g0
(g138
g2
Ntp164
Rp165
(dp166
g142
g143
sg144
F14.961128364632598
sg145
F1.0
sg15
I6
sg146
g147
sbsI7
g0
(g138
g2
Ntp167
Rp168
(dp169
g142
g143
sg144
F1.7395348609415562
sg145
F1.0
sg15
I7
sg146
g147
sbsI8
g0
(g138
g2
Ntp170
Rp171
(dp172
g142
g143
sg144
F5.773140002895221
sg145
F1.0
sg15
I8
sg146
g147
sbsI9
g0
(g138
g2
Ntp173
Rp174
(dp175
g142
g143
sg144
F5.239258664998397
sg145
F1.0
sg15
I9
sg146
g147
sbsI168
g0
(g138
g2
Ntp176
Rp177
(dp178
g142
g143
sg144
F18.05319270269341
sg145
F1.0
sg15
I168
sg146
g147
sbsI2707
g0
(g138
g2
Ntp179
Rp180
(dp181
g142
g143
sg144
F-20.69389608848523
sg145
F1.0
sg15
I2707
sg146
g147
sbsI2294
g0
(g138
g2
Ntp182
Rp183
(dp184
g142
g151
sg144
F-10.492724005034395
sg145
F1.0
sg15
I2294
sg146
g147
sbsI1623
g0
(g138
g2
Ntp185
Rp186
(dp187
g142
g143
sg144
F1.3345382718725307
sg145
F1.0
sg15
I1623
sg146
g147
sbsI2457
g0
(g138
g2
Ntp188
Rp189
(dp190
g142
g143
sg144
F4.171770536532581
sg145
F1.0
sg15
I2457
sg146
g147
sbsI3078
g0
(g138
g2
Ntp191
Rp192
(dp193
g142
g143
sg144
F-2.415705580503618
sg145
F1.0
sg15
I3078
sg146
g147
sbsI3613
g0
(g138
g2
Ntp194
Rp195
(dp196
g142
g151
sg144
F-1.771026614220887
sg145
F1.0
sg15
I3613
sg146
g147
sbsI3059
g0
(g138
g2
Ntp197
Rp198
(dp199
g142
g143
sg144
F15.255947623264897
sg145
F1.0
sg15
I3059
sg146
g147
sbssg15
I10975
sS'fitness'
p200
Nsb.