ccopy_reg
_reconstructor
p0
(cneat.genome
DefaultGenome
p1
c__builtin__
object
p2
Ntp3
Rp4
(dp5
S'connections'
p6
(dp7
(I168
I3
tp8
g0
(cneat.genes
DefaultConnectionGene
p9
g2
Ntp10
Rp11
(dp12
S'enabled'
p13
I01
sS'weight'
p14
F-0.13462756880152
sS'key'
p15
g8
sbs(I-2
I0
tp16
g0
(g9
g2
Ntp17
Rp18
(dp19
g13
I01
sg14
F0.333721281795222
sg15
g16
sbs(I2294
I2737
tp20
g0
(g9
g2
Ntp21
Rp22
(dp23
g13
I01
sg14
F3.6624471140678594
sg15
g20
sbs(I1199
I9
tp24
g0
(g9
g2
Ntp25
Rp26
(dp27
g13
I01
sg14
F-0.6959571920961244
sg15
g24
sbs(I168
I4
tp28
g0
(g9
g2
Ntp29
Rp30
(dp31
g13
I00
sg14
F0.23430663378843086
sg15
g28
sbs(I168
I2787
tp32
g0
(g9
g2
Ntp33
Rp34
(dp35
g13
I00
sg14
F4.821401129789654
sg15
g32
sbs(I-3
I7
tp36
g0
(g9
g2
Ntp37
Rp38
(dp39
g13
I00
sg14
F-0.40617480948978796
sg15
g36
sbs(I5
I5
tp40
g0
(g9
g2
Ntp41
Rp42
(dp43
g13
I01
sg14
F-2.084212333400554
sg15
g40
sbs(I-3
I168
tp44
g0
(g9
g2
Ntp45
Rp46
(dp47
g13
I00
sg14
F0.7545169018036443
sg15
g44
sbs(I-6
I0
tp48
g0
(g9
g2
Ntp49
Rp50
(dp51
g13
I00
sg14
F-0.7996961864022927
sg15
g48
sbs(I4
I4
tp52
g0
(g9
g2
Ntp53
Rp54
(dp55
g13
I00
sg14
F-1.8630151326698738
sg15
g52
sbs(I1199
I1
tp56
g0
(g9
g2
Ntp57
Rp58
(dp59
g13
I01
sg14
F-0.522365400054037
sg15
g56
sbs(I-6
I168
tp60
g0
(g9
g2
Ntp61
Rp62
(dp63
g13
I01
sg14
F0.4961131843231058
sg15
g60
sbs(I-10
I168
tp64
g0
(g9
g2
Ntp65
Rp66
(dp67
g13
I00
sg14
F-1.0688439962734742
sg15
g64
sbs(I-7
I1199
tp68
g0
(g9
g2
Ntp69
Rp70
(dp71
g13
I01
sg14
F2.325691066797848
sg15
g68
sbs(I-4
I7
tp72
g0
(g9
g2
Ntp73
Rp74
(dp75
g13
I00
sg14
F-1.2524494466837548
sg15
g72
sbs(I168
I5
tp76
g0
(g9
g2
Ntp77
Rp78
(dp79
g13
I00
sg14
F0.31582225053128893
sg15
g76
sbs(I1
I1
tp80
g0
(g9
g2
Ntp81
Rp82
(dp83
g13
I00
sg14
F4.483980519578901
sg15
g80
sbs(I168
I1199
tp84
g0
(g9
g2
Ntp85
Rp86
(dp87
g13
I01
sg14
F-3.415873048363128
sg15
g84
sbs(I1199
I2294
tp88
g0
(g9
g2
Ntp89
Rp90
(dp91
g13
I01
sg14
F0.48515438335240924
sg15
g88
sbs(I-9
I168
tp92
g0
(g9
g2
Ntp93
Rp94
(dp95
g13
I00
sg14
F2.070452085159042
sg15
g92
sbs(I168
I3604
tp96
g0
(g9
g2
Ntp97
Rp98
(dp99
g13
I01
sg14
F1.5862564672002148
sg15
g96
sbs(I2294
I1
tp100
g0
(g9
g2
Ntp101
Rp102
(dp103
g13
I01
sg14
F7.834406379503398
sg15
g100
sbs(I3
I3
tp104
g0
(g9
g2
Ntp105
Rp106
(dp107
g13
I01
sg14
F1.8294491625692457
sg15
g104
sbs(I2787
I3
tp108
g0
(g9
g2
Ntp109
Rp110
(dp111
g13
I01
sg14
F0.38275528071054354
sg15
g108
sbs(I2737
I5
tp112
g0
(g9
g2
Ntp113
Rp114
(dp115
g13
I01
sg14
F0.8881517863986275
sg15
g112
sbs(I-7
I2737
tp116
g0
(g9
g2
Ntp117
Rp118
(dp119
g13
I01
sg14
F-1.396421110086235
sg15
g116
sbs(I3604
I2787
tp120
g0
(g9
g2
Ntp121
Rp122
(dp123
g13
I01
sg14
F2.0102492143211963
sg15
g120
sbs(I2737
I1
tp124
g0
(g9
g2
Ntp125
Rp126
(dp127
g13
I01
sg14
F10.42098292660487
sg15
g124
sbs(I-9
I3
tp128
g0
(g9
g2
Ntp129
Rp130
(dp131
g13
I01
sg14
F1.2794799412980304
sg15
g128
sbs(I8
I8
tp132
g0
(g9
g2
Ntp133
Rp134
(dp135
g13
I00
sg14
F-0.04862468916327748
sg15
g132
sbs(I-10
I6
tp136
g0
(g9
g2
Ntp137
Rp138
(dp139
g13
I00
sg14
F0.2673849612176548
sg15
g136
sbssS'nodes'
p140
(dp141
I0
g0
(cneat.genes
DefaultNodeGene
p142
g2
Ntp143
Rp144
(dp145
S'activation'
p146
S'tanh'
p147
sS'bias'
p148
F-10.484382237634394
sS'response'
p149
F1.0
sg15
I0
sS'aggregation'
p150
S'sum'
p151
sbsI1
g0
(g142
g2
Ntp152
Rp153
(dp154
g146
g147
sg148
F29.05179126989752
sg149
F1.0
sg15
I1
sg150
g151
sbsI2
g0
(g142
g2
Ntp155
Rp156
(dp157
g146
g147
sg148
F1.5968553217074153
sg149
F1.0
sg15
I2
sg150
g151
sbsI3
g0
(g142
g2
Ntp158
Rp159
(dp160
g146
g147
sg148
F13.201122502167957
sg149
F1.0
sg15
I3
sg150
g151
sbsI4
g0
(g142
g2
Ntp161
Rp162
(dp163
g146
g147
sg148
F1.8403452341348698
sg149
F1.0
sg15
I4
sg150
g151
sbsI5
g0
(g142
g2
Ntp164
Rp165
(dp166
g146
g147
sg148
F18.42793547296624
sg149
F1.0
sg15
I5
sg150
g151
sbsI6
g0
(g142
g2
Ntp167
Rp168
(dp169
g146
g147
sg148
F-10.719807974622299
sg149
F1.0
sg15
I6
sg150
g151
sbsI7
g0
(g142
g2
Ntp170
Rp171
(dp172
g146
g147
sg148
F-11.038753591956153
sg149
F1.0
sg15
I7
sg150
g151
sbsI8
g0
(g142
g2
Ntp173
Rp174
(dp175
g146
g147
sg148
F-8.42767525574782
sg149
F1.0
sg15
I8
sg150
g151
sbsI9
g0
(g142
g2
Ntp176
Rp177
(dp178
g146
g147
sg148
F-3.6082658637603897
sg149
F1.0
sg15
I9
sg150
g151
sbsI1199
g0
(g142
g2
Ntp179
Rp180
(dp181
g146
g147
sg148
F4.871638896856088
sg149
F1.0
sg15
I1199
sg150
g151
sbsI168
g0
(g142
g2
Ntp182
Rp183
(dp184
g146
g147
sg148
F-4.965581440895096
sg149
F1.0
sg15
I168
sg150
g151
sbsI2787
g0
(g142
g2
Ntp185
Rp186
(dp187
g146
g147
sg148
F17.143652000336505
sg149
F1.0
sg15
I2787
sg150
g151
sbsI3604
g0
(g142
g2
Ntp188
Rp189
(dp190
g146
S'relu'
p191
sg148
F-7.873683237307569
sg149
F1.0
sg15
I3604
sg150
g151
sbsI2294
g0
(g142
g2
Ntp192
Rp193
(dp194
g146
g191
sg148
F5.9737579547438155
sg149
F1.0
sg15
I2294
sg150
g151
sbsI2737
g0
(g142
g2
Ntp195
Rp196
(dp197
g146
g191
sg148
F-14.497158231589832
sg149
F1.0
sg15
I2737
sg150
g151
sbssg15
I10971
sS'fitness'
p198
Nsb.