ccopy_reg
_reconstructor
p0
(cneat.genome
DefaultGenome
p1
c__builtin__
object
p2
Ntp3
Rp4
(dp5
S'connections'
p6
(dp7
(I168
I3662
tp8
g0
(cneat.genes
DefaultConnectionGene
p9
g2
Ntp10
Rp11
(dp12
S'enabled'
p13
I01
sS'weight'
p14
F0.8380884814038465
sS'key'
p15
g8
sbs(I168
I3
tp16
g0
(g9
g2
Ntp17
Rp18
(dp19
g13
I01
sg14
F-0.7994921926520284
sg15
g16
sbs(I-2
I0
tp20
g0
(g9
g2
Ntp21
Rp22
(dp23
g13
I01
sg14
F1.2813313767325307
sg15
g20
sbs(I6
I6
tp24
g0
(g9
g2
Ntp25
Rp26
(dp27
g13
I00
sg14
F-0.5361017994723294
sg15
g24
sbs(I2294
I2737
tp28
g0
(g9
g2
Ntp29
Rp30
(dp31
g13
I01
sg14
F4.253589896098925
sg15
g28
sbs(I1199
I9
tp32
g0
(g9
g2
Ntp33
Rp34
(dp35
g13
I01
sg14
F-1.0671684577291722
sg15
g32
sbs(I3662
I3604
tp36
g0
(g9
g2
Ntp37
Rp38
(dp39
g13
I01
sg14
F-0.11565019946259475
sg15
g36
sbs(I168
I4
tp40
g0
(g9
g2
Ntp41
Rp42
(dp43
g13
I00
sg14
F-1.097818002858445
sg15
g40
sbs(I168
I2787
tp44
g0
(g9
g2
Ntp45
Rp46
(dp47
g13
I00
sg14
F4.62278449407137
sg15
g44
sbs(I-3
I7
tp48
g0
(g9
g2
Ntp49
Rp50
(dp51
g13
I00
sg14
F-0.8670574439609169
sg15
g48
sbs(I5
I5
tp52
g0
(g9
g2
Ntp53
Rp54
(dp55
g13
I01
sg14
F-2.3392763458586745
sg15
g52
sbs(I-6
I0
tp56
g0
(g9
g2
Ntp57
Rp58
(dp59
g13
I00
sg14
F0.060420385707212754
sg15
g56
sbs(I4
I4
tp60
g0
(g9
g2
Ntp61
Rp62
(dp63
g13
I00
sg14
F-2.0809533519725347
sg15
g60
sbs(I1199
I1
tp64
g0
(g9
g2
Ntp65
Rp66
(dp67
g13
I01
sg14
F-0.7396633781110574
sg15
g64
sbs(I-6
I168
tp68
g0
(g9
g2
Ntp69
Rp70
(dp71
g13
I01
sg14
F-0.8097317973384949
sg15
g68
sbs(I-10
I168
tp72
g0
(g9
g2
Ntp73
Rp74
(dp75
g13
I00
sg14
F-0.5488370431793981
sg15
g72
sbs(I-7
I1199
tp76
g0
(g9
g2
Ntp77
Rp78
(dp79
g13
I01
sg14
F1.8454158731977102
sg15
g76
sbs(I-4
I7
tp80
g0
(g9
g2
Ntp81
Rp82
(dp83
g13
I00
sg14
F-1.4058656237301081
sg15
g80
sbs(I168
I5
tp84
g0
(g9
g2
Ntp85
Rp86
(dp87
g13
I00
sg14
F-1.7119691259487169
sg15
g84
sbs(I1
I1
tp88
g0
(g9
g2
Ntp89
Rp90
(dp91
g13
I00
sg14
F5.004956726853919
sg15
g88
sbs(I168
I1199
tp92
g0
(g9
g2
Ntp93
Rp94
(dp95
g13
I01
sg14
F-1.4277333548547348
sg15
g92
sbs(I1199
I2294
tp96
g0
(g9
g2
Ntp97
Rp98
(dp99
g13
I01
sg14
F0.9979881208182719
sg15
g96
sbs(I-9
I168
tp100
g0
(g9
g2
Ntp101
Rp102
(dp103
g13
I00
sg14
F1.2589434203508405
sg15
g100
sbs(I168
I3604
tp104
g0
(g9
g2
Ntp105
Rp106
(dp107
g13
I00
sg14
F1.451545702432058
sg15
g104
sbs(I2294
I1
tp108
g0
(g9
g2
Ntp109
Rp110
(dp111
g13
I01
sg14
F7.681883951319112
sg15
g108
sbs(I3
I3
tp112
g0
(g9
g2
Ntp113
Rp114
(dp115
g13
I01
sg14
F-0.8181615889024563
sg15
g112
sbs(I2787
I3
tp116
g0
(g9
g2
Ntp117
Rp118
(dp119
g13
I01
sg14
F1.3995555771738528
sg15
g116
sbs(I2737
I5
tp120
g0
(g9
g2
Ntp121
Rp122
(dp123
g13
I01
sg14
F0.5351540117956923
sg15
g120
sbs(I-7
I2737
tp124
g0
(g9
g2
Ntp125
Rp126
(dp127
g13
I01
sg14
F-0.850479876769598
sg15
g124
sbs(I3604
I2787
tp128
g0
(g9
g2
Ntp129
Rp130
(dp131
g13
I01
sg14
F3.0615513445604527
sg15
g128
sbs(I2737
I1
tp132
g0
(g9
g2
Ntp133
Rp134
(dp135
g13
I01
sg14
F11.232238197703955
sg15
g132
sbs(I-9
I3
tp136
g0
(g9
g2
Ntp137
Rp138
(dp139
g13
I01
sg14
F1.1350992552108805
sg15
g136
sbs(I8
I8
tp140
g0
(g9
g2
Ntp141
Rp142
(dp143
g13
I00
sg14
F-0.15172631722548505
sg15
g140
sbs(I-10
I6
tp144
g0
(g9
g2
Ntp145
Rp146
(dp147
g13
I00
sg14
F-0.4186851726470841
sg15
g144
sbssS'nodes'
p148
(dp149
I0
g0
(cneat.genes
DefaultNodeGene
p150
g2
Ntp151
Rp152
(dp153
S'activation'
p154
S'tanh'
p155
sS'bias'
p156
F-10.230032320765053
sS'response'
p157
F1.0
sg15
I0
sS'aggregation'
p158
S'sum'
p159
sbsI1
g0
(g150
g2
Ntp160
Rp161
(dp162
g154
g155
sg156
F29.797774899628283
sg157
F1.0
sg15
I1
sg158
g159
sbsI2
g0
(g150
g2
Ntp163
Rp164
(dp165
g154
g155
sg156
F2.7377104644267343
sg157
F1.0
sg15
I2
sg158
g159
sbsI3
g0
(g150
g2
Ntp166
Rp167
(dp168
g154
g155
sg156
F21.55780335755089
sg157
F1.0
sg15
I3
sg158
g159
sbsI4
g0
(g150
g2
Ntp169
Rp170
(dp171
g154
g155
sg156
F9.085773240463537
sg157
F1.0
sg15
I4
sg158
g159
sbsI5
g0
(g150
g2
Ntp172
Rp173
(dp174
g154
g155
sg156
F6.06521932093128
sg157
F1.0
sg15
I5
sg158
g159
sbsI6
g0
(g150
g2
Ntp175
Rp176
(dp177
g154
g155
sg156
F-11.468906363821642
sg157
F1.0
sg15
I6
sg158
g159
sbsI7
g0
(g150
g2
Ntp178
Rp179
(dp180
g154
g155
sg156
F-10.680487078189124
sg157
F1.0
sg15
I7
sg158
g159
sbsI8
g0
(g150
g2
Ntp181
Rp182
(dp183
g154
g155
sg156
F-9.114316719688793
sg157
F1.0
sg15
I8
sg158
g159
sbsI9
g0
(g150
g2
Ntp184
Rp185
(dp186
g154
g155
sg156
F-0.797760677252305
sg157
F1.0
sg15
I9
sg158
g159
sbsI3662
g0
(g150
g2
Ntp187
Rp188
(dp189
g154
S'relu'
p190
sg156
F6.37302356287354
sg157
F1.0
sg15
I3662
sg158
g159
sbsI1199
g0
(g150
g2
Ntp191
Rp192
(dp193
g154
g155
sg156
F6.091240921268249
sg157
F1.0
sg15
I1199
sg158
g159
sbsI168
g0
(g150
g2
Ntp194
Rp195
(dp196
g154
g155
sg156
F-5.477811273625287
sg157
F1.0
sg15
I168
sg158
g159
sbsI2787
g0
(g150
g2
Ntp197
Rp198
(dp199
g154
g155
sg156
F15.998471565693878
sg157
F1.0
sg15
I2787
sg158
g159
sbsI3604
g0
(g150
g2
Ntp200
Rp201
(dp202
g154
g190
sg156
F-7.861652665115653
sg157
F1.0
sg15
I3604
sg158
g159
sbsI2294
g0
(g150
g2
Ntp203
Rp204
(dp205
g154
g190
sg156
F7.254227544243037
sg157
F1.0
sg15
I2294
sg158
g159
sbsI2737
g0
(g150
g2
Ntp206
Rp207
(dp208
g154
g190
sg156
F-14.134609290961508
sg157
F1.0
sg15
I2737
sg158
g159
sbssg15
I10972
sS'fitness'
p209
Nsb.