ccopy_reg
_reconstructor
p0
(cneat.genome
DefaultGenome
p1
c__builtin__
object
p2
Ntp3
Rp4
(dp5
S'connections'
p6
(dp7
(I168
I3
tp8
g0
(cneat.genes
DefaultConnectionGene
p9
g2
Ntp10
Rp11
(dp12
S'enabled'
p13
I01
sS'weight'
p14
F-0.6567011859508908
sS'key'
p15
g8
sbs(I3
I2457
tp16
g0
(g9
g2
Ntp17
Rp18
(dp19
g13
I01
sg14
F1.380826621892474
sg15
g16
sbs(I3613
I168
tp20
g0
(g9
g2
Ntp21
Rp22
(dp23
g13
I01
sg14
F0.4400301340592435
sg15
g20
sbs(I3078
I3078
tp24
g0
(g9
g2
Ntp25
Rp26
(dp27
g13
I00
sg14
F0.09870225455660586
sg15
g24
sbs(I-2
I168
tp28
g0
(g9
g2
Ntp29
Rp30
(dp31
g13
I01
sg14
F0.20576932947078935
sg15
g28
sbs(I-8
I168
tp32
g0
(g9
g2
Ntp33
Rp34
(dp35
g13
I01
sg14
F0.16292944895116757
sg15
g32
sbs(I3059
I3
tp36
g0
(g9
g2
Ntp37
Rp38
(dp39
g13
I00
sg14
F0.18238661027532438
sg15
g36
sbs(I1
I3613
tp40
g0
(g9
g2
Ntp41
Rp42
(dp43
g13
I01
sg14
F-1.8875668264115528
sg15
g40
sbs(I-9
I6
tp44
g0
(g9
g2
Ntp45
Rp46
(dp47
g13
I01
sg14
F-1.2754100671048956
sg15
g44
sbs(I168
I4
tp48
g0
(g9
g2
Ntp49
Rp50
(dp51
g13
I00
sg14
F0.09795048557465147
sg15
g48
sbs(I2707
I168
tp52
g0
(g9
g2
Ntp53
Rp54
(dp55
g13
I01
sg14
F0.1259667923114645
sg15
g52
sbs(I-3
I7
tp56
g0
(g9
g2
Ntp57
Rp58
(dp59
g13
I01
sg14
F1.4225408179684609
sg15
g56
sbs(I5
I5
tp60
g0
(g9
g2
Ntp61
Rp62
(dp63
g13
I01
sg14
F-0.2700633181771418
sg15
g60
sbs(I-3
I168
tp64
g0
(g9
g2
Ntp65
Rp66
(dp67
g13
I00
sg14
F1.711891469792417
sg15
g64
sbs(I-6
I0
tp68
g0
(g9
g2
Ntp69
Rp70
(dp71
g13
I00
sg14
F0.04323980584881215
sg15
g68
sbs(I4
I4
tp72
g0
(g9
g2
Ntp73
Rp74
(dp75
g13
I01
sg14
F0.4626004902284637
sg15
g72
sbs(I-5
I2707
tp76
g0
(g9
g2
Ntp77
Rp78
(dp79
g13
I01
sg14
F0.3152137843899081
sg15
g76
sbs(I-2
I3613
tp80
g0
(g9
g2
Ntp81
Rp82
(dp83
g13
I01
sg14
F-1.9779293888768068
sg15
g80
sbs(I3059
I2
tp84
g0
(g9
g2
Ntp85
Rp86
(dp87
g13
I00
sg14
F-1.6850606496999074
sg15
g84
sbs(I-10
I168
tp88
g0
(g9
g2
Ntp89
Rp90
(dp91
g13
I01
sg14
F-0.6329808673754294
sg15
g88
sbs(I-6
I2294
tp92
g0
(g9
g2
Ntp93
Rp94
(dp95
g13
I01
sg14
F-2.7521302633334845
sg15
g92
sbs(I168
I5
tp96
g0
(g9
g2
Ntp97
Rp98
(dp99
g13
I00
sg14
F-1.0566350240862576
sg15
g96
sbs(I3078
I4
tp100
g0
(g9
g2
Ntp101
Rp102
(dp103
g13
I01
sg14
F1.048850974207622
sg15
g100
sbs(I-9
I168
tp104
g0
(g9
g2
Ntp105
Rp106
(dp107
g13
I01
sg14
F0.8961603093872023
sg15
g104
sbs(I-2
I1623
tp108
g0
(g9
g2
Ntp109
Rp110
(dp111
g13
I01
sg14
F0.8788708904478821
sg15
g108
sbs(I-1
I2294
tp112
g0
(g9
g2
Ntp113
Rp114
(dp115
g13
I01
sg14
F-1.680808900885657
sg15
g112
sbs(I168
I3078
tp116
g0
(g9
g2
Ntp117
Rp118
(dp119
g13
I00
sg14
F-0.5639866830552525
sg15
g116
sbs(I2294
I1
tp120
g0
(g9
g2
Ntp121
Rp122
(dp123
g13
I01
sg14
F10.945104955055093
sg15
g120
sbs(I2457
I3
tp124
g0
(g9
g2
Ntp125
Rp126
(dp127
g13
I01
sg14
F-0.639946595713011
sg15
g124
sbs(I3
I3
tp128
g0
(g9
g2
Ntp129
Rp130
(dp131
g13
I01
sg14
F0.7494250130895139
sg15
g128
sbs(I1623
I168
tp132
g0
(g9
g2
Ntp133
Rp134
(dp135
g13
I00
sg14
F0.5785022543365118
sg15
g132
sbs(I7
I1623
tp136
g0
(g9
g2
Ntp137
Rp138
(dp139
g13
I01
sg14
F-0.9280676168134474
sg15
g136
sbssS'nodes'
p140
(dp141
I0
g0
(cneat.genes
DefaultNodeGene
p142
g2
Ntp143
Rp144
(dp145
S'activation'
p146
S'tanh'
p147
sS'bias'
p148
F15.931705854397288
sS'response'
p149
F1.0
sg15
I0
sS'aggregation'
p150
S'sum'
p151
sbsI1
g0
(g142
g2
Ntp152
Rp153
(dp154
g146
S'relu'
p155
sg148
F5.916219229788534
sg149
F1.0
sg15
I1
sg150
g151
sbsI2
g0
(g142
g2
Ntp156
Rp157
(dp158
g146
g147
sg148
F-19.06092287678026
sg149
F1.0
sg15
I2
sg150
g151
sbsI3
g0
(g142
g2
Ntp159
Rp160
(dp161
g146
g147
sg148
F20.598106329956742
sg149
F1.0
sg15
I3
sg150
g151
sbsI4
g0
(g142
g2
Ntp162
Rp163
(dp164
g146
g147
sg148
F6.956940890342895
sg149
F1.0
sg15
I4
sg150
g151
sbsI5
g0
(g142
g2
Ntp165
Rp166
(dp167
g146
g147
sg148
F4.963081698346314
sg149
F1.0
sg15
I5
sg150
g151
sbsI6
g0
(g142
g2
Ntp168
Rp169
(dp170
g146
g147
sg148
F12.385380273111235
sg149
F1.0
sg15
I6
sg150
g151
sbsI7
g0
(g142
g2
Ntp171
Rp172
(dp173
g146
g147
sg148
F1.166538014804024
sg149
F1.0
sg15
I7
sg150
g151
sbsI8
g0
(g142
g2
Ntp174
Rp175
(dp176
g146
g147
sg148
F6.140583688539214
sg149
F1.0
sg15
I8
sg150
g151
sbsI9
g0
(g142
g2
Ntp177
Rp178
(dp179
g146
g147
sg148
F5.709553024238428
sg149
F1.0
sg15
I9
sg150
g151
sbsI168
g0
(g142
g2
Ntp180
Rp181
(dp182
g146
g147
sg148
F-9.275246107612812
sg149
F1.0
sg15
I168
sg150
g151
sbsI2707
g0
(g142
g2
Ntp183
Rp184
(dp185
g146
g147
sg148
F-20.350154038517115
sg149
F1.0
sg15
I2707
sg150
g151
sbsI2294
g0
(g142
g2
Ntp186
Rp187
(dp188
g146
g155
sg148
F16.33018041099083
sg149
F1.0
sg15
I2294
sg150
g151
sbsI1623
g0
(g142
g2
Ntp189
Rp190
(dp191
g146
g147
sg148
F3.309425376570057
sg149
F1.0
sg15
I1623
sg150
g151
sbsI2457
g0
(g142
g2
Ntp192
Rp193
(dp194
g146
g147
sg148
F5.635769011813797
sg149
F1.0
sg15
I2457
sg150
g151
sbsI3078
g0
(g142
g2
Ntp195
Rp196
(dp197
g146
g147
sg148
F-8.702692147864232
sg149
F1.0
sg15
I3078
sg150
g151
sbsI3613
g0
(g142
g2
Ntp198
Rp199
(dp200
g146
g155
sg148
F-2.163604650838252
sg149
F1.0
sg15
I3613
sg150
g151
sbsI3059
g0
(g142
g2
Ntp201
Rp202
(dp203
g146
g147
sg148
F5.859930523730031
sg149
F1.0
sg15
I3059
sg150
g151
sbssg15
I10987
sS'fitness'
p204
Nsb.