ccopy_reg
_reconstructor
p0
(cneat.genome
DefaultGenome
p1
c__builtin__
object
p2
Ntp3
Rp4
(dp5
S'connections'
p6
(dp7
(I168
I3
tp8
g0
(cneat.genes
DefaultConnectionGene
p9
g2
Ntp10
Rp11
(dp12
S'enabled'
p13
I01
sS'weight'
p14
F0.26255842144993524
sS'key'
p15
g8
sbs(I3
I2457
tp16
g0
(g9
g2
Ntp17
Rp18
(dp19
g13
I01
sg14
F1.077993071720537
sg15
g16
sbs(I3613
I168
tp20
g0
(g9
g2
Ntp21
Rp22
(dp23
g13
I01
sg14
F1.1925886064541562
sg15
g20
sbs(I3078
I3078
tp24
g0
(g9
g2
Ntp25
Rp26
(dp27
g13
I01
sg14
F1.3483480725436177
sg15
g24
sbs(I-2
I168
tp28
g0
(g9
g2
Ntp29
Rp30
(dp31
g13
I01
sg14
F0.699713292068066
sg15
g28
sbs(I-8
I168
tp32
g0
(g9
g2
Ntp33
Rp34
(dp35
g13
I01
sg14
F0.4014357730206791
sg15
g32
sbs(I3059
I3
tp36
g0
(g9
g2
Ntp37
Rp38
(dp39
g13
I00
sg14
F2.25615702556244
sg15
g36
sbs(I1
I3613
tp40
g0
(g9
g2
Ntp41
Rp42
(dp43
g13
I01
sg14
F2.1914155669051514
sg15
g40
sbs(I-9
I6
tp44
g0
(g9
g2
Ntp45
Rp46
(dp47
g13
I00
sg14
F-0.8987658639724534
sg15
g44
sbs(I168
I4
tp48
g0
(g9
g2
Ntp49
Rp50
(dp51
g13
I00
sg14
F-0.737663941193474
sg15
g48
sbs(I2707
I168
tp52
g0
(g9
g2
Ntp53
Rp54
(dp55
g13
I01
sg14
F0.7891771200271237
sg15
g52
sbs(I-3
I7
tp56
g0
(g9
g2
Ntp57
Rp58
(dp59
g13
I01
sg14
F0.9354341623122306
sg15
g56
sbs(I5
I5
tp60
g0
(g9
g2
Ntp61
Rp62
(dp63
g13
I01
sg14
F-0.2327882726914565
sg15
g60
sbs(I-3
I168
tp64
g0
(g9
g2
Ntp65
Rp66
(dp67
g13
I00
sg14
F0.28513832940310213
sg15
g64
sbs(I-6
I0
tp68
g0
(g9
g2
Ntp69
Rp70
(dp71
g13
I00
sg14
F0.5681785894560192
sg15
g68
sbs(I4
I4
tp72
g0
(g9
g2
Ntp73
Rp74
(dp75
g13
I01
sg14
F1.1675951700471945
sg15
g72
sbs(I-5
I2707
tp76
g0
(g9
g2
Ntp77
Rp78
(dp79
g13
I01
sg14
F-0.9780428440492533
sg15
g76
sbs(I-2
I3613
tp80
g0
(g9
g2
Ntp81
Rp82
(dp83
g13
I01
sg14
F-2.637782431334807
sg15
g80
sbs(I3059
I2
tp84
g0
(g9
g2
Ntp85
Rp86
(dp87
g13
I00
sg14
F0.11102221038110359
sg15
g84
sbs(I-10
I168
tp88
g0
(g9
g2
Ntp89
Rp90
(dp91
g13
I01
sg14
F0.14561337722029138
sg15
g88
sbs(I-6
I2294
tp92
g0
(g9
g2
Ntp93
Rp94
(dp95
g13
I00
sg14
F-2.80531696627662
sg15
g92
sbs(I168
I5
tp96
g0
(g9
g2
Ntp97
Rp98
(dp99
g13
I00
sg14
F-1.3402330946523175
sg15
g96
sbs(I3078
I4
tp100
g0
(g9
g2
Ntp101
Rp102
(dp103
g13
I01
sg14
F1.0870018731633415
sg15
g100
sbs(I-9
I168
tp104
g0
(g9
g2
Ntp105
Rp106
(dp107
g13
I01
sg14
F0.258083996613637
sg15
g104
sbs(I-2
I1623
tp108
g0
(g9
g2
Ntp109
Rp110
(dp111
g13
I01
sg14
F-0.08040223699996513
sg15
g108
sbs(I-1
I2294
tp112
g0
(g9
g2
Ntp113
Rp114
(dp115
g13
I01
sg14
F2.2709732317329943
sg15
g112
sbs(I168
I3078
tp116
g0
(g9
g2
Ntp117
Rp118
(dp119
g13
I00
sg14
F0.18564788056363596
sg15
g116
sbs(I2294
I1
tp120
g0
(g9
g2
Ntp121
Rp122
(dp123
g13
I01
sg14
F10.721183543978926
sg15
g120
sbs(I2457
I3
tp124
g0
(g9
g2
Ntp125
Rp126
(dp127
g13
I01
sg14
F-1.6255760630856098
sg15
g124
sbs(I3
I3
tp128
g0
(g9
g2
Ntp129
Rp130
(dp131
g13
I01
sg14
F0.42006485415630146
sg15
g128
sbs(I1623
I168
tp132
g0
(g9
g2
Ntp133
Rp134
(dp135
g13
I00
sg14
F0.8628588402492798
sg15
g132
sbs(I-9
I3
tp136
g0
(g9
g2
Ntp137
Rp138
(dp139
g13
I00
sg14
F-2.024625943546868
sg15
g136
sbs(I3
I3059
tp140
g0
(g9
g2
Ntp141
Rp142
(dp143
g13
I00
sg14
F-0.4102706213124843
sg15
g140
sbssS'nodes'
p144
(dp145
I0
g0
(cneat.genes
DefaultNodeGene
p146
g2
Ntp147
Rp148
(dp149
S'activation'
p150
S'tanh'
p151
sS'bias'
p152
F-5.552832955255512
sS'response'
p153
F1.0
sg15
I0
sS'aggregation'
p154
S'sum'
p155
sbsI1
g0
(g146
g2
Ntp156
Rp157
(dp158
g150
S'relu'
p159
sg152
F5.3647796225600075
sg153
F1.0
sg15
I1
sg154
g155
sbsI2
g0
(g146
g2
Ntp160
Rp161
(dp162
g150
g151
sg152
F-2.090385778253866
sg153
F1.0
sg15
I2
sg154
g155
sbsI3
g0
(g146
g2
Ntp163
Rp164
(dp165
g150
g151
sg152
F3.3796187382879994
sg153
F1.0
sg15
I3
sg154
g155
sbsI4
g0
(g146
g2
Ntp166
Rp167
(dp168
g150
g151
sg152
F6.185117896844241
sg153
F1.0
sg15
I4
sg154
g155
sbsI5
g0
(g146
g2
Ntp169
Rp170
(dp171
g150
g151
sg152
F11.91452043328399
sg153
F1.0
sg15
I5
sg154
g155
sbsI6
g0
(g146
g2
Ntp172
Rp173
(dp174
g150
g151
sg152
F12.67531187206595
sg153
F1.0
sg15
I6
sg154
g155
sbsI7
g0
(g146
g2
Ntp175
Rp176
(dp177
g150
g151
sg152
F3.1498515147562176
sg153
F1.0
sg15
I7
sg154
g155
sbsI8
g0
(g146
g2
Ntp178
Rp179
(dp180
g150
g151
sg152
F4.034000872503896
sg153
F1.0
sg15
I8
sg154
g155
sbsI9
g0
(g146
g2
Ntp181
Rp182
(dp183
g150
g151
sg152
F10.202720263872042
sg153
F1.0
sg15
I9
sg154
g155
sbsI168
g0
(g146
g2
Ntp184
Rp185
(dp186
g150
g151
sg152
F18.59999101656298
sg153
F1.0
sg15
I168
sg154
g155
sbsI2707
g0
(g146
g2
Ntp187
Rp188
(dp189
g150
g151
sg152
F-20.131175580385463
sg153
F1.0
sg15
I2707
sg154
g155
sbsI2294
g0
(g146
g2
Ntp190
Rp191
(dp192
g150
g151
sg152
F16.867161369776923
sg153
F1.0
sg15
I2294
sg154
g155
sbsI1623
g0
(g146
g2
Ntp193
Rp194
(dp195
g150
g151
sg152
F-5.381202640502547
sg153
F1.0
sg15
I1623
sg154
g155
sbsI2457
g0
(g146
g2
Ntp196
Rp197
(dp198
g150
g151
sg152
F-12.513849195106813
sg153
F1.0
sg15
I2457
sg154
g155
sbsI3078
g0
(g146
g2
Ntp199
Rp200
(dp201
g150
g151
sg152
F-8.995154165113147
sg153
F1.0
sg15
I3078
sg154
g155
sbsI3613
g0
(g146
g2
Ntp202
Rp203
(dp204
g150
g159
sg152
F-1.7386867361596043
sg153
F1.0
sg15
I3613
sg154
g155
sbsI3059
g0
(g146
g2
Ntp205
Rp206
(dp207
g150
g151
sg152
F14.933826172276081
sg153
F1.0
sg15
I3059
sg154
g155
sbssg15
I10982
sS'fitness'
p208
Nsb.