ccopy_reg
_reconstructor
p0
(cneat.genome
DefaultGenome
p1
c__builtin__
object
p2
Ntp3
Rp4
(dp5
S'connections'
p6
(dp7
(I168
I3
tp8
g0
(cneat.genes
DefaultConnectionGene
p9
g2
Ntp10
Rp11
(dp12
S'enabled'
p13
I01
sS'weight'
p14
F-1.4994132712039643
sS'key'
p15
g8
sbs(I3
I2457
tp16
g0
(g9
g2
Ntp17
Rp18
(dp19
g13
I01
sg14
F2.1460144076430474
sg15
g16
sbs(I-2
I168
tp20
g0
(g9
g2
Ntp21
Rp22
(dp23
g13
I00
sg14
F0.07444396770935352
sg15
g20
sbs(I-8
I168
tp24
g0
(g9
g2
Ntp25
Rp26
(dp27
g13
I01
sg14
F0.8919241488849268
sg15
g24
sbs(I-9
I6
tp28
g0
(g9
g2
Ntp29
Rp30
(dp31
g13
I01
sg14
F-0.7659723358101228
sg15
g28
sbs(I168
I4
tp32
g0
(g9
g2
Ntp33
Rp34
(dp35
g13
I00
sg14
F-1.513433145635139
sg15
g32
sbs(I2707
I168
tp36
g0
(g9
g2
Ntp37
Rp38
(dp39
g13
I01
sg14
F2.316462898023623
sg15
g36
sbs(I-3
I7
tp40
g0
(g9
g2
Ntp41
Rp42
(dp43
g13
I01
sg14
F0.5968144427212614
sg15
g40
sbs(I5
I5
tp44
g0
(g9
g2
Ntp45
Rp46
(dp47
g13
I01
sg14
F-0.20157988791614065
sg15
g44
sbs(I-3
I168
tp48
g0
(g9
g2
Ntp49
Rp50
(dp51
g13
I00
sg14
F0.155797587851339
sg15
g48
sbs(I-6
I1623
tp52
g0
(g9
g2
Ntp53
Rp54
(dp55
g13
I01
sg14
F-0.47812419233812203
sg15
g52
sbs(I-6
I0
tp56
g0
(g9
g2
Ntp57
Rp58
(dp59
g13
I00
sg14
F-0.6934806347424843
sg15
g56
sbs(I4
I4
tp60
g0
(g9
g2
Ntp61
Rp62
(dp63
g13
I01
sg14
F0.9151534563327468
sg15
g60
sbs(I-5
I2707
tp64
g0
(g9
g2
Ntp65
Rp66
(dp67
g13
I00
sg14
F0.07642897047003383
sg15
g64
sbs(I3059
I2
tp68
g0
(g9
g2
Ntp69
Rp70
(dp71
g13
I00
sg14
F0.9162101587873013
sg15
g68
sbs(I-10
I168
tp72
g0
(g9
g2
Ntp73
Rp74
(dp75
g13
I01
sg14
F0.3808820227350965
sg15
g72
sbs(I168
I5
tp76
g0
(g9
g2
Ntp77
Rp78
(dp79
g13
I00
sg14
F-0.5686934299138189
sg15
g76
sbs(I-2
I6
tp80
g0
(g9
g2
Ntp81
Rp82
(dp83
g13
I00
sg14
F0.05831958946702237
sg15
g80
sbs(I-9
I168
tp84
g0
(g9
g2
Ntp85
Rp86
(dp87
g13
I01
sg14
F0.23373990447585255
sg15
g84
sbs(I-2
I1623
tp88
g0
(g9
g2
Ntp89
Rp90
(dp91
g13
I01
sg14
F1.1874530749995555
sg15
g88
sbs(I-5
I8
tp92
g0
(g9
g2
Ntp93
Rp94
(dp95
g13
I01
sg14
F-0.8230588933788225
sg15
g92
sbs(I2457
I3
tp96
g0
(g9
g2
Ntp97
Rp98
(dp99
g13
I01
sg14
F-1.366234596019494
sg15
g96
sbs(I3
I3
tp100
g0
(g9
g2
Ntp101
Rp102
(dp103
g13
I01
sg14
F-0.8470366541604138
sg15
g100
sbs(I1623
I168
tp104
g0
(g9
g2
Ntp105
Rp106
(dp107
g13
I00
sg14
F1.1405027014628986
sg15
g104
sbs(I-9
I3
tp108
g0
(g9
g2
Ntp109
Rp110
(dp111
g13
I00
sg14
F0.38580750737267405
sg15
g108
sbs(I3
I3059
tp112
g0
(g9
g2
Ntp113
Rp114
(dp115
g13
I00
sg14
F-0.40973740584776447
sg15
g112
sbssS'nodes'
p116
(dp117
I0
g0
(cneat.genes
DefaultNodeGene
p118
g2
Ntp119
Rp120
(dp121
S'activation'
p122
S'tanh'
p123
sS'bias'
p124
F6.418565800521866
sS'response'
p125
F1.0
sg15
I0
sS'aggregation'
p126
S'sum'
p127
sbsI1
g0
(g118
g2
Ntp128
Rp129
(dp130
g122
S'relu'
p131
sg124
F5.776711951473865
sg125
F1.0
sg15
I1
sg126
g127
sbsI2
g0
(g118
g2
Ntp132
Rp133
(dp134
g122
g123
sg124
F-1.3506473553726877
sg125
F1.0
sg15
I2
sg126
g127
sbsI3
g0
(g118
g2
Ntp135
Rp136
(dp137
g122
g123
sg124
F-0.922085459235747
sg125
F1.0
sg15
I3
sg126
g127
sbsI4
g0
(g118
g2
Ntp138
Rp139
(dp140
g122
g123
sg124
F5.467474828636743
sg125
F1.0
sg15
I4
sg126
g127
sbsI5
g0
(g118
g2
Ntp141
Rp142
(dp143
g122
g123
sg124
F-15.41775198245978
sg125
F1.0
sg15
I5
sg126
g127
sbsI6
g0
(g118
g2
Ntp144
Rp145
(dp146
g122
g123
sg124
F12.272188374875153
sg125
F1.0
sg15
I6
sg126
g127
sbsI7
g0
(g118
g2
Ntp147
Rp148
(dp149
g122
g123
sg124
F2.2796923270186764
sg125
F1.0
sg15
I7
sg126
g127
sbsI8
g0
(g118
g2
Ntp150
Rp151
(dp152
g122
g123
sg124
F4.465932155367602
sg125
F1.0
sg15
I8
sg126
g127
sbsI9
g0
(g118
g2
Ntp153
Rp154
(dp155
g122
g123
sg124
F5.616586928800798
sg125
F1.0
sg15
I9
sg126
g127
sbsI168
g0
(g118
g2
Ntp156
Rp157
(dp158
g122
g123
sg124
F18.21744412162511
sg125
F1.0
sg15
I168
sg126
g127
sbsI2707
g0
(g118
g2
Ntp159
Rp160
(dp161
g122
g123
sg124
F-21.083570767616866
sg125
F1.0
sg15
I2707
sg126
g127
sbsI1623
g0
(g118
g2
Ntp162
Rp163
(dp164
g122
g123
sg124
F-9.28250565450485
sg125
F1.0
sg15
I1623
sg126
g127
sbsI2457
g0
(g118
g2
Ntp165
Rp166
(dp167
g122
g123
sg124
F5.365125584040184
sg125
F1.0
sg15
I2457
sg126
g127
sbsI3059
g0
(g118
g2
Ntp168
Rp169
(dp170
g122
g123
sg124
F15.289734678952003
sg125
F1.0
sg15
I3059
sg126
g127
sbssg15
I10983
sS'fitness'
p171
Nsb.