ccopy_reg
_reconstructor
p0
(cneat.genome
DefaultGenome
p1
c__builtin__
object
p2
Ntp3
Rp4
(dp5
S'connections'
p6
(dp7
(I168
I3
tp8
g0
(cneat.genes
DefaultConnectionGene
p9
g2
Ntp10
Rp11
(dp12
S'enabled'
p13
I01
sS'weight'
p14
F-0.7052557752155264
sS'key'
p15
g8
sbs(I3
I2457
tp16
g0
(g9
g2
Ntp17
Rp18
(dp19
g13
I01
sg14
F2.5047886541587427
sg15
g16
sbs(I3613
I168
tp20
g0
(g9
g2
Ntp21
Rp22
(dp23
g13
I01
sg14
F-1.0305989608089439
sg15
g20
sbs(I3078
I3078
tp24
g0
(g9
g2
Ntp25
Rp26
(dp27
g13
I01
sg14
F0.9200760792530082
sg15
g24
sbs(I-2
I168
tp28
g0
(g9
g2
Ntp29
Rp30
(dp31
g13
I00
sg14
F-0.14469601005337862
sg15
g28
sbs(I-8
I168
tp32
g0
(g9
g2
Ntp33
Rp34
(dp35
g13
I01
sg14
F-0.5247024611613441
sg15
g32
sbs(I3059
I3
tp36
g0
(g9
g2
Ntp37
Rp38
(dp39
g13
I00
sg14
F2.4587936233779595
sg15
g36
sbs(I1
I3613
tp40
g0
(g9
g2
Ntp41
Rp42
(dp43
g13
I01
sg14
F0.04051824931612291
sg15
g40
sbs(I-9
I6
tp44
g0
(g9
g2
Ntp45
Rp46
(dp47
g13
I01
sg14
F-0.6031874897018001
sg15
g44
sbs(I3665
I4
tp48
g0
(g9
g2
Ntp49
Rp50
(dp51
g13
I01
sg14
F-1.4434776211439444
sg15
g48
sbs(I168
I4
tp52
g0
(g9
g2
Ntp53
Rp54
(dp55
g13
I01
sg14
F-0.6085576598838294
sg15
g52
sbs(I2707
I168
tp56
g0
(g9
g2
Ntp57
Rp58
(dp59
g13
I01
sg14
F2.547170073340709
sg15
g56
sbs(I-3
I7
tp60
g0
(g9
g2
Ntp61
Rp62
(dp63
g13
I01
sg14
F0.7191903779859191
sg15
g60
sbs(I5
I5
tp64
g0
(g9
g2
Ntp65
Rp66
(dp67
g13
I00
sg14
F-1.3458711811247868
sg15
g64
sbs(I-3
I168
tp68
g0
(g9
g2
Ntp69
Rp70
(dp71
g13
I00
sg14
F0.1279258879989405
sg15
g68
sbs(I-6
I0
tp72
g0
(g9
g2
Ntp73
Rp74
(dp75
g13
I00
sg14
F-0.6934806347424843
sg15
g72
sbs(I4
I4
tp76
g0
(g9
g2
Ntp77
Rp78
(dp79
g13
I01
sg14
F-0.006735909928571315
sg15
g76
sbs(I-5
I2707
tp80
g0
(g9
g2
Ntp81
Rp82
(dp83
g13
I01
sg14
F-0.07035040054870711
sg15
g80
sbs(I-2
I3613
tp84
g0
(g9
g2
Ntp85
Rp86
(dp87
g13
I00
sg14
F0.11193760874035019
sg15
g84
sbs(I3059
I2
tp88
g0
(g9
g2
Ntp89
Rp90
(dp91
g13
I00
sg14
F-0.617994011405094
sg15
g88
sbs(I-10
I168
tp92
g0
(g9
g2
Ntp93
Rp94
(dp95
g13
I01
sg14
F0.21638190573310512
sg15
g92
sbs(I168
I3665
tp96
g0
(g9
g2
Ntp97
Rp98
(dp99
g13
I01
sg14
F-1.923468469286436
sg15
g96
sbs(I-6
I2294
tp100
g0
(g9
g2
Ntp101
Rp102
(dp103
g13
I01
sg14
F-0.36871995446090333
sg15
g100
sbs(I3078
I4
tp104
g0
(g9
g2
Ntp105
Rp106
(dp107
g13
I01
sg14
F2.0564654219777054
sg15
g104
sbs(I-9
I168
tp108
g0
(g9
g2
Ntp109
Rp110
(dp111
g13
I01
sg14
F0.14123938044510945
sg15
g108
sbs(I2457
I3059
tp112
g0
(g9
g2
Ntp113
Rp114
(dp115
g13
I01
sg14
F0.49273879567167533
sg15
g112
sbs(I-2
I1623
tp116
g0
(g9
g2
Ntp117
Rp118
(dp119
g13
I01
sg14
F0.9823824711004706
sg15
g116
sbs(I-1
I2294
tp120
g0
(g9
g2
Ntp121
Rp122
(dp123
g13
I00
sg14
F3.6287123792885883
sg15
g120
sbs(I168
I3078
tp124
g0
(g9
g2
Ntp125
Rp126
(dp127
g13
I00
sg14
F-0.7224952384757568
sg15
g124
sbs(I2294
I1
tp128
g0
(g9
g2
Ntp129
Rp130
(dp131
g13
I01
sg14
F10.851822965087594
sg15
g128
sbs(I2457
I3
tp132
g0
(g9
g2
Ntp133
Rp134
(dp135
g13
I01
sg14
F-1.6267550154661499
sg15
g132
sbs(I3
I3
tp136
g0
(g9
g2
Ntp137
Rp138
(dp139
g13
I01
sg14
F0.22147719445992758
sg15
g136
sbs(I1623
I168
tp140
g0
(g9
g2
Ntp141
Rp142
(dp143
g13
I00
sg14
F1.3179290983801053
sg15
g140
sbs(I-9
I3
tp144
g0
(g9
g2
Ntp145
Rp146
(dp147
g13
I00
sg14
F-2.2570209562684846
sg15
g144
sbs(I3
I3059
tp148
g0
(g9
g2
Ntp149
Rp150
(dp151
g13
I00
sg14
F-0.9232257074050723
sg15
g148
sbssS'nodes'
p152
(dp153
I0
g0
(cneat.genes
DefaultNodeGene
p154
g2
Ntp155
Rp156
(dp157
S'activation'
p158
S'tanh'
p159
sS'bias'
p160
F16.022909486733962
sS'response'
p161
F1.0
sg15
I0
sS'aggregation'
p162
S'sum'
p163
sbsI1
g0
(g154
g2
Ntp164
Rp165
(dp166
g158
S'relu'
p167
sg160
F4.016787785506151
sg161
F1.0
sg15
I1
sg162
g163
sbsI2
g0
(g154
g2
Ntp168
Rp169
(dp170
g158
g159
sg160
F-0.7701503940222159
sg161
F1.0
sg15
I2
sg162
g163
sbsI3
g0
(g154
g2
Ntp171
Rp172
(dp173
g158
g159
sg160
F4.417550305772551
sg161
F1.0
sg15
I3
sg162
g163
sbsI4
g0
(g154
g2
Ntp174
Rp175
(dp176
g158
g159
sg160
F5.362238418755999
sg161
F1.0
sg15
I4
sg162
g163
sbsI5
g0
(g154
g2
Ntp177
Rp178
(dp179
g158
g159
sg160
F11.292863347029657
sg161
F1.0
sg15
I5
sg162
g163
sbsI6
g0
(g154
g2
Ntp180
Rp181
(dp182
g158
g159
sg160
F-19.89923427208133
sg161
F1.0
sg15
I6
sg162
g163
sbsI7
g0
(g154
g2
Ntp183
Rp184
(dp185
g158
g159
sg160
F3.7420032384474315
sg161
F1.0
sg15
I7
sg162
g163
sbsI8
g0
(g154
g2
Ntp186
Rp187
(dp188
g158
g159
sg160
F-12.01162276151654
sg161
F1.0
sg15
I8
sg162
g163
sbsI9
g0
(g154
g2
Ntp189
Rp190
(dp191
g158
g159
sg160
F-17.907454687683753
sg161
F1.0
sg15
I9
sg162
g163
sbsI168
g0
(g154
g2
Ntp192
Rp193
(dp194
g158
g159
sg160
F18.0412758572963
sg161
F1.0
sg15
I168
sg162
g163
sbsI3665
g0
(g154
g2
Ntp195
Rp196
(dp197
g158
g167
sg160
F6.633540310397085
sg161
F1.0
sg15
I3665
sg162
g163
sbsI2707
g0
(g154
g2
Ntp198
Rp199
(dp200
g158
g159
sg160
F-21.06257476459111
sg161
F1.0
sg15
I2707
sg162
g163
sbsI2294
g0
(g154
g2
Ntp201
Rp202
(dp203
g158
g167
sg160
F18.36687934440488
sg161
F1.0
sg15
I2294
sg162
g163
sbsI1623
g0
(g154
g2
Ntp204
Rp205
(dp206
g158
g159
sg160
F2.497029882755011
sg161
F1.0
sg15
I1623
sg162
g163
sbsI2457
g0
(g154
g2
Ntp207
Rp208
(dp209
g158
g159
sg160
F4.907891907372745
sg161
F1.0
sg15
I2457
sg162
g163
sbsI3078
g0
(g154
g2
Ntp210
Rp211
(dp212
g158
g159
sg160
F-7.32399135932209
sg161
F1.0
sg15
I3078
sg162
g163
sbsI3613
g0
(g154
g2
Ntp213
Rp214
(dp215
g158
g159
sg160
F-2.180402936061167
sg161
F1.0
sg15
I3613
sg162
g163
sbsI3059
g0
(g154
g2
Ntp216
Rp217
(dp218
g158
g159
sg160
F15.80345104204225
sg161
F1.0
sg15
I3059
sg162
g163
sbssg15
I10988
sS'fitness'
p219
Nsb.