ccopy_reg
_reconstructor
p0
(cneat.genome
DefaultGenome
p1
c__builtin__
object
p2
Ntp3
Rp4
(dp5
S'connections'
p6
(dp7
(I168
I3
tp8
g0
(cneat.genes
DefaultConnectionGene
p9
g2
Ntp10
Rp11
(dp12
S'enabled'
p13
I01
sS'weight'
p14
F-0.7304156747025902
sS'key'
p15
g8
sbs(I3
I2457
tp16
g0
(g9
g2
Ntp17
Rp18
(dp19
g13
I01
sg14
F2.46964377598185
sg15
g16
sbs(I3613
I168
tp20
g0
(g9
g2
Ntp21
Rp22
(dp23
g13
I01
sg14
F1.424377743892321
sg15
g20
sbs(I3078
I3078
tp24
g0
(g9
g2
Ntp25
Rp26
(dp27
g13
I01
sg14
F0.15510991471320212
sg15
g24
sbs(I-2
I168
tp28
g0
(g9
g2
Ntp29
Rp30
(dp31
g13
I00
sg14
F-0.02133335297244325
sg15
g28
sbs(I-8
I168
tp32
g0
(g9
g2
Ntp33
Rp34
(dp35
g13
I01
sg14
F1.95045985318329
sg15
g32
sbs(I3059
I3
tp36
g0
(g9
g2
Ntp37
Rp38
(dp39
g13
I00
sg14
F-0.6267509377845341
sg15
g36
sbs(I1
I3613
tp40
g0
(g9
g2
Ntp41
Rp42
(dp43
g13
I01
sg14
F-0.5289424698122784
sg15
g40
sbs(I-9
I6
tp44
g0
(g9
g2
Ntp45
Rp46
(dp47
g13
I01
sg14
F-1.2067983366038735
sg15
g44
sbs(I168
I4
tp48
g0
(g9
g2
Ntp49
Rp50
(dp51
g13
I00
sg14
F-0.5004793331196923
sg15
g48
sbs(I2707
I168
tp52
g0
(g9
g2
Ntp53
Rp54
(dp55
g13
I00
sg14
F3.084025005793963
sg15
g52
sbs(I-3
I7
tp56
g0
(g9
g2
Ntp57
Rp58
(dp59
g13
I01
sg14
F0.5975096209611613
sg15
g56
sbs(I5
I5
tp60
g0
(g9
g2
Ntp61
Rp62
(dp63
g13
I01
sg14
F0.8548219278448966
sg15
g60
sbs(I-3
I168
tp64
g0
(g9
g2
Ntp65
Rp66
(dp67
g13
I00
sg14
F2.2987619081966217
sg15
g64
sbs(I-6
I0
tp68
g0
(g9
g2
Ntp69
Rp70
(dp71
g13
I00
sg14
F0.7750699265861011
sg15
g68
sbs(I4
I4
tp72
g0
(g9
g2
Ntp73
Rp74
(dp75
g13
I01
sg14
F-0.06493232368776336
sg15
g72
sbs(I-2
I3613
tp76
g0
(g9
g2
Ntp77
Rp78
(dp79
g13
I00
sg14
F-1.173152260578807
sg15
g76
sbs(I3059
I2
tp80
g0
(g9
g2
Ntp81
Rp82
(dp83
g13
I00
sg14
F-1.6716536734433303
sg15
g80
sbs(I-10
I168
tp84
g0
(g9
g2
Ntp85
Rp86
(dp87
g13
I01
sg14
F0.41736234869770017
sg15
g84
sbs(I-6
I2294
tp88
g0
(g9
g2
Ntp89
Rp90
(dp91
g13
I01
sg14
F-2.9834722801828244
sg15
g88
sbs(I168
I5
tp92
g0
(g9
g2
Ntp93
Rp94
(dp95
g13
I00
sg14
F-1.3529055751333356
sg15
g92
sbs(I3078
I4
tp96
g0
(g9
g2
Ntp97
Rp98
(dp99
g13
I01
sg14
F1.9994569423338997
sg15
g96
sbs(I-9
I168
tp100
g0
(g9
g2
Ntp101
Rp102
(dp103
g13
I01
sg14
F-1.5932318892938688
sg15
g100
sbs(I-2
I1623
tp104
g0
(g9
g2
Ntp105
Rp106
(dp107
g13
I01
sg14
F0.4603217933751333
sg15
g104
sbs(I-1
I2294
tp108
g0
(g9
g2
Ntp109
Rp110
(dp111
g13
I01
sg14
F2.560303623949756
sg15
g108
sbs(I168
I3078
tp112
g0
(g9
g2
Ntp113
Rp114
(dp115
g13
I00
sg14
F-0.7891331427487647
sg15
g112
sbs(I2294
I1
tp116
g0
(g9
g2
Ntp117
Rp118
(dp119
g13
I01
sg14
F10.490436239826707
sg15
g116
sbs(I2457
I3
tp120
g0
(g9
g2
Ntp121
Rp122
(dp123
g13
I01
sg14
F-1.3279755657799006
sg15
g120
sbs(I3
I3
tp124
g0
(g9
g2
Ntp125
Rp126
(dp127
g13
I01
sg14
F0.8557666769313275
sg15
g124
sbs(I1623
I168
tp128
g0
(g9
g2
Ntp129
Rp130
(dp131
g13
I00
sg14
F1.264875666231055
sg15
g128
sbs(I-9
I3
tp132
g0
(g9
g2
Ntp133
Rp134
(dp135
g13
I00
sg14
F-2.0052292878216886
sg15
g132
sbssS'nodes'
p136
(dp137
I0
g0
(cneat.genes
DefaultNodeGene
p138
g2
Ntp139
Rp140
(dp141
S'activation'
p142
S'tanh'
p143
sS'bias'
p144
F16.530261752349585
sS'response'
p145
F1.0
sg15
I0
sS'aggregation'
p146
S'sum'
p147
sbsI1
g0
(g138
g2
Ntp148
Rp149
(dp150
g142
g143
sg144
F5.431206913945099
sg145
F1.0
sg15
I1
sg146
g147
sbsI2
g0
(g138
g2
Ntp151
Rp152
(dp153
g142
g143
sg144
F-2.050346286352411
sg145
F1.0
sg15
I2
sg146
g147
sbsI3
g0
(g138
g2
Ntp154
Rp155
(dp156
g142
g143
sg144
F11.902858848828036
sg145
F1.0
sg15
I3
sg146
g147
sbsI4
g0
(g138
g2
Ntp157
Rp158
(dp159
g142
g143
sg144
F6.943886959513433
sg145
F1.0
sg15
I4
sg146
g147
sbsI5
g0
(g138
g2
Ntp160
Rp161
(dp162
g142
g143
sg144
F4.111896244894914
sg145
F1.0
sg15
I5
sg146
g147
sbsI6
g0
(g138
g2
Ntp163
Rp164
(dp165
g142
g143
sg144
F13.43486741543773
sg145
F1.0
sg15
I6
sg146
g147
sbsI7
g0
(g138
g2
Ntp166
Rp167
(dp168
g142
g143
sg144
F0.9493352219608953
sg145
F1.0
sg15
I7
sg146
g147
sbsI8
g0
(g138
g2
Ntp169
Rp170
(dp171
g142
g143
sg144
F5.877916897761936
sg145
F1.0
sg15
I8
sg146
g147
sbsI9
g0
(g138
g2
Ntp172
Rp173
(dp174
g142
g143
sg144
F5.922143966369411
sg145
F1.0
sg15
I9
sg146
g147
sbsI168
g0
(g138
g2
Ntp175
Rp176
(dp177
g142
g143
sg144
F17.90091038931842
sg145
F1.0
sg15
I168
sg146
g147
sbsI2707
g0
(g138
g2
Ntp178
Rp179
(dp180
g142
g143
sg144
F-19.14791159018751
sg145
F1.0
sg15
I2707
sg146
g147
sbsI2294
g0
(g138
g2
Ntp181
Rp182
(dp183
g142
S'relu'
p184
sg144
F15.74227949419053
sg145
F1.0
sg15
I2294
sg146
g147
sbsI1623
g0
(g138
g2
Ntp185
Rp186
(dp187
g142
g143
sg144
F1.153057492129152
sg145
F1.0
sg15
I1623
sg146
g147
sbsI2457
g0
(g138
g2
Ntp188
Rp189
(dp190
g142
g143
sg144
F5.405454332676138
sg145
F1.0
sg15
I2457
sg146
g147
sbsI3078
g0
(g138
g2
Ntp191
Rp192
(dp193
g142
g143
sg144
F-7.585804092775655
sg145
F1.0
sg15
I3078
sg146
g147
sbsI3613
g0
(g138
g2
Ntp194
Rp195
(dp196
g142
g143
sg144
F-2.102022494913332
sg145
F1.0
sg15
I3613
sg146
g147
sbsI3059
g0
(g138
g2
Ntp197
Rp198
(dp199
g142
g143
sg144
F15.048718462193703
sg145
F1.0
sg15
I3059
sg146
g147
sbssg15
I10986
sS'fitness'
p200
Nsb.