ccopy_reg
_reconstructor
p0
(cneat.genome
DefaultGenome
p1
c__builtin__
object
p2
Ntp3
Rp4
(dp5
S'connections'
p6
(dp7
(I168
I3
tp8
g0
(cneat.genes
DefaultConnectionGene
p9
g2
Ntp10
Rp11
(dp12
S'enabled'
p13
I01
sS'weight'
p14
F-0.02715287140923961
sS'key'
p15
g8
sbs(I3
I2457
tp16
g0
(g9
g2
Ntp17
Rp18
(dp19
g13
I01
sg14
F2.79131017687545
sg15
g16
sbs(I-2
I168
tp20
g0
(g9
g2
Ntp21
Rp22
(dp23
g13
I01
sg14
F-0.005154140596280138
sg15
g20
sbs(I-8
I168
tp24
g0
(g9
g2
Ntp25
Rp26
(dp27
g13
I00
sg14
F1.091687884204174
sg15
g24
sbs(I3059
I3
tp28
g0
(g9
g2
Ntp29
Rp30
(dp31
g13
I00
sg14
F2.978187014505394
sg15
g28
sbs(I168
I4
tp32
g0
(g9
g2
Ntp33
Rp34
(dp35
g13
I00
sg14
F-0.7638217324296532
sg15
g32
sbs(I2707
I168
tp36
g0
(g9
g2
Ntp37
Rp38
(dp39
g13
I01
sg14
F1.2553481312841401
sg15
g36
sbs(I-3
I7
tp40
g0
(g9
g2
Ntp41
Rp42
(dp43
g13
I01
sg14
F0.6574717982243309
sg15
g40
sbs(I5
I5
tp44
g0
(g9
g2
Ntp45
Rp46
(dp47
g13
I01
sg14
F-0.13183044437290398
sg15
g44
sbs(I-3
I168
tp48
g0
(g9
g2
Ntp49
Rp50
(dp51
g13
I00
sg14
F0.4915067425436022
sg15
g48
sbs(I-6
I0
tp52
g0
(g9
g2
Ntp53
Rp54
(dp55
g13
I00
sg14
F-1.0654350903175398
sg15
g52
sbs(I4
I4
tp56
g0
(g9
g2
Ntp57
Rp58
(dp59
g13
I01
sg14
F1.1063542803012847
sg15
g56
sbs(I-5
I2707
tp60
g0
(g9
g2
Ntp61
Rp62
(dp63
g13
I01
sg14
F-0.3687208836808711
sg15
g60
sbs(I3059
I2
tp64
g0
(g9
g2
Ntp65
Rp66
(dp67
g13
I00
sg14
F-1.0768161715030584
sg15
g64
sbs(I-10
I168
tp68
g0
(g9
g2
Ntp69
Rp70
(dp71
g13
I01
sg14
F0.06639571429340432
sg15
g68
sbs(I-6
I2294
tp72
g0
(g9
g2
Ntp73
Rp74
(dp75
g13
I01
sg14
F-2.935298169041406
sg15
g72
sbs(I168
I5
tp76
g0
(g9
g2
Ntp77
Rp78
(dp79
g13
I00
sg14
F0.2902828529960952
sg15
g76
sbs(I-2
I6
tp80
g0
(g9
g2
Ntp81
Rp82
(dp83
g13
I00
sg14
F1.4759186309095278
sg15
g80
sbs(I-9
I168
tp84
g0
(g9
g2
Ntp85
Rp86
(dp87
g13
I01
sg14
F0.01679146827735712
sg15
g84
sbs(I-2
I1623
tp88
g0
(g9
g2
Ntp89
Rp90
(dp91
g13
I01
sg14
F1.3895762512407883
sg15
g88
sbs(I-1
I2294
tp92
g0
(g9
g2
Ntp93
Rp94
(dp95
g13
I01
sg14
F3.68556677415301
sg15
g92
sbs(I-5
I8
tp96
g0
(g9
g2
Ntp97
Rp98
(dp99
g13
I01
sg14
F-0.7403094864897697
sg15
g96
sbs(I2294
I1
tp100
g0
(g9
g2
Ntp101
Rp102
(dp103
g13
I01
sg14
F10.797668438562978
sg15
g100
sbs(I2457
I3
tp104
g0
(g9
g2
Ntp105
Rp106
(dp107
g13
I01
sg14
F-1.8292675955759334
sg15
g104
sbs(I3
I3
tp108
g0
(g9
g2
Ntp109
Rp110
(dp111
g13
I01
sg14
F1.9158251424999724
sg15
g108
sbs(I1623
I168
tp112
g0
(g9
g2
Ntp113
Rp114
(dp115
g13
I00
sg14
F0.03482742907429512
sg15
g112
sbs(I-9
I3
tp116
g0
(g9
g2
Ntp117
Rp118
(dp119
g13
I00
sg14
F-2.267108817568318
sg15
g116
sbs(I3
I3059
tp120
g0
(g9
g2
Ntp121
Rp122
(dp123
g13
I00
sg14
F-1.2454345396224014
sg15
g120
sbssS'nodes'
p124
(dp125
I0
g0
(cneat.genes
DefaultNodeGene
p126
g2
Ntp127
Rp128
(dp129
S'activation'
p130
S'tanh'
p131
sS'bias'
p132
F16.270056653838864
sS'response'
p133
F1.0
sg15
I0
sS'aggregation'
p134
S'sum'
p135
sbsI1
g0
(g126
g2
Ntp136
Rp137
(dp138
g130
S'relu'
p139
sg132
F4.6592577385654685
sg133
F1.0
sg15
I1
sg134
g135
sbsI2
g0
(g126
g2
Ntp140
Rp141
(dp142
g130
g131
sg132
F-1.8977721923585205
sg133
F1.0
sg15
I2
sg134
g135
sbsI3
g0
(g126
g2
Ntp143
Rp144
(dp145
g130
g131
sg132
F3.951989296653774
sg133
F1.0
sg15
I3
sg134
g135
sbsI4
g0
(g126
g2
Ntp146
Rp147
(dp148
g130
g131
sg132
F5.232189979071997
sg133
F1.0
sg15
I4
sg134
g135
sbsI5
g0
(g126
g2
Ntp149
Rp150
(dp151
g130
g131
sg132
F12.477189775296413
sg133
F1.0
sg15
I5
sg134
g135
sbsI6
g0
(g126
g2
Ntp152
Rp153
(dp154
g130
g131
sg132
F-20.105238791132656
sg133
F1.0
sg15
I6
sg134
g135
sbsI7
g0
(g126
g2
Ntp155
Rp156
(dp157
g130
g131
sg132
F2.6873347843176694
sg133
F1.0
sg15
I7
sg134
g135
sbsI8
g0
(g126
g2
Ntp158
Rp159
(dp160
g130
g131
sg132
F3.7701010173633382
sg133
F1.0
sg15
I8
sg134
g135
sbsI9
g0
(g126
g2
Ntp161
Rp162
(dp163
g130
g131
sg132
F5.746339053418204
sg133
F1.0
sg15
I9
sg134
g135
sbsI168
g0
(g126
g2
Ntp164
Rp165
(dp166
g130
g131
sg132
F-8.53921151613706
sg133
F1.0
sg15
I168
sg134
g135
sbsI2707
g0
(g126
g2
Ntp167
Rp168
(dp169
g130
g131
sg132
F-20.611549588315402
sg133
F1.0
sg15
I2707
sg134
g135
sbsI2294
g0
(g126
g2
Ntp170
Rp171
(dp172
g130
g139
sg132
F16.533537422867223
sg133
F1.0
sg15
I2294
sg134
g135
sbsI1623
g0
(g126
g2
Ntp173
Rp174
(dp175
g130
g131
sg132
F3.5395887163888267
sg133
F1.0
sg15
I1623
sg134
g135
sbsI2457
g0
(g126
g2
Ntp176
Rp177
(dp178
g130
g131
sg132
F5.580907054671707
sg133
F1.0
sg15
I2457
sg134
g135
sbsI3059
g0
(g126
g2
Ntp179
Rp180
(dp181
g130
g131
sg132
F15.414723631792484
sg133
F1.0
sg15
I3059
sg134
g135
sbssg15
I10985
sS'fitness'
p182
Nsb.