ccopy_reg
_reconstructor
p0
(cneat.genome
DefaultGenome
p1
c__builtin__
object
p2
Ntp3
Rp4
(dp5
S'connections'
p6
(dp7
(I168
I3
tp8
g0
(cneat.genes
DefaultConnectionGene
p9
g2
Ntp10
Rp11
(dp12
S'enabled'
p13
I01
sS'weight'
p14
F2.387636513514708
sS'key'
p15
g8
sbs(I-2
I0
tp16
g0
(g9
g2
Ntp17
Rp18
(dp19
g13
I01
sg14
F-1.8302619555187896
sg15
g16
sbs(I6
I6
tp20
g0
(g9
g2
Ntp21
Rp22
(dp23
g13
I00
sg14
F0.5402260011587279
sg15
g20
sbs(I2294
I2737
tp24
g0
(g9
g2
Ntp25
Rp26
(dp27
g13
I01
sg14
F2.3876078502639624
sg15
g24
sbs(I-2
I168
tp28
g0
(g9
g2
Ntp29
Rp30
(dp31
g13
I00
sg14
F0.34046788667227007
sg15
g28
sbs(I1199
I9
tp32
g0
(g9
g2
Ntp33
Rp34
(dp35
g13
I01
sg14
F-2.240722072285535
sg15
g32
sbs(I3648
I8
tp36
g0
(g9
g2
Ntp37
Rp38
(dp39
g13
I01
sg14
F-1.4188819430036335
sg15
g36
sbs(I168
I4
tp40
g0
(g9
g2
Ntp41
Rp42
(dp43
g13
I00
sg14
F-0.0592239359947371
sg15
g40
sbs(I168
I2787
tp44
g0
(g9
g2
Ntp45
Rp46
(dp47
g13
I01
sg14
F3.2514566457726164
sg15
g44
sbs(I-3
I7
tp48
g0
(g9
g2
Ntp49
Rp50
(dp51
g13
I01
sg14
F0.17976587112271059
sg15
g48
sbs(I5
I5
tp52
g0
(g9
g2
Ntp53
Rp54
(dp55
g13
I00
sg14
F-0.23162895410928033
sg15
g52
sbs(I-3
I168
tp56
g0
(g9
g2
Ntp57
Rp58
(dp59
g13
I01
sg14
F0.3636498942826041
sg15
g56
sbs(I-6
I0
tp60
g0
(g9
g2
Ntp61
Rp62
(dp63
g13
I00
sg14
F2.0197304943315046
sg15
g60
sbs(I4
I4
tp64
g0
(g9
g2
Ntp65
Rp66
(dp67
g13
I01
sg14
F1.8610077944031973
sg15
g64
sbs(I1199
I1
tp68
g0
(g9
g2
Ntp69
Rp70
(dp71
g13
I01
sg14
F0.09524250901919679
sg15
g68
sbs(I-10
I168
tp72
g0
(g9
g2
Ntp73
Rp74
(dp75
g13
I01
sg14
F1.2321300641856177
sg15
g72
sbs(I-7
I1199
tp76
g0
(g9
g2
Ntp77
Rp78
(dp79
g13
I01
sg14
F-1.028237465313329
sg15
g76
sbs(I168
I5
tp80
g0
(g9
g2
Ntp81
Rp82
(dp83
g13
I00
sg14
F2.11097992636886
sg15
g80
sbs(I1
I1
tp84
g0
(g9
g2
Ntp85
Rp86
(dp87
g13
I00
sg14
F-1.5959734484218215
sg15
g84
sbs(I168
I1199
tp88
g0
(g9
g2
Ntp89
Rp90
(dp91
g13
I01
sg14
F0.5909331122093144
sg15
g88
sbs(I1199
I2294
tp92
g0
(g9
g2
Ntp93
Rp94
(dp95
g13
I01
sg14
F-1.3479343973359248
sg15
g92
sbs(I8
I3648
tp96
g0
(g9
g2
Ntp97
Rp98
(dp99
g13
I01
sg14
F0.9423287209228386
sg15
g96
sbs(I-9
I168
tp100
g0
(g9
g2
Ntp101
Rp102
(dp103
g13
I00
sg14
F0.40191846097586575
sg15
g100
sbs(I2294
I1
tp104
g0
(g9
g2
Ntp105
Rp106
(dp107
g13
I00
sg14
F-0.7407529779828588
sg15
g104
sbs(I3
I3
tp108
g0
(g9
g2
Ntp109
Rp110
(dp111
g13
I01
sg14
F0.8331849284309096
sg15
g108
sbs(I2787
I3
tp112
g0
(g9
g2
Ntp113
Rp114
(dp115
g13
I01
sg14
F2.8114764947758246
sg15
g112
sbs(I2737
I5
tp116
g0
(g9
g2
Ntp117
Rp118
(dp119
g13
I01
sg14
F1.0256971925554574
sg15
g116
sbs(I-7
I2737
tp120
g0
(g9
g2
Ntp121
Rp122
(dp123
g13
I01
sg14
F0.4960869503447913
sg15
g120
sbs(I2737
I1
tp124
g0
(g9
g2
Ntp125
Rp126
(dp127
g13
I01
sg14
F9.639896293684425
sg15
g124
sbs(I-9
I3
tp128
g0
(g9
g2
Ntp129
Rp130
(dp131
g13
I01
sg14
F-0.19726370495599957
sg15
g128
sbs(I8
I8
tp132
g0
(g9
g2
Ntp133
Rp134
(dp135
g13
I00
sg14
F0.09582624032998603
sg15
g132
sbs(I-10
I6
tp136
g0
(g9
g2
Ntp137
Rp138
(dp139
g13
I01
sg14
F-0.7792220263894799
sg15
g136
sbssS'nodes'
p140
(dp141
I0
g0
(cneat.genes
DefaultNodeGene
p142
g2
Ntp143
Rp144
(dp145
S'activation'
p146
S'tanh'
p147
sS'bias'
p148
F9.520632258829552
sS'response'
p149
F1.0
sg15
I0
sS'aggregation'
p150
S'sum'
p151
sbsI1
g0
(g142
g2
Ntp152
Rp153
(dp154
g146
S'relu'
p155
sg148
F-0.5264560641739293
sg149
F1.0
sg15
I1
sg150
g151
sbsI2
g0
(g142
g2
Ntp156
Rp157
(dp158
g146
g147
sg148
F-6.352463989047961
sg149
F1.0
sg15
I2
sg150
g151
sbsI3
g0
(g142
g2
Ntp159
Rp160
(dp161
g146
g147
sg148
F1.8028060404565414
sg149
F1.0
sg15
I3
sg150
g151
sbsI4
g0
(g142
g2
Ntp162
Rp163
(dp164
g146
g147
sg148
F1.937921810048532
sg149
F1.0
sg15
I4
sg150
g151
sbsI5
g0
(g142
g2
Ntp165
Rp166
(dp167
g146
g147
sg148
F9.665514967121615
sg149
F1.0
sg15
I5
sg150
g151
sbsI6
g0
(g142
g2
Ntp168
Rp169
(dp170
g146
g147
sg148
F14.140144048322634
sg149
F1.0
sg15
I6
sg150
g151
sbsI7
g0
(g142
g2
Ntp171
Rp172
(dp173
g146
g147
sg148
F-1.5868199390957514
sg149
F1.0
sg15
I7
sg150
g151
sbsI8
g0
(g142
g2
Ntp174
Rp175
(dp176
g146
g147
sg148
F-0.7877321747717125
sg149
F1.0
sg15
I8
sg150
g151
sbsI9
g0
(g142
g2
Ntp177
Rp178
(dp179
g146
g147
sg148
F-26.982490240022667
sg149
F1.0
sg15
I9
sg150
g151
sbsI1199
g0
(g142
g2
Ntp180
Rp181
(dp182
g146
g147
sg148
F-7.153442777523559
sg149
F1.0
sg15
I1199
sg150
g151
sbsI168
g0
(g142
g2
Ntp183
Rp184
(dp185
g146
g147
sg148
F0.8235418521445039
sg149
F1.0
sg15
I168
sg150
g151
sbsI2787
g0
(g142
g2
Ntp186
Rp187
(dp188
g146
g147
sg148
F-20.757712162703648
sg149
F1.0
sg15
I2787
sg150
g151
sbsI2294
g0
(g142
g2
Ntp189
Rp190
(dp191
g146
g155
sg148
F11.789030625685255
sg149
F1.0
sg15
I2294
sg150
g151
sbsI3648
g0
(g142
g2
Ntp192
Rp193
(dp194
g146
g147
sg148
F0.7413125981331283
sg149
F1.0
sg15
I3648
sg150
g151
sbsI2737
g0
(g142
g2
Ntp195
Rp196
(dp197
g146
g147
sg148
F-1.4138526781304468
sg149
F1.0
sg15
I2737
sg150
g151
sbssg15
I10994
sS'fitness'
p198
Nsb.