ccopy_reg
_reconstructor
p0
(cneat.genome
DefaultGenome
p1
c__builtin__
object
p2
Ntp3
Rp4
(dp5
S'connections'
p6
(dp7
(I168
I3
tp8
g0
(cneat.genes
DefaultConnectionGene
p9
g2
Ntp10
Rp11
(dp12
S'enabled'
p13
I01
sS'weight'
p14
F-0.08780298019850846
sS'key'
p15
g8
sbs(I-2
I0
tp16
g0
(g9
g2
Ntp17
Rp18
(dp19
g13
I01
sg14
F1.0780654925880395
sg15
g16
sbs(I6
I6
tp20
g0
(g9
g2
Ntp21
Rp22
(dp23
g13
I00
sg14
F-0.3117820129805978
sg15
g20
sbs(I2294
I2737
tp24
g0
(g9
g2
Ntp25
Rp26
(dp27
g13
I01
sg14
F3.2292876211406494
sg15
g24
sbs(I-2
I168
tp28
g0
(g9
g2
Ntp29
Rp30
(dp31
g13
I00
sg14
F1.0294903207424377
sg15
g28
sbs(I1199
I9
tp32
g0
(g9
g2
Ntp33
Rp34
(dp35
g13
I01
sg14
F-1.2980539099728161
sg15
g32
sbs(I168
I4
tp36
g0
(g9
g2
Ntp37
Rp38
(dp39
g13
I00
sg14
F0.404413025657104
sg15
g36
sbs(I168
I2787
tp40
g0
(g9
g2
Ntp41
Rp42
(dp43
g13
I00
sg14
F2.2222967466497954
sg15
g40
sbs(I-3
I7
tp44
g0
(g9
g2
Ntp45
Rp46
(dp47
g13
I01
sg14
F0.7254938422281645
sg15
g44
sbs(I5
I5
tp48
g0
(g9
g2
Ntp49
Rp50
(dp51
g13
I00
sg14
F-0.7437970423827998
sg15
g48
sbs(I-3
I168
tp52
g0
(g9
g2
Ntp53
Rp54
(dp55
g13
I01
sg14
F1.0456490304197055
sg15
g52
sbs(I-6
I0
tp56
g0
(g9
g2
Ntp57
Rp58
(dp59
g13
I00
sg14
F1.4517670271557492
sg15
g56
sbs(I4
I4
tp60
g0
(g9
g2
Ntp61
Rp62
(dp63
g13
I01
sg14
F0.8500603578372891
sg15
g60
sbs(I1199
I1
tp64
g0
(g9
g2
Ntp65
Rp66
(dp67
g13
I01
sg14
F1.456468555356181
sg15
g64
sbs(I-6
I168
tp68
g0
(g9
g2
Ntp69
Rp70
(dp71
g13
I00
sg14
F0.06606469127938058
sg15
g68
sbs(I-10
I168
tp72
g0
(g9
g2
Ntp73
Rp74
(dp75
g13
I01
sg14
F-0.04646171366922014
sg15
g72
sbs(I-7
I1199
tp76
g0
(g9
g2
Ntp77
Rp78
(dp79
g13
I01
sg14
F0.5253398519850898
sg15
g76
sbs(I168
I5
tp80
g0
(g9
g2
Ntp81
Rp82
(dp83
g13
I00
sg14
F0.759543818829459
sg15
g80
sbs(I1
I1
tp84
g0
(g9
g2
Ntp85
Rp86
(dp87
g13
I00
sg14
F-0.5881114701917838
sg15
g84
sbs(I168
I1199
tp88
g0
(g9
g2
Ntp89
Rp90
(dp91
g13
I01
sg14
F-0.953718416330092
sg15
g88
sbs(I-1
I6
tp92
g0
(g9
g2
Ntp93
Rp94
(dp95
g13
I01
sg14
F2.299790491416117
sg15
g92
sbs(I1199
I2294
tp96
g0
(g9
g2
Ntp97
Rp98
(dp99
g13
I01
sg14
F1.2329559763720355
sg15
g96
sbs(I3666
I2787
tp100
g0
(g9
g2
Ntp101
Rp102
(dp103
g13
I01
sg14
F3.2131891708012534
sg15
g100
sbs(I-9
I168
tp104
g0
(g9
g2
Ntp105
Rp106
(dp107
g13
I00
sg14
F-0.00754438391028095
sg15
g104
sbs(I168
I3666
tp108
g0
(g9
g2
Ntp109
Rp110
(dp111
g13
I01
sg14
F1.5458721570784886
sg15
g108
sbs(I2294
I1
tp112
g0
(g9
g2
Ntp113
Rp114
(dp115
g13
I00
sg14
F0.7414971053766581
sg15
g112
sbs(I3
I3
tp116
g0
(g9
g2
Ntp117
Rp118
(dp119
g13
I01
sg14
F1.7645773208225974
sg15
g116
sbs(I2787
I3
tp120
g0
(g9
g2
Ntp121
Rp122
(dp123
g13
I01
sg14
F5.043958685998355
sg15
g120
sbs(I2737
I5
tp124
g0
(g9
g2
Ntp125
Rp126
(dp127
g13
I01
sg14
F0.9859255396847958
sg15
g124
sbs(I-7
I2737
tp128
g0
(g9
g2
Ntp129
Rp130
(dp131
g13
I01
sg14
F-0.46679923595688694
sg15
g128
sbs(I2737
I1
tp132
g0
(g9
g2
Ntp133
Rp134
(dp135
g13
I01
sg14
F10.241895150229322
sg15
g132
sbs(I-9
I3
tp136
g0
(g9
g2
Ntp137
Rp138
(dp139
g13
I01
sg14
F-0.5187195236680144
sg15
g136
sbs(I8
I8
tp140
g0
(g9
g2
Ntp141
Rp142
(dp143
g13
I00
sg14
F2.324183484283841
sg15
g140
sbs(I-10
I6
tp144
g0
(g9
g2
Ntp145
Rp146
(dp147
g13
I01
sg14
F-0.27253649001080044
sg15
g144
sbssS'nodes'
p148
(dp149
I0
g0
(cneat.genes
DefaultNodeGene
p150
g2
Ntp151
Rp152
(dp153
S'activation'
p154
S'tanh'
p155
sS'bias'
p156
F8.823191729956505
sS'response'
p157
F1.0
sg15
I0
sS'aggregation'
p158
S'sum'
p159
sbsI1
g0
(g150
g2
Ntp160
Rp161
(dp162
g154
S'relu'
p163
sg156
F-7.872823924891033
sg157
F1.0
sg15
I1
sg158
g159
sbsI2
g0
(g150
g2
Ntp164
Rp165
(dp166
g154
g155
sg156
F-6.2858210390655405
sg157
F1.0
sg15
I2
sg158
g159
sbsI3
g0
(g150
g2
Ntp167
Rp168
(dp169
g154
g155
sg156
F0.712639523477191
sg157
F1.0
sg15
I3
sg158
g159
sbsI4
g0
(g150
g2
Ntp170
Rp171
(dp172
g154
g155
sg156
F-11.068877830065254
sg157
F1.0
sg15
I4
sg158
g159
sbsI5
g0
(g150
g2
Ntp173
Rp174
(dp175
g154
g155
sg156
F11.494267561328089
sg157
F1.0
sg15
I5
sg158
g159
sbsI6
g0
(g150
g2
Ntp176
Rp177
(dp178
g154
g155
sg156
F12.845524615747687
sg157
F1.0
sg15
I6
sg158
g159
sbsI7
g0
(g150
g2
Ntp179
Rp180
(dp181
g154
g155
sg156
F-2.0728612918345104
sg157
F1.0
sg15
I7
sg158
g159
sbsI8
g0
(g150
g2
Ntp182
Rp183
(dp184
g154
g155
sg156
F-2.5971892260502876
sg157
F1.0
sg15
I8
sg158
g159
sbsI9
g0
(g150
g2
Ntp185
Rp186
(dp187
g154
g155
sg156
F8.508257667481889
sg157
F1.0
sg15
I9
sg158
g159
sbsI1199
g0
(g150
g2
Ntp188
Rp189
(dp190
g154
g155
sg156
F-8.078839474389275
sg157
F1.0
sg15
I1199
sg158
g159
sbsI168
g0
(g150
g2
Ntp191
Rp192
(dp193
g154
g155
sg156
F14.821897397473004
sg157
F1.0
sg15
I168
sg158
g159
sbsI3666
g0
(g150
g2
Ntp194
Rp195
(dp196
g154
g155
sg156
F-3.735325860517574
sg157
F1.0
sg15
I3666
sg158
g159
sbsI2787
g0
(g150
g2
Ntp197
Rp198
(dp199
g154
g155
sg156
F-21.11772473469755
sg157
F1.0
sg15
I2787
sg158
g159
sbsI2294
g0
(g150
g2
Ntp200
Rp201
(dp202
g154
g163
sg156
F11.439535424508684
sg157
F1.0
sg15
I2294
sg158
g159
sbsI2737
g0
(g150
g2
Ntp203
Rp204
(dp205
g154
g155
sg156
F-1.8079239027772451
sg157
F1.0
sg15
I2737
sg158
g159
sbssg15
I10995
sS'fitness'
p206
Nsb.