ccopy_reg
_reconstructor
p0
(cneat.genome
DefaultGenome
p1
c__builtin__
object
p2
Ntp3
Rp4
(dp5
S'connections'
p6
(dp7
(I168
I3
tp8
g0
(cneat.genes
DefaultConnectionGene
p9
g2
Ntp10
Rp11
(dp12
S'enabled'
p13
I01
sS'weight'
p14
F0.2154548748063615
sS'key'
p15
g8
sbs(I-2
I0
tp16
g0
(g9
g2
Ntp17
Rp18
(dp19
g13
I01
sg14
F-1.5161066538474621
sg15
g16
sbs(I6
I6
tp20
g0
(g9
g2
Ntp21
Rp22
(dp23
g13
I01
sg14
F-1.1908292490675256
sg15
g20
sbs(I2294
I2737
tp24
g0
(g9
g2
Ntp25
Rp26
(dp27
g13
I01
sg14
F1.3494311037063926
sg15
g24
sbs(I-2
I168
tp28
g0
(g9
g2
Ntp29
Rp30
(dp31
g13
I00
sg14
F1.7451368836289298
sg15
g28
sbs(I1199
I9
tp32
g0
(g9
g2
Ntp33
Rp34
(dp35
g13
I01
sg14
F-1.1832219910718413
sg15
g32
sbs(I3648
I8
tp36
g0
(g9
g2
Ntp37
Rp38
(dp39
g13
I01
sg14
F-1.7147997008377647
sg15
g36
sbs(I168
I4
tp40
g0
(g9
g2
Ntp41
Rp42
(dp43
g13
I00
sg14
F0.3183803231422308
sg15
g40
sbs(I168
I2787
tp44
g0
(g9
g2
Ntp45
Rp46
(dp47
g13
I01
sg14
F2.4582772358556704
sg15
g44
sbs(I-3
I7
tp48
g0
(g9
g2
Ntp49
Rp50
(dp51
g13
I00
sg14
F1.4941202942914533
sg15
g48
sbs(I5
I5
tp52
g0
(g9
g2
Ntp53
Rp54
(dp55
g13
I00
sg14
F0.25508966979380027
sg15
g52
sbs(I-3
I168
tp56
g0
(g9
g2
Ntp57
Rp58
(dp59
g13
I00
sg14
F0.4211554598549252
sg15
g56
sbs(I-3
I3667
tp60
g0
(g9
g2
Ntp61
Rp62
(dp63
g13
I01
sg14
F1.0315845467297522
sg15
g60
sbs(I-6
I0
tp64
g0
(g9
g2
Ntp65
Rp66
(dp67
g13
I00
sg14
F1.571225420056358
sg15
g64
sbs(I4
I4
tp68
g0
(g9
g2
Ntp69
Rp70
(dp71
g13
I01
sg14
F0.793561989285978
sg15
g68
sbs(I1199
I1
tp72
g0
(g9
g2
Ntp73
Rp74
(dp75
g13
I01
sg14
F0.281726085644548
sg15
g72
sbs(I-6
I168
tp76
g0
(g9
g2
Ntp77
Rp78
(dp79
g13
I01
sg14
F-0.8739585553503679
sg15
g76
sbs(I-10
I168
tp80
g0
(g9
g2
Ntp81
Rp82
(dp83
g13
I00
sg14
F1.4929064287102236
sg15
g80
sbs(I-7
I1199
tp84
g0
(g9
g2
Ntp85
Rp86
(dp87
g13
I01
sg14
F-1.063734372778689
sg15
g84
sbs(I168
I5
tp88
g0
(g9
g2
Ntp89
Rp90
(dp91
g13
I00
sg14
F1.1602490279186994
sg15
g88
sbs(I1
I1
tp92
g0
(g9
g2
Ntp93
Rp94
(dp95
g13
I00
sg14
F-0.2946192778602308
sg15
g92
sbs(I168
I1199
tp96
g0
(g9
g2
Ntp97
Rp98
(dp99
g13
I01
sg14
F-0.4822420872373038
sg15
g96
sbs(I1199
I2294
tp100
g0
(g9
g2
Ntp101
Rp102
(dp103
g13
I01
sg14
F-1.8147456767884012
sg15
g100
sbs(I8
I3648
tp104
g0
(g9
g2
Ntp105
Rp106
(dp107
g13
I01
sg14
F1.1449688182308855
sg15
g104
sbs(I-9
I168
tp108
g0
(g9
g2
Ntp109
Rp110
(dp111
g13
I00
sg14
F0.03022819165723617
sg15
g108
sbs(I2294
I1
tp112
g0
(g9
g2
Ntp113
Rp114
(dp115
g13
I00
sg14
F-1.348974974912481
sg15
g112
sbs(I3
I3
tp116
g0
(g9
g2
Ntp117
Rp118
(dp119
g13
I01
sg14
F0.7718441304716612
sg15
g116
sbs(I2787
I3
tp120
g0
(g9
g2
Ntp121
Rp122
(dp123
g13
I01
sg14
F3.1019472859896435
sg15
g120
sbs(I2737
I5
tp124
g0
(g9
g2
Ntp125
Rp126
(dp127
g13
I01
sg14
F0.7113464890479558
sg15
g124
sbs(I-7
I2737
tp128
g0
(g9
g2
Ntp129
Rp130
(dp131
g13
I01
sg14
F0.7879984844420941
sg15
g128
sbs(I3667
I7
tp132
g0
(g9
g2
Ntp133
Rp134
(dp135
g13
I01
sg14
F0.9194415012521857
sg15
g132
sbs(I2737
I1
tp136
g0
(g9
g2
Ntp137
Rp138
(dp139
g13
I01
sg14
F10.631994068025941
sg15
g136
sbs(I-9
I3
tp140
g0
(g9
g2
Ntp141
Rp142
(dp143
g13
I01
sg14
F-0.1496906585119175
sg15
g140
sbs(I8
I8
tp144
g0
(g9
g2
Ntp145
Rp146
(dp147
g13
I01
sg14
F0.4239036010847331
sg15
g144
sbs(I-10
I6
tp148
g0
(g9
g2
Ntp149
Rp150
(dp151
g13
I01
sg14
F-0.03842620081094095
sg15
g148
sbssS'nodes'
p152
(dp153
I0
g0
(cneat.genes
DefaultNodeGene
p154
g2
Ntp155
Rp156
(dp157
S'activation'
p158
S'tanh'
p159
sS'bias'
p160
F7.964914577162696
sS'response'
p161
F1.0
sg15
I0
sS'aggregation'
p162
S'sum'
p163
sbsI1
g0
(g154
g2
Ntp164
Rp165
(dp166
g158
S'relu'
p167
sg160
F-6.558728184394555
sg161
F1.0
sg15
I1
sg162
g163
sbsI2
g0
(g154
g2
Ntp168
Rp169
(dp170
g158
g159
sg160
F-6.136574765825959
sg161
F1.0
sg15
I2
sg162
g163
sbsI3
g0
(g154
g2
Ntp171
Rp172
(dp173
g158
g159
sg160
F-1.328505283780966
sg161
F1.0
sg15
I3
sg162
g163
sbsI4
g0
(g154
g2
Ntp174
Rp175
(dp176
g158
g159
sg160
F3.6697644589860667
sg161
F1.0
sg15
I4
sg162
g163
sbsI5
g0
(g154
g2
Ntp177
Rp178
(dp179
g158
g159
sg160
F10.21681032408092
sg161
F1.0
sg15
I5
sg162
g163
sbsI6
g0
(g154
g2
Ntp180
Rp181
(dp182
g158
g159
sg160
F-11.98705314288983
sg161
F1.0
sg15
I6
sg162
g163
sbsI7
g0
(g154
g2
Ntp183
Rp184
(dp185
g158
g159
sg160
F-1.8244417832808602
sg161
F1.0
sg15
I7
sg162
g163
sbsI8
g0
(g154
g2
Ntp186
Rp187
(dp188
g158
g159
sg160
F-1.9797040749891757
sg161
F1.0
sg15
I8
sg162
g163
sbsI9
g0
(g154
g2
Ntp189
Rp190
(dp191
g158
g159
sg160
F8.734856771575101
sg161
F1.0
sg15
I9
sg162
g163
sbsI1199
g0
(g154
g2
Ntp192
Rp193
(dp194
g158
g159
sg160
F-8.17174304594776
sg161
F1.0
sg15
I1199
sg162
g163
sbsI168
g0
(g154
g2
Ntp195
Rp196
(dp197
g158
g159
sg160
F12.922405352999029
sg161
F1.0
sg15
I168
sg162
g163
sbsI3667
g0
(g154
g2
Ntp198
Rp199
(dp200
g158
g167
sg160
F-23.262853673803534
sg161
F1.0
sg15
I3667
sg162
g163
sbsI2787
g0
(g154
g2
Ntp201
Rp202
(dp203
g158
g159
sg160
F-20.216854890545473
sg161
F1.0
sg15
I2787
sg162
g163
sbsI2294
g0
(g154
g2
Ntp204
Rp205
(dp206
g158
g159
sg160
F11.24113126759654
sg161
F1.0
sg15
I2294
sg162
g163
sbsI3648
g0
(g154
g2
Ntp207
Rp208
(dp209
g158
g159
sg160
F0.3698444992581412
sg161
F1.0
sg15
I3648
sg162
g163
sbsI2737
g0
(g154
g2
Ntp210
Rp211
(dp212
g158
g167
sg160
F-1.9476935745185453
sg161
F1.0
sg15
I2737
sg162
g163
sbssg15
I10998
sS'fitness'
p213
Nsb.