ccopy_reg
_reconstructor
p0
(cneat.genome
DefaultGenome
p1
c__builtin__
object
p2
Ntp3
Rp4
(dp5
S'connections'
p6
(dp7
(I168
I3
tp8
g0
(cneat.genes
DefaultConnectionGene
p9
g2
Ntp10
Rp11
(dp12
S'enabled'
p13
I01
sS'weight'
p14
F-0.2475436295957572
sS'key'
p15
g8
sbs(I-2
I0
tp16
g0
(g9
g2
Ntp17
Rp18
(dp19
g13
I00
sg14
F0.9125502326447879
sg15
g16
sbs(I6
I6
tp20
g0
(g9
g2
Ntp21
Rp22
(dp23
g13
I01
sg14
F0.3958587763949456
sg15
g20
sbs(I2294
I2737
tp24
g0
(g9
g2
Ntp25
Rp26
(dp27
g13
I01
sg14
F2.7755523774187227
sg15
g24
sbs(I-2
I168
tp28
g0
(g9
g2
Ntp29
Rp30
(dp31
g13
I00
sg14
F0.10763953930487757
sg15
g28
sbs(I1199
I9
tp32
g0
(g9
g2
Ntp33
Rp34
(dp35
g13
I01
sg14
F1.321604105283075
sg15
g32
sbs(I168
I4
tp36
g0
(g9
g2
Ntp37
Rp38
(dp39
g13
I00
sg14
F-0.5145116275646245
sg15
g36
sbs(I168
I2787
tp40
g0
(g9
g2
Ntp41
Rp42
(dp43
g13
I01
sg14
F2.869335368700652
sg15
g40
sbs(I-3
I7
tp44
g0
(g9
g2
Ntp45
Rp46
(dp47
g13
I01
sg14
F1.280455697647708
sg15
g44
sbs(I-3
I168
tp48
g0
(g9
g2
Ntp49
Rp50
(dp51
g13
I01
sg14
F0.9992582279028154
sg15
g48
sbs(I-6
I0
tp52
g0
(g9
g2
Ntp53
Rp54
(dp55
g13
I00
sg14
F2.394652750662574
sg15
g52
sbs(I4
I4
tp56
g0
(g9
g2
Ntp57
Rp58
(dp59
g13
I01
sg14
F0.8450995108892857
sg15
g56
sbs(I1199
I1
tp60
g0
(g9
g2
Ntp61
Rp62
(dp63
g13
I01
sg14
F1.860514025220214
sg15
g60
sbs(I-6
I168
tp64
g0
(g9
g2
Ntp65
Rp66
(dp67
g13
I00
sg14
F0.18366110179130837
sg15
g64
sbs(I-10
I168
tp68
g0
(g9
g2
Ntp69
Rp70
(dp71
g13
I01
sg14
F0.02348224561850138
sg15
g68
sbs(I-7
I1199
tp72
g0
(g9
g2
Ntp73
Rp74
(dp75
g13
I01
sg14
F0.7514481751677498
sg15
g72
sbs(I168
I5
tp76
g0
(g9
g2
Ntp77
Rp78
(dp79
g13
I00
sg14
F0.45081512861425654
sg15
g76
sbs(I1
I1
tp80
g0
(g9
g2
Ntp81
Rp82
(dp83
g13
I00
sg14
F-1.2153293321172147
sg15
g80
sbs(I168
I1199
tp84
g0
(g9
g2
Ntp85
Rp86
(dp87
g13
I01
sg14
F-0.07884324519088093
sg15
g84
sbs(I-1
I6
tp88
g0
(g9
g2
Ntp89
Rp90
(dp91
g13
I01
sg14
F1.7849446933266309
sg15
g88
sbs(I1199
I2294
tp92
g0
(g9
g2
Ntp93
Rp94
(dp95
g13
I01
sg14
F-1.399067785818855
sg15
g92
sbs(I-9
I168
tp96
g0
(g9
g2
Ntp97
Rp98
(dp99
g13
I00
sg14
F0.0932307318164882
sg15
g96
sbs(I2294
I1
tp100
g0
(g9
g2
Ntp101
Rp102
(dp103
g13
I00
sg14
F-0.6900520415567315
sg15
g100
sbs(I3
I3
tp104
g0
(g9
g2
Ntp105
Rp106
(dp107
g13
I01
sg14
F-0.5516912617833589
sg15
g104
sbs(I2787
I3
tp108
g0
(g9
g2
Ntp109
Rp110
(dp111
g13
I01
sg14
F3.9755370645596972
sg15
g108
sbs(I2737
I5
tp112
g0
(g9
g2
Ntp113
Rp114
(dp115
g13
I01
sg14
F0.18717633818794502
sg15
g112
sbs(I-7
I2737
tp116
g0
(g9
g2
Ntp117
Rp118
(dp119
g13
I01
sg14
F-0.9775018057480441
sg15
g116
sbs(I2737
I1
tp120
g0
(g9
g2
Ntp121
Rp122
(dp123
g13
I01
sg14
F10.724342054868261
sg15
g120
sbs(I-9
I3
tp124
g0
(g9
g2
Ntp125
Rp126
(dp127
g13
I01
sg14
F0.18785862119048724
sg15
g124
sbs(I8
I8
tp128
g0
(g9
g2
Ntp129
Rp130
(dp131
g13
I01
sg14
F-2.111051417610243
sg15
g128
sbs(I-10
I6
tp132
g0
(g9
g2
Ntp133
Rp134
(dp135
g13
I01
sg14
F0.451238368858997
sg15
g132
sbssS'nodes'
p136
(dp137
I0
g0
(cneat.genes
DefaultNodeGene
p138
g2
Ntp139
Rp140
(dp141
S'activation'
p142
S'tanh'
p143
sS'bias'
p144
F8.902681628858735
sS'response'
p145
F1.0
sg15
I0
sS'aggregation'
p146
S'sum'
p147
sbsI1
g0
(g138
g2
Ntp148
Rp149
(dp150
g142
g143
sg144
F-4.830891384960979
sg145
F1.0
sg15
I1
sg146
g147
sbsI2
g0
(g138
g2
Ntp151
Rp152
(dp153
g142
g143
sg144
F-7.1528737448731485
sg145
F1.0
sg15
I2
sg146
g147
sbsI3
g0
(g138
g2
Ntp154
Rp155
(dp156
g142
g143
sg144
F0.34300955677216205
sg145
F1.0
sg15
I3
sg146
g147
sbsI4
g0
(g138
g2
Ntp157
Rp158
(dp159
g142
g143
sg144
F2.973780597103554
sg145
F1.0
sg15
I4
sg146
g147
sbsI5
g0
(g138
g2
Ntp160
Rp161
(dp162
g142
g143
sg144
F-3.898025753237149
sg145
F1.0
sg15
I5
sg146
g147
sbsI6
g0
(g138
g2
Ntp163
Rp164
(dp165
g142
g143
sg144
F-0.8835204278713068
sg145
F1.0
sg15
I6
sg146
g147
sbsI7
g0
(g138
g2
Ntp166
Rp167
(dp168
g142
g143
sg144
F-1.2354587837810567
sg145
F1.0
sg15
I7
sg146
g147
sbsI8
g0
(g138
g2
Ntp169
Rp170
(dp171
g142
g143
sg144
F-1.6467925099749798
sg145
F1.0
sg15
I8
sg146
g147
sbsI9
g0
(g138
g2
Ntp172
Rp173
(dp174
g142
g143
sg144
F9.044535881984997
sg145
F1.0
sg15
I9
sg146
g147
sbsI1199
g0
(g138
g2
Ntp175
Rp176
(dp177
g142
g143
sg144
F-7.661111865391135
sg145
F1.0
sg15
I1199
sg146
g147
sbsI168
g0
(g138
g2
Ntp178
Rp179
(dp180
g142
g143
sg144
F0.1626927675293739
sg145
F1.0
sg15
I168
sg146
g147
sbsI2787
g0
(g138
g2
Ntp181
Rp182
(dp183
g142
g143
sg144
F4.165805831007196
sg145
F1.0
sg15
I2787
sg146
g147
sbsI2294
g0
(g138
g2
Ntp184
Rp185
(dp186
g142
S'relu'
p187
sg144
F11.543147609333506
sg145
F1.0
sg15
I2294
sg146
g147
sbsI2737
g0
(g138
g2
Ntp188
Rp189
(dp190
g142
g187
sg144
F-0.6146453113350736
sg145
F1.0
sg15
I2737
sg146
g147
sbssg15
I10996
sS'fitness'
p191
Nsb.