ccopy_reg
_reconstructor
p0
(cneat.genome
DefaultGenome
p1
c__builtin__
object
p2
Ntp3
Rp4
(dp5
S'connections'
p6
(dp7
(I168
I3
tp8
g0
(cneat.genes
DefaultConnectionGene
p9
g2
Ntp10
Rp11
(dp12
S'enabled'
p13
I01
sS'weight'
p14
F0.7838157486300319
sS'key'
p15
g8
sbs(I-2
I0
tp16
g0
(g9
g2
Ntp17
Rp18
(dp19
g13
I01
sg14
F1.2976802104835599
sg15
g16
sbs(I6
I6
tp20
g0
(g9
g2
Ntp21
Rp22
(dp23
g13
I01
sg14
F-0.8700099019928732
sg15
g20
sbs(I2294
I2737
tp24
g0
(g9
g2
Ntp25
Rp26
(dp27
g13
I01
sg14
F1.8282211780681943
sg15
g24
sbs(I-2
I168
tp28
g0
(g9
g2
Ntp29
Rp30
(dp31
g13
I00
sg14
F1.098780389643252
sg15
g28
sbs(I1199
I9
tp32
g0
(g9
g2
Ntp33
Rp34
(dp35
g13
I01
sg14
F-1.6135781336341521
sg15
g32
sbs(I168
I4
tp36
g0
(g9
g2
Ntp37
Rp38
(dp39
g13
I00
sg14
F0.34334079347483
sg15
g36
sbs(I168
I2787
tp40
g0
(g9
g2
Ntp41
Rp42
(dp43
g13
I01
sg14
F2.869335368700652
sg15
g40
sbs(I-3
I7
tp44
g0
(g9
g2
Ntp45
Rp46
(dp47
g13
I01
sg14
F1.4429557640045452
sg15
g44
sbs(I5
I5
tp48
g0
(g9
g2
Ntp49
Rp50
(dp51
g13
I00
sg14
F-0.43240425970475277
sg15
g48
sbs(I-3
I168
tp52
g0
(g9
g2
Ntp53
Rp54
(dp55
g13
I01
sg14
F0.22670708520415006
sg15
g52
sbs(I-6
I0
tp56
g0
(g9
g2
Ntp57
Rp58
(dp59
g13
I00
sg14
F0.009576762356521717
sg15
g56
sbs(I4
I4
tp60
g0
(g9
g2
Ntp61
Rp62
(dp63
g13
I01
sg14
F1.5550474304176762
sg15
g60
sbs(I1199
I1
tp64
g0
(g9
g2
Ntp65
Rp66
(dp67
g13
I01
sg14
F1.2017643229985904
sg15
g64
sbs(I-6
I168
tp68
g0
(g9
g2
Ntp69
Rp70
(dp71
g13
I00
sg14
F-1.1092127694162015
sg15
g68
sbs(I-10
I168
tp72
g0
(g9
g2
Ntp73
Rp74
(dp75
g13
I01
sg14
F0.16439331323631046
sg15
g72
sbs(I-7
I1199
tp76
g0
(g9
g2
Ntp77
Rp78
(dp79
g13
I01
sg14
F-0.8526203807112288
sg15
g76
sbs(I168
I5
tp80
g0
(g9
g2
Ntp81
Rp82
(dp83
g13
I00
sg14
F-0.12388920560420591
sg15
g80
sbs(I1
I1
tp84
g0
(g9
g2
Ntp85
Rp86
(dp87
g13
I00
sg14
F-0.6963577117862891
sg15
g84
sbs(I168
I1199
tp88
g0
(g9
g2
Ntp89
Rp90
(dp91
g13
I01
sg14
F-0.5290161242918404
sg15
g88
sbs(I-1
I6
tp92
g0
(g9
g2
Ntp93
Rp94
(dp95
g13
I01
sg14
F1.8459688058167254
sg15
g92
sbs(I-9
I168
tp96
g0
(g9
g2
Ntp97
Rp98
(dp99
g13
I00
sg14
F1.669053423515077
sg15
g96
sbs(I2294
I1
tp100
g0
(g9
g2
Ntp101
Rp102
(dp103
g13
I00
sg14
F0.07171984275751755
sg15
g100
sbs(I3
I3
tp104
g0
(g9
g2
Ntp105
Rp106
(dp107
g13
I01
sg14
F-0.09761563159197617
sg15
g104
sbs(I2787
I3
tp108
g0
(g9
g2
Ntp109
Rp110
(dp111
g13
I01
sg14
F-0.7419091495420954
sg15
g108
sbs(I2737
I5
tp112
g0
(g9
g2
Ntp113
Rp114
(dp115
g13
I01
sg14
F0.5307965921494011
sg15
g112
sbs(I-7
I2737
tp116
g0
(g9
g2
Ntp117
Rp118
(dp119
g13
I01
sg14
F-0.013508200309187646
sg15
g116
sbs(I2737
I1
tp120
g0
(g9
g2
Ntp121
Rp122
(dp123
g13
I01
sg14
F9.999589847914475
sg15
g120
sbs(I-9
I3
tp124
g0
(g9
g2
Ntp125
Rp126
(dp127
g13
I01
sg14
F0.029832535909581112
sg15
g124
sbs(I8
I8
tp128
g0
(g9
g2
Ntp129
Rp130
(dp131
g13
I01
sg14
F0.21996397413668844
sg15
g128
sbs(I-10
I6
tp132
g0
(g9
g2
Ntp133
Rp134
(dp135
g13
I01
sg14
F-0.04295472468442607
sg15
g132
sbssS'nodes'
p136
(dp137
I0
g0
(cneat.genes
DefaultNodeGene
p138
g2
Ntp139
Rp140
(dp141
S'activation'
p142
S'tanh'
p143
sS'bias'
p144
F8.86864701476466
sS'response'
p145
F1.0
sg15
I0
sS'aggregation'
p146
S'sum'
p147
sbsI1
g0
(g138
g2
Ntp148
Rp149
(dp150
g142
S'relu'
p151
sg144
F-5.550161034917694
sg145
F1.0
sg15
I1
sg146
g147
sbsI2
g0
(g138
g2
Ntp152
Rp153
(dp154
g142
g143
sg144
F-7.214226893430437
sg145
F1.0
sg15
I2
sg146
g147
sbsI3
g0
(g138
g2
Ntp155
Rp156
(dp157
g142
g143
sg144
F-10.381111144569747
sg145
F1.0
sg15
I3
sg146
g147
sbsI4
g0
(g138
g2
Ntp158
Rp159
(dp160
g142
g143
sg144
F-11.548254575090766
sg145
F1.0
sg15
I4
sg146
g147
sbsI5
g0
(g138
g2
Ntp161
Rp162
(dp163
g142
g143
sg144
F10.74569678463667
sg145
F1.0
sg15
I5
sg146
g147
sbsI6
g0
(g138
g2
Ntp164
Rp165
(dp166
g142
g143
sg144
F0.09972278837206294
sg145
F1.0
sg15
I6
sg146
g147
sbsI7
g0
(g138
g2
Ntp167
Rp168
(dp169
g142
g143
sg144
F-1.7200211975945652
sg145
F1.0
sg15
I7
sg146
g147
sbsI8
g0
(g138
g2
Ntp170
Rp171
(dp172
g142
g143
sg144
F-1.6416972074038858
sg145
F1.0
sg15
I8
sg146
g147
sbsI9
g0
(g138
g2
Ntp173
Rp174
(dp175
g142
g143
sg144
F8.224367071544773
sg145
F1.0
sg15
I9
sg146
g147
sbsI1199
g0
(g138
g2
Ntp176
Rp177
(dp178
g142
g143
sg144
F-8.120564583881434
sg145
F1.0
sg15
I1199
sg146
g147
sbsI168
g0
(g138
g2
Ntp179
Rp180
(dp181
g142
g143
sg144
F13.227126929311916
sg145
F1.0
sg15
I168
sg146
g147
sbsI2787
g0
(g138
g2
Ntp182
Rp183
(dp184
g142
g143
sg144
F-21.11122347079194
sg145
F1.0
sg15
I2787
sg146
g147
sbsI2294
g0
(g138
g2
Ntp185
Rp186
(dp187
g142
g151
sg144
F10.853466672247707
sg145
F1.0
sg15
I2294
sg146
g147
sbsI2737
g0
(g138
g2
Ntp188
Rp189
(dp190
g142
g151
sg144
F-0.9165360394776448
sg145
F1.0
sg15
I2737
sg146
g147
sbssg15
I10990
sS'fitness'
p191
Nsb.