ccopy_reg
_reconstructor
p0
(cneat.genome
DefaultGenome
p1
c__builtin__
object
p2
Ntp3
Rp4
(dp5
S'connections'
p6
(dp7
(I168
I3
tp8
g0
(cneat.genes
DefaultConnectionGene
p9
g2
Ntp10
Rp11
(dp12
S'enabled'
p13
I01
sS'weight'
p14
F-0.2750576760280826
sS'key'
p15
g8
sbs(I-2
I0
tp16
g0
(g9
g2
Ntp17
Rp18
(dp19
g13
I01
sg14
F1.0780654925880395
sg15
g16
sbs(I6
I6
tp20
g0
(g9
g2
Ntp21
Rp22
(dp23
g13
I00
sg14
F1.299957787453484
sg15
g20
sbs(I2294
I2737
tp24
g0
(g9
g2
Ntp25
Rp26
(dp27
g13
I01
sg14
F-0.4491106275186871
sg15
g24
sbs(I-2
I168
tp28
g0
(g9
g2
Ntp29
Rp30
(dp31
g13
I00
sg14
F0.5255114955827882
sg15
g28
sbs(I1199
I9
tp32
g0
(g9
g2
Ntp33
Rp34
(dp35
g13
I01
sg14
F-1.8037794669526281
sg15
g32
sbs(I3648
I8
tp36
g0
(g9
g2
Ntp37
Rp38
(dp39
g13
I01
sg14
F-2.077059112165087
sg15
g36
sbs(I168
I4
tp40
g0
(g9
g2
Ntp41
Rp42
(dp43
g13
I00
sg14
F-0.6065161265206326
sg15
g40
sbs(I168
I2787
tp44
g0
(g9
g2
Ntp45
Rp46
(dp47
g13
I01
sg14
F2.7545310160979493
sg15
g44
sbs(I-3
I7
tp48
g0
(g9
g2
Ntp49
Rp50
(dp51
g13
I01
sg14
F0.6118303547062367
sg15
g48
sbs(I5
I5
tp52
g0
(g9
g2
Ntp53
Rp54
(dp55
g13
I00
sg14
F-0.07445994631630226
sg15
g52
sbs(I-3
I168
tp56
g0
(g9
g2
Ntp57
Rp58
(dp59
g13
I01
sg14
F1.1074007874136003
sg15
g56
sbs(I-6
I0
tp60
g0
(g9
g2
Ntp61
Rp62
(dp63
g13
I00
sg14
F1.895238416021219
sg15
g60
sbs(I4
I4
tp64
g0
(g9
g2
Ntp65
Rp66
(dp67
g13
I01
sg14
F0.25805936300144017
sg15
g64
sbs(I1199
I1
tp68
g0
(g9
g2
Ntp69
Rp70
(dp71
g13
I01
sg14
F1.2048253709761423
sg15
g68
sbs(I-6
I168
tp72
g0
(g9
g2
Ntp73
Rp74
(dp75
g13
I00
sg14
F-1.494006012329423
sg15
g72
sbs(I-10
I168
tp76
g0
(g9
g2
Ntp77
Rp78
(dp79
g13
I01
sg14
F1.329605273355139
sg15
g76
sbs(I-7
I1199
tp80
g0
(g9
g2
Ntp81
Rp82
(dp83
g13
I01
sg14
F0.9051027369743319
sg15
g80
sbs(I168
I5
tp84
g0
(g9
g2
Ntp85
Rp86
(dp87
g13
I00
sg14
F0.6100903029759939
sg15
g84
sbs(I1
I1
tp88
g0
(g9
g2
Ntp89
Rp90
(dp91
g13
I00
sg14
F-1.5306038341000412
sg15
g88
sbs(I168
I1199
tp92
g0
(g9
g2
Ntp93
Rp94
(dp95
g13
I01
sg14
F0.27862966008256784
sg15
g92
sbs(I1199
I2294
tp96
g0
(g9
g2
Ntp97
Rp98
(dp99
g13
I01
sg14
F-0.8436502818629801
sg15
g96
sbs(I8
I3648
tp100
g0
(g9
g2
Ntp101
Rp102
(dp103
g13
I01
sg14
F0.5165600899597649
sg15
g100
sbs(I-9
I168
tp104
g0
(g9
g2
Ntp105
Rp106
(dp107
g13
I00
sg14
F0.025051787806331632
sg15
g104
sbs(I2294
I1
tp108
g0
(g9
g2
Ntp109
Rp110
(dp111
g13
I00
sg14
F-0.7020722946327697
sg15
g108
sbs(I3
I3
tp112
g0
(g9
g2
Ntp113
Rp114
(dp115
g13
I01
sg14
F0.585105979219693
sg15
g112
sbs(I2787
I3
tp116
g0
(g9
g2
Ntp117
Rp118
(dp119
g13
I01
sg14
F2.535170612243839
sg15
g116
sbs(I2737
I5
tp120
g0
(g9
g2
Ntp121
Rp122
(dp123
g13
I01
sg14
F1.690474682667452
sg15
g120
sbs(I-7
I2737
tp124
g0
(g9
g2
Ntp125
Rp126
(dp127
g13
I01
sg14
F1.4285303867599208
sg15
g124
sbs(I2737
I1
tp128
g0
(g9
g2
Ntp129
Rp130
(dp131
g13
I01
sg14
F9.416706412861842
sg15
g128
sbs(I-9
I3
tp132
g0
(g9
g2
Ntp133
Rp134
(dp135
g13
I01
sg14
F-0.9556160651665426
sg15
g132
sbs(I8
I8
tp136
g0
(g9
g2
Ntp137
Rp138
(dp139
g13
I00
sg14
F-1.6163901026011491
sg15
g136
sbs(I-10
I6
tp140
g0
(g9
g2
Ntp141
Rp142
(dp143
g13
I01
sg14
F-0.5985168481261368
sg15
g140
sbssS'nodes'
p144
(dp145
I0
g0
(cneat.genes
DefaultNodeGene
p146
g2
Ntp147
Rp148
(dp149
S'activation'
p150
S'tanh'
p151
sS'bias'
p152
F12.16520795586762
sS'response'
p153
F1.0
sg15
I0
sS'aggregation'
p154
S'sum'
p155
sbsI1
g0
(g146
g2
Ntp156
Rp157
(dp158
g150
S'relu'
p159
sg152
F-6.66707784616216
sg153
F1.0
sg15
I1
sg154
g155
sbsI2
g0
(g146
g2
Ntp160
Rp161
(dp162
g150
g151
sg152
F-6.550732028185672
sg153
F1.0
sg15
I2
sg154
g155
sbsI3
g0
(g146
g2
Ntp163
Rp164
(dp165
g150
g151
sg152
F-0.04272605074249575
sg153
F1.0
sg15
I3
sg154
g155
sbsI4
g0
(g146
g2
Ntp166
Rp167
(dp168
g150
g151
sg152
F4.223199446137379
sg153
F1.0
sg15
I4
sg154
g155
sbsI5
g0
(g146
g2
Ntp169
Rp170
(dp171
g150
g151
sg152
F9.557006345784538
sg153
F1.0
sg15
I5
sg154
g155
sbsI6
g0
(g146
g2
Ntp172
Rp173
(dp174
g150
g151
sg152
F13.893412571912442
sg153
F1.0
sg15
I6
sg154
g155
sbsI7
g0
(g146
g2
Ntp175
Rp176
(dp177
g150
g151
sg152
F-2.501789406177886
sg153
F1.0
sg15
I7
sg154
g155
sbsI8
g0
(g146
g2
Ntp178
Rp179
(dp180
g150
g151
sg152
F-1.588026679893102
sg153
F1.0
sg15
I8
sg154
g155
sbsI9
g0
(g146
g2
Ntp181
Rp182
(dp183
g150
g151
sg152
F-25.461558697443312
sg153
F1.0
sg15
I9
sg154
g155
sbsI1199
g0
(g146
g2
Ntp184
Rp185
(dp186
g150
g151
sg152
F-7.9163945079571425
sg153
F1.0
sg15
I1199
sg154
g155
sbsI168
g0
(g146
g2
Ntp187
Rp188
(dp189
g150
g151
sg152
F1.2577199011290336
sg153
F1.0
sg15
I168
sg154
g155
sbsI2787
g0
(g146
g2
Ntp190
Rp191
(dp192
g150
g151
sg152
F-21.402721819344087
sg153
F1.0
sg15
I2787
sg154
g155
sbsI2294
g0
(g146
g2
Ntp193
Rp194
(dp195
g150
g151
sg152
F9.846886250034867
sg153
F1.0
sg15
I2294
sg154
g155
sbsI3648
g0
(g146
g2
Ntp196
Rp197
(dp198
g150
g151
sg152
F-0.38752145169845176
sg153
F1.0
sg15
I3648
sg154
g155
sbsI2737
g0
(g146
g2
Ntp199
Rp200
(dp201
g150
g159
sg152
F-0.5625144333166139
sg153
F1.0
sg15
I2737
sg154
g155
sbssg15
I10992
sS'fitness'
p202
Nsb.