ccopy_reg
_reconstructor
p0
(cneat.genome
DefaultGenome
p1
c__builtin__
object
p2
Ntp3
Rp4
(dp5
S'connections'
p6
(dp7
(I-10
I20
tp8
g0
(cneat.genes
DefaultConnectionGene
p9
g2
Ntp10
Rp11
(dp12
S'enabled'
p13
I01
sS'weight'
p14
F-0.5736007586101642
sS'key'
p15
g8
sbs(I-11
I20
tp16
g0
(g9
g2
Ntp17
Rp18
(dp19
g13
I01
sg14
F1.3373733588363967
sg15
g16
sbs(I-20
I20
tp20
g0
(g9
g2
Ntp21
Rp22
(dp23
g13
I01
sg14
F0.5454834664905475
sg15
g20
sbs(I-5
I20
tp24
g0
(g9
g2
Ntp25
Rp26
(dp27
g13
I01
sg14
F-0.8838811898355816
sg15
g24
sbs(I-6
I20
tp28
g0
(g9
g2
Ntp29
Rp30
(dp31
g13
I01
sg14
F0.771280551433262
sg15
g28
sbs(I20
I3
tp32
g0
(g9
g2
Ntp33
Rp34
(dp35
g13
I01
sg14
F-0.625671339751479
sg15
g32
sbs(I20
I7
tp36
g0
(g9
g2
Ntp37
Rp38
(dp39
g13
I01
sg14
F1.361910647503405
sg15
g36
sbs(I20
I8
tp40
g0
(g9
g2
Ntp41
Rp42
(dp43
g13
I01
sg14
F0.077609467654607
sg15
g40
sbs(I-19
I20
tp44
g0
(g9
g2
Ntp45
Rp46
(dp47
g13
I01
sg14
F-0.7850045827970887
sg15
g44
sbs(I-14
I20
tp48
g0
(g9
g2
Ntp49
Rp50
(dp51
g13
I01
sg14
F-0.3872689132121764
sg15
g48
sbs(I-1
I20
tp52
g0
(g9
g2
Ntp53
Rp54
(dp55
g13
I01
sg14
F1.2903604224329368
sg15
g52
sbs(I20
I0
tp56
g0
(g9
g2
Ntp57
Rp58
(dp59
g13
I01
sg14
F1.1982891506614612
sg15
g56
sbs(I-9
I20
tp60
g0
(g9
g2
Ntp61
Rp62
(dp63
g13
I01
sg14
F-0.8215353386850119
sg15
g60
sbs(I-4
I20
tp64
g0
(g9
g2
Ntp65
Rp66
(dp67
g13
I01
sg14
F0.027981113874745337
sg15
g64
sbs(I20
I9
tp68
g0
(g9
g2
Ntp69
Rp70
(dp71
g13
I01
sg14
F-0.17517358672434172
sg15
g68
sbs(I-18
I20
tp72
g0
(g9
g2
Ntp73
Rp74
(dp75
g13
I01
sg14
F0.4386183573658158
sg15
g72
sbs(I20
I4
tp76
g0
(g9
g2
Ntp77
Rp78
(dp79
g13
I01
sg14
F1.0002659675317187
sg15
g76
sbs(I-13
I20
tp80
g0
(g9
g2
Ntp81
Rp82
(dp83
g13
I01
sg14
F-1.2754698676530756
sg15
g80
sbs(I-8
I20
tp84
g0
(g9
g2
Ntp85
Rp86
(dp87
g13
I01
sg14
F0.6365508057322696
sg15
g84
sbs(I-3
I20
tp88
g0
(g9
g2
Ntp89
Rp90
(dp91
g13
I01
sg14
F0.697590738725753
sg15
g88
sbs(I20
I1
tp92
g0
(g9
g2
Ntp93
Rp94
(dp95
g13
I01
sg14
F-1.528767835550377
sg15
g92
sbs(I-7
I20
tp96
g0
(g9
g2
Ntp97
Rp98
(dp99
g13
I01
sg14
F1.0787961380927344
sg15
g96
sbs(I-16
I20
tp100
g0
(g9
g2
Ntp101
Rp102
(dp103
g13
I01
sg14
F0.31317863865971485
sg15
g100
sbs(I20
I5
tp104
g0
(g9
g2
Ntp105
Rp106
(dp107
g13
I01
sg14
F-2.4976178273319065
sg15
g104
sbs(I-17
I20
tp108
g0
(g9
g2
Ntp109
Rp110
(dp111
g13
I01
sg14
F0.6145057857691567
sg15
g108
sbs(I20
I2
tp112
g0
(g9
g2
Ntp113
Rp114
(dp115
g13
I01
sg14
F-0.5405165085756999
sg15
g112
sbs(I-12
I20
tp116
g0
(g9
g2
Ntp117
Rp118
(dp119
g13
I01
sg14
F-1.1018195104379727
sg15
g116
sbs(I-15
I20
tp120
g0
(g9
g2
Ntp121
Rp122
(dp123
g13
I01
sg14
F0.7360547506996202
sg15
g120
sbs(I20
I6
tp124
g0
(g9
g2
Ntp125
Rp126
(dp127
g13
I01
sg14
F-0.13384298570249903
sg15
g124
sbs(I-2
I20
tp128
g0
(g9
g2
Ntp129
Rp130
(dp131
g13
I01
sg14
F-0.29302177552316905
sg15
g128
sbssS'nodes'
p132
(dp133
I0
g0
(cneat.genes
DefaultNodeGene
p134
g2
Ntp135
Rp136
(dp137
S'activation'
p138
S'relu'
p139
sS'bias'
p140
F-6.1681738987597265
sS'response'
p141
F1.0
sg15
I0
sS'aggregation'
p142
S'sum'
p143
sbsI1
g0
(g134
g2
Ntp144
Rp145
(dp146
g138
g139
sg140
F-2.7186623154627694
sg141
F1.0
sg15
I1
sg142
g143
sbsI2
g0
(g134
g2
Ntp147
Rp148
(dp149
g138
g139
sg140
F7.935429069835902
sg141
F1.0
sg15
I2
sg142
g143
sbsI3
g0
(g134
g2
Ntp150
Rp151
(dp152
g138
g139
sg140
F-13.581191826128693
sg141
F1.0
sg15
I3
sg142
g143
sbsI4
g0
(g134
g2
Ntp153
Rp154
(dp155
g138
g139
sg140
F-10.097472822756666
sg141
F1.0
sg15
I4
sg142
g143
sbsI5
g0
(g134
g2
Ntp156
Rp157
(dp158
g138
g139
sg140
F-5.945624809801472
sg141
F1.0
sg15
I5
sg142
g143
sbsI6
g0
(g134
g2
Ntp159
Rp160
(dp161
g138
g139
sg140
F17.008542624719293
sg141
F1.0
sg15
I6
sg142
g143
sbsI7
g0
(g134
g2
Ntp162
Rp163
(dp164
g138
g139
sg140
F0.08939379636560743
sg141
F1.0
sg15
I7
sg142
g143
sbsI8
g0
(g134
g2
Ntp165
Rp166
(dp167
g138
g139
sg140
F-6.9021650035039785
sg141
F1.0
sg15
I8
sg142
g143
sbsI9
g0
(g134
g2
Ntp168
Rp169
(dp170
g138
g139
sg140
F-1.8401970081042875
sg141
F1.0
sg15
I9
sg142
g143
sbsI20
g0
(g134
g2
Ntp171
Rp172
(dp173
g138
g139
sg140
F-9.47832745781801
sg141
F1.0
sg15
I20
sg142
g143
sbssg15
I11
sS'fitness'
p174
Nsb.