ccopy_reg
_reconstructor
p0
(cneat.genome
DefaultGenome
p1
c__builtin__
object
p2
Ntp3
Rp4
(dp5
S'connections'
p6
(dp7
(I-3
I84
tp8
g0
(cneat.genes
DefaultConnectionGene
p9
g2
Ntp10
Rp11
(dp12
S'enabled'
p13
I01
sS'weight'
p14
F-0.5187246690595576
sS'key'
p15
g8
sbs(I84
I1
tp16
g0
(g9
g2
Ntp17
Rp18
(dp19
g13
I01
sg14
F0.10394570291031603
sg15
g16
sbs(I-7
I84
tp20
g0
(g9
g2
Ntp21
Rp22
(dp23
g13
I01
sg14
F-0.19865097947344584
sg15
g20
sbs(I-16
I84
tp24
g0
(g9
g2
Ntp25
Rp26
(dp27
g13
I01
sg14
F-1.3420807800062775
sg15
g24
sbs(I84
I5
tp28
g0
(g9
g2
Ntp29
Rp30
(dp31
g13
I01
sg14
F3.261978521157789
sg15
g28
sbs(I-17
I84
tp32
g0
(g9
g2
Ntp33
Rp34
(dp35
g13
I01
sg14
F-1.0621231313199546
sg15
g32
sbs(I84
I2
tp36
g0
(g9
g2
Ntp37
Rp38
(dp39
g13
I01
sg14
F0.902488545030857
sg15
g36
sbs(I-12
I84
tp40
g0
(g9
g2
Ntp41
Rp42
(dp43
g13
I01
sg14
F-1.0841430127437504
sg15
g40
sbs(I-15
I84
tp44
g0
(g9
g2
Ntp45
Rp46
(dp47
g13
I01
sg14
F1.2953923000371166
sg15
g44
sbs(I84
I6
tp48
g0
(g9
g2
Ntp49
Rp50
(dp51
g13
I01
sg14
F-0.012396872431662598
sg15
g48
sbs(I-10
I84
tp52
g0
(g9
g2
Ntp53
Rp54
(dp55
g13
I01
sg14
F-1.0276468676376107
sg15
g52
sbs(I-11
I84
tp56
g0
(g9
g2
Ntp57
Rp58
(dp59
g13
I01
sg14
F-2.15210912203706
sg15
g56
sbs(I-20
I84
tp60
g0
(g9
g2
Ntp61
Rp62
(dp63
g13
I01
sg14
F0.4820004520089778
sg15
g60
sbs(I-5
I84
tp64
g0
(g9
g2
Ntp65
Rp66
(dp67
g13
I01
sg14
F-1.1288151101716908
sg15
g64
sbs(I-6
I84
tp68
g0
(g9
g2
Ntp69
Rp70
(dp71
g13
I01
sg14
F0.2160473395154645
sg15
g68
sbs(I84
I3
tp72
g0
(g9
g2
Ntp73
Rp74
(dp75
g13
I01
sg14
F-1.3902513808986583
sg15
g72
sbs(I84
I7
tp76
g0
(g9
g2
Ntp77
Rp78
(dp79
g13
I01
sg14
F-0.6755611526012515
sg15
g76
sbs(I84
I8
tp80
g0
(g9
g2
Ntp81
Rp82
(dp83
g13
I01
sg14
F-2.0747785299584063
sg15
g80
sbs(I-19
I84
tp84
g0
(g9
g2
Ntp85
Rp86
(dp87
g13
I01
sg14
F-2.053193756074582
sg15
g84
sbs(I-14
I84
tp88
g0
(g9
g2
Ntp89
Rp90
(dp91
g13
I01
sg14
F1.8410472582098505
sg15
g88
sbs(I-1
I84
tp92
g0
(g9
g2
Ntp93
Rp94
(dp95
g13
I01
sg14
F-0.12489317089379545
sg15
g92
sbs(I84
I0
tp96
g0
(g9
g2
Ntp97
Rp98
(dp99
g13
I01
sg14
F0.2249430070144492
sg15
g96
sbs(I-9
I84
tp100
g0
(g9
g2
Ntp101
Rp102
(dp103
g13
I01
sg14
F0.37360327041252406
sg15
g100
sbs(I-4
I84
tp104
g0
(g9
g2
Ntp105
Rp106
(dp107
g13
I01
sg14
F-0.10928112222592049
sg15
g104
sbs(I84
I9
tp108
g0
(g9
g2
Ntp109
Rp110
(dp111
g13
I01
sg14
F-0.21824545108253185
sg15
g108
sbs(I-2
I84
tp112
g0
(g9
g2
Ntp113
Rp114
(dp115
g13
I01
sg14
F0.38361706912483007
sg15
g112
sbs(I-18
I84
tp116
g0
(g9
g2
Ntp117
Rp118
(dp119
g13
I01
sg14
F-0.3570569124574155
sg15
g116
sbs(I84
I4
tp120
g0
(g9
g2
Ntp121
Rp122
(dp123
g13
I01
sg14
F1.5367130214529658
sg15
g120
sbs(I-13
I84
tp124
g0
(g9
g2
Ntp125
Rp126
(dp127
g13
I01
sg14
F1.5012990789201264
sg15
g124
sbs(I-8
I84
tp128
g0
(g9
g2
Ntp129
Rp130
(dp131
g13
I01
sg14
F-1.1146540938338512
sg15
g128
sbssS'nodes'
p132
(dp133
I0
g0
(cneat.genes
DefaultNodeGene
p134
g2
Ntp135
Rp136
(dp137
S'activation'
p138
S'relu'
p139
sS'bias'
p140
F-22.819119863900458
sS'response'
p141
F1.0
sg15
I0
sS'aggregation'
p142
S'sum'
p143
sbsI1
g0
(g134
g2
Ntp144
Rp145
(dp146
g138
g139
sg140
F-11.125048781578071
sg141
F1.0
sg15
I1
sg142
g143
sbsI2
g0
(g134
g2
Ntp147
Rp148
(dp149
g138
g139
sg140
F-12.183047185711825
sg141
F1.0
sg15
I2
sg142
g143
sbsI3
g0
(g134
g2
Ntp150
Rp151
(dp152
g138
g139
sg140
F10.187254786576755
sg141
F1.0
sg15
I3
sg142
g143
sbsI4
g0
(g134
g2
Ntp153
Rp154
(dp155
g138
g139
sg140
F-8.906088740908853
sg141
F1.0
sg15
I4
sg142
g143
sbsI5
g0
(g134
g2
Ntp156
Rp157
(dp158
g138
g139
sg140
F-14.467541187345699
sg141
F1.0
sg15
I5
sg142
g143
sbsI6
g0
(g134
g2
Ntp159
Rp160
(dp161
g138
g139
sg140
F6.5696535489409635
sg141
F1.0
sg15
I6
sg142
g143
sbsI7
g0
(g134
g2
Ntp162
Rp163
(dp164
g138
g139
sg140
F0.31406869115226804
sg141
F1.0
sg15
I7
sg142
g143
sbsI8
g0
(g134
g2
Ntp165
Rp166
(dp167
g138
g139
sg140
F3.817514930517662
sg141
F1.0
sg15
I8
sg142
g143
sbsI9
g0
(g134
g2
Ntp168
Rp169
(dp170
g138
g139
sg140
F4.424656989314423
sg141
F1.0
sg15
I9
sg142
g143
sbsI84
g0
(g134
g2
Ntp171
Rp172
(dp173
g138
g139
sg140
F-14.082173763565926
sg141
F1.0
sg15
I84
sg142
g143
sbssg15
I110
sS'fitness'
p174
Nsb.