ccopy_reg
_reconstructor
p0
(cneat.genome
DefaultGenome
p1
c__builtin__
object
p2
Ntp3
Rp4
(dp5
S'connections'
p6
(dp7
(I-1
I2619
tp8
g0
(cneat.genes
DefaultConnectionGene
p9
g2
Ntp10
Rp11
(dp12
S'enabled'
p13
I01
sS'weight'
p14
F-0.38724961423964643
sS'key'
p15
g8
sbs(I-6
I0
tp16
g0
(g9
g2
Ntp17
Rp18
(dp19
g13
I00
sg14
F-2.417904674830353
sg15
g16
sbs(I-2
I5
tp20
g0
(g9
g2
Ntp21
Rp22
(dp23
g13
I00
sg14
F-0.25328583033651014
sg15
g20
sbs(I-3
I7
tp24
g0
(g9
g2
Ntp25
Rp26
(dp27
g13
I00
sg14
F1.189593381393955
sg15
g24
sbs(I5
I5
tp28
g0
(g9
g2
Ntp29
Rp30
(dp31
g13
I01
sg14
F0.5220641618431907
sg15
g28
sbs(I-5
I2223
tp32
g0
(g9
g2
Ntp33
Rp34
(dp35
g13
I01
sg14
F0.698388938187881
sg15
g32
sbs(I2388
I8
tp36
g0
(g9
g2
Ntp37
Rp38
(dp39
g13
I01
sg14
F-0.5093378456735621
sg15
g36
sbs(I4
I4
tp40
g0
(g9
g2
Ntp41
Rp42
(dp43
g13
I01
sg14
F2.3519165277868046
sg15
g40
sbs(I2619
I2223
tp44
g0
(g9
g2
Ntp45
Rp46
(dp47
g13
I01
sg14
F4.256355931875494
sg15
g44
sbs(I8
I2388
tp48
g0
(g9
g2
Ntp49
Rp50
(dp51
g13
I01
sg14
F-3.1428034878156104
sg15
g48
sbs(I-2
I3578
tp52
g0
(g9
g2
Ntp53
Rp54
(dp55
g13
I01
sg14
F1.3562691708956658
sg15
g52
sbs(I3578
I5
tp56
g0
(g9
g2
Ntp57
Rp58
(dp59
g13
I01
sg14
F-0.3965460825550887
sg15
g56
sbs(I8
I8
tp60
g0
(g9
g2
Ntp61
Rp62
(dp63
g13
I00
sg14
F-0.060324493935134504
sg15
g60
sbs(I-7
I0
tp64
g0
(g9
g2
Ntp65
Rp66
(dp67
g13
I00
sg14
F1.5325945660124038
sg15
g64
sbs(I-10
I3404
tp68
g0
(g9
g2
Ntp69
Rp70
(dp71
g13
I01
sg14
F0.5305202736992578
sg15
g68
sbs(I-4
I8
tp72
g0
(g9
g2
Ntp73
Rp74
(dp75
g13
I01
sg14
F-1.5469004638126815
sg15
g72
sbs(I2223
I1
tp76
g0
(g9
g2
Ntp77
Rp78
(dp79
g13
I01
sg14
F7.803265236036696
sg15
g76
sbs(I-10
I0
tp80
g0
(g9
g2
Ntp81
Rp82
(dp83
g13
I00
sg14
F-0.01945954792216631
sg15
g80
sbs(I-5
I2619
tp84
g0
(g9
g2
Ntp85
Rp86
(dp87
g13
I01
sg14
F-2.0447122365365007
sg15
g84
sbssS'nodes'
p88
(dp89
I0
g0
(cneat.genes
DefaultNodeGene
p90
g2
Ntp91
Rp92
(dp93
S'activation'
p94
S'tanh'
p95
sS'bias'
p96
F-6.0518958244824175
sS'response'
p97
F1.0
sg15
I0
sS'aggregation'
p98
S'sum'
p99
sbsI1
g0
(g90
g2
Ntp100
Rp101
(dp102
g94
S'relu'
p103
sg96
F35.67492366628152
sg97
F1.0
sg15
I1
sg98
g99
sbsI2
g0
(g90
g2
Ntp104
Rp105
(dp106
g94
g95
sg96
F6.111787561873649
sg97
F1.0
sg15
I2
sg98
g99
sbsI3
g0
(g90
g2
Ntp107
Rp108
(dp109
g94
g95
sg96
F-18.960055377236323
sg97
F1.0
sg15
I3
sg98
g99
sbsI4
g0
(g90
g2
Ntp110
Rp111
(dp112
g94
g95
sg96
F2.366814209983605
sg97
F1.0
sg15
I4
sg98
g99
sbsI5
g0
(g90
g2
Ntp113
Rp114
(dp115
g94
g95
sg96
F-8.43203236574257
sg97
F1.0
sg15
I5
sg98
g99
sbsI6
g0
(g90
g2
Ntp116
Rp117
(dp118
g94
g95
sg96
F-5.395513752843894
sg97
F1.0
sg15
I6
sg98
g99
sbsI7
g0
(g90
g2
Ntp119
Rp120
(dp121
g94
g95
sg96
F1.6108019892179914
sg97
F1.0
sg15
I7
sg98
g99
sbsI8
g0
(g90
g2
Ntp122
Rp123
(dp124
g94
g95
sg96
F7.6376697075872295
sg97
F1.0
sg15
I8
sg98
g99
sbsI9
g0
(g90
g2
Ntp125
Rp126
(dp127
g94
g95
sg96
F-1.7936988139015475
sg97
F1.0
sg15
I9
sg98
g99
sbsI3404
g0
(g90
g2
Ntp128
Rp129
(dp130
g94
g95
sg96
F-12.129035401236454
sg97
F1.0
sg15
I3404
sg98
g99
sbsI2619
g0
(g90
g2
Ntp131
Rp132
(dp133
g94
g103
sg96
F4.3618479650594635
sg97
F1.0
sg15
I2619
sg98
g99
sbsI2223
g0
(g90
g2
Ntp134
Rp135
(dp136
g94
g103
sg96
F-34.8166871954638
sg97
F1.0
sg15
I2223
sg98
g99
sbsI2388
g0
(g90
g2
Ntp137
Rp138
(dp139
g94
g95
sg96
F14.5928609247139
sg97
F1.0
sg15
I2388
sg98
g99
sbsI3578
g0
(g90
g2
Ntp140
Rp141
(dp142
g94
g103
sg96
F-19.706520841350176
sg97
F1.0
sg15
I3578
sg98
g99
sbsI1551
g0
(g90
g2
Ntp143
Rp144
(dp145
g94
g95
sg96
F-10.229507815661535
sg97
F1.0
sg15
I1551
sg98
g99
sbssg15
I11003
sS'fitness'
p146
Nsb.