ccopy_reg
_reconstructor
p0
(cneat.genome
DefaultGenome
p1
c__builtin__
object
p2
Ntp3
Rp4
(dp5
S'connections'
p6
(dp7
(I-1
I2619
tp8
g0
(cneat.genes
DefaultConnectionGene
p9
g2
Ntp10
Rp11
(dp12
S'enabled'
p13
I01
sS'weight'
p14
F0.08163572957893866
sS'key'
p15
g8
sbs(I-10
I0
tp16
g0
(g9
g2
Ntp17
Rp18
(dp19
g13
I01
sg14
F0.631271088195063
sg15
g16
sbs(I-3
I7
tp20
g0
(g9
g2
Ntp21
Rp22
(dp23
g13
I00
sg14
F-0.07898748668035638
sg15
g20
sbs(I-5
I2619
tp24
g0
(g9
g2
Ntp25
Rp26
(dp27
g13
I01
sg14
F1.603787760908035
sg15
g24
sbs(I-6
I0
tp28
g0
(g9
g2
Ntp29
Rp30
(dp31
g13
I00
sg14
F-1.6099291114425496
sg15
g28
sbs(I4
I4
tp32
g0
(g9
g2
Ntp33
Rp34
(dp35
g13
I01
sg14
F2.879626054045067
sg15
g32
sbs(I-7
I0
tp36
g0
(g9
g2
Ntp37
Rp38
(dp39
g13
I00
sg14
F2.0696866808398062
sg15
g36
sbs(I2619
I2223
tp40
g0
(g9
g2
Ntp41
Rp42
(dp43
g13
I01
sg14
F4.887236496168559
sg15
g40
sbs(I8
I2388
tp44
g0
(g9
g2
Ntp45
Rp46
(dp47
g13
I01
sg14
F-3.217415877927559
sg15
g44
sbs(I2223
I1
tp48
g0
(g9
g2
Ntp49
Rp50
(dp51
g13
I01
sg14
F1.3087276934019036
sg15
g48
sbs(I-2
I3578
tp52
g0
(g9
g2
Ntp53
Rp54
(dp55
g13
I01
sg14
F1.1467876013850504
sg15
g52
sbs(I-2
I5
tp56
g0
(g9
g2
Ntp57
Rp58
(dp59
g13
I00
sg14
F-0.9550651782397485
sg15
g56
sbs(I2388
I8
tp60
g0
(g9
g2
Ntp61
Rp62
(dp63
g13
I01
sg14
F0.21647771334362526
sg15
g60
sbs(I-10
I3404
tp64
g0
(g9
g2
Ntp65
Rp66
(dp67
g13
I01
sg14
F0.721992468426145
sg15
g64
sbs(I-4
I8
tp68
g0
(g9
g2
Ntp69
Rp70
(dp71
g13
I01
sg14
F0.41926855641134136
sg15
g68
sbs(I-5
I2223
tp72
g0
(g9
g2
Ntp73
Rp74
(dp75
g13
I01
sg14
F0.8605425074463077
sg15
g72
sbs(I8
I8
tp76
g0
(g9
g2
Ntp77
Rp78
(dp79
g13
I00
sg14
F0.35011268331907675
sg15
g76
sbs(I1551
I9
tp80
g0
(g9
g2
Ntp81
Rp82
(dp83
g13
I01
sg14
F0.8478191259258228
sg15
g80
sbssS'nodes'
p84
(dp85
I0
g0
(cneat.genes
DefaultNodeGene
p86
g2
Ntp87
Rp88
(dp89
S'activation'
p90
S'tanh'
p91
sS'bias'
p92
F-6.092273746113901
sS'response'
p93
F1.0
sg15
I0
sS'aggregation'
p94
S'sum'
p95
sbsI1
g0
(g86
g2
Ntp96
Rp97
(dp98
g90
S'relu'
p99
sg92
F33.83134081018659
sg93
F1.0
sg15
I1
sg94
g95
sbsI2
g0
(g86
g2
Ntp100
Rp101
(dp102
g90
g91
sg92
F2.194341997046061
sg93
F1.0
sg15
I2
sg94
g95
sbsI3
g0
(g86
g2
Ntp103
Rp104
(dp105
g90
g91
sg92
F-17.891179372192067
sg93
F1.0
sg15
I3
sg94
g95
sbsI4
g0
(g86
g2
Ntp106
Rp107
(dp108
g90
g91
sg92
F6.7242492541820305
sg93
F1.0
sg15
I4
sg94
g95
sbsI5
g0
(g86
g2
Ntp109
Rp110
(dp111
g90
g91
sg92
F-8.770829970983424
sg93
F1.0
sg15
I5
sg94
g95
sbsI6
g0
(g86
g2
Ntp112
Rp113
(dp114
g90
g91
sg92
F-6.868253776710735
sg93
F1.0
sg15
I6
sg94
g95
sbsI7
g0
(g86
g2
Ntp115
Rp116
(dp117
g90
g91
sg92
F6.077680498056763
sg93
F1.0
sg15
I7
sg94
g95
sbsI8
g0
(g86
g2
Ntp118
Rp119
(dp120
g90
g91
sg92
F7.601195073747374
sg93
F1.0
sg15
I8
sg94
g95
sbsI9
g0
(g86
g2
Ntp121
Rp122
(dp123
g90
g91
sg92
F-0.31720332220594205
sg93
F1.0
sg15
I9
sg94
g95
sbsI3404
g0
(g86
g2
Ntp124
Rp125
(dp126
g90
g91
sg92
F-11.437659988047853
sg93
F1.0
sg15
I3404
sg94
g95
sbsI2223
g0
(g86
g2
Ntp127
Rp128
(dp129
g90
g91
sg92
F3.6515453674886174
sg93
F1.0
sg15
I2223
sg94
g95
sbsI2388
g0
(g86
g2
Ntp130
Rp131
(dp132
g90
g91
sg92
F15.452439657670267
sg93
F1.0
sg15
I2388
sg94
g95
sbsI1551
g0
(g86
g2
Ntp133
Rp134
(dp135
g90
g91
sg92
F-10.52951345799035
sg93
F1.0
sg15
I1551
sg94
g95
sbsI3578
g0
(g86
g2
Ntp136
Rp137
(dp138
g90
g91
sg92
F-17.54935164376424
sg93
F1.0
sg15
I3578
sg94
g95
sbsI2619
g0
(g86
g2
Ntp139
Rp140
(dp141
g90
g99
sg92
F-3.7389018255557698
sg93
F1.0
sg15
I2619
sg94
g95
sbssg15
I11008
sS'fitness'
p142
Nsb.