ccopy_reg
_reconstructor
p0
(cneat.genome
DefaultGenome
p1
c__builtin__
object
p2
Ntp3
Rp4
(dp5
S'connections'
p6
(dp7
(I-6
I0
tp8
g0
(cneat.genes
DefaultConnectionGene
p9
g2
Ntp10
Rp11
(dp12
S'enabled'
p13
I00
sS'weight'
p14
F-1.5605492991059597
sS'key'
p15
g8
sbs(I-2
I5
tp16
g0
(g9
g2
Ntp17
Rp18
(dp19
g13
I00
sg14
F-0.519923888056382
sg15
g16
sbs(I-3
I7
tp20
g0
(g9
g2
Ntp21
Rp22
(dp23
g13
I00
sg14
F-0.6072363098628656
sg15
g20
sbs(I5
I5
tp24
g0
(g9
g2
Ntp25
Rp26
(dp27
g13
I00
sg14
F-1.3337957748075966
sg15
g24
sbs(I-5
I2223
tp28
g0
(g9
g2
Ntp29
Rp30
(dp31
g13
I01
sg14
F0.7871296687451362
sg15
g28
sbs(I2388
I8
tp32
g0
(g9
g2
Ntp33
Rp34
(dp35
g13
I01
sg14
F-1.5335741703284358
sg15
g32
sbs(I-10
I2
tp36
g0
(g9
g2
Ntp37
Rp38
(dp39
g13
I01
sg14
F-0.9291050844301896
sg15
g36
sbs(I4
I4
tp40
g0
(g9
g2
Ntp41
Rp42
(dp43
g13
I01
sg14
F2.017626620548447
sg15
g40
sbs(I8
I2388
tp44
g0
(g9
g2
Ntp45
Rp46
(dp47
g13
I01
sg14
F0.7261000820117693
sg15
g44
sbs(I-2
I3578
tp48
g0
(g9
g2
Ntp49
Rp50
(dp51
g13
I01
sg14
F0.9693499238014595
sg15
g48
sbs(I3578
I5
tp52
g0
(g9
g2
Ntp53
Rp54
(dp55
g13
I01
sg14
F-0.34051064233430206
sg15
g52
sbs(I8
I8
tp56
g0
(g9
g2
Ntp57
Rp58
(dp59
g13
I00
sg14
F1.005922856881444
sg15
g56
sbs(I-7
I0
tp60
g0
(g9
g2
Ntp61
Rp62
(dp63
g13
I00
sg14
F2.1878070427726017
sg15
g60
sbs(I1551
I9
tp64
g0
(g9
g2
Ntp65
Rp66
(dp67
g13
I01
sg14
F-0.16591143820818802
sg15
g64
sbs(I-10
I3404
tp68
g0
(g9
g2
Ntp69
Rp70
(dp71
g13
I01
sg14
F0.9553387150253849
sg15
g68
sbs(I-4
I8
tp72
g0
(g9
g2
Ntp73
Rp74
(dp75
g13
I01
sg14
F-0.7255210672011863
sg15
g72
sbs(I2223
I1
tp76
g0
(g9
g2
Ntp77
Rp78
(dp79
g13
I01
sg14
F6.097028300676858
sg15
g76
sbs(I-10
I0
tp80
g0
(g9
g2
Ntp81
Rp82
(dp83
g13
I01
sg14
F1.8579742063210272
sg15
g80
sbssS'nodes'
p84
(dp85
I0
g0
(cneat.genes
DefaultNodeGene
p86
g2
Ntp87
Rp88
(dp89
S'activation'
p90
S'tanh'
p91
sS'bias'
p92
F-7.314014061295812
sS'response'
p93
F1.0
sg15
I0
sS'aggregation'
p94
S'sum'
p95
sbsI1
g0
(g86
g2
Ntp96
Rp97
(dp98
g90
S'relu'
p99
sg92
F35.66738680985052
sg93
F1.0
sg15
I1
sg94
g95
sbsI2
g0
(g86
g2
Ntp100
Rp101
(dp102
g90
g91
sg92
F3.2820460835627414
sg93
F1.0
sg15
I2
sg94
g95
sbsI3
g0
(g86
g2
Ntp103
Rp104
(dp105
g90
g91
sg92
F-19.43596271046657
sg93
F1.0
sg15
I3
sg94
g95
sbsI4
g0
(g86
g2
Ntp106
Rp107
(dp108
g90
g91
sg92
F2.4471490725618437
sg93
F1.0
sg15
I4
sg94
g95
sbsI5
g0
(g86
g2
Ntp109
Rp110
(dp111
g90
g91
sg92
F-0.4250950140843086
sg93
F1.0
sg15
I5
sg94
g95
sbsI6
g0
(g86
g2
Ntp112
Rp113
(dp114
g90
g91
sg92
F-5.419823260542101
sg93
F1.0
sg15
I6
sg94
g95
sbsI7
g0
(g86
g2
Ntp115
Rp116
(dp117
g90
g91
sg92
F2.6446774078373383
sg93
F1.0
sg15
I7
sg94
g95
sbsI8
g0
(g86
g2
Ntp118
Rp119
(dp120
g90
g91
sg92
F7.926914772834905
sg93
F1.0
sg15
I8
sg94
g95
sbsI9
g0
(g86
g2
Ntp121
Rp122
(dp123
g90
g91
sg92
F-1.3583499500464185
sg93
F1.0
sg15
I9
sg94
g95
sbsI3404
g0
(g86
g2
Ntp124
Rp125
(dp126
g90
g91
sg92
F-11.201492766827354
sg93
F1.0
sg15
I3404
sg94
g95
sbsI2223
g0
(g86
g2
Ntp127
Rp128
(dp129
g90
g99
sg92
F-5.145171524558933
sg93
F1.0
sg15
I2223
sg94
g95
sbsI2388
g0
(g86
g2
Ntp130
Rp131
(dp132
g90
g91
sg92
F6.168630074780009
sg93
F1.0
sg15
I2388
sg94
g95
sbsI3578
g0
(g86
g2
Ntp133
Rp134
(dp135
g90
g99
sg92
F-19.465781154556215
sg93
F1.0
sg15
I3578
sg94
g95
sbsI1551
g0
(g86
g2
Ntp136
Rp137
(dp138
g90
g91
sg92
F-10.867155699936793
sg93
F1.0
sg15
I1551
sg94
g95
sbssg15
I11005
sS'fitness'
p139
Nsb.