ccopy_reg
_reconstructor
p0
(cneat.genome
DefaultGenome
p1
c__builtin__
object
p2
Ntp3
Rp4
(dp5
S'connections'
p6
(dp7
(I-1
I2619
tp8
g0
(cneat.genes
DefaultConnectionGene
p9
g2
Ntp10
Rp11
(dp12
S'enabled'
p13
I01
sS'weight'
p14
F-0.14780190671619575
sS'key'
p15
g8
sbs(I-6
I0
tp16
g0
(g9
g2
Ntp17
Rp18
(dp19
g13
I00
sg14
F-2.666123698224581
sg15
g16
sbs(I-2
I5
tp20
g0
(g9
g2
Ntp21
Rp22
(dp23
g13
I01
sg14
F-0.7185656483090922
sg15
g20
sbs(I-3
I7
tp24
g0
(g9
g2
Ntp25
Rp26
(dp27
g13
I00
sg14
F0.6821082445868816
sg15
g24
sbs(I5
I5
tp28
g0
(g9
g2
Ntp29
Rp30
(dp31
g13
I01
sg14
F0.06071154377619137
sg15
g28
sbs(I-5
I2223
tp32
g0
(g9
g2
Ntp33
Rp34
(dp35
g13
I01
sg14
F0.13374435353280578
sg15
g32
sbs(I2388
I8
tp36
g0
(g9
g2
Ntp37
Rp38
(dp39
g13
I01
sg14
F-0.040554621307291094
sg15
g36
sbs(I4
I4
tp40
g0
(g9
g2
Ntp41
Rp42
(dp43
g13
I01
sg14
F0.6593363782687769
sg15
g40
sbs(I2619
I2223
tp44
g0
(g9
g2
Ntp45
Rp46
(dp47
g13
I01
sg14
F3.6379437920094833
sg15
g44
sbs(I8
I2388
tp48
g0
(g9
g2
Ntp49
Rp50
(dp51
g13
I01
sg14
F-4.005403918533777
sg15
g48
sbs(I-2
I3578
tp52
g0
(g9
g2
Ntp53
Rp54
(dp55
g13
I01
sg14
F0.017019113489377805
sg15
g52
sbs(I3578
I5
tp56
g0
(g9
g2
Ntp57
Rp58
(dp59
g13
I01
sg14
F-0.053196037039683064
sg15
g56
sbs(I8
I8
tp60
g0
(g9
g2
Ntp61
Rp62
(dp63
g13
I00
sg14
F1.27544627215712
sg15
g60
sbs(I-7
I0
tp64
g0
(g9
g2
Ntp65
Rp66
(dp67
g13
I00
sg14
F2.676275043956794
sg15
g64
sbs(I1551
I9
tp68
g0
(g9
g2
Ntp69
Rp70
(dp71
g13
I01
sg14
F-0.4055285957447251
sg15
g68
sbs(I-10
I3404
tp72
g0
(g9
g2
Ntp73
Rp74
(dp75
g13
I01
sg14
F0.3645368362102595
sg15
g72
sbs(I-4
I8
tp76
g0
(g9
g2
Ntp77
Rp78
(dp79
g13
I01
sg14
F0.4695372471680874
sg15
g76
sbs(I3404
I9
tp80
g0
(g9
g2
Ntp81
Rp82
(dp83
g13
I01
sg14
F0.3462473920929189
sg15
g80
sbs(I2223
I1
tp84
g0
(g9
g2
Ntp85
Rp86
(dp87
g13
I01
sg14
F6.4128675934405415
sg15
g84
sbs(I-10
I0
tp88
g0
(g9
g2
Ntp89
Rp90
(dp91
g13
I01
sg14
F0.6376080421356458
sg15
g88
sbs(I-5
I2619
tp92
g0
(g9
g2
Ntp93
Rp94
(dp95
g13
I00
sg14
F1.4943970808277451
sg15
g92
sbssS'nodes'
p96
(dp97
I0
g0
(cneat.genes
DefaultNodeGene
p98
g2
Ntp99
Rp100
(dp101
S'activation'
p102
S'tanh'
p103
sS'bias'
p104
F-6.897847329386638
sS'response'
p105
F1.0
sg15
I0
sS'aggregation'
p106
S'sum'
p107
sbsI1
g0
(g98
g2
Ntp108
Rp109
(dp110
g102
S'relu'
p111
sg104
F-18.72000260947384
sg105
F1.0
sg15
I1
sg106
g107
sbsI2
g0
(g98
g2
Ntp112
Rp113
(dp114
g102
g103
sg104
F3.2631071859264265
sg105
F1.0
sg15
I2
sg106
g107
sbsI3
g0
(g98
g2
Ntp115
Rp116
(dp117
g102
g103
sg104
F-19.247873832624435
sg105
F1.0
sg15
I3
sg106
g107
sbsI4
g0
(g98
g2
Ntp118
Rp119
(dp120
g102
g103
sg104
F2.8208486776659125
sg105
F1.0
sg15
I4
sg106
g107
sbsI5
g0
(g98
g2
Ntp121
Rp122
(dp123
g102
g103
sg104
F-8.409873563557902
sg105
F1.0
sg15
I5
sg106
g107
sbsI6
g0
(g98
g2
Ntp124
Rp125
(dp126
g102
g103
sg104
F-5.4431253158681265
sg105
F1.0
sg15
I6
sg106
g107
sbsI7
g0
(g98
g2
Ntp127
Rp128
(dp129
g102
g103
sg104
F2.2166398027137877
sg105
F1.0
sg15
I7
sg106
g107
sbsI8
g0
(g98
g2
Ntp130
Rp131
(dp132
g102
g103
sg104
F7.386377436763038
sg105
F1.0
sg15
I8
sg106
g107
sbsI9
g0
(g98
g2
Ntp133
Rp134
(dp135
g102
g103
sg104
F-1.2604320394725117
sg105
F1.0
sg15
I9
sg106
g107
sbsI3404
g0
(g98
g2
Ntp136
Rp137
(dp138
g102
g103
sg104
F-12.295945141810668
sg105
F1.0
sg15
I3404
sg106
g107
sbsI2619
g0
(g98
g2
Ntp139
Rp140
(dp141
g102
g103
sg104
F4.382517664205806
sg105
F1.0
sg15
I2619
sg106
g107
sbsI2223
g0
(g98
g2
Ntp142
Rp143
(dp144
g102
g111
sg104
F16.711105715950964
sg105
F1.0
sg15
I2223
sg106
g107
sbsI2388
g0
(g98
g2
Ntp145
Rp146
(dp147
g102
g103
sg104
F6.7040997585828235
sg105
F1.0
sg15
I2388
sg106
g107
sbsI3578
g0
(g98
g2
Ntp148
Rp149
(dp150
g102
g111
sg104
F-18.6698359661552
sg105
F1.0
sg15
I3578
sg106
g107
sbsI1551
g0
(g98
g2
Ntp151
Rp152
(dp153
g102
g103
sg104
F-11.785411097995253
sg105
F1.0
sg15
I1551
sg106
g107
sbssg15
I11006
sS'fitness'
p154
Nsb.