ccopy_reg
_reconstructor
p0
(cneat.genome
DefaultGenome
p1
c__builtin__
object
p2
Ntp3
Rp4
(dp5
S'connections'
p6
(dp7
(I-1
I2619
tp8
g0
(cneat.genes
DefaultConnectionGene
p9
g2
Ntp10
Rp11
(dp12
S'enabled'
p13
I01
sS'weight'
p14
F-0.7724048308227768
sS'key'
p15
g8
sbs(I-6
I0
tp16
g0
(g9
g2
Ntp17
Rp18
(dp19
g13
I00
sg14
F0.4420439138219548
sg15
g16
sbs(I-3
I7
tp20
g0
(g9
g2
Ntp21
Rp22
(dp23
g13
I00
sg14
F-2.230394575311919
sg15
g20
sbs(I5
I5
tp24
g0
(g9
g2
Ntp25
Rp26
(dp27
g13
I01
sg14
F0.9599430598867906
sg15
g24
sbs(I-5
I2223
tp28
g0
(g9
g2
Ntp29
Rp30
(dp31
g13
I01
sg14
F1.5173726133191643
sg15
g28
sbs(I2388
I8
tp32
g0
(g9
g2
Ntp33
Rp34
(dp35
g13
I01
sg14
F-1.755424557182918
sg15
g32
sbs(I4
I4
tp36
g0
(g9
g2
Ntp37
Rp38
(dp39
g13
I01
sg14
F2.032604030663286
sg15
g36
sbs(I2619
I2223
tp40
g0
(g9
g2
Ntp41
Rp42
(dp43
g13
I01
sg14
F3.1763344081033695
sg15
g40
sbs(I8
I2388
tp44
g0
(g9
g2
Ntp45
Rp46
(dp47
g13
I01
sg14
F-2.360603253270224
sg15
g44
sbs(I-2
I3578
tp48
g0
(g9
g2
Ntp49
Rp50
(dp51
g13
I01
sg14
F1.267598372094751
sg15
g48
sbs(I3578
I5
tp52
g0
(g9
g2
Ntp53
Rp54
(dp55
g13
I01
sg14
F-0.6684803346520747
sg15
g52
sbs(I8
I8
tp56
g0
(g9
g2
Ntp57
Rp58
(dp59
g13
I00
sg14
F0.8809514751133745
sg15
g56
sbs(I-2
I5
tp60
g0
(g9
g2
Ntp61
Rp62
(dp63
g13
I00
sg14
F-0.519923888056382
sg15
g60
sbs(I1551
I9
tp64
g0
(g9
g2
Ntp65
Rp66
(dp67
g13
I01
sg14
F1.4865197549341158
sg15
g64
sbs(I-10
I3404
tp68
g0
(g9
g2
Ntp69
Rp70
(dp71
g13
I01
sg14
F-0.36564531987494014
sg15
g68
sbs(I-4
I8
tp72
g0
(g9
g2
Ntp73
Rp74
(dp75
g13
I01
sg14
F1.70537617401862
sg15
g72
sbs(I2223
I1
tp76
g0
(g9
g2
Ntp77
Rp78
(dp79
g13
I01
sg14
F7.521381331958364
sg15
g76
sbs(I-10
I0
tp80
g0
(g9
g2
Ntp81
Rp82
(dp83
g13
I01
sg14
F0.9884345341650997
sg15
g80
sbs(I-5
I2619
tp84
g0
(g9
g2
Ntp85
Rp86
(dp87
g13
I01
sg14
F1.960238931412234
sg15
g84
sbssS'nodes'
p88
(dp89
I0
g0
(cneat.genes
DefaultNodeGene
p90
g2
Ntp91
Rp92
(dp93
S'activation'
p94
S'tanh'
p95
sS'bias'
p96
F-5.63640669128246
sS'response'
p97
F1.0
sg15
I0
sS'aggregation'
p98
S'sum'
p99
sbsI1
g0
(g90
g2
Ntp100
Rp101
(dp102
g94
g95
sg96
F34.20813902959044
sg97
F1.0
sg15
I1
sg98
g99
sbsI2
g0
(g90
g2
Ntp103
Rp104
(dp105
g94
g95
sg96
F4.914669369996761
sg97
F1.0
sg15
I2
sg98
g99
sbsI3
g0
(g90
g2
Ntp106
Rp107
(dp108
g94
g95
sg96
F0.3743872121657281
sg97
F1.0
sg15
I3
sg98
g99
sbsI4
g0
(g90
g2
Ntp109
Rp110
(dp111
g94
g95
sg96
F2.535528534806074
sg97
F1.0
sg15
I4
sg98
g99
sbsI5
g0
(g90
g2
Ntp112
Rp113
(dp114
g94
g95
sg96
F-8.530527399900745
sg97
F1.0
sg15
I5
sg98
g99
sbsI6
g0
(g90
g2
Ntp115
Rp116
(dp117
g94
g95
sg96
F-5.119874542307384
sg97
F1.0
sg15
I6
sg98
g99
sbsI7
g0
(g90
g2
Ntp118
Rp119
(dp120
g94
g95
sg96
F-5.369564506424506
sg97
F1.0
sg15
I7
sg98
g99
sbsI8
g0
(g90
g2
Ntp121
Rp122
(dp123
g94
g95
sg96
F8.25193257557562
sg97
F1.0
sg15
I8
sg98
g99
sbsI9
g0
(g90
g2
Ntp124
Rp125
(dp126
g94
g95
sg96
F-0.26231645881801047
sg97
F1.0
sg15
I9
sg98
g99
sbsI3404
g0
(g90
g2
Ntp127
Rp128
(dp129
g94
S'relu'
p130
sg96
F-11.458636624263628
sg97
F1.0
sg15
I3404
sg98
g99
sbsI2619
g0
(g90
g2
Ntp131
Rp132
(dp133
g94
g95
sg96
F4.179433839114249
sg97
F1.0
sg15
I2619
sg98
g99
sbsI2223
g0
(g90
g2
Ntp134
Rp135
(dp136
g94
g130
sg96
F-4.193664612543689
sg97
F1.0
sg15
I2223
sg98
g99
sbsI2388
g0
(g90
g2
Ntp137
Rp138
(dp139
g94
g95
sg96
F5.04188988537585
sg97
F1.0
sg15
I2388
sg98
g99
sbsI3578
g0
(g90
g2
Ntp140
Rp141
(dp142
g94
g130
sg96
F-17.85317014779094
sg97
F1.0
sg15
I3578
sg98
g99
sbsI1551
g0
(g90
g2
Ntp143
Rp144
(dp145
g94
g95
sg96
F-9.532315541644605
sg97
F1.0
sg15
I1551
sg98
g99
sbssg15
I11004
sS'fitness'
p146
Nsb.