ccopy_reg
_reconstructor
p0
(cneat.genome
DefaultGenome
p1
c__builtin__
object
p2
Ntp3
Rp4
(dp5
S'connections'
p6
(dp7
(I-10
I1827
tp8
g0
(cneat.genes
DefaultConnectionGene
p9
g2
Ntp10
Rp11
(dp12
S'enabled'
p13
I01
sS'weight'
p14
F2.0737158692649063
sS'key'
p15
g8
sbs(I3
I1827
tp16
g0
(g9
g2
Ntp17
Rp18
(dp19
g13
I01
sg14
F-2.7604997642134284
sg15
g16
sbs(I-5
I2223
tp20
g0
(g9
g2
Ntp21
Rp22
(dp23
g13
I01
sg14
F-2.1371493030437296
sg15
g20
sbs(I3316
I0
tp24
g0
(g9
g2
Ntp25
Rp26
(dp27
g13
I01
sg14
F1.3236254727774481
sg15
g24
sbs(I-7
I0
tp28
g0
(g9
g2
Ntp29
Rp30
(dp31
g13
I01
sg14
F-1.386848902654362
sg15
g28
sbs(I-3
I0
tp32
g0
(g9
g2
Ntp33
Rp34
(dp35
g13
I01
sg14
F-1.5382937800845216
sg15
g32
sbs(I-8
I1
tp36
g0
(g9
g2
Ntp37
Rp38
(dp39
g13
I01
sg14
F-0.4529381472209364
sg15
g36
sbs(I-3
I3226
tp40
g0
(g9
g2
Ntp41
Rp42
(dp43
g13
I01
sg14
F-0.29899456041607075
sg15
g40
sbs(I5
I5
tp44
g0
(g9
g2
Ntp45
Rp46
(dp47
g13
I01
sg14
F-1.626607233487394
sg15
g44
sbs(I-6
I0
tp48
g0
(g9
g2
Ntp49
Rp50
(dp51
g13
I00
sg14
F-0.9092380654160271
sg15
g48
sbs(I4
I4
tp52
g0
(g9
g2
Ntp53
Rp54
(dp55
g13
I00
sg14
F0.13871180029960611
sg15
g52
sbs(I2223
I1
tp56
g0
(g9
g2
Ntp57
Rp58
(dp59
g13
I01
sg14
F10.561098659286346
sg15
g56
sbs(I-6
I4
tp60
g0
(g9
g2
Ntp61
Rp62
(dp63
g13
I00
sg14
F-0.452165011044606
sg15
g60
sbs(I3226
I7
tp64
g0
(g9
g2
Ntp65
Rp66
(dp67
g13
I00
sg14
F2.5403021300069497
sg15
g64
sbs(I2619
I2223
tp68
g0
(g9
g2
Ntp69
Rp70
(dp71
g13
I01
sg14
F9.150987689064182
sg15
g68
sbs(I-6
I3165
tp72
g0
(g9
g2
Ntp73
Rp74
(dp75
g13
I00
sg14
F1.1834408068280455
sg15
g72
sbs(I2223
I4
tp76
g0
(g9
g2
Ntp77
Rp78
(dp79
g13
I01
sg14
F3.2470485072525337
sg15
g76
sbs(I-7
I9
tp80
g0
(g9
g2
Ntp81
Rp82
(dp83
g13
I00
sg14
F-1.4155176411595047
sg15
g80
sbs(I7
I1827
tp84
g0
(g9
g2
Ntp85
Rp86
(dp87
g13
I01
sg14
F0.5630085086554861
sg15
g84
sbs(I-5
I2619
tp88
g0
(g9
g2
Ntp89
Rp90
(dp91
g13
I01
sg14
F-3.5367797363089326
sg15
g88
sbs(I4
I3643
tp92
g0
(g9
g2
Ntp93
Rp94
(dp95
g13
I01
sg14
F1.2050399250753654
sg15
g92
sbs(I8
I8
tp96
g0
(g9
g2
Ntp97
Rp98
(dp99
g13
I01
sg14
F-0.6655166214789014
sg15
g96
sbs(I3643
I4
tp100
g0
(g9
g2
Ntp101
Rp102
(dp103
g13
I01
sg14
F-0.5075302075947454
sg15
g100
sbssS'nodes'
p104
(dp105
I0
g0
(cneat.genes
DefaultNodeGene
p106
g2
Ntp107
Rp108
(dp109
S'activation'
p110
S'tanh'
p111
sS'bias'
p112
F-9.687788142730891
sS'response'
p113
F1.0
sg15
I0
sS'aggregation'
p114
S'sum'
p115
sbsI1
g0
(g106
g2
Ntp116
Rp117
(dp118
g110
g111
sg112
F-14.675597422252109
sg113
F1.0
sg15
I1
sg114
g115
sbsI2
g0
(g106
g2
Ntp119
Rp120
(dp121
g110
g111
sg112
F-3.214864201988432
sg113
F1.0
sg15
I2
sg114
g115
sbsI3
g0
(g106
g2
Ntp122
Rp123
(dp124
g110
g111
sg112
F-7.033982976792404
sg113
F1.0
sg15
I3
sg114
g115
sbsI4
g0
(g106
g2
Ntp125
Rp126
(dp127
g110
g111
sg112
F-8.828826401454402
sg113
F1.0
sg15
I4
sg114
g115
sbsI5
g0
(g106
g2
Ntp128
Rp129
(dp130
g110
g111
sg112
F-10.978125491337362
sg113
F1.0
sg15
I5
sg114
g115
sbsI6
g0
(g106
g2
Ntp131
Rp132
(dp133
g110
g111
sg112
F-12.03783115195145
sg113
F1.0
sg15
I6
sg114
g115
sbsI7
g0
(g106
g2
Ntp134
Rp135
(dp136
g110
g111
sg112
F-3.1191446771369664
sg113
F1.0
sg15
I7
sg114
g115
sbsI8
g0
(g106
g2
Ntp137
Rp138
(dp139
g110
g111
sg112
F-13.903432843299186
sg113
F1.0
sg15
I8
sg114
g115
sbsI9
g0
(g106
g2
Ntp140
Rp141
(dp142
g110
g111
sg112
F23.14434137968919
sg113
F1.0
sg15
I9
sg114
g115
sbsI2619
g0
(g106
g2
Ntp143
Rp144
(dp145
g110
g111
sg112
F4.255558930706793
sg113
F1.0
sg15
I2619
sg114
g115
sbsI2223
g0
(g106
g2
Ntp146
Rp147
(dp148
g110
S'relu'
p149
sg112
F-2.855311964877899
sg113
F1.0
sg15
I2223
sg114
g115
sbsI1827
g0
(g106
g2
Ntp150
Rp151
(dp152
g110
g111
sg112
F0.4359491052977051
sg113
F1.0
sg15
I1827
sg114
g115
sbsI3316
g0
(g106
g2
Ntp153
Rp154
(dp155
g110
g111
sg112
F-8.963678608344187
sg113
F1.0
sg15
I3316
sg114
g115
sbsI3226
g0
(g106
g2
Ntp156
Rp157
(dp158
g110
g111
sg112
F-7.186936447171588
sg113
F1.0
sg15
I3226
sg114
g115
sbsI3643
g0
(g106
g2
Ntp159
Rp160
(dp161
g110
g149
sg112
F19.14650196260341
sg113
F1.0
sg15
I3643
sg114
g115
sbsI3165
g0
(g106
g2
Ntp162
Rp163
(dp164
g110
g111
sg112
F-8.235451663630716
sg113
F1.0
sg15
I3165
sg114
g115
sbssg15
I11015
sS'fitness'
p165
Nsb.