ccopy_reg
_reconstructor
p0
(cneat.genome
DefaultGenome
p1
c__builtin__
object
p2
Ntp3
Rp4
(dp5
S'connections'
p6
(dp7
(I3
I1827
tp8
g0
(cneat.genes
DefaultConnectionGene
p9
g2
Ntp10
Rp11
(dp12
S'enabled'
p13
I01
sS'weight'
p14
F-2.7756435671175783
sS'key'
p15
g8
sbs(I-5
I2223
tp16
g0
(g9
g2
Ntp17
Rp18
(dp19
g13
I01
sg14
F-3.6867839781596636
sg15
g16
sbs(I3316
I0
tp20
g0
(g9
g2
Ntp21
Rp22
(dp23
g13
I00
sg14
F-0.1771970815705901
sg15
g20
sbs(I-7
I0
tp24
g0
(g9
g2
Ntp25
Rp26
(dp27
g13
I00
sg14
F-1.5018862437027125
sg15
g24
sbs(I-3
I0
tp28
g0
(g9
g2
Ntp29
Rp30
(dp31
g13
I01
sg14
F0.7137624877572037
sg15
g28
sbs(I-8
I1
tp32
g0
(g9
g2
Ntp33
Rp34
(dp35
g13
I01
sg14
F-0.4992657957436426
sg15
g32
sbs(I-3
I3226
tp36
g0
(g9
g2
Ntp37
Rp38
(dp39
g13
I01
sg14
F0.5271862141478427
sg15
g36
sbs(I3670
I0
tp40
g0
(g9
g2
Ntp41
Rp42
(dp43
g13
I01
sg14
F-1.5725759847127607
sg15
g40
sbs(I5
I5
tp44
g0
(g9
g2
Ntp45
Rp46
(dp47
g13
I01
sg14
F-2.4831470224787138
sg15
g44
sbs(I-6
I0
tp48
g0
(g9
g2
Ntp49
Rp50
(dp51
g13
I00
sg14
F-0.007215984264955622
sg15
g48
sbs(I4
I4
tp52
g0
(g9
g2
Ntp53
Rp54
(dp55
g13
I00
sg14
F0.7639631573407677
sg15
g52
sbs(I2223
I1
tp56
g0
(g9
g2
Ntp57
Rp58
(dp59
g13
I01
sg14
F10.995721475795856
sg15
g56
sbs(I-6
I4
tp60
g0
(g9
g2
Ntp61
Rp62
(dp63
g13
I00
sg14
F-0.4081915383669084
sg15
g60
sbs(I3226
I7
tp64
g0
(g9
g2
Ntp65
Rp66
(dp67
g13
I00
sg14
F3.0859652412219907
sg15
g64
sbs(I-6
I3165
tp68
g0
(g9
g2
Ntp69
Rp70
(dp71
g13
I00
sg14
F-0.673132855938009
sg15
g68
sbs(I2223
I4
tp72
g0
(g9
g2
Ntp73
Rp74
(dp75
g13
I01
sg14
F3.383518320694849
sg15
g72
sbs(I-7
I3670
tp76
g0
(g9
g2
Ntp77
Rp78
(dp79
g13
I01
sg14
F1.3740801582241495
sg15
g76
sbs(I-7
I9
tp80
g0
(g9
g2
Ntp81
Rp82
(dp83
g13
I00
sg14
F-2.14443685078944
sg15
g80
sbs(I7
I1827
tp84
g0
(g9
g2
Ntp85
Rp86
(dp87
g13
I01
sg14
F-0.032399522701649544
sg15
g84
sbs(I4
I3643
tp88
g0
(g9
g2
Ntp89
Rp90
(dp91
g13
I01
sg14
F-1.5081834555656628
sg15
g88
sbs(I8
I8
tp92
g0
(g9
g2
Ntp93
Rp94
(dp95
g13
I01
sg14
F-0.5511188177846946
sg15
g92
sbs(I3643
I4
tp96
g0
(g9
g2
Ntp97
Rp98
(dp99
g13
I01
sg14
F0.09018874412439642
sg15
g96
sbssS'nodes'
p100
(dp101
I0
g0
(cneat.genes
DefaultNodeGene
p102
g2
Ntp103
Rp104
(dp105
S'activation'
p106
S'tanh'
p107
sS'bias'
p108
F-2.1541732859630054
sS'response'
p109
F1.0
sg15
I0
sS'aggregation'
p110
S'sum'
p111
sbsI1
g0
(g102
g2
Ntp112
Rp113
(dp114
g106
g107
sg108
F-2.7228545204045305
sg109
F1.0
sg15
I1
sg110
g111
sbsI2
g0
(g102
g2
Ntp115
Rp116
(dp117
g106
g107
sg108
F7.618273192497394
sg109
F1.0
sg15
I2
sg110
g111
sbsI3
g0
(g102
g2
Ntp118
Rp119
(dp120
g106
g107
sg108
F-6.686465018526898
sg109
F1.0
sg15
I3
sg110
g111
sbsI4
g0
(g102
g2
Ntp121
Rp122
(dp123
g106
g107
sg108
F-9.568350116021138
sg109
F1.0
sg15
I4
sg110
g111
sbsI5
g0
(g102
g2
Ntp124
Rp125
(dp126
g106
g107
sg108
F-10.90909696548869
sg109
F1.0
sg15
I5
sg110
g111
sbsI6
g0
(g102
g2
Ntp127
Rp128
(dp129
g106
g107
sg108
F-12.305485134584083
sg109
F1.0
sg15
I6
sg110
g111
sbsI7
g0
(g102
g2
Ntp130
Rp131
(dp132
g106
g107
sg108
F-3.2993999158179306
sg109
F1.0
sg15
I7
sg110
g111
sbsI8
g0
(g102
g2
Ntp133
Rp134
(dp135
g106
g107
sg108
F-13.520577364695445
sg109
F1.0
sg15
I8
sg110
g111
sbsI9
g0
(g102
g2
Ntp136
Rp137
(dp138
g106
g107
sg108
F23.332201874242283
sg109
F1.0
sg15
I9
sg110
g111
sbsI2223
g0
(g102
g2
Ntp139
Rp140
(dp141
g106
S'relu'
p142
sg108
F-4.169641360043275
sg109
F1.0
sg15
I2223
sg110
g111
sbsI1827
g0
(g102
g2
Ntp143
Rp144
(dp145
g106
g107
sg108
F-0.5709554342851206
sg109
F1.0
sg15
I1827
sg110
g111
sbsI3316
g0
(g102
g2
Ntp146
Rp147
(dp148
g106
g142
sg108
F-7.952422900444507
sg109
F1.0
sg15
I3316
sg110
g111
sbsI3670
g0
(g102
g2
Ntp149
Rp150
(dp151
g106
g142
sg108
F8.511613451608081
sg109
F1.0
sg15
I3670
sg110
g111
sbsI3226
g0
(g102
g2
Ntp152
Rp153
(dp154
g106
g107
sg108
F-7.339865513837274
sg109
F1.0
sg15
I3226
sg110
g111
sbsI3643
g0
(g102
g2
Ntp155
Rp156
(dp157
g106
g142
sg108
F18.780593466839782
sg109
F1.0
sg15
I3643
sg110
g111
sbsI3165
g0
(g102
g2
Ntp158
Rp159
(dp160
g106
g107
sg108
F-6.879288438367539
sg109
F1.0
sg15
I3165
sg110
g111
sbssg15
I11016
sS'fitness'
p161
Nsb.