ccopy_reg
_reconstructor
p0
(cneat.genome
DefaultGenome
p1
c__builtin__
object
p2
Ntp3
Rp4
(dp5
S'connections'
p6
(dp7
(I-1
I2619
tp8
g0
(cneat.genes
DefaultConnectionGene
p9
g2
Ntp10
Rp11
(dp12
S'enabled'
p13
I01
sS'weight'
p14
F-0.9035039963886906
sS'key'
p15
g8
sbs(I-6
I0
tp16
g0
(g9
g2
Ntp17
Rp18
(dp19
g13
I00
sg14
F-0.46455870403066246
sg15
g16
sbs(I-3
I7
tp20
g0
(g9
g2
Ntp21
Rp22
(dp23
g13
I00
sg14
F-1.6851980823807546
sg15
g20
sbs(I-2
I1551
tp24
g0
(g9
g2
Ntp25
Rp26
(dp27
g13
I01
sg14
F-1.4428066152402153
sg15
g24
sbs(I5
I5
tp28
g0
(g9
g2
Ntp29
Rp30
(dp31
g13
I01
sg14
F0.8529176337254263
sg15
g28
sbs(I-5
I2223
tp32
g0
(g9
g2
Ntp33
Rp34
(dp35
g13
I01
sg14
F0.03193096784543498
sg15
g32
sbs(I2388
I8
tp36
g0
(g9
g2
Ntp37
Rp38
(dp39
g13
I01
sg14
F-1.6487151701497589
sg15
g36
sbs(I4
I4
tp40
g0
(g9
g2
Ntp41
Rp42
(dp43
g13
I01
sg14
F0.48357670252792195
sg15
g40
sbs(I2619
I2223
tp44
g0
(g9
g2
Ntp45
Rp46
(dp47
g13
I01
sg14
F2.3836101486826418
sg15
g44
sbs(I8
I2388
tp48
g0
(g9
g2
Ntp49
Rp50
(dp51
g13
I01
sg14
F-2.9682381623178373
sg15
g48
sbs(I-2
I3578
tp52
g0
(g9
g2
Ntp53
Rp54
(dp55
g13
I01
sg14
F1.494565797005947
sg15
g52
sbs(I3578
I5
tp56
g0
(g9
g2
Ntp57
Rp58
(dp59
g13
I01
sg14
F-0.9344241816933884
sg15
g56
sbs(I8
I8
tp60
g0
(g9
g2
Ntp61
Rp62
(dp63
g13
I00
sg14
F0.7484587134037199
sg15
g60
sbs(I-2
I5
tp64
g0
(g9
g2
Ntp65
Rp66
(dp67
g13
I00
sg14
F-1.9750053874698317
sg15
g64
sbs(I1551
I9
tp68
g0
(g9
g2
Ntp69
Rp70
(dp71
g13
I01
sg14
F1.9077280060190724
sg15
g68
sbs(I-10
I3404
tp72
g0
(g9
g2
Ntp73
Rp74
(dp75
g13
I01
sg14
F0.7263719342033319
sg15
g72
sbs(I-4
I8
tp76
g0
(g9
g2
Ntp77
Rp78
(dp79
g13
I01
sg14
F-0.31292538324544905
sg15
g76
sbs(I2223
I1
tp80
g0
(g9
g2
Ntp81
Rp82
(dp83
g13
I01
sg14
F0.4524565786930426
sg15
g80
sbs(I-10
I0
tp84
g0
(g9
g2
Ntp85
Rp86
(dp87
g13
I01
sg14
F-0.004913514291873616
sg15
g84
sbs(I-5
I2619
tp88
g0
(g9
g2
Ntp89
Rp90
(dp91
g13
I01
sg14
F-1.9507510587715822
sg15
g88
sbssS'nodes'
p92
(dp93
I0
g0
(cneat.genes
DefaultNodeGene
p94
g2
Ntp95
Rp96
(dp97
S'activation'
p98
S'tanh'
p99
sS'bias'
p100
F-5.746051894584894
sS'response'
p101
F1.0
sg15
I0
sS'aggregation'
p102
S'sum'
p103
sbsI1
g0
(g94
g2
Ntp104
Rp105
(dp106
g98
S'relu'
p107
sg100
F35.77536856721155
sg101
F1.0
sg15
I1
sg102
g103
sbsI2
g0
(g94
g2
Ntp108
Rp109
(dp110
g98
g99
sg100
F4.40931224212315
sg101
F1.0
sg15
I2
sg102
g103
sbsI3
g0
(g94
g2
Ntp111
Rp112
(dp113
g98
g99
sg100
F-1.4859681451107787
sg101
F1.0
sg15
I3
sg102
g103
sbsI4
g0
(g94
g2
Ntp114
Rp115
(dp116
g98
g99
sg100
F5.506933975981143
sg101
F1.0
sg15
I4
sg102
g103
sbsI5
g0
(g94
g2
Ntp117
Rp118
(dp119
g98
g99
sg100
F-8.36331104132951
sg101
F1.0
sg15
I5
sg102
g103
sbsI6
g0
(g94
g2
Ntp120
Rp121
(dp122
g98
g99
sg100
F-6.116021131074118
sg101
F1.0
sg15
I6
sg102
g103
sbsI7
g0
(g94
g2
Ntp123
Rp124
(dp125
g98
g99
sg100
F-5.429986197100876
sg101
F1.0
sg15
I7
sg102
g103
sbsI8
g0
(g94
g2
Ntp126
Rp127
(dp128
g98
g99
sg100
F7.921338845481555
sg101
F1.0
sg15
I8
sg102
g103
sbsI9
g0
(g94
g2
Ntp129
Rp130
(dp131
g98
g99
sg100
F-0.2708872569681784
sg101
F1.0
sg15
I9
sg102
g103
sbsI3404
g0
(g94
g2
Ntp132
Rp133
(dp134
g98
g107
sg100
F-12.163636571490786
sg101
F1.0
sg15
I3404
sg102
g103
sbsI2619
g0
(g94
g2
Ntp135
Rp136
(dp137
g98
g107
sg100
F4.987382867284068
sg101
F1.0
sg15
I2619
sg102
g103
sbsI2223
g0
(g94
g2
Ntp138
Rp139
(dp140
g98
g107
sg100
F18.358058147864526
sg101
F1.0
sg15
I2223
sg102
g103
sbsI2388
g0
(g94
g2
Ntp141
Rp142
(dp143
g98
g99
sg100
F4.171984327652762
sg101
F1.0
sg15
I2388
sg102
g103
sbsI3578
g0
(g94
g2
Ntp144
Rp145
(dp146
g98
g107
sg100
F-17.81796783465605
sg101
F1.0
sg15
I3578
sg102
g103
sbsI1551
g0
(g94
g2
Ntp147
Rp148
(dp149
g98
g99
sg100
F-10.430238536000894
sg101
F1.0
sg15
I1551
sg102
g103
sbssg15
I11011
sS'fitness'
p150
Nsb.