ccopy_reg
_reconstructor
p0
(cneat.genome
DefaultGenome
p1
c__builtin__
object
p2
Ntp3
Rp4
(dp5
S'connections'
p6
(dp7
(I-10
I1827
tp8
g0
(cneat.genes
DefaultConnectionGene
p9
g2
Ntp10
Rp11
(dp12
S'enabled'
p13
I01
sS'weight'
p14
F-0.2503692350498661
sS'key'
p15
g8
sbs(I3
I1827
tp16
g0
(g9
g2
Ntp17
Rp18
(dp19
g13
I01
sg14
F-1.1548208678910719
sg15
g16
sbs(I-5
I2223
tp20
g0
(g9
g2
Ntp21
Rp22
(dp23
g13
I01
sg14
F-3.796489193711479
sg15
g20
sbs(I3316
I0
tp24
g0
(g9
g2
Ntp25
Rp26
(dp27
g13
I01
sg14
F1.2001943088993205
sg15
g24
sbs(I-3
I0
tp28
g0
(g9
g2
Ntp29
Rp30
(dp31
g13
I01
sg14
F-0.4727304033914467
sg15
g28
sbs(I-3
I3672
tp32
g0
(g9
g2
Ntp33
Rp34
(dp35
g13
I01
sg14
F0.1716919148994056
sg15
g32
sbs(I-8
I1
tp36
g0
(g9
g2
Ntp37
Rp38
(dp39
g13
I01
sg14
F1.4803656504112932
sg15
g36
sbs(I-3
I3226
tp40
g0
(g9
g2
Ntp41
Rp42
(dp43
g13
I00
sg14
F-0.18571779991729015
sg15
g40
sbs(I5
I5
tp44
g0
(g9
g2
Ntp45
Rp46
(dp47
g13
I01
sg14
F-1.0437086706914882
sg15
g44
sbs(I-6
I0
tp48
g0
(g9
g2
Ntp49
Rp50
(dp51
g13
I00
sg14
F-0.9187316687963507
sg15
g48
sbs(I4
I4
tp52
g0
(g9
g2
Ntp53
Rp54
(dp55
g13
I00
sg14
F0.014283034434193875
sg15
g52
sbs(I2223
I1
tp56
g0
(g9
g2
Ntp57
Rp58
(dp59
g13
I00
sg14
F10.532695697174734
sg15
g56
sbs(I-6
I4
tp60
g0
(g9
g2
Ntp61
Rp62
(dp63
g13
I00
sg14
F-0.5505972826994231
sg15
g60
sbs(I3226
I7
tp64
g0
(g9
g2
Ntp65
Rp66
(dp67
g13
I00
sg14
F2.7521711135966145
sg15
g64
sbs(I2619
I2223
tp68
g0
(g9
g2
Ntp69
Rp70
(dp71
g13
I01
sg14
F8.972060238709254
sg15
g68
sbs(I-6
I3165
tp72
g0
(g9
g2
Ntp73
Rp74
(dp75
g13
I00
sg14
F-0.2951090874305557
sg15
g72
sbs(I3672
I3226
tp76
g0
(g9
g2
Ntp77
Rp78
(dp79
g13
I01
sg14
F-0.7359633867583113
sg15
g76
sbs(I2223
I4
tp80
g0
(g9
g2
Ntp81
Rp82
(dp83
g13
I01
sg14
F3.860498133975496
sg15
g80
sbs(I-7
I9
tp84
g0
(g9
g2
Ntp85
Rp86
(dp87
g13
I00
sg14
F-0.03619047156529218
sg15
g84
sbs(I7
I1827
tp88
g0
(g9
g2
Ntp89
Rp90
(dp91
g13
I01
sg14
F-0.45784180558610216
sg15
g88
sbs(I-5
I2619
tp92
g0
(g9
g2
Ntp93
Rp94
(dp95
g13
I01
sg14
F-2.900559426756746
sg15
g92
sbs(I4
I3643
tp96
g0
(g9
g2
Ntp97
Rp98
(dp99
g13
I01
sg14
F0.1717564769436284
sg15
g96
sbs(I8
I8
tp100
g0
(g9
g2
Ntp101
Rp102
(dp103
g13
I01
sg14
F0.6569901104399685
sg15
g100
sbs(I3643
I4
tp104
g0
(g9
g2
Ntp105
Rp106
(dp107
g13
I01
sg14
F0.26683896941076884
sg15
g104
sbssS'nodes'
p108
(dp109
I0
g0
(cneat.genes
DefaultNodeGene
p110
g2
Ntp111
Rp112
(dp113
S'activation'
p114
S'tanh'
p115
sS'bias'
p116
F5.613080073201948
sS'response'
p117
F1.0
sg15
I0
sS'aggregation'
p118
S'sum'
p119
sbsI1
g0
(g110
g2
Ntp120
Rp121
(dp122
g114
S'relu'
p123
sg116
F-1.7563543254192313
sg117
F1.0
sg15
I1
sg118
g119
sbsI2
g0
(g110
g2
Ntp124
Rp125
(dp126
g114
g115
sg116
F-3.1612276046922125
sg117
F1.0
sg15
I2
sg118
g119
sbsI3
g0
(g110
g2
Ntp127
Rp128
(dp129
g114
g115
sg116
F-6.94482349637196
sg117
F1.0
sg15
I3
sg118
g119
sbsI4
g0
(g110
g2
Ntp130
Rp131
(dp132
g114
g115
sg116
F-5.698484655352907
sg117
F1.0
sg15
I4
sg118
g119
sbsI5
g0
(g110
g2
Ntp133
Rp134
(dp135
g114
g115
sg116
F-10.2635387202759
sg117
F1.0
sg15
I5
sg118
g119
sbsI6
g0
(g110
g2
Ntp136
Rp137
(dp138
g114
g115
sg116
F-10.86627849709073
sg117
F1.0
sg15
I6
sg118
g119
sbsI7
g0
(g110
g2
Ntp139
Rp140
(dp141
g114
g115
sg116
F-4.221106413704423
sg117
F1.0
sg15
I7
sg118
g119
sbsI8
g0
(g110
g2
Ntp142
Rp143
(dp144
g114
g115
sg116
F-14.133970424746156
sg117
F1.0
sg15
I8
sg118
g119
sbsI9
g0
(g110
g2
Ntp145
Rp146
(dp147
g114
g115
sg116
F22.41642571843011
sg117
F1.0
sg15
I9
sg118
g119
sbsI2619
g0
(g110
g2
Ntp148
Rp149
(dp150
g114
g123
sg116
F3.3030841307769805
sg117
F1.0
sg15
I2619
sg118
g119
sbsI2223
g0
(g110
g2
Ntp151
Rp152
(dp153
g114
g123
sg116
F-3.332101443399438
sg117
F1.0
sg15
I2223
sg118
g119
sbsI1827
g0
(g110
g2
Ntp154
Rp155
(dp156
g114
g115
sg116
F0.30725144108476055
sg117
F1.0
sg15
I1827
sg118
g119
sbsI3316
g0
(g110
g2
Ntp157
Rp158
(dp159
g114
g123
sg116
F13.051689909647449
sg117
F1.0
sg15
I3316
sg118
g119
sbsI3672
g0
(g110
g2
Ntp160
Rp161
(dp162
g114
g123
sg116
F-8.622429431677341
sg117
F1.0
sg15
I3672
sg118
g119
sbsI3226
g0
(g110
g2
Ntp163
Rp164
(dp165
g114
g115
sg116
F-6.956567527093874
sg117
F1.0
sg15
I3226
sg118
g119
sbsI3643
g0
(g110
g2
Ntp166
Rp167
(dp168
g114
g115
sg116
F19.366702215474145
sg117
F1.0
sg15
I3643
sg118
g119
sbsI3165
g0
(g110
g2
Ntp169
Rp170
(dp171
g114
g115
sg116
F-7.473361692542558
sg117
F1.0
sg15
I3165
sg118
g119
sbssg15
I11019
sS'fitness'
p172
Nsb.