ccopy_reg
_reconstructor
p0
(cneat.genome
DefaultGenome
p1
c__builtin__
object
p2
Ntp3
Rp4
(dp5
S'connections'
p6
(dp7
(I-10
I1827
tp8
g0
(cneat.genes
DefaultConnectionGene
p9
g2
Ntp10
Rp11
(dp12
S'enabled'
p13
I01
sS'weight'
p14
F-0.8288901683205979
sS'key'
p15
g8
sbs(I7
I1827
tp16
g0
(g9
g2
Ntp17
Rp18
(dp19
g13
I01
sg14
F-0.21875490273529272
sg15
g16
sbs(I3
I1827
tp20
g0
(g9
g2
Ntp21
Rp22
(dp23
g13
I01
sg14
F-0.5986698554085482
sg15
g20
sbs(I2619
I3671
tp24
g0
(g9
g2
Ntp25
Rp26
(dp27
g13
I01
sg14
F2.5516091293939214
sg15
g24
sbs(I-2
I1827
tp28
g0
(g9
g2
Ntp29
Rp30
(dp31
g13
I01
sg14
F1.1271490151896102
sg15
g28
sbs(I-5
I2223
tp32
g0
(g9
g2
Ntp33
Rp34
(dp35
g13
I01
sg14
F-3.3185374308340356
sg15
g32
sbs(I4
I4
tp36
g0
(g9
g2
Ntp37
Rp38
(dp39
g13
I00
sg14
F0.28369208900041865
sg15
g36
sbs(I5
I5
tp40
g0
(g9
g2
Ntp41
Rp42
(dp43
g13
I01
sg14
F-1.7546438608501769
sg15
g40
sbs(I-3
I0
tp44
g0
(g9
g2
Ntp45
Rp46
(dp47
g13
I01
sg14
F2.6277627648911617
sg15
g44
sbs(I3316
I0
tp48
g0
(g9
g2
Ntp49
Rp50
(dp51
g13
I01
sg14
F1.063737825996679
sg15
g48
sbs(I3671
I2223
tp52
g0
(g9
g2
Ntp53
Rp54
(dp55
g13
I01
sg14
F9.38482408640782
sg15
g52
sbs(I-7
I0
tp56
g0
(g9
g2
Ntp57
Rp58
(dp59
g13
I01
sg14
F-2.0453399741195377
sg15
g56
sbs(I8
I8
tp60
g0
(g9
g2
Ntp61
Rp62
(dp63
g13
I00
sg14
F-0.7743014196256891
sg15
g60
sbs(I-6
I4
tp64
g0
(g9
g2
Ntp65
Rp66
(dp67
g13
I00
sg14
F-0.7281967535617533
sg15
g64
sbs(I2619
I2223
tp68
g0
(g9
g2
Ntp69
Rp70
(dp71
g13
I00
sg14
F8.736292827710658
sg15
g68
sbs(I-8
I1
tp72
g0
(g9
g2
Ntp73
Rp74
(dp75
g13
I00
sg14
F-1.0258718617533047
sg15
g72
sbs(I-6
I0
tp76
g0
(g9
g2
Ntp77
Rp78
(dp79
g13
I00
sg14
F0.025912239166803054
sg15
g76
sbs(I2223
I1
tp80
g0
(g9
g2
Ntp81
Rp82
(dp83
g13
I01
sg14
F10.246894731540511
sg15
g80
sbs(I-7
I9
tp84
g0
(g9
g2
Ntp85
Rp86
(dp87
g13
I00
sg14
F-0.1936403421635533
sg15
g84
sbs(I-5
I2619
tp88
g0
(g9
g2
Ntp89
Rp90
(dp91
g13
I01
sg14
F-2.5721456653820987
sg15
g88
sbssS'nodes'
p92
(dp93
I0
g0
(cneat.genes
DefaultNodeGene
p94
g2
Ntp95
Rp96
(dp97
S'activation'
p98
S'tanh'
p99
sS'bias'
p100
F-9.415078724376805
sS'response'
p101
F1.0
sg15
I0
sS'aggregation'
p102
S'sum'
p103
sbsI1
g0
(g94
g2
Ntp104
Rp105
(dp106
g98
S'relu'
p107
sg100
F6.985387690739912
sg101
F1.0
sg15
I1
sg102
g103
sbsI2
g0
(g94
g2
Ntp108
Rp109
(dp110
g98
g99
sg100
F-3.23612156190823
sg101
F1.0
sg15
I2
sg102
g103
sbsI3
g0
(g94
g2
Ntp111
Rp112
(dp113
g98
g99
sg100
F-6.633637343659367
sg101
F1.0
sg15
I3
sg102
g103
sbsI4
g0
(g94
g2
Ntp114
Rp115
(dp116
g98
g99
sg100
F12.586422379947239
sg101
F1.0
sg15
I4
sg102
g103
sbsI5
g0
(g94
g2
Ntp117
Rp118
(dp119
g98
g99
sg100
F-10.641879326643863
sg101
F1.0
sg15
I5
sg102
g103
sbsI6
g0
(g94
g2
Ntp120
Rp121
(dp122
g98
g99
sg100
F-12.307108632827253
sg101
F1.0
sg15
I6
sg102
g103
sbsI7
g0
(g94
g2
Ntp123
Rp124
(dp125
g98
g99
sg100
F4.536348973545622
sg101
F1.0
sg15
I7
sg102
g103
sbsI8
g0
(g94
g2
Ntp126
Rp127
(dp128
g98
g99
sg100
F-6.2106705355802125
sg101
F1.0
sg15
I8
sg102
g103
sbsI9
g0
(g94
g2
Ntp129
Rp130
(dp131
g98
g99
sg100
F21.744770230174392
sg101
F1.0
sg15
I9
sg102
g103
sbsI2223
g0
(g94
g2
Ntp132
Rp133
(dp134
g98
g107
sg100
F-3.194769477954318
sg101
F1.0
sg15
I2223
sg102
g103
sbsI1827
g0
(g94
g2
Ntp135
Rp136
(dp137
g98
g99
sg100
F-0.5291192113616894
sg101
F1.0
sg15
I1827
sg102
g103
sbsI3316
g0
(g94
g2
Ntp138
Rp139
(dp140
g98
g99
sg100
F-8.224608107254355
sg101
F1.0
sg15
I3316
sg102
g103
sbsI3671
g0
(g94
g2
Ntp141
Rp142
(dp143
g98
g107
sg100
F13.459479362879621
sg101
F1.0
sg15
I3671
sg102
g103
sbsI2619
g0
(g94
g2
Ntp144
Rp145
(dp146
g98
g107
sg100
F4.316239285845245
sg101
F1.0
sg15
I2619
sg102
g103
sbsI3165
g0
(g94
g2
Ntp147
Rp148
(dp149
g98
g99
sg100
F4.154386277258479
sg101
F1.0
sg15
I3165
sg102
g103
sbssg15
I11018
sS'fitness'
p150
Nsb.