ccopy_reg
_reconstructor
p0
(cneat.genome
DefaultGenome
p1
c__builtin__
object
p2
Ntp3
Rp4
(dp5
S'connections'
p6
(dp7
(I-10
I1827
tp8
g0
(cneat.genes
DefaultConnectionGene
p9
g2
Ntp10
Rp11
(dp12
S'enabled'
p13
I01
sS'weight'
p14
F-1.283619440964001
sS'key'
p15
g8
sbs(I3
I1827
tp16
g0
(g9
g2
Ntp17
Rp18
(dp19
g13
I01
sg14
F-0.960930173206404
sg15
g16
sbs(I-5
I2223
tp20
g0
(g9
g2
Ntp21
Rp22
(dp23
g13
I01
sg14
F-2.8518685025083617
sg15
g20
sbs(I-7
I0
tp24
g0
(g9
g2
Ntp25
Rp26
(dp27
g13
I01
sg14
F-0.11344793740883952
sg15
g24
sbs(I-3
I0
tp28
g0
(g9
g2
Ntp29
Rp30
(dp31
g13
I01
sg14
F2.7642679683574602
sg15
g28
sbs(I-8
I1
tp32
g0
(g9
g2
Ntp33
Rp34
(dp35
g13
I01
sg14
F1.4334517533433608
sg15
g32
sbs(I-3
I3226
tp36
g0
(g9
g2
Ntp37
Rp38
(dp39
g13
I01
sg14
F-1.1102996812874402
sg15
g36
sbs(I5
I5
tp40
g0
(g9
g2
Ntp41
Rp42
(dp43
g13
I00
sg14
F1.3951103849852367
sg15
g40
sbs(I-6
I0
tp44
g0
(g9
g2
Ntp45
Rp46
(dp47
g13
I00
sg14
F-1.0325642199051641
sg15
g44
sbs(I4
I4
tp48
g0
(g9
g2
Ntp49
Rp50
(dp51
g13
I00
sg14
F-0.18233167361955996
sg15
g48
sbs(I2223
I1
tp52
g0
(g9
g2
Ntp53
Rp54
(dp55
g13
I01
sg14
F10.62766687181333
sg15
g52
sbs(I-6
I4
tp56
g0
(g9
g2
Ntp57
Rp58
(dp59
g13
I00
sg14
F-0.18830299008002493
sg15
g56
sbs(I3226
I7
tp60
g0
(g9
g2
Ntp61
Rp62
(dp63
g13
I00
sg14
F1.0234615544808985
sg15
g60
sbs(I2619
I2223
tp64
g0
(g9
g2
Ntp65
Rp66
(dp67
g13
I01
sg14
F-0.34887279998339216
sg15
g64
sbs(I-6
I3165
tp68
g0
(g9
g2
Ntp69
Rp70
(dp71
g13
I00
sg14
F-0.4922402632802598
sg15
g68
sbs(I2223
I4
tp72
g0
(g9
g2
Ntp73
Rp74
(dp75
g13
I01
sg14
F3.7870568296745457
sg15
g72
sbs(I-7
I9
tp76
g0
(g9
g2
Ntp77
Rp78
(dp79
g13
I00
sg14
F-0.4941663942022846
sg15
g76
sbs(I7
I1827
tp80
g0
(g9
g2
Ntp81
Rp82
(dp83
g13
I01
sg14
F1.265565618720122
sg15
g80
sbs(I-5
I2619
tp84
g0
(g9
g2
Ntp85
Rp86
(dp87
g13
I01
sg14
F-0.5908716203563043
sg15
g84
sbs(I4
I3643
tp88
g0
(g9
g2
Ntp89
Rp90
(dp91
g13
I01
sg14
F-0.04826844984298628
sg15
g88
sbs(I8
I8
tp92
g0
(g9
g2
Ntp93
Rp94
(dp95
g13
I00
sg14
F-0.9579883504855258
sg15
g92
sbs(I3643
I4
tp96
g0
(g9
g2
Ntp97
Rp98
(dp99
g13
I01
sg14
F0.477254810713178
sg15
g96
sbs(I3669
I5
tp100
g0
(g9
g2
Ntp101
Rp102
(dp103
g13
I01
sg14
F-2.1638059824169202
sg15
g100
sbs(I5
I3669
tp104
g0
(g9
g2
Ntp105
Rp106
(dp107
g13
I01
sg14
F1.2629758092566084
sg15
g104
sbssS'nodes'
p108
(dp109
I0
g0
(cneat.genes
DefaultNodeGene
p110
g2
Ntp111
Rp112
(dp113
S'activation'
p114
S'tanh'
p115
sS'bias'
p116
F5.486179992821143
sS'response'
p117
F1.0
sg15
I0
sS'aggregation'
p118
S'sum'
p119
sbsI1
g0
(g110
g2
Ntp120
Rp121
(dp122
g114
S'relu'
p123
sg116
F7.467719762966992
sg117
F1.0
sg15
I1
sg118
g119
sbsI2
g0
(g110
g2
Ntp124
Rp125
(dp126
g114
g115
sg116
F-2.785345020654895
sg117
F1.0
sg15
I2
sg118
g119
sbsI3
g0
(g110
g2
Ntp127
Rp128
(dp129
g114
g115
sg116
F-6.524815984989151
sg117
F1.0
sg15
I3
sg118
g119
sbsI4
g0
(g110
g2
Ntp130
Rp131
(dp132
g114
g115
sg116
F12.315127398428878
sg117
F1.0
sg15
I4
sg118
g119
sbsI5
g0
(g110
g2
Ntp133
Rp134
(dp135
g114
g115
sg116
F-9.734700712452502
sg117
F1.0
sg15
I5
sg118
g119
sbsI6
g0
(g110
g2
Ntp136
Rp137
(dp138
g114
g115
sg116
F-11.806470277556427
sg117
F1.0
sg15
I6
sg118
g119
sbsI7
g0
(g110
g2
Ntp139
Rp140
(dp141
g114
g115
sg116
F16.23101088669867
sg117
F1.0
sg15
I7
sg118
g119
sbsI8
g0
(g110
g2
Ntp142
Rp143
(dp144
g114
g115
sg116
F-14.028400798154703
sg117
F1.0
sg15
I8
sg118
g119
sbsI9
g0
(g110
g2
Ntp145
Rp146
(dp147
g114
g115
sg116
F-8.689208208069285
sg117
F1.0
sg15
I9
sg118
g119
sbsI2619
g0
(g110
g2
Ntp148
Rp149
(dp150
g114
g123
sg116
F3.597978815351104
sg117
F1.0
sg15
I2619
sg118
g119
sbsI2223
g0
(g110
g2
Ntp151
Rp152
(dp153
g114
g123
sg116
F-4.053088366799192
sg117
F1.0
sg15
I2223
sg118
g119
sbsI1827
g0
(g110
g2
Ntp154
Rp155
(dp156
g114
g115
sg116
F-0.2661030628899083
sg117
F1.0
sg15
I1827
sg118
g119
sbsI3669
g0
(g110
g2
Ntp157
Rp158
(dp159
g114
g123
sg116
F21.64475720044614
sg117
F1.0
sg15
I3669
sg118
g119
sbsI3226
g0
(g110
g2
Ntp160
Rp161
(dp162
g114
g115
sg116
F-6.88282534220781
sg117
F1.0
sg15
I3226
sg118
g119
sbsI3643
g0
(g110
g2
Ntp163
Rp164
(dp165
g114
g123
sg116
F19.20626689103418
sg117
F1.0
sg15
I3643
sg118
g119
sbsI3165
g0
(g110
g2
Ntp166
Rp167
(dp168
g114
g115
sg116
F-6.492909648581617
sg117
F1.0
sg15
I3165
sg118
g119
sbssg15
I11014
sS'fitness'
p169
Nsb.