ccopy_reg
_reconstructor
p0
(cneat.genome
DefaultGenome
p1
c__builtin__
object
p2
Ntp3
Rp4
(dp5
S'connections'
p6
(dp7
(I-10
I1827
tp8
g0
(cneat.genes
DefaultConnectionGene
p9
g2
Ntp10
Rp11
(dp12
S'enabled'
p13
I01
sS'weight'
p14
F-0.12137890382577726
sS'key'
p15
g8
sbs(I-10
I2
tp16
g0
(g9
g2
Ntp17
Rp18
(dp19
g13
I01
sg14
F-0.8958198742305392
sg15
g16
sbs(I3
I1827
tp20
g0
(g9
g2
Ntp21
Rp22
(dp23
g13
I01
sg14
F-1.1043645452576263
sg15
g20
sbs(I3316
I0
tp24
g0
(g9
g2
Ntp25
Rp26
(dp27
g13
I01
sg14
F1.1603857855425967
sg15
g24
sbs(I-7
I0
tp28
g0
(g9
g2
Ntp29
Rp30
(dp31
g13
I01
sg14
F0.870339397794014
sg15
g28
sbs(I-3
I0
tp32
g0
(g9
g2
Ntp33
Rp34
(dp35
g13
I01
sg14
F0.13517257075257438
sg15
g32
sbs(I-8
I1
tp36
g0
(g9
g2
Ntp37
Rp38
(dp39
g13
I01
sg14
F0.7414555315793023
sg15
g36
sbs(I-3
I3226
tp40
g0
(g9
g2
Ntp41
Rp42
(dp43
g13
I01
sg14
F-0.0654698000440071
sg15
g40
sbs(I5
I5
tp44
g0
(g9
g2
Ntp45
Rp46
(dp47
g13
I01
sg14
F-2.086209539678895
sg15
g44
sbs(I-6
I0
tp48
g0
(g9
g2
Ntp49
Rp50
(dp51
g13
I00
sg14
F-0.9162961782742991
sg15
g48
sbs(I4
I4
tp52
g0
(g9
g2
Ntp53
Rp54
(dp55
g13
I00
sg14
F1.8925300565476786
sg15
g52
sbs(I-6
I4
tp56
g0
(g9
g2
Ntp57
Rp58
(dp59
g13
I00
sg14
F-0.7677651128195565
sg15
g56
sbs(I3226
I7
tp60
g0
(g9
g2
Ntp61
Rp62
(dp63
g13
I00
sg14
F3.412287030704406
sg15
g60
sbs(I-6
I3165
tp64
g0
(g9
g2
Ntp65
Rp66
(dp67
g13
I00
sg14
F-0.15453084759470329
sg15
g64
sbs(I-7
I9
tp68
g0
(g9
g2
Ntp69
Rp70
(dp71
g13
I00
sg14
F-1.6962551594992112
sg15
g68
sbs(I7
I1827
tp72
g0
(g9
g2
Ntp73
Rp74
(dp75
g13
I01
sg14
F0.09987228637660202
sg15
g72
sbs(I-5
I2619
tp76
g0
(g9
g2
Ntp77
Rp78
(dp79
g13
I01
sg14
F-2.0395510380548463
sg15
g76
sbs(I4
I3643
tp80
g0
(g9
g2
Ntp81
Rp82
(dp83
g13
I01
sg14
F0.22868501699691823
sg15
g80
sbs(I8
I8
tp84
g0
(g9
g2
Ntp85
Rp86
(dp87
g13
I01
sg14
F-0.11299969899807939
sg15
g84
sbs(I3643
I4
tp88
g0
(g9
g2
Ntp89
Rp90
(dp91
g13
I01
sg14
F-0.9232081709485784
sg15
g88
sbssS'nodes'
p92
(dp93
I0
g0
(cneat.genes
DefaultNodeGene
p94
g2
Ntp95
Rp96
(dp97
S'activation'
p98
S'tanh'
p99
sS'bias'
p100
F5.328784489218879
sS'response'
p101
F1.0
sg15
I0
sS'aggregation'
p102
S'sum'
p103
sbsI1
g0
(g94
g2
Ntp104
Rp105
(dp106
g98
g99
sg100
F-2.9512125893755465
sg101
F1.0
sg15
I1
sg102
g103
sbsI2
g0
(g94
g2
Ntp107
Rp108
(dp109
g98
g99
sg100
F-4.46196396545065
sg101
F1.0
sg15
I2
sg102
g103
sbsI3
g0
(g94
g2
Ntp110
Rp111
(dp112
g98
g99
sg100
F-6.3777269659618145
sg101
F1.0
sg15
I3
sg102
g103
sbsI4
g0
(g94
g2
Ntp113
Rp114
(dp115
g98
g99
sg100
F12.882931903539921
sg101
F1.0
sg15
I4
sg102
g103
sbsI5
g0
(g94
g2
Ntp116
Rp117
(dp118
g98
g99
sg100
F-9.354608614233474
sg101
F1.0
sg15
I5
sg102
g103
sbsI6
g0
(g94
g2
Ntp119
Rp120
(dp121
g98
g99
sg100
F-11.267267780865557
sg101
F1.0
sg15
I6
sg102
g103
sbsI7
g0
(g94
g2
Ntp122
Rp123
(dp124
g98
g99
sg100
F-4.214928203988741
sg101
F1.0
sg15
I7
sg102
g103
sbsI8
g0
(g94
g2
Ntp125
Rp126
(dp127
g98
g99
sg100
F-13.748103801614281
sg101
F1.0
sg15
I8
sg102
g103
sbsI9
g0
(g94
g2
Ntp128
Rp129
(dp130
g98
g99
sg100
F22.09217915719719
sg101
F1.0
sg15
I9
sg102
g103
sbsI2619
g0
(g94
g2
Ntp131
Rp132
(dp133
g98
S'relu'
p134
sg100
F3.455285550422437
sg101
F1.0
sg15
I2619
sg102
g103
sbsI1827
g0
(g94
g2
Ntp135
Rp136
(dp137
g98
g99
sg100
F0.0945348485896788
sg101
F1.0
sg15
I1827
sg102
g103
sbsI3316
g0
(g94
g2
Ntp138
Rp139
(dp140
g98
g99
sg100
F10.418116441763916
sg101
F1.0
sg15
I3316
sg102
g103
sbsI3226
g0
(g94
g2
Ntp141
Rp142
(dp143
g98
g99
sg100
F-7.2248634898792305
sg101
F1.0
sg15
I3226
sg102
g103
sbsI3643
g0
(g94
g2
Ntp144
Rp145
(dp146
g98
g99
sg100
F18.614206950647024
sg101
F1.0
sg15
I3643
sg102
g103
sbsI3165
g0
(g94
g2
Ntp147
Rp148
(dp149
g98
g99
sg100
F-6.779308774020245
sg101
F1.0
sg15
I3165
sg102
g103
sbssg15
I11012
sS'fitness'
p150
Nsb.