ccopy_reg
_reconstructor
p0
(cneat.genome
DefaultGenome
p1
c__builtin__
object
p2
Ntp3
Rp4
(dp5
S'connections'
p6
(dp7
(I-10
I1827
tp8
g0
(cneat.genes
DefaultConnectionGene
p9
g2
Ntp10
Rp11
(dp12
S'enabled'
p13
I01
sS'weight'
p14
F2.4177879713371655
sS'key'
p15
g8
sbs(I7
I1827
tp16
g0
(g9
g2
Ntp17
Rp18
(dp19
g13
I01
sg14
F0.7182884640202042
sg15
g16
sbs(I2619
I3673
tp20
g0
(g9
g2
Ntp21
Rp22
(dp23
g13
I00
sg14
F1.4761695626371052
sg15
g20
sbs(I3
I1827
tp24
g0
(g9
g2
Ntp25
Rp26
(dp27
g13
I01
sg14
F-2.269566969591176
sg15
g24
sbs(I-2
I1827
tp28
g0
(g9
g2
Ntp29
Rp30
(dp31
g13
I01
sg14
F0.7151212387350815
sg15
g28
sbs(I-5
I2223
tp32
g0
(g9
g2
Ntp33
Rp34
(dp35
g13
I01
sg14
F-3.417801420446005
sg15
g32
sbs(I3673
I2223
tp36
g0
(g9
g2
Ntp37
Rp38
(dp39
g13
I01
sg14
F8.736292827710658
sg15
g36
sbs(I4
I4
tp40
g0
(g9
g2
Ntp41
Rp42
(dp43
g13
I00
sg14
F-0.6052452507149092
sg15
g40
sbs(I5
I5
tp44
g0
(g9
g2
Ntp45
Rp46
(dp47
g13
I01
sg14
F-0.5646114221546153
sg15
g44
sbs(I-3
I0
tp48
g0
(g9
g2
Ntp49
Rp50
(dp51
g13
I01
sg14
F2.147340435529797
sg15
g48
sbs(I3316
I0
tp52
g0
(g9
g2
Ntp53
Rp54
(dp55
g13
I01
sg14
F1.8759547822836065
sg15
g52
sbs(I-7
I0
tp56
g0
(g9
g2
Ntp57
Rp58
(dp59
g13
I01
sg14
F-1.437065049081001
sg15
g56
sbs(I8
I8
tp60
g0
(g9
g2
Ntp61
Rp62
(dp63
g13
I00
sg14
F-0.9217919939463148
sg15
g60
sbs(I-6
I4
tp64
g0
(g9
g2
Ntp65
Rp66
(dp67
g13
I00
sg14
F-0.24164193498637115
sg15
g64
sbs(I-8
I1
tp68
g0
(g9
g2
Ntp69
Rp70
(dp71
g13
I01
sg14
F-0.8096289841139592
sg15
g68
sbs(I-6
I0
tp72
g0
(g9
g2
Ntp73
Rp74
(dp75
g13
I00
sg14
F-0.007215984264955622
sg15
g72
sbs(I2223
I1
tp76
g0
(g9
g2
Ntp77
Rp78
(dp79
g13
I01
sg14
F10.029083217379556
sg15
g76
sbs(I-7
I9
tp80
g0
(g9
g2
Ntp81
Rp82
(dp83
g13
I00
sg14
F-0.6800131977376042
sg15
g80
sbs(I-5
I2619
tp84
g0
(g9
g2
Ntp85
Rp86
(dp87
g13
I01
sg14
F-2.911624016333402
sg15
g84
sbssS'nodes'
p88
(dp89
I0
g0
(cneat.genes
DefaultNodeGene
p90
g2
Ntp91
Rp92
(dp93
S'activation'
p94
S'tanh'
p95
sS'bias'
p96
F9.932321502278844
sS'response'
p97
F1.0
sg15
I0
sS'aggregation'
p98
S'sum'
p99
sbsI1
g0
(g90
g2
Ntp100
Rp101
(dp102
g94
S'relu'
p103
sg96
F-14.957345428667965
sg97
F1.0
sg15
I1
sg98
g99
sbsI2
g0
(g90
g2
Ntp104
Rp105
(dp106
g94
g95
sg96
F-0.10430692170959505
sg97
F1.0
sg15
I2
sg98
g99
sbsI3
g0
(g90
g2
Ntp107
Rp108
(dp109
g94
g95
sg96
F-5.4847924675076865
sg97
F1.0
sg15
I3
sg98
g99
sbsI4
g0
(g90
g2
Ntp110
Rp111
(dp112
g94
g95
sg96
F-8.201522839846415
sg97
F1.0
sg15
I4
sg98
g99
sbsI5
g0
(g90
g2
Ntp113
Rp114
(dp115
g94
g95
sg96
F-8.924371408876024
sg97
F1.0
sg15
I5
sg98
g99
sbsI6
g0
(g90
g2
Ntp116
Rp117
(dp118
g94
g95
sg96
F-11.518842762600718
sg97
F1.0
sg15
I6
sg98
g99
sbsI7
g0
(g90
g2
Ntp119
Rp120
(dp121
g94
g95
sg96
F26.356125368531792
sg97
F1.0
sg15
I7
sg98
g99
sbsI8
g0
(g90
g2
Ntp122
Rp123
(dp124
g94
g95
sg96
F-13.758922962417678
sg97
F1.0
sg15
I8
sg98
g99
sbsI9
g0
(g90
g2
Ntp125
Rp126
(dp127
g94
g95
sg96
F23.147633804488247
sg97
F1.0
sg15
I9
sg98
g99
sbsI2223
g0
(g90
g2
Ntp128
Rp129
(dp130
g94
g103
sg96
F-2.5879357731048462
sg97
F1.0
sg15
I2223
sg98
g99
sbsI1827
g0
(g90
g2
Ntp131
Rp132
(dp133
g94
g95
sg96
F-0.5989839728437475
sg97
F1.0
sg15
I1827
sg98
g99
sbsI3316
g0
(g90
g2
Ntp134
Rp135
(dp136
g94
g95
sg96
F-9.039411662823246
sg97
F1.0
sg15
I3316
sg98
g99
sbsI3673
g0
(g90
g2
Ntp137
Rp138
(dp139
g94
g103
sg96
F-7.802717490554441
sg97
F1.0
sg15
I3673
sg98
g99
sbsI2619
g0
(g90
g2
Ntp140
Rp141
(dp142
g94
g103
sg96
F3.082501357353605
sg97
F1.0
sg15
I2619
sg98
g99
sbsI3165
g0
(g90
g2
Ntp143
Rp144
(dp145
g94
g95
sg96
F-7.918577264521656
sg97
F1.0
sg15
I3165
sg98
g99
sbssg15
I11021
sS'fitness'
p146
Nsb.