ccopy_reg
_reconstructor
p0
(cneat.genome
DefaultGenome
p1
c__builtin__
object
p2
Ntp3
Rp4
(dp5
S'connections'
p6
(dp7
(I7
I1827
tp8
g0
(cneat.genes
DefaultConnectionGene
p9
g2
Ntp10
Rp11
(dp12
S'enabled'
p13
I01
sS'weight'
p14
F-0.3456694300356329
sS'key'
p15
g8
sbs(I3
I1827
tp16
g0
(g9
g2
Ntp17
Rp18
(dp19
g13
I01
sg14
F-1.2562761285500743
sg15
g16
sbs(I-2
I1827
tp20
g0
(g9
g2
Ntp21
Rp22
(dp23
g13
I01
sg14
F1.0589786459228459
sg15
g20
sbs(I-5
I2223
tp24
g0
(g9
g2
Ntp25
Rp26
(dp27
g13
I01
sg14
F-3.096521296046024
sg15
g24
sbs(I4
I4
tp28
g0
(g9
g2
Ntp29
Rp30
(dp31
g13
I00
sg14
F0.9982448980342309
sg15
g28
sbs(I5
I5
tp32
g0
(g9
g2
Ntp33
Rp34
(dp35
g13
I01
sg14
F-1.610650918899633
sg15
g32
sbs(I-3
I0
tp36
g0
(g9
g2
Ntp37
Rp38
(dp39
g13
I01
sg14
F2.231627533121998
sg15
g36
sbs(I3316
I0
tp40
g0
(g9
g2
Ntp41
Rp42
(dp43
g13
I01
sg14
F-0.513154065827983
sg15
g40
sbs(I6
I2619
tp44
g0
(g9
g2
Ntp45
Rp46
(dp47
g13
I01
sg14
F-0.9784121459231535
sg15
g44
sbs(I-7
I0
tp48
g0
(g9
g2
Ntp49
Rp50
(dp51
g13
I01
sg14
F0.15271336203136138
sg15
g48
sbs(I8
I8
tp52
g0
(g9
g2
Ntp53
Rp54
(dp55
g13
I00
sg14
F-0.6702608012627844
sg15
g52
sbs(I-6
I4
tp56
g0
(g9
g2
Ntp57
Rp58
(dp59
g13
I00
sg14
F-0.9617823567095405
sg15
g56
sbs(I2619
I2223
tp60
g0
(g9
g2
Ntp61
Rp62
(dp63
g13
I01
sg14
F8.179944956090093
sg15
g60
sbs(I-8
I1
tp64
g0
(g9
g2
Ntp65
Rp66
(dp67
g13
I01
sg14
F1.7511637555358448
sg15
g64
sbs(I-6
I0
tp68
g0
(g9
g2
Ntp69
Rp70
(dp71
g13
I01
sg14
F-0.34964866182378135
sg15
g68
sbs(I2223
I1
tp72
g0
(g9
g2
Ntp73
Rp74
(dp75
g13
I01
sg14
F11.381074296794436
sg15
g72
sbs(I-7
I9
tp76
g0
(g9
g2
Ntp77
Rp78
(dp79
g13
I00
sg14
F-0.4842195485015539
sg15
g76
sbs(I-5
I2619
tp80
g0
(g9
g2
Ntp81
Rp82
(dp83
g13
I01
sg14
F-2.702219510422775
sg15
g80
sbssS'nodes'
p84
(dp85
I0
g0
(cneat.genes
DefaultNodeGene
p86
g2
Ntp87
Rp88
(dp89
S'activation'
p90
S'tanh'
p91
sS'bias'
p92
F-9.73436975548485
sS'response'
p93
F1.0
sg15
I0
sS'aggregation'
p94
S'sum'
p95
sbsI1
g0
(g86
g2
Ntp96
Rp97
(dp98
g90
S'relu'
p99
sg92
F-14.953940474083057
sg93
F1.0
sg15
I1
sg94
g95
sbsI2
g0
(g86
g2
Ntp100
Rp101
(dp102
g90
g91
sg92
F-0.6016934614898028
sg93
F1.0
sg15
I2
sg94
g95
sbsI3
g0
(g86
g2
Ntp103
Rp104
(dp105
g90
g91
sg92
F3.586716047382603
sg93
F1.0
sg15
I3
sg94
g95
sbsI4
g0
(g86
g2
Ntp106
Rp107
(dp108
g90
g91
sg92
F12.622417329713892
sg93
F1.0
sg15
I4
sg94
g95
sbsI5
g0
(g86
g2
Ntp109
Rp110
(dp111
g90
g91
sg92
F-10.15961905033857
sg93
F1.0
sg15
I5
sg94
g95
sbsI6
g0
(g86
g2
Ntp112
Rp113
(dp114
g90
g91
sg92
F-12.121705232443825
sg93
F1.0
sg15
I6
sg94
g95
sbsI7
g0
(g86
g2
Ntp115
Rp116
(dp117
g90
g91
sg92
F26.616090444962325
sg93
F1.0
sg15
I7
sg94
g95
sbsI8
g0
(g86
g2
Ntp118
Rp119
(dp120
g90
g91
sg92
F-14.215000500483258
sg93
F1.0
sg15
I8
sg94
g95
sbsI9
g0
(g86
g2
Ntp121
Rp122
(dp123
g90
g91
sg92
F23.132670673509548
sg93
F1.0
sg15
I9
sg94
g95
sbsI2223
g0
(g86
g2
Ntp124
Rp125
(dp126
g90
g99
sg92
F-3.7783356012425364
sg93
F1.0
sg15
I2223
sg94
g95
sbsI1827
g0
(g86
g2
Ntp127
Rp128
(dp129
g90
g91
sg92
F0.2685900843051218
sg93
F1.0
sg15
I1827
sg94
g95
sbsI3316
g0
(g86
g2
Ntp130
Rp131
(dp132
g90
g91
sg92
F-8.43862598865151
sg93
F1.0
sg15
I3316
sg94
g95
sbsI2619
g0
(g86
g2
Ntp133
Rp134
(dp135
g90
g99
sg92
F4.435046956172341
sg93
F1.0
sg15
I2619
sg94
g95
sbssg15
I11020
sS'fitness'
p136
Nsb.