ccopy_reg
_reconstructor
p0
(cneat.genome
DefaultGenome
p1
c__builtin__
object
p2
Ntp3
Rp4
(dp5
S'connections'
p6
(dp7
(I-1
I44
tp8
g0
(cneat.genes
DefaultConnectionGene
p9
g2
Ntp10
Rp11
(dp12
S'enabled'
p13
I01
sS'weight'
p14
F1.704078343727883
sS'key'
p15
g8
sbs(I44
I2
tp16
g0
(g9
g2
Ntp17
Rp18
(dp19
g13
I00
sg14
F-2.0767225179082196
sg15
g16
sbs(I44
I1
tp20
g0
(g9
g2
Ntp21
Rp22
(dp23
g13
I01
sg14
F-0.06421441217538125
sg15
g20
sbs(I-2
I44
tp24
g0
(g9
g2
Ntp25
Rp26
(dp27
g13
I01
sg14
F2.0482266106302403
sg15
g24
sbs(I-10
I44
tp28
g0
(g9
g2
Ntp29
Rp30
(dp31
g13
I01
sg14
F-1.714566620909071
sg15
g28
sbs(I44
I7
tp32
g0
(g9
g2
Ntp33
Rp34
(dp35
g13
I01
sg14
F-1.876002562739789
sg15
g32
sbs(I44
I0
tp36
g0
(g9
g2
Ntp37
Rp38
(dp39
g13
I01
sg14
F0.8406469687814722
sg15
g36
sbs(I-5
I44
tp40
g0
(g9
g2
Ntp41
Rp42
(dp43
g13
I01
sg14
F-1.031621083588656
sg15
g40
sbs(I44
I6
tp44
g0
(g9
g2
Ntp45
Rp46
(dp47
g13
I01
sg14
F0.8161392903341569
sg15
g44
sbs(I-7
I44
tp48
g0
(g9
g2
Ntp49
Rp50
(dp51
g13
I01
sg14
F-1.2991679695863776
sg15
g48
sbs(I-9
I44
tp52
g0
(g9
g2
Ntp53
Rp54
(dp55
g13
I01
sg14
F-2.9557071535839494
sg15
g52
sbs(I-3
I44
tp56
g0
(g9
g2
Ntp57
Rp58
(dp59
g13
I00
sg14
F0.146025462924642
sg15
g56
sbs(I44
I4
tp60
g0
(g9
g2
Ntp61
Rp62
(dp63
g13
I01
sg14
F-1.4100318345751206
sg15
g60
sbs(I44
I8
tp64
g0
(g9
g2
Ntp65
Rp66
(dp67
g13
I01
sg14
F1.4009982233222993
sg15
g64
sbs(I-8
I44
tp68
g0
(g9
g2
Ntp69
Rp70
(dp71
g13
I01
sg14
F2.5655141525725798
sg15
g68
sbs(I-10
I235
tp72
g0
(g9
g2
Ntp73
Rp74
(dp75
g13
I01
sg14
F1.893258344358959
sg15
g72
sbs(I-4
I44
tp76
g0
(g9
g2
Ntp77
Rp78
(dp79
g13
I00
sg14
F-1.2626333116718345
sg15
g76
sbs(I235
I44
tp80
g0
(g9
g2
Ntp81
Rp82
(dp83
g13
I01
sg14
F-0.7062427915283109
sg15
g80
sbs(I-6
I44
tp84
g0
(g9
g2
Ntp85
Rp86
(dp87
g13
I01
sg14
F-0.9680878824637209
sg15
g84
sbs(I44
I3
tp88
g0
(g9
g2
Ntp89
Rp90
(dp91
g13
I00
sg14
F0.2143605388727809
sg15
g88
sbs(I44
I9
tp92
g0
(g9
g2
Ntp93
Rp94
(dp95
g13
I00
sg14
F1.8839723869942893
sg15
g92
sbssS'nodes'
p96
(dp97
I0
g0
(cneat.genes
DefaultNodeGene
p98
g2
Ntp99
Rp100
(dp101
S'activation'
p102
S'relu'
p103
sS'bias'
p104
F2.191736741758088
sS'response'
p105
F1.0
sg15
I0
sS'aggregation'
p106
S'sum'
p107
sbsI1
g0
(g98
g2
Ntp108
Rp109
(dp110
g102
g103
sg104
F-19.442240789300655
sg105
F1.0
sg15
I1
sg106
g107
sbsI2
g0
(g98
g2
Ntp111
Rp112
(dp113
g102
g103
sg104
F4.939349793739128
sg105
F1.0
sg15
I2
sg106
g107
sbsI3
g0
(g98
g2
Ntp114
Rp115
(dp116
g102
g103
sg104
F-5.552137906226437
sg105
F1.0
sg15
I3
sg106
g107
sbsI4
g0
(g98
g2
Ntp117
Rp118
(dp119
g102
g103
sg104
F-1.6249825087898517
sg105
F1.0
sg15
I4
sg106
g107
sbsI5
g0
(g98
g2
Ntp120
Rp121
(dp122
g102
g103
sg104
F-3.487675429978248
sg105
F1.0
sg15
I5
sg106
g107
sbsI6
g0
(g98
g2
Ntp123
Rp124
(dp125
g102
g103
sg104
F26.003403302280056
sg105
F1.0
sg15
I6
sg106
g107
sbsI7
g0
(g98
g2
Ntp126
Rp127
(dp128
g102
g103
sg104
F-7.1241917100289935
sg105
F1.0
sg15
I7
sg106
g107
sbsI8
g0
(g98
g2
Ntp129
Rp130
(dp131
g102
g103
sg104
F-2.756949790324994
sg105
F1.0
sg15
I8
sg106
g107
sbsI9
g0
(g98
g2
Ntp132
Rp133
(dp134
g102
g103
sg104
F15.798142934908286
sg105
F1.0
sg15
I9
sg106
g107
sbsI235
g0
(g98
g2
Ntp135
Rp136
(dp137
g102
g103
sg104
F4.61444925407249
sg105
F1.0
sg15
I235
sg106
g107
sbsI44
g0
(g98
g2
Ntp138
Rp139
(dp140
g102
g103
sg104
F17.381205571208394
sg105
F1.0
sg15
I44
sg106
g107
sbssg15
I1119
sS'fitness'
p141
F0.4322925765910556
sb.