ccopy_reg
_reconstructor
p0
(cneat.genome
DefaultGenome
p1
c__builtin__
object
p2
Ntp3
Rp4
(dp5
S'connections'
p6
(dp7
(I53
I0
tp8
g0
(cneat.genes
DefaultConnectionGene
p9
g2
Ntp10
Rp11
(dp12
S'enabled'
p13
I01
sS'weight'
p14
F-0.18997666218859408
sS'key'
p15
g8
sbs(I-6
I53
tp16
g0
(g9
g2
Ntp17
Rp18
(dp19
g13
I01
sg14
F-2.0397822189388104
sg15
g16
sbs(I-1
I53
tp20
g0
(g9
g2
Ntp21
Rp22
(dp23
g13
I01
sg14
F-0.4285492673692552
sg15
g20
sbs(I-2
I53
tp24
g0
(g9
g2
Ntp25
Rp26
(dp27
g13
I01
sg14
F1.4528877103280098
sg15
g24
sbs(I-5
I53
tp28
g0
(g9
g2
Ntp29
Rp30
(dp31
g13
I01
sg14
F-1.2187181918881511
sg15
g28
sbs(I53
I1
tp32
g0
(g9
g2
Ntp33
Rp34
(dp35
g13
I01
sg14
F0.7447844651921708
sg15
g32
sbs(I53
I2
tp36
g0
(g9
g2
Ntp37
Rp38
(dp39
g13
I01
sg14
F-0.17075720812760958
sg15
g36
sbs(I-3
I53
tp40
g0
(g9
g2
Ntp41
Rp42
(dp43
g13
I01
sg14
F1.432107838374483
sg15
g40
sbs(I53
I8
tp44
g0
(g9
g2
Ntp45
Rp46
(dp47
g13
I01
sg14
F1.4397626909559698
sg15
g44
sbs(I53
I3
tp48
g0
(g9
g2
Ntp49
Rp50
(dp51
g13
I01
sg14
F-0.9608209761532333
sg15
g48
sbs(I-4
I53
tp52
g0
(g9
g2
Ntp53
Rp54
(dp55
g13
I01
sg14
F-0.09959092114226832
sg15
g52
sbs(I53
I9
tp56
g0
(g9
g2
Ntp57
Rp58
(dp59
g13
I01
sg14
F0.14544291172713822
sg15
g56
sbs(I53
I4
tp60
g0
(g9
g2
Ntp61
Rp62
(dp63
g13
I01
sg14
F2.1949790991173086
sg15
g60
sbs(I-9
I53
tp64
g0
(g9
g2
Ntp65
Rp66
(dp67
g13
I01
sg14
F0.553275913020877
sg15
g64
sbs(I53
I5
tp68
g0
(g9
g2
Ntp69
Rp70
(dp71
g13
I01
sg14
F-1.5500633388136111
sg15
g68
sbs(I53
I6
tp72
g0
(g9
g2
Ntp73
Rp74
(dp75
g13
I01
sg14
F0.4723223824459162
sg15
g72
sbs(I-7
I53
tp76
g0
(g9
g2
Ntp77
Rp78
(dp79
g13
I01
sg14
F-0.710285117211418
sg15
g76
sbs(I53
I7
tp80
g0
(g9
g2
Ntp81
Rp82
(dp83
g13
I01
sg14
F-1.0270869441612296
sg15
g80
sbs(I-8
I53
tp84
g0
(g9
g2
Ntp85
Rp86
(dp87
g13
I01
sg14
F0.14292183027615057
sg15
g84
sbs(I-10
I53
tp88
g0
(g9
g2
Ntp89
Rp90
(dp91
g13
I01
sg14
F-1.0503046891516996
sg15
g88
sbs(I-1
I0
tp92
g0
(g9
g2
Ntp93
Rp94
(dp95
g13
I01
sg14
F-0.8691151377035159
sg15
g92
sbssS'nodes'
p96
(dp97
I0
g0
(cneat.genes
DefaultNodeGene
p98
g2
Ntp99
Rp100
(dp101
S'activation'
p102
S'relu'
p103
sS'bias'
p104
F9.501134646480407
sS'response'
p105
F1.0
sg15
I0
sS'aggregation'
p106
S'sum'
p107
sbsI1
g0
(g98
g2
Ntp108
Rp109
(dp110
g102
g103
sg104
F2.3564279863009223
sg105
F1.0
sg15
I1
sg106
g107
sbsI2
g0
(g98
g2
Ntp111
Rp112
(dp113
g102
g103
sg104
F1.3162283630036085
sg105
F1.0
sg15
I2
sg106
g107
sbsI3
g0
(g98
g2
Ntp114
Rp115
(dp116
g102
g103
sg104
F-5.116048776035123
sg105
F1.0
sg15
I3
sg106
g107
sbsI4
g0
(g98
g2
Ntp117
Rp118
(dp119
g102
g103
sg104
F1.6939855425164871
sg105
F1.0
sg15
I4
sg106
g107
sbsI5
g0
(g98
g2
Ntp120
Rp121
(dp122
g102
g103
sg104
F-9.38544976974996
sg105
F1.0
sg15
I5
sg106
g107
sbsI6
g0
(g98
g2
Ntp123
Rp124
(dp125
g102
g103
sg104
F-1.9918873521868419
sg105
F1.0
sg15
I6
sg106
g107
sbsI7
g0
(g98
g2
Ntp126
Rp127
(dp128
g102
g103
sg104
F-20.344673159052373
sg105
F1.0
sg15
I7
sg106
g107
sbsI8
g0
(g98
g2
Ntp129
Rp130
(dp131
g102
g103
sg104
F-20.302387227224468
sg105
F1.0
sg15
I8
sg106
g107
sbsI9
g0
(g98
g2
Ntp132
Rp133
(dp134
g102
g103
sg104
F-5.956151866184044
sg105
F1.0
sg15
I9
sg106
g107
sbsI53
g0
(g98
g2
Ntp135
Rp136
(dp137
g102
g103
sg104
F8.676476426340582
sg105
F1.0
sg15
I53
sg106
g107
sbssg15
I112
sS'fitness'
p138
F-0.21957845878843552
sb.