ccopy_reg
_reconstructor
p0
(cneat.genome
DefaultGenome
p1
c__builtin__
object
p2
Ntp3
Rp4
(dp5
S'connections'
p6
(dp7
(I329
I3
tp8
g0
(cneat.genes
DefaultConnectionGene
p9
g2
Ntp10
Rp11
(dp12
S'enabled'
p13
I01
sS'weight'
p14
F1.177587688628166
sS'key'
p15
g8
sbs(I-8
I1
tp16
g0
(g9
g2
Ntp17
Rp18
(dp19
g13
I01
sg14
F-1.2724045696030521
sg15
g16
sbs(I328
I7
tp20
g0
(g9
g2
Ntp21
Rp22
(dp23
g13
I01
sg14
F-2.664351823867201
sg15
g20
sbs(I-5
I328
tp24
g0
(g9
g2
Ntp25
Rp26
(dp27
g13
I01
sg14
F-0.43345931645310376
sg15
g24
sbs(I329
I6
tp28
g0
(g9
g2
Ntp29
Rp30
(dp31
g13
I00
sg14
F-1.7608913005461093
sg15
g28
sbs(I-7
I329
tp32
g0
(g9
g2
Ntp33
Rp34
(dp35
g13
I01
sg14
F0.0913793756845657
sg15
g32
sbs(I3
I3
tp36
g0
(g9
g2
Ntp37
Rp38
(dp39
g13
I00
sg14
F1.6878792517379497
sg15
g36
sbs(I-3
I329
tp40
g0
(g9
g2
Ntp41
Rp42
(dp43
g13
I00
sg14
F-0.3107434972381254
sg15
g40
sbs(I4
I4
tp44
g0
(g9
g2
Ntp45
Rp46
(dp47
g13
I01
sg14
F0.25654167144447676
sg15
g44
sbs(I-9
I328
tp48
g0
(g9
g2
Ntp49
Rp50
(dp51
g13
I01
sg14
F1.223217614625447
sg15
g48
sbs(I-4
I3
tp52
g0
(g9
g2
Ntp53
Rp54
(dp55
g13
I00
sg14
F0.7794425337802168
sg15
g52
sbs(I3
I328
tp56
g0
(g9
g2
Ntp57
Rp58
(dp59
g13
I00
sg14
F-0.5282502254850702
sg15
g56
sbs(I328
I8
tp60
g0
(g9
g2
Ntp61
Rp62
(dp63
g13
I00
sg14
F0.16134687781327803
sg15
g60
sbs(I1
I1
tp64
g0
(g9
g2
Ntp65
Rp66
(dp67
g13
I01
sg14
F4.255831639585158
sg15
g64
sbs(I-8
I329
tp68
g0
(g9
g2
Ntp69
Rp70
(dp71
g13
I01
sg14
F-0.8324806799389546
sg15
g68
sbs(I0
I0
tp72
g0
(g9
g2
Ntp73
Rp74
(dp75
g13
I00
sg14
F-0.08140554945106979
sg15
g72
sbs(I-4
I329
tp76
g0
(g9
g2
Ntp77
Rp78
(dp79
g13
I01
sg14
F0.13216779221383157
sg15
g76
sbs(I328
I9
tp80
g0
(g9
g2
Ntp81
Rp82
(dp83
g13
I01
sg14
F0.23605015497777831
sg15
g80
sbs(I-3
I1
tp84
g0
(g9
g2
Ntp85
Rp86
(dp87
g13
I01
sg14
F0.47365866248564337
sg15
g84
sbs(I8
I754
tp88
g0
(g9
g2
Ntp89
Rp90
(dp91
g13
I01
sg14
F1.3778742568210793
sg15
g88
sbs(I329
I4
tp92
g0
(g9
g2
Ntp93
Rp94
(dp95
g13
I01
sg14
F2.544124939923238
sg15
g92
sbs(I328
I5
tp96
g0
(g9
g2
Ntp97
Rp98
(dp99
g13
I00
sg14
F-0.07143912846768799
sg15
g96
sbs(I-4
I789
tp100
g0
(g9
g2
Ntp101
Rp102
(dp103
g13
I01
sg14
F0.9637319795710738
sg15
g100
sbs(I329
I0
tp104
g0
(g9
g2
Ntp105
Rp106
(dp107
g13
I01
sg14
F0.20714195726918136
sg15
g104
sbs(I328
I1
tp108
g0
(g9
g2
Ntp109
Rp110
(dp111
g13
I00
sg14
F0.6686089650423173
sg15
g108
sbs(I328
I726
tp112
g0
(g9
g2
Ntp113
Rp114
(dp115
g13
I01
sg14
F-0.6226798680307264
sg15
g112
sbs(I789
I3
tp116
g0
(g9
g2
Ntp117
Rp118
(dp119
g13
I01
sg14
F-1.983759360304611
sg15
g116
sbs(I8
I8
tp120
g0
(g9
g2
Ntp121
Rp122
(dp123
g13
I00
sg14
F3.928290296056901
sg15
g120
sbs(I754
I8
tp124
g0
(g9
g2
Ntp125
Rp126
(dp127
g13
I01
sg14
F3.3536434676185687
sg15
g124
sbs(I-5
I329
tp128
g0
(g9
g2
Ntp129
Rp130
(dp131
g13
I00
sg14
F2.542677947659855
sg15
g128
sbssS'nodes'
p132
(dp133
I0
g0
(cneat.genes
DefaultNodeGene
p134
g2
Ntp135
Rp136
(dp137
S'activation'
p138
S'tanh'
p139
sS'bias'
p140
F3.3685604659978337
sS'response'
p141
F1.0
sg15
I0
sS'aggregation'
p142
S'sum'
p143
sbsI1
g0
(g134
g2
Ntp144
Rp145
(dp146
g138
g139
sg140
F-17.022248885862304
sg141
F1.0
sg15
I1
sg142
g143
sbsI2
g0
(g134
g2
Ntp147
Rp148
(dp149
g138
g139
sg140
F0.8186429024201349
sg141
F1.0
sg15
I2
sg142
g143
sbsI3
g0
(g134
g2
Ntp150
Rp151
(dp152
g138
g139
sg140
F12.27713324299572
sg141
F1.0
sg15
I3
sg142
g143
sbsI4
g0
(g134
g2
Ntp153
Rp154
(dp155
g138
g139
sg140
F3.9618089350085532
sg141
F1.0
sg15
I4
sg142
g143
sbsI5
g0
(g134
g2
Ntp156
Rp157
(dp158
g138
g139
sg140
F2.1701285404472985
sg141
F1.0
sg15
I5
sg142
g143
sbsI6
g0
(g134
g2
Ntp159
Rp160
(dp161
g138
g139
sg140
F-3.584919964615807
sg141
F1.0
sg15
I6
sg142
g143
sbsI7
g0
(g134
g2
Ntp162
Rp163
(dp164
g138
g139
sg140
F-10.95132719288774
sg141
F1.0
sg15
I7
sg142
g143
sbsI8
g0
(g134
g2
Ntp165
Rp166
(dp167
g138
g139
sg140
F27.35237338243076
sg141
F1.0
sg15
I8
sg142
g143
sbsI9
g0
(g134
g2
Ntp168
Rp169
(dp170
g138
g139
sg140
F18.102072122449975
sg141
F1.0
sg15
I9
sg142
g143
sbsI328
g0
(g134
g2
Ntp171
Rp172
(dp173
g138
g139
sg140
F-14.983224205744209
sg141
F1.0
sg15
I328
sg142
g143
sbsI754
g0
(g134
g2
Ntp174
Rp175
(dp176
g138
S'relu'
p177
sg140
F5.786295565355052
sg141
F1.0
sg15
I754
sg142
g143
sbsI789
g0
(g134
g2
Ntp178
Rp179
(dp180
g138
g139
sg140
F2.704012690268464
sg141
F1.0
sg15
I789
sg142
g143
sbsI726
g0
(g134
g2
Ntp181
Rp182
(dp183
g138
g139
sg140
F-14.560997847185742
sg141
F1.0
sg15
I726
sg142
g143
sbsI329
g0
(g134
g2
Ntp184
Rp185
(dp186
g138
g139
sg140
F-9.000120482961012
sg141
F1.0
sg15
I329
sg142
g143
sbssg15
I112
sS'fitness'
p187
Nsb.