ccopy_reg
_reconstructor
p0
(cneat.genome
DefaultGenome
p1
c__builtin__
object
p2
Ntp3
Rp4
(dp5
S'connections'
p6
(dp7
(I-13
I73
tp8
g0
(cneat.genes
DefaultConnectionGene
p9
g2
Ntp10
Rp11
(dp12
S'enabled'
p13
I01
sS'weight'
p14
F1.280522411533169
sS'key'
p15
g8
sbs(I-15
I73
tp16
g0
(g9
g2
Ntp17
Rp18
(dp19
g13
I01
sg14
F-0.1073808284264044
sg15
g16
sbs(I73
I3
tp20
g0
(g9
g2
Ntp21
Rp22
(dp23
g13
I00
sg14
F1.2210648860321185
sg15
g20
sbs(I-9
I73
tp24
g0
(g9
g2
Ntp25
Rp26
(dp27
g13
I01
sg14
F-0.3476065074916024
sg15
g24
sbs(I-17
I73
tp28
g0
(g9
g2
Ntp29
Rp30
(dp31
g13
I01
sg14
F1.7440158805589492
sg15
g28
sbs(I-19
I73
tp32
g0
(g9
g2
Ntp33
Rp34
(dp35
g13
I01
sg14
F1.4223598516663856
sg15
g32
sbs(I73
I6
tp36
g0
(g9
g2
Ntp37
Rp38
(dp39
g13
I01
sg14
F0.07462513718732605
sg15
g36
sbs(I-7
I73
tp40
g0
(g9
g2
Ntp41
Rp42
(dp43
g13
I01
sg14
F0.12009038447799125
sg15
g40
sbs(I-16
I73
tp44
g0
(g9
g2
Ntp45
Rp46
(dp47
g13
I01
sg14
F0.3631133619348611
sg15
g44
sbs(I-3
I73
tp48
g0
(g9
g2
Ntp49
Rp50
(dp51
g13
I01
sg14
F-0.9269704926527491
sg15
g48
sbs(I73
I9
tp52
g0
(g9
g2
Ntp53
Rp54
(dp55
g13
I01
sg14
F0.4537902508682207
sg15
g52
sbs(I-11
I73
tp56
g0
(g9
g2
Ntp57
Rp58
(dp59
g13
I01
sg14
F-1.4927729820197377
sg15
g56
sbs(I-10
I73
tp60
g0
(g9
g2
Ntp61
Rp62
(dp63
g13
I01
sg14
F1.9261164827247257
sg15
g60
sbs(I95
I3
tp64
g0
(g9
g2
Ntp65
Rp66
(dp67
g13
I01
sg14
F1.2229691169118513
sg15
g64
sbs(I73
I5
tp68
g0
(g9
g2
Ntp69
Rp70
(dp71
g13
I01
sg14
F0.26840478460619294
sg15
g68
sbs(I-18
I73
tp72
g0
(g9
g2
Ntp73
Rp74
(dp75
g13
I01
sg14
F0.005907766320592117
sg15
g72
sbs(I-20
I73
tp76
g0
(g9
g2
Ntp77
Rp78
(dp79
g13
I01
sg14
F0.3045314717766614
sg15
g76
sbs(I73
I8
tp80
g0
(g9
g2
Ntp81
Rp82
(dp83
g13
I01
sg14
F0.7812943019499372
sg15
g80
sbs(I-8
I73
tp84
g0
(g9
g2
Ntp85
Rp86
(dp87
g13
I01
sg14
F-0.29746923660997543
sg15
g84
sbs(I-14
I73
tp88
g0
(g9
g2
Ntp89
Rp90
(dp91
g13
I01
sg14
F0.9330118151493112
sg15
g88
sbs(I73
I1
tp92
g0
(g9
g2
Ntp93
Rp94
(dp95
g13
I01
sg14
F-1.5800549180680856
sg15
g92
sbs(I-1
I73
tp96
g0
(g9
g2
Ntp97
Rp98
(dp99
g13
I01
sg14
F0.33021746258513157
sg15
g96
sbs(I-2
I73
tp100
g0
(g9
g2
Ntp101
Rp102
(dp103
g13
I01
sg14
F0.09660022856290021
sg15
g100
sbs(I-4
I73
tp104
g0
(g9
g2
Ntp105
Rp106
(dp107
g13
I01
sg14
F-0.8704355151795875
sg15
g104
sbs(I-12
I73
tp108
g0
(g9
g2
Ntp109
Rp110
(dp111
g13
I01
sg14
F-1.380047248941405
sg15
g108
sbs(I73
I4
tp112
g0
(g9
g2
Ntp113
Rp114
(dp115
g13
I01
sg14
F-0.8882954237887444
sg15
g112
sbs(I73
I95
tp116
g0
(g9
g2
Ntp117
Rp118
(dp119
g13
I01
sg14
F1.0
sg15
g116
sbs(I73
I0
tp120
g0
(g9
g2
Ntp121
Rp122
(dp123
g13
I01
sg14
F0.4692854291702587
sg15
g120
sbs(I-6
I73
tp124
g0
(g9
g2
Ntp125
Rp126
(dp127
g13
I01
sg14
F-1.426409906232134
sg15
g124
sbs(I73
I2
tp128
g0
(g9
g2
Ntp129
Rp130
(dp131
g13
I01
sg14
F-1.305507305058098
sg15
g128
sbs(I-5
I73
tp132
g0
(g9
g2
Ntp133
Rp134
(dp135
g13
I01
sg14
F0.534708120901029
sg15
g132
sbs(I73
I7
tp136
g0
(g9
g2
Ntp137
Rp138
(dp139
g13
I01
sg14
F-0.4068944338471343
sg15
g136
sbssS'nodes'
p140
(dp141
I0
g0
(cneat.genes
DefaultNodeGene
p142
g2
Ntp143
Rp144
(dp145
S'activation'
p146
S'relu'
p147
sS'bias'
p148
F0.5589990294589772
sS'response'
p149
F1.0
sg15
I0
sS'aggregation'
p150
S'sum'
p151
sbsI1
g0
(g142
g2
Ntp152
Rp153
(dp154
g146
g147
sg148
F10.42714367961528
sg149
F1.0
sg15
I1
sg150
g151
sbsI2
g0
(g142
g2
Ntp155
Rp156
(dp157
g146
g147
sg148
F10.440782649113414
sg149
F1.0
sg15
I2
sg150
g151
sbsI3
g0
(g142
g2
Ntp158
Rp159
(dp160
g146
g147
sg148
F-6.06293847659334
sg149
F1.0
sg15
I3
sg150
g151
sbsI4
g0
(g142
g2
Ntp161
Rp162
(dp163
g146
g147
sg148
F-8.607456469103148
sg149
F1.0
sg15
I4
sg150
g151
sbsI5
g0
(g142
g2
Ntp164
Rp165
(dp166
g146
g147
sg148
F1.5537271004617261
sg149
F1.0
sg15
I5
sg150
g151
sbsI6
g0
(g142
g2
Ntp167
Rp168
(dp169
g146
g147
sg148
F23.10337249227536
sg149
F1.0
sg15
I6
sg150
g151
sbsI7
g0
(g142
g2
Ntp170
Rp171
(dp172
g146
g147
sg148
F30.215018437374766
sg149
F1.0
sg15
I7
sg150
g151
sbsI8
g0
(g142
g2
Ntp173
Rp174
(dp175
g146
g147
sg148
F-0.916844240170523
sg149
F1.0
sg15
I8
sg150
g151
sbsI9
g0
(g142
g2
Ntp176
Rp177
(dp178
g146
g147
sg148
F-2.929015357332338
sg149
F1.0
sg15
I9
sg150
g151
sbsI73
g0
(g142
g2
Ntp179
Rp180
(dp181
g146
g147
sg148
F2.107913866970768
sg149
F1.0
sg15
I73
sg150
g151
sbsI95
g0
(g142
g2
Ntp182
Rp183
(dp184
g146
g147
sg148
F-9.718711808640828
sg149
F1.0
sg15
I95
sg150
g151
sbssg15
I112
sS'fitness'
p185
Nsb.