ccopy_reg
_reconstructor
p0
(cneat.genome
DefaultGenome
p1
c__builtin__
object
p2
Ntp3
Rp4
(dp5
S'connections'
p6
(dp7
(I-1
I44
tp8
g0
(cneat.genes
DefaultConnectionGene
p9
g2
Ntp10
Rp11
(dp12
S'enabled'
p13
I01
sS'weight'
p14
F-0.5092580774702542
sS'key'
p15
g8
sbs(I44
I2
tp16
g0
(g9
g2
Ntp17
Rp18
(dp19
g13
I01
sg14
F-2.8269559773002637
sg15
g16
sbs(I44
I1
tp20
g0
(g9
g2
Ntp21
Rp22
(dp23
g13
I01
sg14
F0.1230963984908553
sg15
g20
sbs(I-2
I44
tp24
g0
(g9
g2
Ntp25
Rp26
(dp27
g13
I01
sg14
F0.09691205105300772
sg15
g24
sbs(I-10
I44
tp28
g0
(g9
g2
Ntp29
Rp30
(dp31
g13
I00
sg14
F-2.1110793634033844
sg15
g28
sbs(I44
I7
tp32
g0
(g9
g2
Ntp33
Rp34
(dp35
g13
I01
sg14
F0.3159002379378336
sg15
g32
sbs(I44
I0
tp36
g0
(g9
g2
Ntp37
Rp38
(dp39
g13
I01
sg14
F0.3165283390126783
sg15
g36
sbs(I-5
I44
tp40
g0
(g9
g2
Ntp41
Rp42
(dp43
g13
I01
sg14
F0.5668919152711758
sg15
g40
sbs(I44
I6
tp44
g0
(g9
g2
Ntp45
Rp46
(dp47
g13
I01
sg14
F2.203110041833855
sg15
g44
sbs(I-7
I44
tp48
g0
(g9
g2
Ntp49
Rp50
(dp51
g13
I01
sg14
F0.9101355092978167
sg15
g48
sbs(I-3
I44
tp52
g0
(g9
g2
Ntp53
Rp54
(dp55
g13
I01
sg14
F0.7467829352051736
sg15
g52
sbs(I44
I4
tp56
g0
(g9
g2
Ntp57
Rp58
(dp59
g13
I01
sg14
F-1.802150328051516
sg15
g56
sbs(I44
I3
tp60
g0
(g9
g2
Ntp61
Rp62
(dp63
g13
I00
sg14
F-0.5520282525917573
sg15
g60
sbs(I-8
I44
tp64
g0
(g9
g2
Ntp65
Rp66
(dp67
g13
I01
sg14
F1.257556266469739
sg15
g64
sbs(I-9
I44
tp68
g0
(g9
g2
Ntp69
Rp70
(dp71
g13
I01
sg14
F-0.8429911327593644
sg15
g68
sbs(I-4
I44
tp72
g0
(g9
g2
Ntp73
Rp74
(dp75
g13
I00
sg14
F-0.11183432784712016
sg15
g72
sbs(I-6
I44
tp76
g0
(g9
g2
Ntp77
Rp78
(dp79
g13
I01
sg14
F-1.3696578785807736
sg15
g76
sbs(I44
I9
tp80
g0
(g9
g2
Ntp81
Rp82
(dp83
g13
I00
sg14
F1.128462340326521
sg15
g80
sbs(I44
I8
tp84
g0
(g9
g2
Ntp85
Rp86
(dp87
g13
I01
sg14
F1.9723270507153332
sg15
g84
sbssS'nodes'
p88
(dp89
I0
g0
(cneat.genes
DefaultNodeGene
p90
g2
Ntp91
Rp92
(dp93
S'activation'
p94
S'relu'
p95
sS'bias'
p96
F2.3235764538965786
sS'response'
p97
F1.0
sg15
I0
sS'aggregation'
p98
S'sum'
p99
sbsI1
g0
(g90
g2
Ntp100
Rp101
(dp102
g94
g95
sg96
F-20.074153794268973
sg97
F1.0
sg15
I1
sg98
g99
sbsI2
g0
(g90
g2
Ntp103
Rp104
(dp105
g94
g95
sg96
F0.1394860339583096
sg97
F1.0
sg15
I2
sg98
g99
sbsI3
g0
(g90
g2
Ntp106
Rp107
(dp108
g94
g95
sg96
F-2.46713083219208
sg97
F1.0
sg15
I3
sg98
g99
sbsI4
g0
(g90
g2
Ntp109
Rp110
(dp111
g94
g95
sg96
F-15.893300924306976
sg97
F1.0
sg15
I4
sg98
g99
sbsI5
g0
(g90
g2
Ntp112
Rp113
(dp114
g94
g95
sg96
F-3.0894610935523374
sg97
F1.0
sg15
I5
sg98
g99
sbsI6
g0
(g90
g2
Ntp115
Rp116
(dp117
g94
g95
sg96
F27.65029250264963
sg97
F1.0
sg15
I6
sg98
g99
sbsI7
g0
(g90
g2
Ntp118
Rp119
(dp120
g94
g95
sg96
F-7.899290769073558
sg97
F1.0
sg15
I7
sg98
g99
sbsI8
g0
(g90
g2
Ntp121
Rp122
(dp123
g94
g95
sg96
F3.3580508666803994
sg97
F1.0
sg15
I8
sg98
g99
sbsI9
g0
(g90
g2
Ntp124
Rp125
(dp126
g94
g95
sg96
F13.690754939462272
sg97
F1.0
sg15
I9
sg98
g99
sbsI44
g0
(g90
g2
Ntp127
Rp128
(dp129
g94
g95
sg96
F9.03146590978426
sg97
F1.0
sg15
I44
sg98
g99
sbssg15
I1121
sS'fitness'
p130
F0.3740968830195839
sb.