ccopy_reg
_reconstructor
p0
(cneat.genome
DefaultGenome
p1
c__builtin__
object
p2
Ntp3
Rp4
(dp5
S'connections'
p6
(dp7
(I331
I331
tp8
g0
(cneat.genes
DefaultConnectionGene
p9
g2
Ntp10
Rp11
(dp12
S'enabled'
p13
I01
sS'weight'
p14
F0.6628004638129132
sS'key'
p15
g8
sbs(I331
I3
tp16
g0
(g9
g2
Ntp17
Rp18
(dp19
g13
I01
sg14
F0.8180976345511948
sg15
g16
sbs(I-1
I331
tp20
g0
(g9
g2
Ntp21
Rp22
(dp23
g13
I01
sg14
F1.496358279229074
sg15
g20
sbs(I-1
I541
tp24
g0
(g9
g2
Ntp25
Rp26
(dp27
g13
I01
sg14
F1.0
sg15
g24
sbs(I-8
I332
tp28
g0
(g9
g2
Ntp29
Rp30
(dp31
g13
I01
sg14
F-0.522052059538614
sg15
g28
sbs(I-1
I332
tp32
g0
(g9
g2
Ntp33
Rp34
(dp35
g13
I00
sg14
F1.264607321757095
sg15
g32
sbs(I3
I3
tp36
g0
(g9
g2
Ntp37
Rp38
(dp39
g13
I01
sg14
F1.9410198665761746
sg15
g36
sbs(I-10
I333
tp40
g0
(g9
g2
Ntp41
Rp42
(dp43
g13
I01
sg14
F0.6481046270692945
sg15
g40
sbs(I332
I0
tp44
g0
(g9
g2
Ntp45
Rp46
(dp47
g13
I01
sg14
F1.1171799496683605
sg15
g44
sbs(I331
I8
tp48
g0
(g9
g2
Ntp49
Rp50
(dp51
g13
I01
sg14
F1.1686379774793945
sg15
g48
sbs(I4
I4
tp52
g0
(g9
g2
Ntp53
Rp54
(dp55
g13
I01
sg14
F-0.3310412599228241
sg15
g52
sbs(I333
I5
tp56
g0
(g9
g2
Ntp57
Rp58
(dp59
g13
I01
sg14
F1.2342158281480324
sg15
g56
sbs(I-7
I332
tp60
g0
(g9
g2
Ntp61
Rp62
(dp63
g13
I01
sg14
F3.8117595855273345
sg15
g60
sbs(I-6
I331
tp64
g0
(g9
g2
Ntp65
Rp66
(dp67
g13
I01
sg14
F-0.180277278595534
sg15
g64
sbs(I-3
I333
tp68
g0
(g9
g2
Ntp69
Rp70
(dp71
g13
I01
sg14
F-1.1459922978664943
sg15
g68
sbs(I333
I0
tp72
g0
(g9
g2
Ntp73
Rp74
(dp75
g13
I01
sg14
F-1.5784968698796298
sg15
g72
sbs(I-5
I331
tp76
g0
(g9
g2
Ntp77
Rp78
(dp79
g13
I01
sg14
F-0.9659379164804116
sg15
g76
sbs(I0
I0
tp80
g0
(g9
g2
Ntp81
Rp82
(dp83
g13
I00
sg14
F1.5824389193147403
sg15
g80
sbs(I332
I1
tp84
g0
(g9
g2
Ntp85
Rp86
(dp87
g13
I01
sg14
F-0.19430588361847012
sg15
g84
sbs(I-2
I332
tp88
g0
(g9
g2
Ntp89
Rp90
(dp91
g13
I01
sg14
F0.7326384515695323
sg15
g88
sbs(I-9
I331
tp92
g0
(g9
g2
Ntp93
Rp94
(dp95
g13
I01
sg14
F0.6997563898185912
sg15
g92
sbs(I333
I4
tp96
g0
(g9
g2
Ntp97
Rp98
(dp99
g13
I01
sg14
F-0.49384637157259526
sg15
g96
sbs(I332
I5
tp100
g0
(g9
g2
Ntp101
Rp102
(dp103
g13
I00
sg14
F-1.6554248779572256
sg15
g100
sbs(I-3
I332
tp104
g0
(g9
g2
Ntp105
Rp106
(dp107
g13
I01
sg14
F-2.5649306995242904
sg15
g104
sbs(I332
I9
tp108
g0
(g9
g2
Ntp109
Rp110
(dp111
g13
I01
sg14
F-0.3308429572491165
sg15
g108
sbs(I-6
I332
tp112
g0
(g9
g2
Ntp113
Rp114
(dp115
g13
I01
sg14
F-1.3993739588655234
sg15
g112
sbs(I5
I5
tp116
g0
(g9
g2
Ntp117
Rp118
(dp119
g13
I01
sg14
F2.338540630825706
sg15
g116
sbs(I331
I0
tp120
g0
(g9
g2
Ntp121
Rp122
(dp123
g13
I01
sg14
F-0.35817000762115125
sg15
g120
sbs(I332
I6
tp124
g0
(g9
g2
Ntp125
Rp126
(dp127
g13
I01
sg14
F-1.5353545822925538
sg15
g124
sbs(I541
I332
tp128
g0
(g9
g2
Ntp129
Rp130
(dp131
g13
I01
sg14
F-0.18354910714242378
sg15
g128
sbs(I333
I7
tp132
g0
(g9
g2
Ntp133
Rp134
(dp135
g13
I01
sg14
F1.6040275437280762
sg15
g132
sbs(I-2
I333
tp136
g0
(g9
g2
Ntp137
Rp138
(dp139
g13
I01
sg14
F-0.13569943800315443
sg15
g136
sbs(I333
I6
tp140
g0
(g9
g2
Ntp141
Rp142
(dp143
g13
I01
sg14
F2.350141379407669
sg15
g140
sbs(I-10
I331
tp144
g0
(g9
g2
Ntp145
Rp146
(dp147
g13
I01
sg14
F-0.30917858321530156
sg15
g144
sbs(I-8
I331
tp148
g0
(g9
g2
Ntp149
Rp150
(dp151
g13
I01
sg14
F-1.8483689816923026
sg15
g148
sbs(I332
I3
tp152
g0
(g9
g2
Ntp153
Rp154
(dp155
g13
I01
sg14
F1.1743491207810337
sg15
g152
sbssS'nodes'
p156
(dp157
I0
g0
(cneat.genes
DefaultNodeGene
p158
g2
Ntp159
Rp160
(dp161
S'activation'
p162
S'tanh'
p163
sS'bias'
p164
F-5.723146602852522
sS'response'
p165
F1.0
sg15
I0
sS'aggregation'
p166
S'sum'
p167
sbsI1
g0
(g158
g2
Ntp168
Rp169
(dp170
g162
g163
sg164
F9.839428527735326
sg165
F1.0
sg15
I1
sg166
g167
sbsI2
g0
(g158
g2
Ntp171
Rp172
(dp173
g162
g163
sg164
F-17.959048415445046
sg165
F1.0
sg15
I2
sg166
g167
sbsI3
g0
(g158
g2
Ntp174
Rp175
(dp176
g162
g163
sg164
F-7.5058031031773735
sg165
F1.0
sg15
I3
sg166
g167
sbsI4
g0
(g158
g2
Ntp177
Rp178
(dp179
g162
g163
sg164
F1.5023876166998154
sg165
F1.0
sg15
I4
sg166
g167
sbsI5
g0
(g158
g2
Ntp180
Rp181
(dp182
g162
g163
sg164
F21.666572267251784
sg165
F1.0
sg15
I5
sg166
g167
sbsI6
g0
(g158
g2
Ntp183
Rp184
(dp185
g162
g163
sg164
F-0.9482396224672559
sg165
F1.0
sg15
I6
sg166
g167
sbsI7
g0
(g158
g2
Ntp186
Rp187
(dp188
g162
g163
sg164
F-5.418627920266572
sg165
F1.0
sg15
I7
sg166
g167
sbsI8
g0
(g158
g2
Ntp189
Rp190
(dp191
g162
S'relu'
p192
sg164
F9.276171028053385
sg165
F1.0
sg15
I8
sg166
g167
sbsI9
g0
(g158
g2
Ntp193
Rp194
(dp195
g162
g163
sg164
F7.623686882525173
sg165
F1.0
sg15
I9
sg166
g167
sbsI331
g0
(g158
g2
Ntp196
Rp197
(dp198
g162
g163
sg164
F-1.6221334250961714
sg165
F1.0
sg15
I331
sg166
g167
sbsI332
g0
(g158
g2
Ntp199
Rp200
(dp201
g162
g163
sg164
F-4.688782410738584
sg165
F1.0
sg15
I332
sg166
g167
sbsI333
g0
(g158
g2
Ntp202
Rp203
(dp204
g162
g163
sg164
F-0.6565011465755837
sg165
F1.0
sg15
I333
sg166
g167
sbsI541
g0
(g158
g2
Ntp205
Rp206
(dp207
g162
g163
sg164
F4.43164754022614
sg165
F1.0
sg15
I541
sg166
g167
sbssg15
I113
sS'fitness'
p208
Nsb.