ccopy_reg
_reconstructor
p0
(cneat.genome
DefaultGenome
p1
c__builtin__
object
p2
Ntp3
Rp4
(dp5
S'connections'
p6
(dp7
sS'nodes'
p8
(dp9
I0
g0
(cneat.genes
DefaultNodeGene
p10
g2
Ntp11
Rp12
(dp13
S'activation'
p14
S'relu'
p15
sS'bias'
p16
F1.2821583234232308
sS'response'
p17
F1.0
sS'key'
p18
I0
sS'aggregation'
p19
S'sum'
p20
sbsI1
g0
(g10
g2
Ntp21
Rp22
(dp23
g14
g15
sg16
F-1.8346368638712198
sg17
F1.0
sg18
I1
sg19
g20
sbsI2
g0
(g10
g2
Ntp24
Rp25
(dp26
g14
g15
sg16
F-6.0823823579267335
sg17
F1.0
sg18
I2
sg19
g20
sbsI3
g0
(g10
g2
Ntp27
Rp28
(dp29
g14
g15
sg16
F2.427420916118082
sg17
F1.0
sg18
I3
sg19
g20
sbsI4
g0
(g10
g2
Ntp30
Rp31
(dp32
g14
g15
sg16
F-0.4293336106909343
sg17
F1.0
sg18
I4
sg19
g20
sbsI5
g0
(g10
g2
Ntp33
Rp34
(dp35
g14
g15
sg16
F22.877804979029115
sg17
F1.0
sg18
I5
sg19
g20
sbsI6
g0
(g10
g2
Ntp36
Rp37
(dp38
g14
g15
sg16
F15.176995089669214
sg17
F1.0
sg18
I6
sg19
g20
sbsI7
g0
(g10
g2
Ntp39
Rp40
(dp41
g14
g15
sg16
F-0.7601745627595109
sg17
F1.0
sg18
I7
sg19
g20
sbsI8
g0
(g10
g2
Ntp42
Rp43
(dp44
g14
g15
sg16
F-19.328739382133723
sg17
F1.0
sg18
I8
sg19
g20
sbsI9
g0
(g10
g2
Ntp45
Rp46
(dp47
g14
g15
sg16
F-5.309283874701119
sg17
F1.0
sg18
I9
sg19
g20
sbssg18
I113
sS'fitness'
p48
Nsb.