ccopy_reg
_reconstructor
p0
(cneat.genome
DefaultGenome
p1
c__builtin__
object
p2
Ntp3
Rp4
(dp5
S'connections'
p6
(dp7
(I268
I257
tp8
g0
(cneat.genes
DefaultConnectionGene
p9
g2
Ntp10
Rp11
(dp12
S'enabled'
p13
I01
sS'weight'
p14
F1.0
sS'key'
p15
g8
sbs(I38
I8
tp16
g0
(g9
g2
Ntp17
Rp18
(dp19
g13
I01
sg14
F1.3814638880287442
sg15
g16
sbs(I38
I1
tp20
g0
(g9
g2
Ntp21
Rp22
(dp23
g13
I01
sg14
F0.7040476976067093
sg15
g20
sbs(I174
I7
tp24
g0
(g9
g2
Ntp25
Rp26
(dp27
g13
I01
sg14
F1.8014828713011322
sg15
g24
sbs(I-5
I38
tp28
g0
(g9
g2
Ntp29
Rp30
(dp31
g13
I00
sg14
F1.0895412215489917
sg15
g28
sbs(I-6
I38
tp32
g0
(g9
g2
Ntp33
Rp34
(dp35
g13
I01
sg14
F1.8443427596944972
sg15
g32
sbs(I-1
I38
tp36
g0
(g9
g2
Ntp37
Rp38
(dp39
g13
I00
sg14
F-0.8102976260839293
sg15
g36
sbs(I38
I9
tp40
g0
(g9
g2
Ntp41
Rp42
(dp43
g13
I01
sg14
F-1.7816361304695771
sg15
g40
sbs(I-5
I257
tp44
g0
(g9
g2
Ntp45
Rp46
(dp47
g13
I00
sg14
F0.73041673470213
sg15
g44
sbs(I38
I6
tp48
g0
(g9
g2
Ntp49
Rp50
(dp51
g13
I01
sg14
F1.5508574428757607
sg15
g48
sbs(I38
I2
tp52
g0
(g9
g2
Ntp53
Rp54
(dp55
g13
I00
sg14
F-0.36032637170949033
sg15
g52
sbs(I129
I38
tp56
g0
(g9
g2
Ntp57
Rp58
(dp59
g13
I01
sg14
F1.6051121312198469
sg15
g56
sbs(I38
I174
tp60
g0
(g9
g2
Ntp61
Rp62
(dp63
g13
I01
sg14
F1.4039841784341536
sg15
g60
sbs(I-4
I38
tp64
g0
(g9
g2
Ntp65
Rp66
(dp67
g13
I01
sg14
F1.1229705827889955
sg15
g64
sbs(I38
I7
tp68
g0
(g9
g2
Ntp69
Rp70
(dp71
g13
I00
sg14
F1.413813224258727
sg15
g68
sbs(I-8
I38
tp72
g0
(g9
g2
Ntp73
Rp74
(dp75
g13
I01
sg14
F-0.5882266635023655
sg15
g72
sbs(I-5
I268
tp76
g0
(g9
g2
Ntp77
Rp78
(dp79
g13
I01
sg14
F0.9613318723101231
sg15
g76
sbs(I38
I3
tp80
g0
(g9
g2
Ntp81
Rp82
(dp83
g13
I01
sg14
F-0.7331177269342164
sg15
g80
sbs(I-10
I38
tp84
g0
(g9
g2
Ntp85
Rp86
(dp87
g13
I01
sg14
F-2.2668131077834706
sg15
g84
sbs(I-2
I38
tp88
g0
(g9
g2
Ntp89
Rp90
(dp91
g13
I01
sg14
F0.14723429848774885
sg15
g88
sbs(I-3
I38
tp92
g0
(g9
g2
Ntp93
Rp94
(dp95
g13
I01
sg14
F3.232794823895544
sg15
g92
sbs(I38
I4
tp96
g0
(g9
g2
Ntp97
Rp98
(dp99
g13
I01
sg14
F-2.450937747038249
sg15
g96
sbs(I-7
I38
tp100
g0
(g9
g2
Ntp101
Rp102
(dp103
g13
I00
sg14
F-1.735811645029611
sg15
g100
sbs(I38
I0
tp104
g0
(g9
g2
Ntp105
Rp106
(dp107
g13
I00
sg14
F-2.2585468099415635
sg15
g104
sbs(I257
I38
tp108
g0
(g9
g2
Ntp109
Rp110
(dp111
g13
I01
sg14
F1.2943189056480222
sg15
g108
sbs(I-7
I129
tp112
g0
(g9
g2
Ntp113
Rp114
(dp115
g13
I01
sg14
F0.8393844623770939
sg15
g112
sbs(I129
I7
tp116
g0
(g9
g2
Ntp117
Rp118
(dp119
g13
I01
sg14
F0.332072418000946
sg15
g116
sbs(I-9
I38
tp120
g0
(g9
g2
Ntp121
Rp122
(dp123
g13
I01
sg14
F-0.8036090576535698
sg15
g120
sbs(I38
I5
tp124
g0
(g9
g2
Ntp125
Rp126
(dp127
g13
I01
sg14
F0.4723985540363743
sg15
g124
sbssS'nodes'
p128
(dp129
I0
g0
(cneat.genes
DefaultNodeGene
p130
g2
Ntp131
Rp132
(dp133
S'activation'
p134
S'relu'
p135
sS'bias'
p136
F-2.641564441623787
sS'response'
p137
F1.0
sg15
I0
sS'aggregation'
p138
S'sum'
p139
sbsI1
g0
(g130
g2
Ntp140
Rp141
(dp142
g134
g135
sg136
F2.5753909403233726
sg137
F1.0
sg15
I1
sg138
g139
sbsI2
g0
(g130
g2
Ntp143
Rp144
(dp145
g134
S'tanh'
p146
sg136
F7.078852724691328
sg137
F1.0
sg15
I2
sg138
g139
sbsI3
g0
(g130
g2
Ntp147
Rp148
(dp149
g134
g135
sg136
F6.519348010444896
sg137
F1.0
sg15
I3
sg138
g139
sbsI4
g0
(g130
g2
Ntp150
Rp151
(dp152
g134
g135
sg136
F2.6659493385506883
sg137
F1.0
sg15
I4
sg138
g139
sbsI5
g0
(g130
g2
Ntp153
Rp154
(dp155
g134
g135
sg136
F-1.3706807627712747
sg137
F1.0
sg15
I5
sg138
g139
sbsI6
g0
(g130
g2
Ntp156
Rp157
(dp158
g134
g135
sg136
F-16.957847324072606
sg137
F1.0
sg15
I6
sg138
g139
sbsI7
g0
(g130
g2
Ntp159
Rp160
(dp161
g134
g135
sg136
F10.301495641878159
sg137
F1.0
sg15
I7
sg138
g139
sbsI8
g0
(g130
g2
Ntp162
Rp163
(dp164
g134
g135
sg136
F-10.893743998748732
sg137
F1.0
sg15
I8
sg138
g139
sbsI9
g0
(g130
g2
Ntp165
Rp166
(dp167
g134
g135
sg136
F3.3279653862463396
sg137
F1.0
sg15
I9
sg138
g139
sbsI257
g0
(g130
g2
Ntp168
Rp169
(dp170
g134
g135
sg136
F15.338660485141128
sg137
F1.0
sg15
I257
sg138
g139
sbsI129
g0
(g130
g2
Ntp171
Rp172
(dp173
g134
g135
sg136
F-7.977799782274475
sg137
F1.0
sg15
I129
sg138
g139
sbsI174
g0
(g130
g2
Ntp174
Rp175
(dp176
g134
g135
sg136
F4.879583854514851
sg137
F1.0
sg15
I174
sg138
g139
sbsI268
g0
(g130
g2
Ntp177
Rp178
(dp179
g134
g135
sg136
F15.951978317388914
sg137
F1.0
sg15
I268
sg138
g139
sbsI38
g0
(g130
g2
Ntp180
Rp181
(dp182
g134
g135
sg136
F17.148536586577574
sg137
F1.0
sg15
I38
sg138
g139
sbssg15
I1136
sS'fitness'
p183
F3.530644383882862
sb.