ccopy_reg
_reconstructor
p0
(cneat.genome
DefaultGenome
p1
c__builtin__
object
p2
Ntp3
Rp4
(dp5
S'connections'
p6
(dp7
(I-5
I14
tp8
g0
(cneat.genes
DefaultConnectionGene
p9
g2
Ntp10
Rp11
(dp12
S'enabled'
p13
I01
sS'weight'
p14
F-1.6708181863279215
sS'key'
p15
g8
sbs(I14
I4
tp16
g0
(g9
g2
Ntp17
Rp18
(dp19
g13
I01
sg14
F0.03385994445591814
sg15
g16
sbs(I-13
I14
tp20
g0
(g9
g2
Ntp21
Rp22
(dp23
g13
I01
sg14
F0.13771803371142824
sg15
g20
sbs(I-10
I14
tp24
g0
(g9
g2
Ntp25
Rp26
(dp27
g13
I01
sg14
F1.7634890330542117
sg15
g24
sbs(I-8
I14
tp28
g0
(g9
g2
Ntp29
Rp30
(dp31
g13
I01
sg14
F-0.6056515071655559
sg15
g28
sbs(I14
I0
tp32
g0
(g9
g2
Ntp33
Rp34
(dp35
g13
I01
sg14
F-0.7173440638012927
sg15
g32
sbs(I-18
I14
tp36
g0
(g9
g2
Ntp37
Rp38
(dp39
g13
I01
sg14
F1.9398445641704687
sg15
g36
sbs(I14
I9
tp40
g0
(g9
g2
Ntp41
Rp42
(dp43
g13
I01
sg14
F-0.651305848336843
sg15
g40
sbs(I-15
I14
tp44
g0
(g9
g2
Ntp45
Rp46
(dp47
g13
I01
sg14
F0.1730204763732462
sg15
g44
sbs(I-20
I14
tp48
g0
(g9
g2
Ntp49
Rp50
(dp51
g13
I01
sg14
F-1.1632317242993178
sg15
g48
sbs(I14
I5
tp52
g0
(g9
g2
Ntp53
Rp54
(dp55
g13
I00
sg14
F-0.3009655003497168
sg15
g52
sbs(I-2
I14
tp56
g0
(g9
g2
Ntp57
Rp58
(dp59
g13
I01
sg14
F-0.8037296731719816
sg15
g56
sbs(I-9
I14
tp60
g0
(g9
g2
Ntp61
Rp62
(dp63
g13
I01
sg14
F-0.492192661436613
sg15
g60
sbs(I14
I1
tp64
g0
(g9
g2
Ntp65
Rp66
(dp67
g13
I01
sg14
F-1.3256160631978073
sg15
g64
sbs(I-7
I14
tp68
g0
(g9
g2
Ntp69
Rp70
(dp71
g13
I01
sg14
F0.4206335945211177
sg15
g68
sbs(I-4
I14
tp72
g0
(g9
g2
Ntp73
Rp74
(dp75
g13
I01
sg14
F-1.9901823362503421
sg15
g72
sbs(I96
I5
tp76
g0
(g9
g2
Ntp77
Rp78
(dp79
g13
I01
sg14
F0.32604927079006313
sg15
g76
sbs(I-17
I14
tp80
g0
(g9
g2
Ntp81
Rp82
(dp83
g13
I01
sg14
F0.6098540080163762
sg15
g80
sbs(I-12
I14
tp84
g0
(g9
g2
Ntp85
Rp86
(dp87
g13
I01
sg14
F0.6549686640515469
sg15
g84
sbs(I14
I96
tp88
g0
(g9
g2
Ntp89
Rp90
(dp91
g13
I01
sg14
F0.1430144248019467
sg15
g88
sbs(I-19
I14
tp92
g0
(g9
g2
Ntp93
Rp94
(dp95
g13
I01
sg14
F0.6195755626088736
sg15
g92
sbs(I-14
I14
tp96
g0
(g9
g2
Ntp97
Rp98
(dp99
g13
I01
sg14
F-2.0697558933869016
sg15
g96
sbs(I14
I6
tp100
g0
(g9
g2
Ntp101
Rp102
(dp103
g13
I01
sg14
F0.9468302182267266
sg15
g100
sbs(I-3
I14
tp104
g0
(g9
g2
Ntp105
Rp106
(dp107
g13
I01
sg14
F0.6885773470286501
sg15
g104
sbs(I14
I2
tp108
g0
(g9
g2
Ntp109
Rp110
(dp111
g13
I01
sg14
F1.0906545447873435
sg15
g108
sbs(I-11
I14
tp112
g0
(g9
g2
Ntp113
Rp114
(dp115
g13
I01
sg14
F-0.3672037004709544
sg15
g112
sbs(I-6
I14
tp116
g0
(g9
g2
Ntp117
Rp118
(dp119
g13
I01
sg14
F1.225080480427317
sg15
g116
sbs(I-1
I14
tp120
g0
(g9
g2
Ntp121
Rp122
(dp123
g13
I01
sg14
F1.2455096303203792
sg15
g120
sbs(I14
I7
tp124
g0
(g9
g2
Ntp125
Rp126
(dp127
g13
I01
sg14
F-0.18673532469373452
sg15
g124
sbs(I14
I3
tp128
g0
(g9
g2
Ntp129
Rp130
(dp131
g13
I01
sg14
F0.8352430750709676
sg15
g128
sbs(I-16
I14
tp132
g0
(g9
g2
Ntp133
Rp134
(dp135
g13
I01
sg14
F0.3579840923453482
sg15
g132
sbs(I14
I8
tp136
g0
(g9
g2
Ntp137
Rp138
(dp139
g13
I01
sg14
F-0.4147381777096469
sg15
g136
sbssS'nodes'
p140
(dp141
I0
g0
(cneat.genes
DefaultNodeGene
p142
g2
Ntp143
Rp144
(dp145
S'activation'
p146
S'relu'
p147
sS'bias'
p148
F14.670231806706093
sS'response'
p149
F1.0
sg15
I0
sS'aggregation'
p150
S'sum'
p151
sbsI1
g0
(g142
g2
Ntp152
Rp153
(dp154
g146
g147
sg148
F5.985958094839734
sg149
F1.0
sg15
I1
sg150
g151
sbsI2
g0
(g142
g2
Ntp155
Rp156
(dp157
g146
g147
sg148
F3.8122390672835205
sg149
F1.0
sg15
I2
sg150
g151
sbsI3
g0
(g142
g2
Ntp158
Rp159
(dp160
g146
g147
sg148
F18.497469258042905
sg149
F1.0
sg15
I3
sg150
g151
sbsI4
g0
(g142
g2
Ntp161
Rp162
(dp163
g146
g147
sg148
F-5.040710594126136
sg149
F1.0
sg15
I4
sg150
g151
sbsI5
g0
(g142
g2
Ntp164
Rp165
(dp166
g146
g147
sg148
F-14.786481931695802
sg149
F1.0
sg15
I5
sg150
g151
sbsI6
g0
(g142
g2
Ntp167
Rp168
(dp169
g146
g147
sg148
F9.05717604627532
sg149
F1.0
sg15
I6
sg150
g151
sbsI7
g0
(g142
g2
Ntp170
Rp171
(dp172
g146
g147
sg148
F5.686201546168501
sg149
F1.0
sg15
I7
sg150
g151
sbsI8
g0
(g142
g2
Ntp173
Rp174
(dp175
g146
g147
sg148
F6.436868990187224
sg149
F1.0
sg15
I8
sg150
g151
sbsI9
g0
(g142
g2
Ntp176
Rp177
(dp178
g146
g147
sg148
F6.151439446811368
sg149
F1.0
sg15
I9
sg150
g151
sbsI14
g0
(g142
g2
Ntp179
Rp180
(dp181
g146
g147
sg148
F-6.908303404025253
sg149
F1.0
sg15
I14
sg150
g151
sbsI96
g0
(g142
g2
Ntp182
Rp183
(dp184
g146
g147
sg148
F-7.799882519247755
sg149
F1.0
sg15
I96
sg150
g151
sbssg15
I114
sS'fitness'
p185
Nsb.