ccopy_reg
_reconstructor
p0
(cneat.genome
DefaultGenome
p1
c__builtin__
object
p2
Ntp3
Rp4
(dp5
S'connections'
p6
(dp7
(I331
I331
tp8
g0
(cneat.genes
DefaultConnectionGene
p9
g2
Ntp10
Rp11
(dp12
S'enabled'
p13
I01
sS'weight'
p14
F-0.4579433005130786
sS'key'
p15
g8
sbs(I331
I3
tp16
g0
(g9
g2
Ntp17
Rp18
(dp19
g13
I01
sg14
F-0.9324247053758523
sg15
g16
sbs(I-1
I331
tp20
g0
(g9
g2
Ntp21
Rp22
(dp23
g13
I01
sg14
F-2.3085610957076947
sg15
g20
sbs(I-8
I332
tp24
g0
(g9
g2
Ntp25
Rp26
(dp27
g13
I01
sg14
F0.09043551976104672
sg15
g24
sbs(I-1
I332
tp28
g0
(g9
g2
Ntp29
Rp30
(dp31
g13
I01
sg14
F2.0833447703004335
sg15
g28
sbs(I3
I3
tp32
g0
(g9
g2
Ntp33
Rp34
(dp35
g13
I01
sg14
F2.0336764996743155
sg15
g32
sbs(I-10
I333
tp36
g0
(g9
g2
Ntp37
Rp38
(dp39
g13
I01
sg14
F-0.551628654329462
sg15
g36
sbs(I332
I0
tp40
g0
(g9
g2
Ntp41
Rp42
(dp43
g13
I01
sg14
F0.22889521765661824
sg15
g40
sbs(I331
I8
tp44
g0
(g9
g2
Ntp45
Rp46
(dp47
g13
I01
sg14
F-0.557940310049212
sg15
g44
sbs(I4
I4
tp48
g0
(g9
g2
Ntp49
Rp50
(dp51
g13
I01
sg14
F-1.1629638372950897
sg15
g48
sbs(I333
I5
tp52
g0
(g9
g2
Ntp53
Rp54
(dp55
g13
I01
sg14
F1.0187712671710998
sg15
g52
sbs(I-7
I332
tp56
g0
(g9
g2
Ntp57
Rp58
(dp59
g13
I01
sg14
F3.242510237194655
sg15
g56
sbs(I-6
I331
tp60
g0
(g9
g2
Ntp61
Rp62
(dp63
g13
I01
sg14
F-0.2946679110598612
sg15
g60
sbs(I-3
I333
tp64
g0
(g9
g2
Ntp65
Rp66
(dp67
g13
I01
sg14
F-1.0531209655905727
sg15
g64
sbs(I333
I0
tp68
g0
(g9
g2
Ntp69
Rp70
(dp71
g13
I01
sg14
F-1.512188008983419
sg15
g68
sbs(I-5
I331
tp72
g0
(g9
g2
Ntp73
Rp74
(dp75
g13
I01
sg14
F-1.9642271269116969
sg15
g72
sbs(I0
I0
tp76
g0
(g9
g2
Ntp77
Rp78
(dp79
g13
I01
sg14
F2.4868483003361956
sg15
g76
sbs(I332
I1
tp80
g0
(g9
g2
Ntp81
Rp82
(dp83
g13
I01
sg14
F-1.3492418620491013
sg15
g80
sbs(I-2
I332
tp84
g0
(g9
g2
Ntp85
Rp86
(dp87
g13
I01
sg14
F0.6603419687476345
sg15
g84
sbs(I-9
I331
tp88
g0
(g9
g2
Ntp89
Rp90
(dp91
g13
I01
sg14
F-0.4465516935316886
sg15
g88
sbs(I333
I4
tp92
g0
(g9
g2
Ntp93
Rp94
(dp95
g13
I01
sg14
F-1.774783546854184
sg15
g92
sbs(I332
I5
tp96
g0
(g9
g2
Ntp97
Rp98
(dp99
g13
I00
sg14
F-0.6525493836672848
sg15
g96
sbs(I-3
I332
tp100
g0
(g9
g2
Ntp101
Rp102
(dp103
g13
I01
sg14
F0.2905333143195985
sg15
g100
sbs(I332
I9
tp104
g0
(g9
g2
Ntp105
Rp106
(dp107
g13
I01
sg14
F-1.179269116358689
sg15
g104
sbs(I-6
I332
tp108
g0
(g9
g2
Ntp109
Rp110
(dp111
g13
I01
sg14
F-2.0746483490488496
sg15
g108
sbs(I5
I5
tp112
g0
(g9
g2
Ntp113
Rp114
(dp115
g13
I01
sg14
F1.7628450717876822
sg15
g112
sbs(I331
I0
tp116
g0
(g9
g2
Ntp117
Rp118
(dp119
g13
I01
sg14
F-0.917371552808758
sg15
g116
sbs(I332
I6
tp120
g0
(g9
g2
Ntp121
Rp122
(dp123
g13
I01
sg14
F-1.5919333158534716
sg15
g120
sbs(I333
I7
tp124
g0
(g9
g2
Ntp125
Rp126
(dp127
g13
I01
sg14
F2.8237421371034253
sg15
g124
sbs(I-2
I333
tp128
g0
(g9
g2
Ntp129
Rp130
(dp131
g13
I00
sg14
F-0.5337043402280469
sg15
g128
sbs(I333
I6
tp132
g0
(g9
g2
Ntp133
Rp134
(dp135
g13
I01
sg14
F0.14227354758704902
sg15
g132
sbs(I-10
I331
tp136
g0
(g9
g2
Ntp137
Rp138
(dp139
g13
I01
sg14
F0.4128010642172519
sg15
g136
sbs(I-8
I331
tp140
g0
(g9
g2
Ntp141
Rp142
(dp143
g13
I01
sg14
F-0.7808477551000226
sg15
g140
sbs(I332
I3
tp144
g0
(g9
g2
Ntp145
Rp146
(dp147
g13
I01
sg14
F1.3535269695464378
sg15
g144
sbssS'nodes'
p148
(dp149
I0
g0
(cneat.genes
DefaultNodeGene
p150
g2
Ntp151
Rp152
(dp153
S'activation'
p154
S'tanh'
p155
sS'bias'
p156
F-5.614713181938145
sS'response'
p157
F1.0
sg15
I0
sS'aggregation'
p158
S'sum'
p159
sbsI1
g0
(g150
g2
Ntp160
Rp161
(dp162
g154
g155
sg156
F9.713180447916569
sg157
F1.0
sg15
I1
sg158
g159
sbsI2
g0
(g150
g2
Ntp163
Rp164
(dp165
g154
g155
sg156
F8.306304796659408
sg157
F1.0
sg15
I2
sg158
g159
sbsI3
g0
(g150
g2
Ntp166
Rp167
(dp168
g154
g155
sg156
F-8.144524733565735
sg157
F1.0
sg15
I3
sg158
g159
sbsI4
g0
(g150
g2
Ntp169
Rp170
(dp171
g154
g155
sg156
F-4.616977574134327
sg157
F1.0
sg15
I4
sg158
g159
sbsI5
g0
(g150
g2
Ntp172
Rp173
(dp174
g154
g155
sg156
F-8.867875231535796
sg157
F1.0
sg15
I5
sg158
g159
sbsI6
g0
(g150
g2
Ntp175
Rp176
(dp177
g154
g155
sg156
F-1.1031926122731532
sg157
F1.0
sg15
I6
sg158
g159
sbsI7
g0
(g150
g2
Ntp178
Rp179
(dp180
g154
g155
sg156
F-5.875298339310765
sg157
F1.0
sg15
I7
sg158
g159
sbsI8
g0
(g150
g2
Ntp181
Rp182
(dp183
g154
S'relu'
p184
sg156
F2.5482681156221143
sg157
F1.0
sg15
I8
sg158
g159
sbsI9
g0
(g150
g2
Ntp185
Rp186
(dp187
g154
g155
sg156
F6.847285159572398
sg157
F1.0
sg15
I9
sg158
g159
sbsI331
g0
(g150
g2
Ntp188
Rp189
(dp190
g154
g155
sg156
F-11.979242193608158
sg157
F1.0
sg15
I331
sg158
g159
sbsI332
g0
(g150
g2
Ntp191
Rp192
(dp193
g154
g155
sg156
F-4.920499042211231
sg157
F1.0
sg15
I332
sg158
g159
sbsI333
g0
(g150
g2
Ntp194
Rp195
(dp196
g154
g155
sg156
F-2.8978854834094605
sg157
F1.0
sg15
I333
sg158
g159
sbssg15
I114
sS'fitness'
p197
Nsb.