ccopy_reg
_reconstructor
p0
(cneat.genome
DefaultGenome
p1
c__builtin__
object
p2
Ntp3
Rp4
(dp5
S'connections'
p6
(dp7
(I-8
I327
tp8
g0
(cneat.genes
DefaultConnectionGene
p9
g2
Ntp10
Rp11
(dp12
S'enabled'
p13
I01
sS'weight'
p14
F-2.776087590753333
sS'key'
p15
g8
sbs(I728
I2
tp16
g0
(g9
g2
Ntp17
Rp18
(dp19
g13
I01
sg14
F-0.005816204916693435
sg15
g16
sbs(I739
I2
tp20
g0
(g9
g2
Ntp21
Rp22
(dp23
g13
I01
sg14
F1.2277633933366048
sg15
g20
sbs(I3
I3
tp24
g0
(g9
g2
Ntp25
Rp26
(dp27
g13
I01
sg14
F-0.6762550201570492
sg15
g24
sbs(I327
I728
tp28
g0
(g9
g2
Ntp29
Rp30
(dp31
g13
I00
sg14
F0.6123808291537801
sg15
g28
sbs(I2
I2
tp32
g0
(g9
g2
Ntp33
Rp34
(dp35
g13
I00
sg14
F1.4000119760561338
sg15
g32
sbs(I327
I8
tp36
g0
(g9
g2
Ntp37
Rp38
(dp39
g13
I01
sg14
F-0.6406347432776069
sg15
g36
sbs(I1
I1
tp40
g0
(g9
g2
Ntp41
Rp42
(dp43
g13
I01
sg14
F0.6170681921014486
sg15
g40
sbs(I327
I3
tp44
g0
(g9
g2
Ntp45
Rp46
(dp47
g13
I01
sg14
F-0.2540779372171098
sg15
g44
sbs(I4
I327
tp48
g0
(g9
g2
Ntp49
Rp50
(dp51
g13
I00
sg14
F-1.102200306071191
sg15
g48
sbs(I0
I0
tp52
g0
(g9
g2
Ntp53
Rp54
(dp55
g13
I00
sg14
F0.017181331488221444
sg15
g52
sbs(I327
I7
tp56
g0
(g9
g2
Ntp57
Rp58
(dp59
g13
I01
sg14
F-2.8999160286678176
sg15
g56
sbs(I-8
I3
tp60
g0
(g9
g2
Ntp61
Rp62
(dp63
g13
I01
sg14
F-1.5243095302880874
sg15
g60
sbs(I-10
I327
tp64
g0
(g9
g2
Ntp65
Rp66
(dp67
g13
I01
sg14
F0.02018802166046824
sg15
g64
sbs(I763
I8
tp68
g0
(g9
g2
Ntp69
Rp70
(dp71
g13
I01
sg14
F-0.5736696022376061
sg15
g68
sbs(I8
I763
tp72
g0
(g9
g2
Ntp73
Rp74
(dp75
g13
I01
sg14
F0.8692650642851241
sg15
g72
sbs(I327
I2
tp76
g0
(g9
g2
Ntp77
Rp78
(dp79
g13
I00
sg14
F-0.7231719954944654
sg15
g76
sbs(I-3
I327
tp80
g0
(g9
g2
Ntp81
Rp82
(dp83
g13
I00
sg14
F-0.41246955816728376
sg15
g80
sbs(I327
I6
tp84
g0
(g9
g2
Ntp85
Rp86
(dp87
g13
I00
sg14
F-1.9499581304352283
sg15
g84
sbs(I8
I8
tp88
g0
(g9
g2
Ntp89
Rp90
(dp91
g13
I00
sg14
F-2.244697575666331
sg15
g88
sbs(I2
I739
tp92
g0
(g9
g2
Ntp93
Rp94
(dp95
g13
I01
sg14
F0.8186494156197179
sg15
g92
sbs(I-4
I327
tp96
g0
(g9
g2
Ntp97
Rp98
(dp99
g13
I01
sg14
F0.08962362100500457
sg15
g96
sbssS'nodes'
p100
(dp101
I0
g0
(cneat.genes
DefaultNodeGene
p102
g2
Ntp103
Rp104
(dp105
S'activation'
p106
S'tanh'
p107
sS'bias'
p108
F19.029497518728697
sS'response'
p109
F1.0
sg15
I0
sS'aggregation'
p110
S'sum'
p111
sbsI1
g0
(g102
g2
Ntp112
Rp113
(dp114
g106
g107
sg108
F-13.915646453299177
sg109
F1.0
sg15
I1
sg110
g111
sbsI2
g0
(g102
g2
Ntp115
Rp116
(dp117
g106
g107
sg108
F-3.7831452203481026
sg109
F1.0
sg15
I2
sg110
g111
sbsI3
g0
(g102
g2
Ntp118
Rp119
(dp120
g106
g107
sg108
F-5.498014374736624
sg109
F1.0
sg15
I3
sg110
g111
sbsI4
g0
(g102
g2
Ntp121
Rp122
(dp123
g106
g107
sg108
F-3.2126816821426485
sg109
F1.0
sg15
I4
sg110
g111
sbsI5
g0
(g102
g2
Ntp124
Rp125
(dp126
g106
g107
sg108
F-7.541435995601673
sg109
F1.0
sg15
I5
sg110
g111
sbsI6
g0
(g102
g2
Ntp127
Rp128
(dp129
g106
g107
sg108
F-10.61223287758651
sg109
F1.0
sg15
I6
sg110
g111
sbsI7
g0
(g102
g2
Ntp130
Rp131
(dp132
g106
g107
sg108
F-11.519054092767812
sg109
F1.0
sg15
I7
sg110
g111
sbsI8
g0
(g102
g2
Ntp133
Rp134
(dp135
g106
g107
sg108
F1.451527348525433
sg109
F1.0
sg15
I8
sg110
g111
sbsI9
g0
(g102
g2
Ntp136
Rp137
(dp138
g106
g107
sg108
F19.17076227855211
sg109
F1.0
sg15
I9
sg110
g111
sbsI327
g0
(g102
g2
Ntp139
Rp140
(dp141
g106
g107
sg108
F-3.963260123247821
sg109
F1.0
sg15
I327
sg110
g111
sbsI739
g0
(g102
g2
Ntp142
Rp143
(dp144
g106
g107
sg108
F-4.158769261595992
sg109
F1.0
sg15
I739
sg110
g111
sbsI728
g0
(g102
g2
Ntp145
Rp146
(dp147
g106
g107
sg108
F16.964554903078028
sg109
F1.0
sg15
I728
sg110
g111
sbsI763
g0
(g102
g2
Ntp148
Rp149
(dp150
g106
g107
sg108
F-1.697538154360246
sg109
F1.0
sg15
I763
sg110
g111
sbssg15
I114
sS'fitness'
p151
Nsb.