ccopy_reg
_reconstructor
p0
(cneat.genome
DefaultGenome
p1
c__builtin__
object
p2
Ntp3
Rp4
(dp5
S'connections'
p6
(dp7
(I-7
I728
tp8
g0
(cneat.genes
DefaultConnectionGene
p9
g2
Ntp10
Rp11
(dp12
S'enabled'
p13
I01
sS'weight'
p14
F0.09832814404401986
sS'key'
p15
g8
sbs(I728
I2
tp16
g0
(g9
g2
Ntp17
Rp18
(dp19
g13
I01
sg14
F0.3994378896897805
sg15
g16
sbs(I739
I2
tp20
g0
(g9
g2
Ntp21
Rp22
(dp23
g13
I01
sg14
F1.6682092590098856
sg15
g20
sbs(I3
I3
tp24
g0
(g9
g2
Ntp25
Rp26
(dp27
g13
I01
sg14
F1.5716767846733757
sg15
g24
sbs(I2
I2
tp28
g0
(g9
g2
Ntp29
Rp30
(dp31
g13
I00
sg14
F1.717464123525237
sg15
g28
sbs(I1
I1
tp32
g0
(g9
g2
Ntp33
Rp34
(dp35
g13
I00
sg14
F0.3429114503307412
sg15
g32
sbs(I0
I0
tp36
g0
(g9
g2
Ntp37
Rp38
(dp39
g13
I00
sg14
F-0.8070070576557727
sg15
g36
sbs(I-8
I3
tp40
g0
(g9
g2
Ntp41
Rp42
(dp43
g13
I01
sg14
F-1.448961323708265
sg15
g40
sbs(I763
I8
tp44
g0
(g9
g2
Ntp45
Rp46
(dp47
g13
I01
sg14
F-2.3661179009190296
sg15
g44
sbs(I8
I763
tp48
g0
(g9
g2
Ntp49
Rp50
(dp51
g13
I01
sg14
F2.28204223393812
sg15
g48
sbs(I8
I8
tp52
g0
(g9
g2
Ntp53
Rp54
(dp55
g13
I00
sg14
F-2.4975526571557616
sg15
g52
sbs(I2
I739
tp56
g0
(g9
g2
Ntp57
Rp58
(dp59
g13
I01
sg14
F0.44704705559938424
sg15
g56
sbssS'nodes'
p60
(dp61
I0
g0
(cneat.genes
DefaultNodeGene
p62
g2
Ntp63
Rp64
(dp65
S'activation'
p66
S'tanh'
p67
sS'bias'
p68
F-15.003460530063197
sS'response'
p69
F1.0
sg15
I0
sS'aggregation'
p70
S'sum'
p71
sbsI1
g0
(g62
g2
Ntp72
Rp73
(dp74
g66
g67
sg68
F-14.251408038884506
sg69
F1.0
sg15
I1
sg70
g71
sbsI2
g0
(g62
g2
Ntp75
Rp76
(dp77
g66
g67
sg68
F-0.6532720362640843
sg69
F1.0
sg15
I2
sg70
g71
sbsI3
g0
(g62
g2
Ntp78
Rp79
(dp80
g66
g67
sg68
F-6.674968889875485
sg69
F1.0
sg15
I3
sg70
g71
sbsI4
g0
(g62
g2
Ntp81
Rp82
(dp83
g66
g67
sg68
F-2.250754065011164
sg69
F1.0
sg15
I4
sg70
g71
sbsI5
g0
(g62
g2
Ntp84
Rp85
(dp86
g66
g67
sg68
F0.41695573949046816
sg69
F1.0
sg15
I5
sg70
g71
sbsI6
g0
(g62
g2
Ntp87
Rp88
(dp89
g66
g67
sg68
F-4.669486543768716
sg69
F1.0
sg15
I6
sg70
g71
sbsI7
g0
(g62
g2
Ntp90
Rp91
(dp92
g66
g67
sg68
F-10.017460643681076
sg69
F1.0
sg15
I7
sg70
g71
sbsI8
g0
(g62
g2
Ntp93
Rp94
(dp95
g66
g67
sg68
F1.7689476720221335
sg69
F1.0
sg15
I8
sg70
g71
sbsI9
g0
(g62
g2
Ntp96
Rp97
(dp98
g66
S'relu'
p99
sg68
F18.871773104831533
sg69
F1.0
sg15
I9
sg70
g71
sbsI739
g0
(g62
g2
Ntp100
Rp101
(dp102
g66
g67
sg68
F-3.337089207713376
sg69
F1.0
sg15
I739
sg70
g71
sbsI728
g0
(g62
g2
Ntp103
Rp104
(dp105
g66
g67
sg68
F-2.873412165340708
sg69
F1.0
sg15
I728
sg70
g71
sbsI763
g0
(g62
g2
Ntp106
Rp107
(dp108
g66
g99
sg68
F-2.613194960109675
sg69
F1.0
sg15
I763
sg70
g71
sbssg15
I115
sS'fitness'
p109
Nsb.