ccopy_reg
_reconstructor
p0
(cneat.genome
DefaultGenome
p1
c__builtin__
object
p2
Ntp3
Rp4
(dp5
S'connections'
p6
(dp7
(I-8
I327
tp8
g0
(cneat.genes
DefaultConnectionGene
p9
g2
Ntp10
Rp11
(dp12
S'enabled'
p13
I01
sS'weight'
p14
F-3.0638334429283622
sS'key'
p15
g8
sbs(I728
I2
tp16
g0
(g9
g2
Ntp17
Rp18
(dp19
g13
I01
sg14
F0.22453095384676008
sg15
g16
sbs(I3
I3
tp20
g0
(g9
g2
Ntp21
Rp22
(dp23
g13
I01
sg14
F0.10178815177808366
sg15
g20
sbs(I327
I728
tp24
g0
(g9
g2
Ntp25
Rp26
(dp27
g13
I00
sg14
F0.27635746344514656
sg15
g24
sbs(I2
I2
tp28
g0
(g9
g2
Ntp29
Rp30
(dp31
g13
I00
sg14
F1.1150893909347106
sg15
g28
sbs(I327
I8
tp32
g0
(g9
g2
Ntp33
Rp34
(dp35
g13
I01
sg14
F0.4354538285453382
sg15
g32
sbs(I1
I1
tp36
g0
(g9
g2
Ntp37
Rp38
(dp39
g13
I00
sg14
F0.5968777516120435
sg15
g36
sbs(I327
I3
tp40
g0
(g9
g2
Ntp41
Rp42
(dp43
g13
I01
sg14
F-0.07959367520833566
sg15
g40
sbs(I4
I327
tp44
g0
(g9
g2
Ntp45
Rp46
(dp47
g13
I00
sg14
F-0.1938615809485702
sg15
g44
sbs(I0
I0
tp48
g0
(g9
g2
Ntp49
Rp50
(dp51
g13
I00
sg14
F0.45269157328332604
sg15
g48
sbs(I327
I7
tp52
g0
(g9
g2
Ntp53
Rp54
(dp55
g13
I01
sg14
F-2.684574440798818
sg15
g52
sbs(I-8
I3
tp56
g0
(g9
g2
Ntp57
Rp58
(dp59
g13
I01
sg14
F-1.2307600292942809
sg15
g56
sbs(I-10
I327
tp60
g0
(g9
g2
Ntp61
Rp62
(dp63
g13
I01
sg14
F0.7955777941569306
sg15
g60
sbs(I763
I8
tp64
g0
(g9
g2
Ntp65
Rp66
(dp67
g13
I01
sg14
F-2.4681314267707677
sg15
g64
sbs(I8
I763
tp68
g0
(g9
g2
Ntp69
Rp70
(dp71
g13
I01
sg14
F1.2070710330870777
sg15
g68
sbs(I327
I2
tp72
g0
(g9
g2
Ntp73
Rp74
(dp75
g13
I00
sg14
F-0.9269677974998063
sg15
g72
sbs(I-3
I327
tp76
g0
(g9
g2
Ntp77
Rp78
(dp79
g13
I00
sg14
F-0.772933909192651
sg15
g76
sbs(I327
I6
tp80
g0
(g9
g2
Ntp81
Rp82
(dp83
g13
I00
sg14
F-2.5919489821476245
sg15
g80
sbs(I8
I8
tp84
g0
(g9
g2
Ntp85
Rp86
(dp87
g13
I00
sg14
F-1.9687550989837246
sg15
g84
sbs(I-4
I327
tp88
g0
(g9
g2
Ntp89
Rp90
(dp91
g13
I01
sg14
F0.045361074435794194
sg15
g88
sbssS'nodes'
p92
(dp93
I0
g0
(cneat.genes
DefaultNodeGene
p94
g2
Ntp95
Rp96
(dp97
S'activation'
p98
S'tanh'
p99
sS'bias'
p100
F-16.027407974968707
sS'response'
p101
F1.0
sg15
I0
sS'aggregation'
p102
S'sum'
p103
sbsI1
g0
(g94
g2
Ntp104
Rp105
(dp106
g98
g99
sg100
F4.30212878698226
sg101
F1.0
sg15
I1
sg102
g103
sbsI2
g0
(g94
g2
Ntp107
Rp108
(dp109
g98
g99
sg100
F-0.8861071284940423
sg101
F1.0
sg15
I2
sg102
g103
sbsI3
g0
(g94
g2
Ntp110
Rp111
(dp112
g98
g99
sg100
F-4.888138675030965
sg101
F1.0
sg15
I3
sg102
g103
sbsI4
g0
(g94
g2
Ntp113
Rp114
(dp115
g98
g99
sg100
F-2.496492228914388
sg101
F1.0
sg15
I4
sg102
g103
sbsI5
g0
(g94
g2
Ntp116
Rp117
(dp118
g98
g99
sg100
F2.2483097769649136
sg101
F1.0
sg15
I5
sg102
g103
sbsI6
g0
(g94
g2
Ntp119
Rp120
(dp121
g98
g99
sg100
F-5.476513484991792
sg101
F1.0
sg15
I6
sg102
g103
sbsI7
g0
(g94
g2
Ntp122
Rp123
(dp124
g98
g99
sg100
F-10.239096058470873
sg101
F1.0
sg15
I7
sg102
g103
sbsI8
g0
(g94
g2
Ntp125
Rp126
(dp127
g98
g99
sg100
F1.9743607392987768
sg101
F1.0
sg15
I8
sg102
g103
sbsI9
g0
(g94
g2
Ntp128
Rp129
(dp130
g98
S'relu'
p131
sg100
F24.804400921855088
sg101
F1.0
sg15
I9
sg102
g103
sbsI327
g0
(g94
g2
Ntp132
Rp133
(dp134
g98
g99
sg100
F-5.348276248655685
sg101
F1.0
sg15
I327
sg102
g103
sbsI728
g0
(g94
g2
Ntp135
Rp136
(dp137
g98
g99
sg100
F16.432013448546936
sg101
F1.0
sg15
I728
sg102
g103
sbsI763
g0
(g94
g2
Ntp138
Rp139
(dp140
g98
g99
sg100
F-1.9295418026900846
sg101
F1.0
sg15
I763
sg102
g103
sbssg15
I116
sS'fitness'
p141
Nsb.