ccopy_reg
_reconstructor
p0
(cneat.genome
DefaultGenome
p1
c__builtin__
object
p2
Ntp3
Rp4
(dp5
S'connections'
p6
(dp7
(I55
I5
tp8
g0
(cneat.genes
DefaultConnectionGene
p9
g2
Ntp10
Rp11
(dp12
S'enabled'
p13
I01
sS'weight'
p14
F0.5157037738408929
sS'key'
p15
g8
sbs(I-5
I55
tp16
g0
(g9
g2
Ntp17
Rp18
(dp19
g13
I01
sg14
F1.3212672634412224
sg15
g16
sbs(I-6
I55
tp20
g0
(g9
g2
Ntp21
Rp22
(dp23
g13
I01
sg14
F-1.882833532343637
sg15
g20
sbs(I-2
I55
tp24
g0
(g9
g2
Ntp25
Rp26
(dp27
g13
I01
sg14
F-0.33365370526620275
sg15
g24
sbs(I-11
I55
tp28
g0
(g9
g2
Ntp29
Rp30
(dp31
g13
I01
sg14
F0.38008974690330566
sg15
g28
sbs(I55
I9
tp32
g0
(g9
g2
Ntp33
Rp34
(dp35
g13
I01
sg14
F1.808950517194663
sg15
g32
sbs(I-3
I55
tp36
g0
(g9
g2
Ntp37
Rp38
(dp39
g13
I01
sg14
F0.5053303021517199
sg15
g36
sbs(I55
I0
tp40
g0
(g9
g2
Ntp41
Rp42
(dp43
g13
I01
sg14
F0.7600098806135216
sg15
g40
sbs(I-7
I55
tp44
g0
(g9
g2
Ntp45
Rp46
(dp47
g13
I01
sg14
F0.4946208206195021
sg15
g44
sbs(I-14
I55
tp48
g0
(g9
g2
Ntp49
Rp50
(dp51
g13
I00
sg14
F-0.36130338800870204
sg15
g48
sbs(I-12
I55
tp52
g0
(g9
g2
Ntp53
Rp54
(dp55
g13
I01
sg14
F-1.008432739588974
sg15
g52
sbs(I-19
I55
tp56
g0
(g9
g2
Ntp57
Rp58
(dp59
g13
I01
sg14
F-0.4827560947046736
sg15
g56
sbs(I-17
I55
tp60
g0
(g9
g2
Ntp61
Rp62
(dp63
g13
I01
sg14
F1.3563311189912377
sg15
g60
sbs(I-4
I55
tp64
g0
(g9
g2
Ntp65
Rp66
(dp67
g13
I01
sg14
F1.1101260497500989
sg15
g64
sbs(I-1
I55
tp68
g0
(g9
g2
Ntp69
Rp70
(dp71
g13
I01
sg14
F-2.209414285448402
sg15
g68
sbs(I-9
I55
tp72
g0
(g9
g2
Ntp73
Rp74
(dp75
g13
I01
sg14
F1.5397177886471722
sg15
g72
sbs(I55
I3
tp76
g0
(g9
g2
Ntp77
Rp78
(dp79
g13
I01
sg14
F-0.08539377410161904
sg15
g76
sbs(I-8
I55
tp80
g0
(g9
g2
Ntp81
Rp82
(dp83
g13
I01
sg14
F1.6302265829602356
sg15
g80
sbs(I-15
I55
tp84
g0
(g9
g2
Ntp85
Rp86
(dp87
g13
I01
sg14
F0.24465808828140062
sg15
g84
sbs(I-13
I55
tp88
g0
(g9
g2
Ntp89
Rp90
(dp91
g13
I01
sg14
F0.9322808055968752
sg15
g88
sbs(I-20
I55
tp92
g0
(g9
g2
Ntp93
Rp94
(dp95
g13
I01
sg14
F-0.7083783879058105
sg15
g92
sbs(I-18
I55
tp96
g0
(g9
g2
Ntp97
Rp98
(dp99
g13
I01
sg14
F-0.5326767158440553
sg15
g96
sbs(I55
I7
tp100
g0
(g9
g2
Ntp101
Rp102
(dp103
g13
I01
sg14
F-1.5626223199065414
sg15
g100
sbs(I55
I4
tp104
g0
(g9
g2
Ntp105
Rp106
(dp107
g13
I01
sg14
F-0.7356133906110409
sg15
g104
sbs(I-10
I55
tp108
g0
(g9
g2
Ntp109
Rp110
(dp111
g13
I01
sg14
F-2.1355225214102074
sg15
g108
sbs(I-16
I55
tp112
g0
(g9
g2
Ntp113
Rp114
(dp115
g13
I01
sg14
F1.4320916457376471
sg15
g112
sbs(I55
I2
tp116
g0
(g9
g2
Ntp117
Rp118
(dp119
g13
I01
sg14
F-0.6873732331052758
sg15
g116
sbs(I55
I6
tp120
g0
(g9
g2
Ntp121
Rp122
(dp123
g13
I01
sg14
F-0.5160399670341306
sg15
g120
sbs(I55
I1
tp124
g0
(g9
g2
Ntp125
Rp126
(dp127
g13
I01
sg14
F-1.3099405349540092
sg15
g124
sbs(I55
I8
tp128
g0
(g9
g2
Ntp129
Rp130
(dp131
g13
I01
sg14
F0.39553264429763413
sg15
g128
sbssS'nodes'
p132
(dp133
I0
g0
(cneat.genes
DefaultNodeGene
p134
g2
Ntp135
Rp136
(dp137
S'activation'
p138
S'relu'
p139
sS'bias'
p140
F5.606822616976236
sS'response'
p141
F1.0
sg15
I0
sS'aggregation'
p142
S'sum'
p143
sbsI1
g0
(g134
g2
Ntp144
Rp145
(dp146
g138
g139
sg140
F7.388230406416724
sg141
F1.0
sg15
I1
sg142
g143
sbsI2
g0
(g134
g2
Ntp147
Rp148
(dp149
g138
g139
sg140
F-13.64884099326847
sg141
F1.0
sg15
I2
sg142
g143
sbsI3
g0
(g134
g2
Ntp150
Rp151
(dp152
g138
g139
sg140
F-1.850158751210522
sg141
F1.0
sg15
I3
sg142
g143
sbsI4
g0
(g134
g2
Ntp153
Rp154
(dp155
g138
g139
sg140
F18.97178738738201
sg141
F1.0
sg15
I4
sg142
g143
sbsI5
g0
(g134
g2
Ntp156
Rp157
(dp158
g138
g139
sg140
F3.770854175762419
sg141
F1.0
sg15
I5
sg142
g143
sbsI6
g0
(g134
g2
Ntp159
Rp160
(dp161
g138
g139
sg140
F15.83872133120305
sg141
F1.0
sg15
I6
sg142
g143
sbsI7
g0
(g134
g2
Ntp162
Rp163
(dp164
g138
g139
sg140
F-12.35416041382327
sg141
F1.0
sg15
I7
sg142
g143
sbsI8
g0
(g134
g2
Ntp165
Rp166
(dp167
g138
g139
sg140
F-0.35257394090809835
sg141
F1.0
sg15
I8
sg142
g143
sbsI9
g0
(g134
g2
Ntp168
Rp169
(dp170
g138
g139
sg140
F-14.572805146611072
sg141
F1.0
sg15
I9
sg142
g143
sbsI55
g0
(g134
g2
Ntp171
Rp172
(dp173
g138
g139
sg140
F-10.216197420962798
sg141
F1.0
sg15
I55
sg142
g143
sbssg15
I117
sS'fitness'
p174
Nsb.