ccopy_reg
_reconstructor
p0
(cneat.genome
DefaultGenome
p1
c__builtin__
object
p2
Ntp3
Rp4
(dp5
S'connections'
p6
(dp7
(I-8
I327
tp8
g0
(cneat.genes
DefaultConnectionGene
p9
g2
Ntp10
Rp11
(dp12
S'enabled'
p13
I01
sS'weight'
p14
F-2.597147018369967
sS'key'
p15
g8
sbs(I728
I2
tp16
g0
(g9
g2
Ntp17
Rp18
(dp19
g13
I01
sg14
F0.01527125145791336
sg15
g16
sbs(I739
I2
tp20
g0
(g9
g2
Ntp21
Rp22
(dp23
g13
I01
sg14
F1.4744480338332604
sg15
g20
sbs(I3
I3
tp24
g0
(g9
g2
Ntp25
Rp26
(dp27
g13
I01
sg14
F1.7653765746925496
sg15
g24
sbs(I327
I728
tp28
g0
(g9
g2
Ntp29
Rp30
(dp31
g13
I00
sg14
F0.5269220600194755
sg15
g28
sbs(I327
I8
tp32
g0
(g9
g2
Ntp33
Rp34
(dp35
g13
I01
sg14
F-0.7170990550908661
sg15
g32
sbs(I1
I1
tp36
g0
(g9
g2
Ntp37
Rp38
(dp39
g13
I00
sg14
F0.2890284612493452
sg15
g36
sbs(I327
I3
tp40
g0
(g9
g2
Ntp41
Rp42
(dp43
g13
I01
sg14
F0.05723339649384339
sg15
g40
sbs(I4
I327
tp44
g0
(g9
g2
Ntp45
Rp46
(dp47
g13
I01
sg14
F0.4237137685493175
sg15
g44
sbs(I0
I0
tp48
g0
(g9
g2
Ntp49
Rp50
(dp51
g13
I00
sg14
F1.021109478142991
sg15
g48
sbs(I327
I7
tp52
g0
(g9
g2
Ntp53
Rp54
(dp55
g13
I01
sg14
F-2.674545595695209
sg15
g52
sbs(I-8
I3
tp56
g0
(g9
g2
Ntp57
Rp58
(dp59
g13
I01
sg14
F-1.660864420033393
sg15
g56
sbs(I-10
I327
tp60
g0
(g9
g2
Ntp61
Rp62
(dp63
g13
I01
sg14
F2.525927499158316
sg15
g60
sbs(I763
I8
tp64
g0
(g9
g2
Ntp65
Rp66
(dp67
g13
I01
sg14
F-2.813622006534695
sg15
g64
sbs(I8
I763
tp68
g0
(g9
g2
Ntp69
Rp70
(dp71
g13
I01
sg14
F1.3764040070516885
sg15
g68
sbs(I327
I2
tp72
g0
(g9
g2
Ntp73
Rp74
(dp75
g13
I00
sg14
F-0.2113484673283248
sg15
g72
sbs(I-3
I327
tp76
g0
(g9
g2
Ntp77
Rp78
(dp79
g13
I00
sg14
F-0.9130445292723509
sg15
g76
sbs(I327
I6
tp80
g0
(g9
g2
Ntp81
Rp82
(dp83
g13
I00
sg14
F-2.224082692900471
sg15
g80
sbs(I8
I8
tp84
g0
(g9
g2
Ntp85
Rp86
(dp87
g13
I00
sg14
F-1.1503521922117288
sg15
g84
sbs(I2
I739
tp88
g0
(g9
g2
Ntp89
Rp90
(dp91
g13
I01
sg14
F0.6570531938225768
sg15
g88
sbs(I-4
I327
tp92
g0
(g9
g2
Ntp93
Rp94
(dp95
g13
I01
sg14
F1.904607559208588
sg15
g92
sbssS'nodes'
p96
(dp97
I0
g0
(cneat.genes
DefaultNodeGene
p98
g2
Ntp99
Rp100
(dp101
S'activation'
p102
S'tanh'
p103
sS'bias'
p104
F-15.432074928519416
sS'response'
p105
F1.0
sg15
I0
sS'aggregation'
p106
S'sum'
p107
sbsI1
g0
(g98
g2
Ntp108
Rp109
(dp110
g102
g103
sg104
F-14.163305048195454
sg105
F1.0
sg15
I1
sg106
g107
sbsI2
g0
(g98
g2
Ntp111
Rp112
(dp113
g102
g103
sg104
F-1.7432726111219274
sg105
F1.0
sg15
I2
sg106
g107
sbsI3
g0
(g98
g2
Ntp114
Rp115
(dp116
g102
g103
sg104
F-6.984029567508081
sg105
F1.0
sg15
I3
sg106
g107
sbsI4
g0
(g98
g2
Ntp117
Rp118
(dp119
g102
g103
sg104
F-4.390269022969793
sg105
F1.0
sg15
I4
sg106
g107
sbsI5
g0
(g98
g2
Ntp120
Rp121
(dp122
g102
g103
sg104
F17.824751317105342
sg105
F1.0
sg15
I5
sg106
g107
sbsI6
g0
(g98
g2
Ntp123
Rp124
(dp125
g102
g103
sg104
F-6.220901226086384
sg105
F1.0
sg15
I6
sg106
g107
sbsI7
g0
(g98
g2
Ntp126
Rp127
(dp128
g102
g103
sg104
F-10.448006123610718
sg105
F1.0
sg15
I7
sg106
g107
sbsI8
g0
(g98
g2
Ntp129
Rp130
(dp131
g102
g103
sg104
F2.266571216081269
sg105
F1.0
sg15
I8
sg106
g107
sbsI9
g0
(g98
g2
Ntp132
Rp133
(dp134
g102
g103
sg104
F18.926906999535106
sg105
F1.0
sg15
I9
sg106
g107
sbsI327
g0
(g98
g2
Ntp135
Rp136
(dp137
g102
g103
sg104
F0.2536282709110802
sg105
F1.0
sg15
I327
sg106
g107
sbsI739
g0
(g98
g2
Ntp138
Rp139
(dp140
g102
g103
sg104
F21.126561990005005
sg105
F1.0
sg15
I739
sg106
g107
sbsI728
g0
(g98
g2
Ntp141
Rp142
(dp143
g102
g103
sg104
F16.661748071318044
sg105
F1.0
sg15
I728
sg106
g107
sbsI763
g0
(g98
g2
Ntp144
Rp145
(dp146
g102
S'relu'
p147
sg104
F-2.641264330189445
sg105
F1.0
sg15
I763
sg106
g107
sbssg15
I117
sS'fitness'
p148
Nsb.