ccopy_reg
_reconstructor
p0
(cneat.genome
DefaultGenome
p1
c__builtin__
object
p2
Ntp3
Rp4
(dp5
S'connections'
p6
(dp7
(I24
I8
tp8
g0
(cneat.genes
DefaultConnectionGene
p9
g2
Ntp10
Rp11
(dp12
S'enabled'
p13
I01
sS'weight'
p14
F-0.4653930131520775
sS'key'
p15
g8
sbs(I263
I24
tp16
g0
(g9
g2
Ntp17
Rp18
(dp19
g13
I01
sg14
F1.2884038656314227
sg15
g16
sbs(I24
I4
tp20
g0
(g9
g2
Ntp21
Rp22
(dp23
g13
I01
sg14
F-0.7120931905146662
sg15
g20
sbs(I-10
I263
tp24
g0
(g9
g2
Ntp25
Rp26
(dp27
g13
I01
sg14
F1.7337913079283962
sg15
g24
sbs(I100
I24
tp28
g0
(g9
g2
Ntp29
Rp30
(dp31
g13
I01
sg14
F-1.8885861037100389
sg15
g28
sbs(I24
I0
tp32
g0
(g9
g2
Ntp33
Rp34
(dp35
g13
I01
sg14
F-0.12355088024471556
sg15
g32
sbs(I-1
I24
tp36
g0
(g9
g2
Ntp37
Rp38
(dp39
g13
I00
sg14
F3.0117777071260656
sg15
g36
sbs(I24
I9
tp40
g0
(g9
g2
Ntp41
Rp42
(dp43
g13
I01
sg14
F-0.9059584496620117
sg15
g40
sbs(I-10
I24
tp44
g0
(g9
g2
Ntp45
Rp46
(dp47
g13
I00
sg14
F-0.6114159468540556
sg15
g44
sbs(I-5
I24
tp48
g0
(g9
g2
Ntp49
Rp50
(dp51
g13
I01
sg14
F2.3324427696237224
sg15
g48
sbs(I24
I5
tp52
g0
(g9
g2
Ntp53
Rp54
(dp55
g13
I01
sg14
F-1.0392497128562312
sg15
g52
sbs(I-2
I24
tp56
g0
(g9
g2
Ntp57
Rp58
(dp59
g13
I01
sg14
F0.2689725532818392
sg15
g56
sbs(I-8
I24
tp60
g0
(g9
g2
Ntp61
Rp62
(dp63
g13
I00
sg14
F5.7204056103637715
sg15
g60
sbs(I24
I1
tp64
g0
(g9
g2
Ntp65
Rp66
(dp67
g13
I01
sg14
F-0.3819992746313775
sg15
g64
sbs(I-9
I24
tp68
g0
(g9
g2
Ntp69
Rp70
(dp71
g13
I01
sg14
F0.5965733851616493
sg15
g68
sbs(I-4
I24
tp72
g0
(g9
g2
Ntp73
Rp74
(dp75
g13
I00
sg14
F-0.5317656037801973
sg15
g72
sbs(I274
I2
tp76
g0
(g9
g2
Ntp77
Rp78
(dp79
g13
I01
sg14
F0.8832628469461044
sg15
g76
sbs(I24
I6
tp80
g0
(g9
g2
Ntp81
Rp82
(dp83
g13
I01
sg14
F-1.101930571229873
sg15
g80
sbs(I-7
I24
tp84
g0
(g9
g2
Ntp85
Rp86
(dp87
g13
I01
sg14
F2.7298482451380015
sg15
g84
sbs(I24
I2
tp88
g0
(g9
g2
Ntp89
Rp90
(dp91
g13
I00
sg14
F0.1123653494775193
sg15
g88
sbs(I-3
I24
tp92
g0
(g9
g2
Ntp93
Rp94
(dp95
g13
I01
sg14
F-1.7182643631987538
sg15
g92
sbs(I-1
I100
tp96
g0
(g9
g2
Ntp97
Rp98
(dp99
g13
I00
sg14
F-0.5064923904837693
sg15
g96
sbs(I24
I274
tp100
g0
(g9
g2
Ntp101
Rp102
(dp103
g13
I01
sg14
F0.5294070519845351
sg15
g100
sbs(I-6
I24
tp104
g0
(g9
g2
Ntp105
Rp106
(dp107
g13
I00
sg14
F-1.7230855362898918
sg15
g104
sbs(I24
I7
tp108
g0
(g9
g2
Ntp109
Rp110
(dp111
g13
I01
sg14
F0.4595083944624319
sg15
g108
sbs(I24
I3
tp112
g0
(g9
g2
Ntp113
Rp114
(dp115
g13
I01
sg14
F1.5513209965610861
sg15
g112
sbs(I-9
I7
tp116
g0
(g9
g2
Ntp117
Rp118
(dp119
g13
I01
sg14
F1.1897556481088496
sg15
g116
sbssS'nodes'
p120
(dp121
I0
g0
(cneat.genes
DefaultNodeGene
p122
g2
Ntp123
Rp124
(dp125
S'activation'
p126
S'relu'
p127
sS'bias'
p128
F-4.14082331113289
sS'response'
p129
F1.0
sg15
I0
sS'aggregation'
p130
S'sum'
p131
sbsI1
g0
(g122
g2
Ntp132
Rp133
(dp134
g126
g127
sg128
F-8.363611538187882
sg129
F1.0
sg15
I1
sg130
g131
sbsI2
g0
(g122
g2
Ntp135
Rp136
(dp137
g126
g127
sg128
F-10.078216273213478
sg129
F1.0
sg15
I2
sg130
g131
sbsI3
g0
(g122
g2
Ntp138
Rp139
(dp140
g126
g127
sg128
F-13.051245918878802
sg129
F1.0
sg15
I3
sg130
g131
sbsI4
g0
(g122
g2
Ntp141
Rp142
(dp143
g126
g127
sg128
F-2.041027083897022
sg129
F1.0
sg15
I4
sg130
g131
sbsI5
g0
(g122
g2
Ntp144
Rp145
(dp146
g126
g127
sg128
F22.66391241681579
sg129
F1.0
sg15
I5
sg130
g131
sbsI6
g0
(g122
g2
Ntp147
Rp148
(dp149
g126
g127
sg128
F9.629451444945547
sg129
F1.0
sg15
I6
sg130
g131
sbsI7
g0
(g122
g2
Ntp150
Rp151
(dp152
g126
S'tanh'
p153
sg128
F-10.171364585870212
sg129
F1.0
sg15
I7
sg130
g131
sbsI8
g0
(g122
g2
Ntp154
Rp155
(dp156
g126
g127
sg128
F-16.56246311860566
sg129
F1.0
sg15
I8
sg130
g131
sbsI9
g0
(g122
g2
Ntp157
Rp158
(dp159
g126
g127
sg128
F13.83743303551543
sg129
F1.0
sg15
I9
sg130
g131
sbsI263
g0
(g122
g2
Ntp160
Rp161
(dp162
g126
g127
sg128
F12.107011939079129
sg129
F1.0
sg15
I263
sg130
g131
sbsI274
g0
(g122
g2
Ntp163
Rp164
(dp165
g126
g127
sg128
F-0.7464556244981351
sg129
F1.0
sg15
I274
sg130
g131
sbsI24
g0
(g122
g2
Ntp166
Rp167
(dp168
g126
g153
sg128
F4.7086880622286325
sg129
F1.0
sg15
I24
sg130
g131
sbsI100
g0
(g122
g2
Ntp169
Rp170
(dp171
g126
g127
sg128
F6.060025380437778
sg129
F1.0
sg15
I100
sg130
g131
sbssg15
I1171
sS'fitness'
p172
F-0.07145362580218073
sb.