ccopy_reg
_reconstructor
p0
(cneat.genome
DefaultGenome
p1
c__builtin__
object
p2
Ntp3
Rp4
(dp5
S'connections'
p6
(dp7
(I212
I1
tp8
g0
(cneat.genes
DefaultConnectionGene
p9
g2
Ntp10
Rp11
(dp12
S'enabled'
p13
I01
sS'weight'
p14
F1.1122713809068532
sS'key'
p15
g8
sbs(I-7
I1
tp16
g0
(g9
g2
Ntp17
Rp18
(dp19
g13
I00
sg14
F1.3398060593541214
sg15
g16
sbs(I-7
I212
tp20
g0
(g9
g2
Ntp21
Rp22
(dp23
g13
I01
sg14
F1.1157684228616085
sg15
g20
sbssS'nodes'
p24
(dp25
I0
g0
(cneat.genes
DefaultNodeGene
p26
g2
Ntp27
Rp28
(dp29
S'activation'
p30
S'tanh'
p31
sS'bias'
p32
F29.590915831826774
sS'response'
p33
F1.0
sg15
I0
sS'aggregation'
p34
S'sum'
p35
sbsI1
g0
(g26
g2
Ntp36
Rp37
(dp38
g30
S'relu'
p39
sg32
F12.477878183122622
sg33
F1.0
sg15
I1
sg34
g35
sbsI2
g0
(g26
g2
Ntp40
Rp41
(dp42
g30
g31
sg32
F4.315377420830631
sg33
F1.0
sg15
I2
sg34
g35
sbsI3
g0
(g26
g2
Ntp43
Rp44
(dp45
g30
g39
sg32
F-6.387649460325882
sg33
F1.0
sg15
I3
sg34
g35
sbsI4
g0
(g26
g2
Ntp46
Rp47
(dp48
g30
g39
sg32
F-14.606787752803317
sg33
F1.0
sg15
I4
sg34
g35
sbsI5
g0
(g26
g2
Ntp49
Rp50
(dp51
g30
g31
sg32
F1.4584574810360034
sg33
F1.0
sg15
I5
sg34
g35
sbsI6
g0
(g26
g2
Ntp52
Rp53
(dp54
g30
g39
sg32
F3.6090113454386135
sg33
F1.0
sg15
I6
sg34
g35
sbsI7
g0
(g26
g2
Ntp55
Rp56
(dp57
g30
g39
sg32
F-10.358757242012333
sg33
F1.0
sg15
I7
sg34
g35
sbsI8
g0
(g26
g2
Ntp58
Rp59
(dp60
g30
g39
sg32
F0.5873675241977184
sg33
F1.0
sg15
I8
sg34
g35
sbsI9
g0
(g26
g2
Ntp61
Rp62
(dp63
g30
g39
sg32
F-2.110833204197087
sg33
F1.0
sg15
I9
sg34
g35
sbsI212
g0
(g26
g2
Ntp64
Rp65
(dp66
g30
g39
sg32
F-9.46514642818041
sg33
F1.0
sg15
I212
sg34
g35
sbssg15
I1173
sS'fitness'
p67
F-0.021540146738819654
sb.