ccopy_reg
_reconstructor
p0
(cneat.genome
DefaultGenome
p1
c__builtin__
object
p2
Ntp3
Rp4
(dp5
S'connections'
p6
(dp7
(I6
I6
tp8
g0
(cneat.genes
DefaultConnectionGene
p9
g2
Ntp10
Rp11
(dp12
S'enabled'
p13
I01
sS'weight'
p14
F-0.7280237800464596
sS'key'
p15
g8
sbs(I188
I509
tp16
g0
(g9
g2
Ntp17
Rp18
(dp19
g13
I01
sg14
F1.1538365341860974
sg15
g16
sbs(I-9
I189
tp20
g0
(g9
g2
Ntp21
Rp22
(dp23
g13
I01
sg14
F0.735407308993834
sg15
g20
sbs(I185
I6
tp24
g0
(g9
g2
Ntp25
Rp26
(dp27
g13
I01
sg14
F-1.5015964532993116
sg15
g24
sbs(I-3
I188
tp28
g0
(g9
g2
Ntp29
Rp30
(dp31
g13
I00
sg14
F0.6354682539292053
sg15
g28
sbs(I189
I1
tp32
g0
(g9
g2
Ntp33
Rp34
(dp35
g13
I01
sg14
F0.49813854272760993
sg15
g32
sbs(I-7
I437
tp36
g0
(g9
g2
Ntp37
Rp38
(dp39
g13
I01
sg14
F1.6973572326911577
sg15
g36
sbs(I185
I2
tp40
g0
(g9
g2
Ntp41
Rp42
(dp43
g13
I01
sg14
F0.7058886742794631
sg15
g40
sbs(I185
I9
tp44
g0
(g9
g2
Ntp45
Rp46
(dp47
g13
I01
sg14
F1.9212830348411787
sg15
g44
sbs(I-6
I185
tp48
g0
(g9
g2
Ntp49
Rp50
(dp51
g13
I01
sg14
F-0.720925896464537
sg15
g48
sbs(I188
I4
tp52
g0
(g9
g2
Ntp53
Rp54
(dp55
g13
I00
sg14
F-1.0645958726377394
sg15
g52
sbs(I3
I3
tp56
g0
(g9
g2
Ntp57
Rp58
(dp59
g13
I01
sg14
F0.17447675916442262
sg15
g56
sbs(I4
I4
tp60
g0
(g9
g2
Ntp61
Rp62
(dp63
g13
I01
sg14
F0.5958847434743996
sg15
g60
sbs(I189
I0
tp64
g0
(g9
g2
Ntp65
Rp66
(dp67
g13
I01
sg14
F-1.281501473845875
sg15
g64
sbs(I188
I6
tp68
g0
(g9
g2
Ntp69
Rp70
(dp71
g13
I01
sg14
F-0.04602941642983116
sg15
g68
sbs(I-2
I188
tp72
g0
(g9
g2
Ntp73
Rp74
(dp75
g13
I00
sg14
F-0.3245353798190924
sg15
g72
sbs(I185
I8
tp76
g0
(g9
g2
Ntp77
Rp78
(dp79
g13
I01
sg14
F-1.8983271136200688
sg15
g76
sbs(I188
I5
tp80
g0
(g9
g2
Ntp81
Rp82
(dp83
g13
I00
sg14
F-0.8934607236394192
sg15
g80
sbs(I0
I0
tp84
g0
(g9
g2
Ntp85
Rp86
(dp87
g13
I01
sg14
F0.34455778273496374
sg15
g84
sbs(I189
I8
tp88
g0
(g9
g2
Ntp89
Rp90
(dp91
g13
I01
sg14
F-1.0461143899521805
sg15
g88
sbs(I185
I4
tp92
g0
(g9
g2
Ntp93
Rp94
(dp95
g13
I00
sg14
F-1.0645036601629072
sg15
g92
sbs(I-5
I185
tp96
g0
(g9
g2
Ntp97
Rp98
(dp99
g13
I01
sg14
F-1.0731693593295693
sg15
g96
sbs(I188
I188
tp100
g0
(g9
g2
Ntp101
Rp102
(dp103
g13
I01
sg14
F1.8709975157559702
sg15
g100
sbs(I185
I185
tp104
g0
(g9
g2
Ntp105
Rp106
(dp107
g13
I00
sg14
F1.6988909589728756
sg15
g104
sbs(I544
I4
tp108
g0
(g9
g2
Ntp109
Rp110
(dp111
g13
I01
sg14
F-0.5675902685451709
sg15
g108
sbs(I-3
I185
tp112
g0
(g9
g2
Ntp113
Rp114
(dp115
g13
I01
sg14
F0.2808733003647005
sg15
g112
sbs(I-1
I185
tp116
g0
(g9
g2
Ntp117
Rp118
(dp119
g13
I01
sg14
F0.09230440296770959
sg15
g116
sbs(I509
I5
tp120
g0
(g9
g2
Ntp121
Rp122
(dp123
g13
I01
sg14
F-0.5575193150192732
sg15
g120
sbs(I-5
I188
tp124
g0
(g9
g2
Ntp125
Rp126
(dp127
g13
I00
sg14
F-0.8331633460679266
sg15
g124
sbs(I-4
I188
tp128
g0
(g9
g2
Ntp129
Rp130
(dp131
g13
I01
sg14
F-0.6860405957075313
sg15
g128
sbs(I-8
I185
tp132
g0
(g9
g2
Ntp133
Rp134
(dp135
g13
I01
sg14
F1.5298439535410322
sg15
g132
sbs(I185
I544
tp136
g0
(g9
g2
Ntp137
Rp138
(dp139
g13
I01
sg14
F1.0
sg15
g136
sbs(I8
I8
tp140
g0
(g9
g2
Ntp141
Rp142
(dp143
g13
I01
sg14
F0.22356453471384335
sg15
g140
sbs(I189
I2
tp144
g0
(g9
g2
Ntp145
Rp146
(dp147
g13
I00
sg14
F0.5082349760541957
sg15
g144
sbs(I-10
I188
tp148
g0
(g9
g2
Ntp149
Rp150
(dp151
g13
I01
sg14
F0.2224091266835373
sg15
g148
sbs(I-9
I185
tp152
g0
(g9
g2
Ntp153
Rp154
(dp155
g13
I01
sg14
F2.6196064129742185
sg15
g152
sbssS'nodes'
p156
(dp157
I0
g0
(cneat.genes
DefaultNodeGene
p158
g2
Ntp159
Rp160
(dp161
S'activation'
p162
S'tanh'
p163
sS'bias'
p164
F-14.644541195592929
sS'response'
p165
F1.0
sg15
I0
sS'aggregation'
p166
S'sum'
p167
sbsI1
g0
(g158
g2
Ntp168
Rp169
(dp170
g162
g163
sg164
F5.1814262715446695
sg165
F1.0
sg15
I1
sg166
g167
sbsI2
g0
(g158
g2
Ntp171
Rp172
(dp173
g162
g163
sg164
F7.638555120132805
sg165
F1.0
sg15
I2
sg166
g167
sbsI3
g0
(g158
g2
Ntp174
Rp175
(dp176
g162
g163
sg164
F-13.532127531076757
sg165
F1.0
sg15
I3
sg166
g167
sbsI4
g0
(g158
g2
Ntp177
Rp178
(dp179
g162
g163
sg164
F-4.992096122438119
sg165
F1.0
sg15
I4
sg166
g167
sbsI5
g0
(g158
g2
Ntp180
Rp181
(dp182
g162
g163
sg164
F2.520680400796247
sg165
F1.0
sg15
I5
sg166
g167
sbsI6
g0
(g158
g2
Ntp183
Rp184
(dp185
g162
g163
sg164
F-14.63415360937192
sg165
F1.0
sg15
I6
sg166
g167
sbsI7
g0
(g158
g2
Ntp186
Rp187
(dp188
g162
g163
sg164
F-0.4820042158317436
sg165
F1.0
sg15
I7
sg166
g167
sbsI8
g0
(g158
g2
Ntp189
Rp190
(dp191
g162
g163
sg164
F-12.620149043329686
sg165
F1.0
sg15
I8
sg166
g167
sbsI9
g0
(g158
g2
Ntp192
Rp193
(dp194
g162
g163
sg164
F-12.33385217335119
sg165
F1.0
sg15
I9
sg166
g167
sbsI189
g0
(g158
g2
Ntp195
Rp196
(dp197
g162
g163
sg164
F4.548022467674379
sg165
F1.0
sg15
I189
sg166
g167
sbsI437
g0
(g158
g2
Ntp198
Rp199
(dp200
g162
g163
sg164
F-12.149539847528514
sg165
F1.0
sg15
I437
sg166
g167
sbsI544
g0
(g158
g2
Ntp201
Rp202
(dp203
g162
S'relu'
p204
sg164
F-16.4145186545815
sg165
F1.0
sg15
I544
sg166
g167
sbsI185
g0
(g158
g2
Ntp205
Rp206
(dp207
g162
g204
sg164
F13.02394063727221
sg165
F1.0
sg15
I185
sg166
g167
sbsI188
g0
(g158
g2
Ntp208
Rp209
(dp210
g162
g163
sg164
F-11.218619712790717
sg165
F1.0
sg15
I188
sg166
g167
sbsI509
g0
(g158
g2
Ntp211
Rp212
(dp213
g162
g204
sg164
F-2.9373350345755904
sg165
F1.0
sg15
I509
sg166
g167
sbssg15
I118
sS'fitness'
p214
Nsb.