ccopy_reg
_reconstructor
p0
(cneat.genome
DefaultGenome
p1
c__builtin__
object
p2
Ntp3
Rp4
(dp5
S'connections'
p6
(dp7
(I-8
I327
tp8
g0
(cneat.genes
DefaultConnectionGene
p9
g2
Ntp10
Rp11
(dp12
S'enabled'
p13
I01
sS'weight'
p14
F-2.85625989495533
sS'key'
p15
g8
sbs(I728
I2
tp16
g0
(g9
g2
Ntp17
Rp18
(dp19
g13
I01
sg14
F0.435225955385107
sg15
g16
sbs(I739
I2
tp20
g0
(g9
g2
Ntp21
Rp22
(dp23
g13
I01
sg14
F1.514541649166977
sg15
g20
sbs(I3
I3
tp24
g0
(g9
g2
Ntp25
Rp26
(dp27
g13
I01
sg14
F-0.6669500128727661
sg15
g24
sbs(I327
I728
tp28
g0
(g9
g2
Ntp29
Rp30
(dp31
g13
I00
sg14
F0.5602654217180711
sg15
g28
sbs(I327
I8
tp32
g0
(g9
g2
Ntp33
Rp34
(dp35
g13
I01
sg14
F0.8166157011569283
sg15
g32
sbs(I1
I1
tp36
g0
(g9
g2
Ntp37
Rp38
(dp39
g13
I01
sg14
F1.830408514495748
sg15
g36
sbs(I327
I3
tp40
g0
(g9
g2
Ntp41
Rp42
(dp43
g13
I01
sg14
F-0.5593066902472421
sg15
g40
sbs(I4
I327
tp44
g0
(g9
g2
Ntp45
Rp46
(dp47
g13
I00
sg14
F-0.2179303517386456
sg15
g44
sbs(I0
I0
tp48
g0
(g9
g2
Ntp49
Rp50
(dp51
g13
I00
sg14
F-1.1756919696147228
sg15
g48
sbs(I327
I7
tp52
g0
(g9
g2
Ntp53
Rp54
(dp55
g13
I01
sg14
F-3.0261614725643122
sg15
g52
sbs(I-8
I3
tp56
g0
(g9
g2
Ntp57
Rp58
(dp59
g13
I01
sg14
F-0.8523916242028715
sg15
g56
sbs(I-10
I327
tp60
g0
(g9
g2
Ntp61
Rp62
(dp63
g13
I01
sg14
F1.0194532821220919
sg15
g60
sbs(I327
I2
tp64
g0
(g9
g2
Ntp65
Rp66
(dp67
g13
I00
sg14
F-0.3423922515316711
sg15
g64
sbs(I-3
I327
tp68
g0
(g9
g2
Ntp69
Rp70
(dp71
g13
I00
sg14
F0.9043234318097532
sg15
g68
sbs(I327
I6
tp72
g0
(g9
g2
Ntp73
Rp74
(dp75
g13
I00
sg14
F-1.2248660836489382
sg15
g72
sbs(I8
I8
tp76
g0
(g9
g2
Ntp77
Rp78
(dp79
g13
I00
sg14
F-1.0750609997205247
sg15
g76
sbs(I2
I739
tp80
g0
(g9
g2
Ntp81
Rp82
(dp83
g13
I01
sg14
F0.2956416378739357
sg15
g80
sbs(I-4
I327
tp84
g0
(g9
g2
Ntp85
Rp86
(dp87
g13
I01
sg14
F-0.3573908722892745
sg15
g84
sbssS'nodes'
p88
(dp89
I0
g0
(cneat.genes
DefaultNodeGene
p90
g2
Ntp91
Rp92
(dp93
S'activation'
p94
S'tanh'
p95
sS'bias'
p96
F-15.237570088304206
sS'response'
p97
F1.0
sg15
I0
sS'aggregation'
p98
S'sum'
p99
sbsI1
g0
(g90
g2
Ntp100
Rp101
(dp102
g94
g95
sg96
F-13.737273313747274
sg97
F1.0
sg15
I1
sg98
g99
sbsI2
g0
(g90
g2
Ntp103
Rp104
(dp105
g94
g95
sg96
F-2.3814832401226687
sg97
F1.0
sg15
I2
sg98
g99
sbsI3
g0
(g90
g2
Ntp106
Rp107
(dp108
g94
g95
sg96
F-6.505689854466295
sg97
F1.0
sg15
I3
sg98
g99
sbsI4
g0
(g90
g2
Ntp109
Rp110
(dp111
g94
g95
sg96
F-3.200748326979546
sg97
F1.0
sg15
I4
sg98
g99
sbsI5
g0
(g90
g2
Ntp112
Rp113
(dp114
g94
g95
sg96
F1.6723296557018112
sg97
F1.0
sg15
I5
sg98
g99
sbsI6
g0
(g90
g2
Ntp115
Rp116
(dp117
g94
g95
sg96
F-5.066530653558604
sg97
F1.0
sg15
I6
sg98
g99
sbsI7
g0
(g90
g2
Ntp118
Rp119
(dp120
g94
g95
sg96
F-9.570527279017963
sg97
F1.0
sg15
I7
sg98
g99
sbsI8
g0
(g90
g2
Ntp121
Rp122
(dp123
g94
g95
sg96
F2.105084452413019
sg97
F1.0
sg15
I8
sg98
g99
sbsI9
g0
(g90
g2
Ntp124
Rp125
(dp126
g94
S'relu'
p127
sg96
F19.69423634029069
sg97
F1.0
sg15
I9
sg98
g99
sbsI327
g0
(g90
g2
Ntp128
Rp129
(dp130
g94
g95
sg96
F-5.648882813031953
sg97
F1.0
sg15
I327
sg98
g99
sbsI739
g0
(g90
g2
Ntp131
Rp132
(dp133
g94
g95
sg96
F20.17431470690427
sg97
F1.0
sg15
I739
sg98
g99
sbsI728
g0
(g90
g2
Ntp134
Rp135
(dp136
g94
g95
sg96
F-9.930046353254122
sg97
F1.0
sg15
I728
sg98
g99
sbssg15
I118
sS'fitness'
p137
Nsb.