ccopy_reg
_reconstructor
p0
(cneat.genome
DefaultGenome
p1
c__builtin__
object
p2
Ntp3
Rp4
(dp5
S'connections'
p6
(dp7
(I-7
I37
tp8
g0
(cneat.genes
DefaultConnectionGene
p9
g2
Ntp10
Rp11
(dp12
S'enabled'
p13
I00
sS'weight'
p14
F0.49919792388224693
sS'key'
p15
g8
sbs(I37
I7
tp16
g0
(g9
g2
Ntp17
Rp18
(dp19
g13
I01
sg14
F-0.7900579032242137
sg15
g16
sbs(I-12
I37
tp20
g0
(g9
g2
Ntp21
Rp22
(dp23
g13
I01
sg14
F2.09458800663727
sg15
g20
sbs(I-17
I37
tp24
g0
(g9
g2
Ntp25
Rp26
(dp27
g13
I01
sg14
F0.9902100017043067
sg15
g24
sbs(I37
I2
tp28
g0
(g9
g2
Ntp29
Rp30
(dp31
g13
I01
sg14
F0.4362655786673252
sg15
g28
sbs(I-4
I37
tp32
g0
(g9
g2
Ntp33
Rp34
(dp35
g13
I01
sg14
F0.8465816424318207
sg15
g32
sbs(I37
I9
tp36
g0
(g9
g2
Ntp37
Rp38
(dp39
g13
I01
sg14
F-3.439754823581634
sg15
g36
sbs(I-9
I37
tp40
g0
(g9
g2
Ntp41
Rp42
(dp43
g13
I01
sg14
F-0.06789851278404882
sg15
g40
sbs(I-18
I37
tp44
g0
(g9
g2
Ntp45
Rp46
(dp47
g13
I01
sg14
F-0.09383231877106518
sg15
g44
sbs(I37
I6
tp48
g0
(g9
g2
Ntp49
Rp50
(dp51
g13
I01
sg14
F-0.057144288931566006
sg15
g48
sbs(I-14
I37
tp52
g0
(g9
g2
Ntp53
Rp54
(dp55
g13
I01
sg14
F0.7904812697478334
sg15
g52
sbs(I-8
I37
tp56
g0
(g9
g2
Ntp57
Rp58
(dp59
g13
I01
sg14
F0.4781032234392637
sg15
g56
sbs(I-19
I37
tp60
g0
(g9
g2
Ntp61
Rp62
(dp63
g13
I01
sg14
F-0.8828351281878075
sg15
g60
sbs(I-10
I37
tp64
g0
(g9
g2
Ntp65
Rp66
(dp67
g13
I01
sg14
F1.8299426026685828
sg15
g64
sbs(I-13
I37
tp68
g0
(g9
g2
Ntp69
Rp70
(dp71
g13
I01
sg14
F2.140327791540726
sg15
g68
sbs(I-1
I37
tp72
g0
(g9
g2
Ntp73
Rp74
(dp75
g13
I01
sg14
F1.6432081491527315
sg15
g72
sbs(I-5
I37
tp76
g0
(g9
g2
Ntp77
Rp78
(dp79
g13
I01
sg14
F0.41702090288516225
sg15
g76
sbs(I37
I1
tp80
g0
(g9
g2
Ntp81
Rp82
(dp83
g13
I01
sg14
F-0.15972119470239385
sg15
g80
sbs(I37
I8
tp84
g0
(g9
g2
Ntp85
Rp86
(dp87
g13
I01
sg14
F0.3786277543232357
sg15
g84
sbs(I-2
I37
tp88
g0
(g9
g2
Ntp89
Rp90
(dp91
g13
I01
sg14
F-1.4601510676914764
sg15
g88
sbs(I-15
I37
tp92
g0
(g9
g2
Ntp93
Rp94
(dp95
g13
I01
sg14
F-0.7973898576233458
sg15
g92
sbs(I37
I5
tp96
g0
(g9
g2
Ntp97
Rp98
(dp99
g13
I01
sg14
F1.9118874119897433
sg15
g96
sbs(I-20
I37
tp100
g0
(g9
g2
Ntp101
Rp102
(dp103
g13
I01
sg14
F1.3831820348502808
sg15
g100
sbs(I37
I0
tp104
g0
(g9
g2
Ntp105
Rp106
(dp107
g13
I01
sg14
F0.7399384848430894
sg15
g104
sbs(I37
I4
tp108
g0
(g9
g2
Ntp109
Rp110
(dp111
g13
I01
sg14
F-0.41426528525260775
sg15
g108
sbs(I-16
I37
tp112
g0
(g9
g2
Ntp113
Rp114
(dp115
g13
I01
sg14
F-0.6539378098338885
sg15
g112
sbs(I-6
I37
tp116
g0
(g9
g2
Ntp117
Rp118
(dp119
g13
I01
sg14
F-0.19880517197229516
sg15
g116
sbs(I-11
I37
tp120
g0
(g9
g2
Ntp121
Rp122
(dp123
g13
I01
sg14
F-1.2595051561141348
sg15
g120
sbs(I-3
I37
tp124
g0
(g9
g2
Ntp125
Rp126
(dp127
g13
I00
sg14
F-0.337889766145714
sg15
g124
sbs(I37
I3
tp128
g0
(g9
g2
Ntp129
Rp130
(dp131
g13
I01
sg14
F0.8395720375268501
sg15
g128
sbssS'nodes'
p132
(dp133
I0
g0
(cneat.genes
DefaultNodeGene
p134
g2
Ntp135
Rp136
(dp137
S'activation'
p138
S'relu'
p139
sS'bias'
p140
F-7.493697613816616
sS'response'
p141
F1.0
sg15
I0
sS'aggregation'
p142
S'sum'
p143
sbsI1
g0
(g134
g2
Ntp144
Rp145
(dp146
g138
g139
sg140
F8.811356189872637
sg141
F1.0
sg15
I1
sg142
g143
sbsI2
g0
(g134
g2
Ntp147
Rp148
(dp149
g138
g139
sg140
F0.14554952139092667
sg141
F1.0
sg15
I2
sg142
g143
sbsI3
g0
(g134
g2
Ntp150
Rp151
(dp152
g138
g139
sg140
F-13.062119547176632
sg141
F1.0
sg15
I3
sg142
g143
sbsI4
g0
(g134
g2
Ntp153
Rp154
(dp155
g138
g139
sg140
F-9.918103666780004
sg141
F1.0
sg15
I4
sg142
g143
sbsI5
g0
(g134
g2
Ntp156
Rp157
(dp158
g138
g139
sg140
F-11.645784209062816
sg141
F1.0
sg15
I5
sg142
g143
sbsI6
g0
(g134
g2
Ntp159
Rp160
(dp161
g138
g139
sg140
F6.610181180687892
sg141
F1.0
sg15
I6
sg142
g143
sbsI7
g0
(g134
g2
Ntp162
Rp163
(dp164
g138
g139
sg140
F-29.39483710954509
sg141
F1.0
sg15
I7
sg142
g143
sbsI8
g0
(g134
g2
Ntp165
Rp166
(dp167
g138
g139
sg140
F-13.726057017695869
sg141
F1.0
sg15
I8
sg142
g143
sbsI9
g0
(g134
g2
Ntp168
Rp169
(dp170
g138
g139
sg140
F-1.0185696295769526
sg141
F1.0
sg15
I9
sg142
g143
sbsI37
g0
(g134
g2
Ntp171
Rp172
(dp173
g138
g139
sg140
F6.325408569894195
sg141
F1.0
sg15
I37
sg142
g143
sbssg15
I118
sS'fitness'
p174
Nsb.