ccopy_reg
_reconstructor
p0
(cneat.genome
DefaultGenome
p1
c__builtin__
object
p2
Ntp3
Rp4
(dp5
S'connections'
p6
(dp7
(I68
I5
tp8
g0
(cneat.genes
DefaultConnectionGene
p9
g2
Ntp10
Rp11
(dp12
S'enabled'
p13
I01
sS'weight'
p14
F-0.01908106859058495
sS'key'
p15
g8
sbs(I-20
I68
tp16
g0
(g9
g2
Ntp17
Rp18
(dp19
g13
I01
sg14
F-0.6448150443138464
sg15
g16
sbs(I68
I2
tp20
g0
(g9
g2
Ntp21
Rp22
(dp23
g13
I01
sg14
F0.7208708027136462
sg15
g20
sbs(I-9
I68
tp24
g0
(g9
g2
Ntp25
Rp26
(dp27
g13
I01
sg14
F1.3587186342649642
sg15
g24
sbs(I-4
I68
tp28
g0
(g9
g2
Ntp29
Rp30
(dp31
g13
I01
sg14
F-1.6134727668095223
sg15
g28
sbs(I68
I6
tp32
g0
(g9
g2
Ntp33
Rp34
(dp35
g13
I01
sg14
F0.8452630182654762
sg15
g32
sbs(I-18
I68
tp36
g0
(g9
g2
Ntp37
Rp38
(dp39
g13
I01
sg14
F0.21834042029816092
sg15
g36
sbs(I-19
I68
tp40
g0
(g9
g2
Ntp41
Rp42
(dp43
g13
I01
sg14
F1.2889133544197304
sg15
g40
sbs(I-13
I68
tp44
g0
(g9
g2
Ntp45
Rp46
(dp47
g13
I01
sg14
F-0.25402066298238046
sg15
g44
sbs(I-14
I68
tp48
g0
(g9
g2
Ntp49
Rp50
(dp51
g13
I01
sg14
F1.3677929853691904
sg15
g48
sbs(I-8
I68
tp52
g0
(g9
g2
Ntp53
Rp54
(dp55
g13
I01
sg14
F1.8062478884098723
sg15
g52
sbs(I68
I3
tp56
g0
(g9
g2
Ntp57
Rp58
(dp59
g13
I01
sg14
F-2.8685103383790485
sg15
g56
sbs(I-1
I68
tp60
g0
(g9
g2
Ntp61
Rp62
(dp63
g13
I01
sg14
F2.2721253053439994
sg15
g60
sbs(I-3
I68
tp64
g0
(g9
g2
Ntp65
Rp66
(dp67
g13
I01
sg14
F-0.4851391240086659
sg15
g64
sbs(I-5
I9
tp68
g0
(g9
g2
Ntp69
Rp70
(dp71
g13
I01
sg14
F-1.5669773930214996
sg15
g68
sbs(I68
I7
tp72
g0
(g9
g2
Ntp73
Rp74
(dp75
g13
I01
sg14
F1.3520157897408693
sg15
g72
sbs(I-7
I68
tp76
g0
(g9
g2
Ntp77
Rp78
(dp79
g13
I01
sg14
F-0.018705163193673567
sg15
g76
sbs(I68
I8
tp80
g0
(g9
g2
Ntp81
Rp82
(dp83
g13
I01
sg14
F0.03763251808462531
sg15
g80
sbs(I-2
I68
tp84
g0
(g9
g2
Ntp85
Rp86
(dp87
g13
I01
sg14
F1.468088099838947
sg15
g84
sbs(I-17
I68
tp88
g0
(g9
g2
Ntp89
Rp90
(dp91
g13
I01
sg14
F-0.816694806307767
sg15
g88
sbs(I-12
I68
tp92
g0
(g9
g2
Ntp93
Rp94
(dp95
g13
I01
sg14
F-0.28959050557553206
sg15
g92
sbs(I68
I0
tp96
g0
(g9
g2
Ntp97
Rp98
(dp99
g13
I01
sg14
F-0.25671279762802574
sg15
g96
sbs(I68
I9
tp100
g0
(g9
g2
Ntp101
Rp102
(dp103
g13
I01
sg14
F2.7432854679581076
sg15
g100
sbs(I-16
I68
tp104
g0
(g9
g2
Ntp105
Rp106
(dp107
g13
I01
sg14
F-0.4740429932664381
sg15
g104
sbs(I68
I4
tp108
g0
(g9
g2
Ntp109
Rp110
(dp111
g13
I01
sg14
F0.047485207986186384
sg15
g108
sbs(I-10
I68
tp112
g0
(g9
g2
Ntp113
Rp114
(dp115
g13
I01
sg14
F0.24217154071684382
sg15
g112
sbs(I-11
I68
tp116
g0
(g9
g2
Ntp117
Rp118
(dp119
g13
I01
sg14
F-0.29857473883373487
sg15
g116
sbs(I-5
I68
tp120
g0
(g9
g2
Ntp121
Rp122
(dp123
g13
I01
sg14
F0.36575545326135067
sg15
g120
sbs(I-6
I68
tp124
g0
(g9
g2
Ntp125
Rp126
(dp127
g13
I01
sg14
F-1.0383402611554635
sg15
g124
sbs(I68
I1
tp128
g0
(g9
g2
Ntp129
Rp130
(dp131
g13
I01
sg14
F0.13016959197986025
sg15
g128
sbs(I-15
I68
tp132
g0
(g9
g2
Ntp133
Rp134
(dp135
g13
I01
sg14
F-0.7707182433309285
sg15
g132
sbssS'nodes'
p136
(dp137
I0
g0
(cneat.genes
DefaultNodeGene
p138
g2
Ntp139
Rp140
(dp141
S'activation'
p142
S'relu'
p143
sS'bias'
p144
F-16.41499562211406
sS'response'
p145
F1.0
sg15
I0
sS'aggregation'
p146
S'sum'
p147
sbsI1
g0
(g138
g2
Ntp148
Rp149
(dp150
g142
g143
sg144
F1.9069815760698623
sg145
F1.0
sg15
I1
sg146
g147
sbsI2
g0
(g138
g2
Ntp151
Rp152
(dp153
g142
g143
sg144
F-23.912551353620024
sg145
F1.0
sg15
I2
sg146
g147
sbsI3
g0
(g138
g2
Ntp154
Rp155
(dp156
g142
g143
sg144
F-6.673975302972102
sg145
F1.0
sg15
I3
sg146
g147
sbsI4
g0
(g138
g2
Ntp157
Rp158
(dp159
g142
g143
sg144
F4.41663653628456
sg145
F1.0
sg15
I4
sg146
g147
sbsI5
g0
(g138
g2
Ntp160
Rp161
(dp162
g142
g143
sg144
F28.07154833906626
sg145
F1.0
sg15
I5
sg146
g147
sbsI6
g0
(g138
g2
Ntp163
Rp164
(dp165
g142
g143
sg144
F-24.457488030391335
sg145
F1.0
sg15
I6
sg146
g147
sbsI7
g0
(g138
g2
Ntp166
Rp167
(dp168
g142
g143
sg144
F8.0141902317045
sg145
F1.0
sg15
I7
sg146
g147
sbsI8
g0
(g138
g2
Ntp169
Rp170
(dp171
g142
g143
sg144
F-4.469953681106382
sg145
F1.0
sg15
I8
sg146
g147
sbsI9
g0
(g138
g2
Ntp172
Rp173
(dp174
g142
g143
sg144
F-19.610884986570483
sg145
F1.0
sg15
I9
sg146
g147
sbsI68
g0
(g138
g2
Ntp175
Rp176
(dp177
g142
g143
sg144
F3.5401307084852736
sg145
F1.0
sg15
I68
sg146
g147
sbssg15
I119
sS'fitness'
p178
Nsb.