ccopy_reg
_reconstructor
p0
(cneat.genome
DefaultGenome
p1
c__builtin__
object
p2
Ntp3
Rp4
(dp5
S'connections'
p6
(dp7
(I-12
I21
tp8
g0
(cneat.genes
DefaultConnectionGene
p9
g2
Ntp10
Rp11
(dp12
S'enabled'
p13
I01
sS'weight'
p14
F1.0011797280238401
sS'key'
p15
g8
sbs(I21
I2
tp16
g0
(g9
g2
Ntp17
Rp18
(dp19
g13
I01
sg14
F-0.1514318722316148
sg15
g16
sbs(I21
I9
tp20
g0
(g9
g2
Ntp21
Rp22
(dp23
g13
I01
sg14
F0.19294506115726662
sg15
g20
sbs(I-9
I21
tp24
g0
(g9
g2
Ntp25
Rp26
(dp27
g13
I01
sg14
F-0.9861534916930744
sg15
g24
sbs(I21
I6
tp28
g0
(g9
g2
Ntp29
Rp30
(dp31
g13
I01
sg14
F0.529269634103799
sg15
g28
sbs(I-10
I21
tp32
g0
(g9
g2
Ntp33
Rp34
(dp35
g13
I01
sg14
F1.5632379998832415
sg15
g32
sbs(I-13
I21
tp36
g0
(g9
g2
Ntp37
Rp38
(dp39
g13
I01
sg14
F-0.5767638321612967
sg15
g36
sbs(I-20
I21
tp40
g0
(g9
g2
Ntp41
Rp42
(dp43
g13
I01
sg14
F-0.2799037282537281
sg15
g40
sbs(I-6
I21
tp44
g0
(g9
g2
Ntp45
Rp46
(dp47
g13
I01
sg14
F0.4089250406735959
sg15
g44
sbs(I-2
I21
tp48
g0
(g9
g2
Ntp49
Rp50
(dp51
g13
I01
sg14
F0.2586718410845606
sg15
g48
sbs(I21
I1
tp52
g0
(g9
g2
Ntp53
Rp54
(dp55
g13
I01
sg14
F1.7251278631969111
sg15
g52
sbs(I-3
I21
tp56
g0
(g9
g2
Ntp57
Rp58
(dp59
g13
I01
sg14
F0.14820215938481712
sg15
g56
sbs(I21
I8
tp60
g0
(g9
g2
Ntp61
Rp62
(dp63
g13
I01
sg14
F-0.5298675376311996
sg15
g60
sbs(I21
I5
tp64
g0
(g9
g2
Ntp65
Rp66
(dp67
g13
I01
sg14
F1.5662672170600849
sg15
g64
sbs(I-7
I21
tp68
g0
(g9
g2
Ntp69
Rp70
(dp71
g13
I01
sg14
F-1.2385962535022441
sg15
g68
sbs(I-14
I21
tp72
g0
(g9
g2
Ntp73
Rp74
(dp75
g13
I01
sg14
F-0.8444596464140437
sg15
g72
sbs(I-1
I21
tp76
g0
(g9
g2
Ntp77
Rp78
(dp79
g13
I01
sg14
F0.7413441370683422
sg15
g76
sbs(I-17
I21
tp80
g0
(g9
g2
Ntp81
Rp82
(dp83
g13
I01
sg14
F0.048374822842173884
sg15
g80
sbs(I-4
I21
tp84
g0
(g9
g2
Ntp85
Rp86
(dp87
g13
I01
sg14
F0.21719638977540182
sg15
g84
sbs(I-15
I21
tp88
g0
(g9
g2
Ntp89
Rp90
(dp91
g13
I01
sg14
F0.11607916858664381
sg15
g88
sbs(I21
I4
tp92
g0
(g9
g2
Ntp93
Rp94
(dp95
g13
I01
sg14
F-0.6466513399716642
sg15
g92
sbs(I-18
I21
tp96
g0
(g9
g2
Ntp97
Rp98
(dp99
g13
I01
sg14
F0.2185767254610327
sg15
g96
sbs(I21
I0
tp100
g0
(g9
g2
Ntp101
Rp102
(dp103
g13
I01
sg14
F0.04567914994415891
sg15
g100
sbs(I-8
I21
tp104
g0
(g9
g2
Ntp105
Rp106
(dp107
g13
I01
sg14
F0.5532907790640572
sg15
g104
sbs(I-11
I21
tp108
g0
(g9
g2
Ntp109
Rp110
(dp111
g13
I01
sg14
F-1.8452975871896717
sg15
g108
sbs(I-5
I21
tp112
g0
(g9
g2
Ntp113
Rp114
(dp115
g13
I01
sg14
F-0.8406898967943053
sg15
g112
sbs(I21
I3
tp116
g0
(g9
g2
Ntp117
Rp118
(dp119
g13
I01
sg14
F-0.9410731985733481
sg15
g116
sbs(I-16
I21
tp120
g0
(g9
g2
Ntp121
Rp122
(dp123
g13
I01
sg14
F-0.24527326773153452
sg15
g120
sbs(I21
I7
tp124
g0
(g9
g2
Ntp125
Rp126
(dp127
g13
I01
sg14
F-2.4526082264186626
sg15
g124
sbs(I-19
I21
tp128
g0
(g9
g2
Ntp129
Rp130
(dp131
g13
I01
sg14
F1.2611187567714606
sg15
g128
sbssS'nodes'
p132
(dp133
I0
g0
(cneat.genes
DefaultNodeGene
p134
g2
Ntp135
Rp136
(dp137
S'activation'
p138
S'relu'
p139
sS'bias'
p140
F-0.9155117080605147
sS'response'
p141
F1.0
sg15
I0
sS'aggregation'
p142
S'sum'
p143
sbsI1
g0
(g134
g2
Ntp144
Rp145
(dp146
g138
g139
sg140
F10.740727776474541
sg141
F1.0
sg15
I1
sg142
g143
sbsI2
g0
(g134
g2
Ntp147
Rp148
(dp149
g138
g139
sg140
F-5.531866255509251
sg141
F1.0
sg15
I2
sg142
g143
sbsI3
g0
(g134
g2
Ntp150
Rp151
(dp152
g138
g139
sg140
F-5.828819947419968
sg141
F1.0
sg15
I3
sg142
g143
sbsI4
g0
(g134
g2
Ntp153
Rp154
(dp155
g138
g139
sg140
F8.62027348629352
sg141
F1.0
sg15
I4
sg142
g143
sbsI5
g0
(g134
g2
Ntp156
Rp157
(dp158
g138
g139
sg140
F21.748736057410913
sg141
F1.0
sg15
I5
sg142
g143
sbsI6
g0
(g134
g2
Ntp159
Rp160
(dp161
g138
g139
sg140
F-0.3392422138725754
sg141
F1.0
sg15
I6
sg142
g143
sbsI7
g0
(g134
g2
Ntp162
Rp163
(dp164
g138
g139
sg140
F4.540332144185728
sg141
F1.0
sg15
I7
sg142
g143
sbsI8
g0
(g134
g2
Ntp165
Rp166
(dp167
g138
g139
sg140
F8.851328824309917
sg141
F1.0
sg15
I8
sg142
g143
sbsI9
g0
(g134
g2
Ntp168
Rp169
(dp170
g138
g139
sg140
F-9.44648971221499
sg141
F1.0
sg15
I9
sg142
g143
sbsI21
g0
(g134
g2
Ntp171
Rp172
(dp173
g138
g139
sg140
F-15.63267654736995
sg141
F1.0
sg15
I21
sg142
g143
sbssg15
I12
sS'fitness'
p174
F0.04539293005817113
sb.