ccopy_reg
_reconstructor
p0
(cneat.genome
DefaultGenome
p1
c__builtin__
object
p2
Ntp3
Rp4
(dp5
S'connections'
p6
(dp7
(I23
I4
tp8
g0
(cneat.genes
DefaultConnectionGene
p9
g2
Ntp10
Rp11
(dp12
S'enabled'
p13
I01
sS'weight'
p14
F-2.57655888750363
sS'key'
p15
g8
sbs(I610
I7
tp16
g0
(g9
g2
Ntp17
Rp18
(dp19
g13
I01
sg14
F-1.0596791865145012
sg15
g16
sbs(I-2
I521
tp20
g0
(g9
g2
Ntp21
Rp22
(dp23
g13
I01
sg14
F2.2632396125301795
sg15
g20
sbs(I-2
I23
tp24
g0
(g9
g2
Ntp25
Rp26
(dp27
g13
I01
sg14
F0.983353211330852
sg15
g24
sbs(I7
I7
tp28
g0
(g9
g2
Ntp29
Rp30
(dp31
g13
I01
sg14
F0.5605215504842578
sg15
g28
sbs(I23
I610
tp32
g0
(g9
g2
Ntp33
Rp34
(dp35
g13
I01
sg14
F-0.4757896678740626
sg15
g32
sbs(I23
I3
tp36
g0
(g9
g2
Ntp37
Rp38
(dp39
g13
I01
sg14
F0.03933737689313349
sg15
g36
sbs(I-3
I3
tp40
g0
(g9
g2
Ntp41
Rp42
(dp43
g13
I01
sg14
F-1.5097269186795552
sg15
g40
sbs(I23
I7
tp44
g0
(g9
g2
Ntp45
Rp46
(dp47
g13
I00
sg14
F-0.34289478685454283
sg15
g44
sbs(I-5
I23
tp48
g0
(g9
g2
Ntp49
Rp50
(dp51
g13
I00
sg14
F1.056208415138276
sg15
g48
sbs(I-1
I1
tp52
g0
(g9
g2
Ntp53
Rp54
(dp55
g13
I01
sg14
F0.41419355790330264
sg15
g52
sbs(I2
I2
tp56
g0
(g9
g2
Ntp57
Rp58
(dp59
g13
I00
sg14
F-1.2246606499253088
sg15
g56
sbs(I2
I551
tp60
g0
(g9
g2
Ntp61
Rp62
(dp63
g13
I01
sg14
F-0.8094453708342315
sg15
g60
sbs(I559
I0
tp64
g0
(g9
g2
Ntp65
Rp66
(dp67
g13
I01
sg14
F-1.0321415733894261
sg15
g64
sbs(I23
I1
tp68
g0
(g9
g2
Ntp69
Rp70
(dp71
g13
I01
sg14
F0.7341331291137393
sg15
g68
sbs(I-1
I559
tp72
g0
(g9
g2
Ntp73
Rp74
(dp75
g13
I00
sg14
F-0.4376435045096278
sg15
g72
sbs(I23
I5
tp76
g0
(g9
g2
Ntp77
Rp78
(dp79
g13
I01
sg14
F-0.8586150589429046
sg15
g76
sbs(I617
I559
tp80
g0
(g9
g2
Ntp81
Rp82
(dp83
g13
I01
sg14
F-1.5730856335279293
sg15
g80
sbs(I-1
I617
tp84
g0
(g9
g2
Ntp85
Rp86
(dp87
g13
I01
sg14
F0.8111906397461618
sg15
g84
sbs(I9
I9
tp88
g0
(g9
g2
Ntp89
Rp90
(dp91
g13
I01
sg14
F2.449612912244661
sg15
g88
sbs(I23
I9
tp92
g0
(g9
g2
Ntp93
Rp94
(dp95
g13
I01
sg14
F1.8376378331052092
sg15
g92
sbs(I8
I8
tp96
g0
(g9
g2
Ntp97
Rp98
(dp99
g13
I01
sg14
F-0.9159487367971042
sg15
g96
sbs(I-7
I23
tp100
g0
(g9
g2
Ntp101
Rp102
(dp103
g13
I01
sg14
F-2.3321354130601804
sg15
g100
sbssS'nodes'
p104
(dp105
I0
g0
(cneat.genes
DefaultNodeGene
p106
g2
Ntp107
Rp108
(dp109
S'activation'
p110
S'tanh'
p111
sS'bias'
p112
F4.171619090553229
sS'response'
p113
F1.0
sg15
I0
sS'aggregation'
p114
S'sum'
p115
sbsI1
g0
(g106
g2
Ntp116
Rp117
(dp118
g110
g111
sg112
F-15.337563488419883
sg113
F1.0
sg15
I1
sg114
g115
sbsI2
g0
(g106
g2
Ntp119
Rp120
(dp121
g110
g111
sg112
F9.02709606792816
sg113
F1.0
sg15
I2
sg114
g115
sbsI3
g0
(g106
g2
Ntp122
Rp123
(dp124
g110
g111
sg112
F-0.07616694581616118
sg113
F1.0
sg15
I3
sg114
g115
sbsI4
g0
(g106
g2
Ntp125
Rp126
(dp127
g110
S'relu'
p128
sg112
F23.56382780072775
sg113
F1.0
sg15
I4
sg114
g115
sbsI5
g0
(g106
g2
Ntp129
Rp130
(dp131
g110
g111
sg112
F8.40740769579058
sg113
F1.0
sg15
I5
sg114
g115
sbsI6
g0
(g106
g2
Ntp132
Rp133
(dp134
g110
g111
sg112
F19.975151121247464
sg113
F1.0
sg15
I6
sg114
g115
sbsI7
g0
(g106
g2
Ntp135
Rp136
(dp137
g110
g111
sg112
F6.951703839537489
sg113
F1.0
sg15
I7
sg114
g115
sbsI8
g0
(g106
g2
Ntp138
Rp139
(dp140
g110
g111
sg112
F-6.094121433915157
sg113
F1.0
sg15
I8
sg114
g115
sbsI9
g0
(g106
g2
Ntp141
Rp142
(dp143
g110
g111
sg112
F13.973200657011487
sg113
F1.0
sg15
I9
sg114
g115
sbsI551
g0
(g106
g2
Ntp144
Rp145
(dp146
g110
g111
sg112
F-1.6877965038347555
sg113
F1.0
sg15
I551
sg114
g115
sbsI610
g0
(g106
g2
Ntp147
Rp148
(dp149
g110
g111
sg112
F-1.780863113368668
sg113
F1.0
sg15
I610
sg114
g115
sbsI559
g0
(g106
g2
Ntp150
Rp151
(dp152
g110
g111
sg112
F11.815017787238782
sg113
F1.0
sg15
I559
sg114
g115
sbsI617
g0
(g106
g2
Ntp153
Rp154
(dp155
g110
g111
sg112
F7.688437808189242
sg113
F1.0
sg15
I617
sg114
g115
sbsI521
g0
(g106
g2
Ntp156
Rp157
(dp158
g110
g111
sg112
F11.690530712561097
sg113
F1.0
sg15
I521
sg114
g115
sbsI23
g0
(g106
g2
Ntp159
Rp160
(dp161
g110
g111
sg112
F-2.413740277244221
sg113
F1.0
sg15
I23
sg114
g115
sbssg15
I12
sS'fitness'
p162
Nsb.