ccopy_reg
_reconstructor
p0
(cneat.genome
DefaultGenome
p1
c__builtin__
object
p2
Ntp3
Rp4
(dp5
S'connections'
p6
(dp7
(I610
I7
tp8
g0
(cneat.genes
DefaultConnectionGene
p9
g2
Ntp10
Rp11
(dp12
S'enabled'
p13
I01
sS'weight'
p14
F-0.05224414096258362
sS'key'
p15
g8
sbs(I-2
I23
tp16
g0
(g9
g2
Ntp17
Rp18
(dp19
g13
I00
sg14
F0.24781264022484079
sg15
g16
sbs(I7
I7
tp20
g0
(g9
g2
Ntp21
Rp22
(dp23
g13
I01
sg14
F-1.2366017626414896
sg15
g20
sbs(I23
I610
tp24
g0
(g9
g2
Ntp25
Rp26
(dp27
g13
I01
sg14
F-1.8903825972351074
sg15
g24
sbs(I23
I3
tp28
g0
(g9
g2
Ntp29
Rp30
(dp31
g13
I00
sg14
F-0.8634305482594633
sg15
g28
sbs(I-3
I3
tp32
g0
(g9
g2
Ntp33
Rp34
(dp35
g13
I00
sg14
F0.961155441073229
sg15
g32
sbs(I23
I7
tp36
g0
(g9
g2
Ntp37
Rp38
(dp39
g13
I00
sg14
F0.7499057474640576
sg15
g36
sbs(I-5
I23
tp40
g0
(g9
g2
Ntp41
Rp42
(dp43
g13
I00
sg14
F1.3790877459617912
sg15
g40
sbs(I724
I23
tp44
g0
(g9
g2
Ntp45
Rp46
(dp47
g13
I01
sg14
F1.7692779375936811
sg15
g44
sbs(I-7
I7
tp48
g0
(g9
g2
Ntp49
Rp50
(dp51
g13
I01
sg14
F-0.964451221471755
sg15
g48
sbs(I-10
I4
tp52
g0
(g9
g2
Ntp53
Rp54
(dp55
g13
I01
sg14
F0.5457691248354792
sg15
g52
sbs(I2
I2
tp56
g0
(g9
g2
Ntp57
Rp58
(dp59
g13
I01
sg14
F-0.4904690873436718
sg15
g56
sbs(I2
I551
tp60
g0
(g9
g2
Ntp61
Rp62
(dp63
g13
I01
sg14
F1.4925980077723846
sg15
g60
sbs(I-3
I669
tp64
g0
(g9
g2
Ntp65
Rp66
(dp67
g13
I01
sg14
F0.1204119781618159
sg15
g64
sbs(I669
I3
tp68
g0
(g9
g2
Ntp69
Rp70
(dp71
g13
I00
sg14
F-1.4776131347914108
sg15
g68
sbs(I23
I1
tp72
g0
(g9
g2
Ntp73
Rp74
(dp75
g13
I01
sg14
F-0.34998923520715786
sg15
g72
sbs(I23
I5
tp76
g0
(g9
g2
Ntp77
Rp78
(dp79
g13
I01
sg14
F-0.7527826142160045
sg15
g76
sbs(I-2
I724
tp80
g0
(g9
g2
Ntp81
Rp82
(dp83
g13
I01
sg14
F0.6003460394423802
sg15
g80
sbs(I9
I9
tp84
g0
(g9
g2
Ntp85
Rp86
(dp87
g13
I01
sg14
F-0.6603292101877836
sg15
g84
sbs(I23
I9
tp88
g0
(g9
g2
Ntp89
Rp90
(dp91
g13
I01
sg14
F1.0930585191452957
sg15
g88
sbs(I8
I8
tp92
g0
(g9
g2
Ntp93
Rp94
(dp95
g13
I00
sg14
F-0.4823607301507815
sg15
g92
sbs(I-7
I23
tp96
g0
(g9
g2
Ntp97
Rp98
(dp99
g13
I00
sg14
F-0.7973814411286945
sg15
g96
sbssS'nodes'
p100
(dp101
I0
g0
(cneat.genes
DefaultNodeGene
p102
g2
Ntp103
Rp104
(dp105
S'activation'
p106
S'tanh'
p107
sS'bias'
p108
F22.2177256792151
sS'response'
p109
F1.0
sg15
I0
sS'aggregation'
p110
S'sum'
p111
sbsI1
g0
(g102
g2
Ntp112
Rp113
(dp114
g106
g107
sg108
F-17.244407536999084
sg109
F1.0
sg15
I1
sg110
g111
sbsI2
g0
(g102
g2
Ntp115
Rp116
(dp117
g106
g107
sg108
F-1.1512099987019044
sg109
F1.0
sg15
I2
sg110
g111
sbsI3
g0
(g102
g2
Ntp118
Rp119
(dp120
g106
g107
sg108
F7.737924024309373
sg109
F1.0
sg15
I3
sg110
g111
sbsI4
g0
(g102
g2
Ntp121
Rp122
(dp123
g106
g107
sg108
F-7.029008139302123
sg109
F1.0
sg15
I4
sg110
g111
sbsI5
g0
(g102
g2
Ntp124
Rp125
(dp126
g106
g107
sg108
F-5.512770078889403
sg109
F1.0
sg15
I5
sg110
g111
sbsI6
g0
(g102
g2
Ntp127
Rp128
(dp129
g106
g107
sg108
F-14.1265351492164
sg109
F1.0
sg15
I6
sg110
g111
sbsI7
g0
(g102
g2
Ntp130
Rp131
(dp132
g106
g107
sg108
F5.137781425488591
sg109
F1.0
sg15
I7
sg110
g111
sbsI8
g0
(g102
g2
Ntp133
Rp134
(dp135
g106
g107
sg108
F-10.022716083033657
sg109
F1.0
sg15
I8
sg110
g111
sbsI9
g0
(g102
g2
Ntp136
Rp137
(dp138
g106
g107
sg108
F14.67234911441334
sg109
F1.0
sg15
I9
sg110
g111
sbsI551
g0
(g102
g2
Ntp139
Rp140
(dp141
g106
g107
sg108
F-8.09860837101936
sg109
F1.0
sg15
I551
sg110
g111
sbsI610
g0
(g102
g2
Ntp142
Rp143
(dp144
g106
g107
sg108
F-2.856111485490976
sg109
F1.0
sg15
I610
sg110
g111
sbsI724
g0
(g102
g2
Ntp145
Rp146
(dp147
g106
g107
sg108
F-0.20184214701384695
sg109
F1.0
sg15
I724
sg110
g111
sbsI23
g0
(g102
g2
Ntp148
Rp149
(dp150
g106
g107
sg108
F-2.9981982281317627
sg109
F1.0
sg15
I23
sg110
g111
sbsI669
g0
(g102
g2
Ntp151
Rp152
(dp153
g106
S'relu'
p154
sg108
F2.369247472698609
sg109
F1.0
sg15
I669
sg110
g111
sbssg15
I122
sS'fitness'
p155
Nsb.