ccopy_reg
_reconstructor
p0
(cneat.genome
DefaultGenome
p1
c__builtin__
object
p2
Ntp3
Rp4
(dp5
S'connections'
p6
(dp7
(I189
I6
tp8
g0
(cneat.genes
DefaultConnectionGene
p9
g2
Ntp10
Rp11
(dp12
S'enabled'
p13
I01
sS'weight'
p14
F0.5516538179462477
sS'key'
p15
g8
sbs(I-5
I186
tp16
g0
(g9
g2
Ntp17
Rp18
(dp19
g13
I00
sg14
F2.7941630230672843
sg15
g16
sbs(I-2
I186
tp20
g0
(g9
g2
Ntp21
Rp22
(dp23
g13
I01
sg14
F0.8645623421011375
sg15
g20
sbs(I186
I1
tp24
g0
(g9
g2
Ntp25
Rp26
(dp27
g13
I01
sg14
F0.4085250925709034
sg15
g24
sbs(I6
I6
tp28
g0
(g9
g2
Ntp29
Rp30
(dp31
g13
I01
sg14
F1.5830055565592898
sg15
g28
sbs(I-9
I189
tp32
g0
(g9
g2
Ntp33
Rp34
(dp35
g13
I01
sg14
F0.5847499877847424
sg15
g32
sbs(I-3
I188
tp36
g0
(g9
g2
Ntp37
Rp38
(dp39
g13
I01
sg14
F-0.6040161526931884
sg15
g36
sbs(I189
I1
tp40
g0
(g9
g2
Ntp41
Rp42
(dp43
g13
I01
sg14
F1.0062052256836276
sg15
g40
sbs(I186
I5
tp44
g0
(g9
g2
Ntp45
Rp46
(dp47
g13
I00
sg14
F-1.402792629203585
sg15
g44
sbs(I-7
I437
tp48
g0
(g9
g2
Ntp49
Rp50
(dp51
g13
I01
sg14
F0.7870116399479663
sg15
g48
sbs(I-4
I186
tp52
g0
(g9
g2
Ntp53
Rp54
(dp55
g13
I01
sg14
F1.1275508093498443
sg15
g52
sbs(I188
I4
tp56
g0
(g9
g2
Ntp57
Rp58
(dp59
g13
I00
sg14
F0.2720310803488767
sg15
g56
sbs(I3
I3
tp60
g0
(g9
g2
Ntp61
Rp62
(dp63
g13
I00
sg14
F-1.7908743191000043
sg15
g60
sbs(I189
I9
tp64
g0
(g9
g2
Ntp65
Rp66
(dp67
g13
I01
sg14
F-0.36574777561038907
sg15
g64
sbs(I4
I4
tp68
g0
(g9
g2
Ntp69
Rp70
(dp71
g13
I01
sg14
F-0.6147930729063801
sg15
g68
sbs(I189
I0
tp72
g0
(g9
g2
Ntp73
Rp74
(dp75
g13
I01
sg14
F0.6543503956382846
sg15
g72
sbs(I-7
I186
tp76
g0
(g9
g2
Ntp77
Rp78
(dp79
g13
I01
sg14
F-1.5102107363679131
sg15
g76
sbs(I188
I1
tp80
g0
(g9
g2
Ntp81
Rp82
(dp83
g13
I00
sg14
F0.00019704799414108076
sg15
g80
sbs(I186
I6
tp84
g0
(g9
g2
Ntp85
Rp86
(dp87
g13
I01
sg14
F1.099811039387262
sg15
g84
sbs(I-3
I186
tp88
g0
(g9
g2
Ntp89
Rp90
(dp91
g13
I01
sg14
F-0.053882742907152226
sg15
g88
sbs(I188
I5
tp92
g0
(g9
g2
Ntp93
Rp94
(dp95
g13
I01
sg14
F0.25798501296192716
sg15
g92
sbs(I0
I0
tp96
g0
(g9
g2
Ntp97
Rp98
(dp99
g13
I00
sg14
F2.0619554156269992
sg15
g96
sbs(I189
I8
tp100
g0
(g9
g2
Ntp101
Rp102
(dp103
g13
I00
sg14
F-1.1010477087974573
sg15
g100
sbs(I-6
I186
tp104
g0
(g9
g2
Ntp105
Rp106
(dp107
g13
I01
sg14
F0.10084156503777608
sg15
g104
sbs(I-10
I186
tp108
g0
(g9
g2
Ntp109
Rp110
(dp111
g13
I00
sg14
F0.03677217912925346
sg15
g108
sbs(I186
I8
tp112
g0
(g9
g2
Ntp113
Rp114
(dp115
g13
I01
sg14
F1.0830192136641668
sg15
g112
sbs(I188
I188
tp116
g0
(g9
g2
Ntp117
Rp118
(dp119
g13
I01
sg14
F1.2822864234737155
sg15
g116
sbs(I189
I7
tp120
g0
(g9
g2
Ntp121
Rp122
(dp123
g13
I01
sg14
F-1.6729688648959176
sg15
g120
sbs(I-5
I188
tp124
g0
(g9
g2
Ntp125
Rp126
(dp127
g13
I00
sg14
F0.49225266113998706
sg15
g124
sbs(I-4
I188
tp128
g0
(g9
g2
Ntp129
Rp130
(dp131
g13
I01
sg14
F-0.20173998860892894
sg15
g128
sbs(I8
I8
tp132
g0
(g9
g2
Ntp133
Rp134
(dp135
g13
I01
sg14
F-1.6754263227217732
sg15
g132
sbs(I189
I2
tp136
g0
(g9
g2
Ntp137
Rp138
(dp139
g13
I01
sg14
F-1.4866504298026835
sg15
g136
sbs(I186
I4
tp140
g0
(g9
g2
Ntp141
Rp142
(dp143
g13
I01
sg14
F0.7334648920075709
sg15
g140
sbs(I186
I0
tp144
g0
(g9
g2
Ntp145
Rp146
(dp147
g13
I01
sg14
F-0.4680763429984387
sg15
g144
sbs(I-10
I188
tp148
g0
(g9
g2
Ntp149
Rp150
(dp151
g13
I01
sg14
F-0.9123936540700974
sg15
g148
sbssS'nodes'
p152
(dp153
I0
g0
(cneat.genes
DefaultNodeGene
p154
g2
Ntp155
Rp156
(dp157
S'activation'
p158
S'tanh'
p159
sS'bias'
p160
F-13.23668473321365
sS'response'
p161
F1.0
sg15
I0
sS'aggregation'
p162
S'sum'
p163
sbsI1
g0
(g154
g2
Ntp164
Rp165
(dp166
g158
g159
sg160
F5.860980247407822
sg161
F1.0
sg15
I1
sg162
g163
sbsI2
g0
(g154
g2
Ntp167
Rp168
(dp169
g158
g159
sg160
F-16.083543140267597
sg161
F1.0
sg15
I2
sg162
g163
sbsI3
g0
(g154
g2
Ntp170
Rp171
(dp172
g158
g159
sg160
F-6.308126317971832
sg161
F1.0
sg15
I3
sg162
g163
sbsI4
g0
(g154
g2
Ntp173
Rp174
(dp175
g158
g159
sg160
F10.844512967879183
sg161
F1.0
sg15
I4
sg162
g163
sbsI5
g0
(g154
g2
Ntp176
Rp177
(dp178
g158
g159
sg160
F-5.374235232329467
sg161
F1.0
sg15
I5
sg162
g163
sbsI6
g0
(g154
g2
Ntp179
Rp180
(dp181
g158
g159
sg160
F9.401757464370053
sg161
F1.0
sg15
I6
sg162
g163
sbsI7
g0
(g154
g2
Ntp182
Rp183
(dp184
g158
g159
sg160
F-2.227154394722224
sg161
F1.0
sg15
I7
sg162
g163
sbsI8
g0
(g154
g2
Ntp185
Rp186
(dp187
g158
g159
sg160
F-32.801926287959304
sg161
F1.0
sg15
I8
sg162
g163
sbsI9
g0
(g154
g2
Ntp188
Rp189
(dp190
g158
g159
sg160
F7.197531648249981
sg161
F1.0
sg15
I9
sg162
g163
sbsI437
g0
(g154
g2
Ntp191
Rp192
(dp193
g158
g159
sg160
F2.0788421290620596
sg161
F1.0
sg15
I437
sg162
g163
sbsI186
g0
(g154
g2
Ntp194
Rp195
(dp196
g158
g159
sg160
F-1.487182781746402
sg161
F1.0
sg15
I186
sg162
g163
sbsI188
g0
(g154
g2
Ntp197
Rp198
(dp199
g158
g159
sg160
F-9.606838019770612
sg161
F1.0
sg15
I188
sg162
g163
sbsI189
g0
(g154
g2
Ntp200
Rp201
(dp202
g158
g159
sg160
F14.799624351468996
sg161
F1.0
sg15
I189
sg162
g163
sbssg15
I122
sS'fitness'
p203
Nsb.