ccopy_reg
_reconstructor
p0
(cneat.genome
DefaultGenome
p1
c__builtin__
object
p2
Ntp3
Rp4
(dp5
S'connections'
p6
(dp7
(I24
I8
tp8
g0
(cneat.genes
DefaultConnectionGene
p9
g2
Ntp10
Rp11
(dp12
S'enabled'
p13
I01
sS'weight'
p14
F-1.1308908949351952
sS'key'
p15
g8
sbs(I263
I24
tp16
g0
(g9
g2
Ntp17
Rp18
(dp19
g13
I01
sg14
F1.995918059393144
sg15
g16
sbs(I24
I4
tp20
g0
(g9
g2
Ntp21
Rp22
(dp23
g13
I01
sg14
F0.6284668710314674
sg15
g20
sbs(I-10
I263
tp24
g0
(g9
g2
Ntp25
Rp26
(dp27
g13
I01
sg14
F-1.5433853479673052
sg15
g24
sbs(I100
I24
tp28
g0
(g9
g2
Ntp29
Rp30
(dp31
g13
I01
sg14
F-0.7116625514798925
sg15
g28
sbs(I24
I0
tp32
g0
(g9
g2
Ntp33
Rp34
(dp35
g13
I01
sg14
F-0.8672993259985705
sg15
g32
sbs(I-1
I24
tp36
g0
(g9
g2
Ntp37
Rp38
(dp39
g13
I00
sg14
F2.0282105730734417
sg15
g36
sbs(I24
I9
tp40
g0
(g9
g2
Ntp41
Rp42
(dp43
g13
I01
sg14
F-0.48476176497604545
sg15
g40
sbs(I-10
I24
tp44
g0
(g9
g2
Ntp45
Rp46
(dp47
g13
I00
sg14
F0.8144879990454901
sg15
g44
sbs(I-5
I24
tp48
g0
(g9
g2
Ntp49
Rp50
(dp51
g13
I01
sg14
F3.1527646577179587
sg15
g48
sbs(I24
I5
tp52
g0
(g9
g2
Ntp53
Rp54
(dp55
g13
I01
sg14
F-2.292521419878022
sg15
g52
sbs(I-2
I24
tp56
g0
(g9
g2
Ntp57
Rp58
(dp59
g13
I01
sg14
F-0.3783634261986621
sg15
g56
sbs(I-8
I24
tp60
g0
(g9
g2
Ntp61
Rp62
(dp63
g13
I00
sg14
F5.353839197271825
sg15
g60
sbs(I24
I1
tp64
g0
(g9
g2
Ntp65
Rp66
(dp67
g13
I01
sg14
F-0.7851896469546358
sg15
g64
sbs(I-9
I24
tp68
g0
(g9
g2
Ntp69
Rp70
(dp71
g13
I01
sg14
F2.026422824560145
sg15
g68
sbs(I-4
I24
tp72
g0
(g9
g2
Ntp73
Rp74
(dp75
g13
I00
sg14
F0.0548223679700518
sg15
g72
sbs(I24
I6
tp76
g0
(g9
g2
Ntp77
Rp78
(dp79
g13
I01
sg14
F-1.455700411519202
sg15
g76
sbs(I-7
I24
tp80
g0
(g9
g2
Ntp81
Rp82
(dp83
g13
I01
sg14
F1.3938528287446483
sg15
g80
sbs(I24
I2
tp84
g0
(g9
g2
Ntp85
Rp86
(dp87
g13
I01
sg14
F0.43201109195870624
sg15
g84
sbs(I-3
I24
tp88
g0
(g9
g2
Ntp89
Rp90
(dp91
g13
I01
sg14
F-2.610000885477366
sg15
g88
sbs(I-1
I100
tp92
g0
(g9
g2
Ntp93
Rp94
(dp95
g13
I00
sg14
F-0.272801515308253
sg15
g92
sbs(I-6
I24
tp96
g0
(g9
g2
Ntp97
Rp98
(dp99
g13
I00
sg14
F-2.1462759739714175
sg15
g96
sbs(I24
I7
tp100
g0
(g9
g2
Ntp101
Rp102
(dp103
g13
I01
sg14
F1.4362146259971835
sg15
g100
sbs(I24
I3
tp104
g0
(g9
g2
Ntp105
Rp106
(dp107
g13
I01
sg14
F1.0752352116593096
sg15
g104
sbs(I-9
I7
tp108
g0
(g9
g2
Ntp109
Rp110
(dp111
g13
I00
sg14
F0.9742470339115206
sg15
g108
sbssS'nodes'
p112
(dp113
I0
g0
(cneat.genes
DefaultNodeGene
p114
g2
Ntp115
Rp116
(dp117
S'activation'
p118
S'relu'
p119
sS'bias'
p120
F-3.9969910827708137
sS'response'
p121
F1.0
sg15
I0
sS'aggregation'
p122
S'sum'
p123
sbsI1
g0
(g114
g2
Ntp124
Rp125
(dp126
g118
g119
sg120
F-7.977149089716305
sg121
F1.0
sg15
I1
sg122
g123
sbsI2
g0
(g114
g2
Ntp127
Rp128
(dp129
g118
g119
sg120
F-1.594503017172443
sg121
F1.0
sg15
I2
sg122
g123
sbsI3
g0
(g114
g2
Ntp130
Rp131
(dp132
g118
g119
sg120
F-12.519011655336493
sg121
F1.0
sg15
I3
sg122
g123
sbsI4
g0
(g114
g2
Ntp133
Rp134
(dp135
g118
g119
sg120
F9.940764604803455
sg121
F1.0
sg15
I4
sg122
g123
sbsI5
g0
(g114
g2
Ntp136
Rp137
(dp138
g118
g119
sg120
F2.844296722628476
sg121
F1.0
sg15
I5
sg122
g123
sbsI6
g0
(g114
g2
Ntp139
Rp140
(dp141
g118
S'tanh'
p142
sg120
F9.575343645769383
sg121
F1.0
sg15
I6
sg122
g123
sbsI7
g0
(g114
g2
Ntp143
Rp144
(dp145
g118
g142
sg120
F-8.606841862701463
sg121
F1.0
sg15
I7
sg122
g123
sbsI8
g0
(g114
g2
Ntp146
Rp147
(dp148
g118
g119
sg120
F-16.56246311860566
sg121
F1.0
sg15
I8
sg122
g123
sbsI9
g0
(g114
g2
Ntp149
Rp150
(dp151
g118
g119
sg120
F9.624697248705214
sg121
F1.0
sg15
I9
sg122
g123
sbsI263
g0
(g114
g2
Ntp152
Rp153
(dp154
g118
g119
sg120
F11.831721790188933
sg121
F1.0
sg15
I263
sg122
g123
sbsI24
g0
(g114
g2
Ntp155
Rp156
(dp157
g118
g142
sg120
F5.40194856931104
sg121
F1.0
sg15
I24
sg122
g123
sbsI100
g0
(g114
g2
Ntp158
Rp159
(dp160
g118
g119
sg120
F-7.74186015146783
sg121
F1.0
sg15
I100
sg122
g123
sbssg15
I1228
sS'fitness'
p161
F-0.04197867735565053
sb.