ccopy_reg
_reconstructor
p0
(cneat.genome
DefaultGenome
p1
c__builtin__
object
p2
Ntp3
Rp4
(dp5
S'connections'
p6
(dp7
(I610
I7
tp8
g0
(cneat.genes
DefaultConnectionGene
p9
g2
Ntp10
Rp11
(dp12
S'enabled'
p13
I01
sS'weight'
p14
F-0.4840049143202539
sS'key'
p15
g8
sbs(I-2
I23
tp16
g0
(g9
g2
Ntp17
Rp18
(dp19
g13
I00
sg14
F2.3034717450963345
sg15
g16
sbs(I7
I7
tp20
g0
(g9
g2
Ntp21
Rp22
(dp23
g13
I01
sg14
F0.7153101698982876
sg15
g20
sbs(I23
I610
tp24
g0
(g9
g2
Ntp25
Rp26
(dp27
g13
I01
sg14
F-2.7193909892168535
sg15
g24
sbs(I23
I3
tp28
g0
(g9
g2
Ntp29
Rp30
(dp31
g13
I00
sg14
F-1.3180305130503338
sg15
g28
sbs(I-3
I3
tp32
g0
(g9
g2
Ntp33
Rp34
(dp35
g13
I00
sg14
F0.6272160914253722
sg15
g32
sbs(I23
I7
tp36
g0
(g9
g2
Ntp37
Rp38
(dp39
g13
I00
sg14
F0.37405225926119506
sg15
g36
sbs(I-5
I23
tp40
g0
(g9
g2
Ntp41
Rp42
(dp43
g13
I00
sg14
F0.41461725560151397
sg15
g40
sbs(I724
I23
tp44
g0
(g9
g2
Ntp45
Rp46
(dp47
g13
I01
sg14
F1.5060857806863517
sg15
g44
sbs(I-7
I7
tp48
g0
(g9
g2
Ntp49
Rp50
(dp51
g13
I01
sg14
F-0.4239442649890296
sg15
g48
sbs(I-10
I4
tp52
g0
(g9
g2
Ntp53
Rp54
(dp55
g13
I01
sg14
F0.13777430783082223
sg15
g52
sbs(I2
I2
tp56
g0
(g9
g2
Ntp57
Rp58
(dp59
g13
I01
sg14
F-0.17382601692536898
sg15
g56
sbs(I2
I551
tp60
g0
(g9
g2
Ntp61
Rp62
(dp63
g13
I01
sg14
F1.1219938716804398
sg15
g60
sbs(I-3
I669
tp64
g0
(g9
g2
Ntp65
Rp66
(dp67
g13
I00
sg14
F0.4279424637114936
sg15
g64
sbs(I669
I3
tp68
g0
(g9
g2
Ntp69
Rp70
(dp71
g13
I00
sg14
F-1.0437547376624734
sg15
g68
sbs(I23
I1
tp72
g0
(g9
g2
Ntp73
Rp74
(dp75
g13
I01
sg14
F0.12905887446419284
sg15
g72
sbs(I23
I5
tp76
g0
(g9
g2
Ntp77
Rp78
(dp79
g13
I01
sg14
F4.226320410288063
sg15
g76
sbs(I-2
I724
tp80
g0
(g9
g2
Ntp81
Rp82
(dp83
g13
I01
sg14
F0.8487355030737675
sg15
g80
sbs(I-1
I617
tp84
g0
(g9
g2
Ntp85
Rp86
(dp87
g13
I01
sg14
F-1.997514967372718
sg15
g84
sbs(I9
I9
tp88
g0
(g9
g2
Ntp89
Rp90
(dp91
g13
I01
sg14
F0.550797974358918
sg15
g88
sbs(I23
I9
tp92
g0
(g9
g2
Ntp93
Rp94
(dp95
g13
I01
sg14
F1.3295675348194305
sg15
g92
sbs(I8
I8
tp96
g0
(g9
g2
Ntp97
Rp98
(dp99
g13
I00
sg14
F0.18410726000661898
sg15
g96
sbs(I-7
I23
tp100
g0
(g9
g2
Ntp101
Rp102
(dp103
g13
I00
sg14
F-1.8493704923523275
sg15
g100
sbssS'nodes'
p104
(dp105
I0
g0
(cneat.genes
DefaultNodeGene
p106
g2
Ntp107
Rp108
(dp109
S'activation'
p110
S'tanh'
p111
sS'bias'
p112
F-4.717362545994336
sS'response'
p113
F1.0
sg15
I0
sS'aggregation'
p114
S'sum'
p115
sbsI1
g0
(g106
g2
Ntp116
Rp117
(dp118
g110
g111
sg112
F-16.994185172307812
sg113
F1.0
sg15
I1
sg114
g115
sbsI2
g0
(g106
g2
Ntp119
Rp120
(dp121
g110
g111
sg112
F0.2904851722721956
sg113
F1.0
sg15
I2
sg114
g115
sbsI3
g0
(g106
g2
Ntp122
Rp123
(dp124
g110
g111
sg112
F-0.9460459667075531
sg113
F1.0
sg15
I3
sg114
g115
sbsI4
g0
(g106
g2
Ntp125
Rp126
(dp127
g110
g111
sg112
F-9.411398862867658
sg113
F1.0
sg15
I4
sg114
g115
sbsI5
g0
(g106
g2
Ntp128
Rp129
(dp130
g110
g111
sg112
F-5.11293999771952
sg113
F1.0
sg15
I5
sg114
g115
sbsI6
g0
(g106
g2
Ntp131
Rp132
(dp133
g110
g111
sg112
F-13.28478953606776
sg113
F1.0
sg15
I6
sg114
g115
sbsI7
g0
(g106
g2
Ntp134
Rp135
(dp136
g110
g111
sg112
F4.60691004619656
sg113
F1.0
sg15
I7
sg114
g115
sbsI8
g0
(g106
g2
Ntp137
Rp138
(dp139
g110
g111
sg112
F-10.182168661475215
sg113
F1.0
sg15
I8
sg114
g115
sbsI9
g0
(g106
g2
Ntp140
Rp141
(dp142
g110
g111
sg112
F14.170823102682368
sg113
F1.0
sg15
I9
sg114
g115
sbsI551
g0
(g106
g2
Ntp143
Rp144
(dp145
g110
g111
sg112
F-3.17243746954996
sg113
F1.0
sg15
I551
sg114
g115
sbsI610
g0
(g106
g2
Ntp146
Rp147
(dp148
g110
g111
sg112
F-2.9114136651752243
sg113
F1.0
sg15
I610
sg114
g115
sbsI724
g0
(g106
g2
Ntp149
Rp150
(dp151
g110
g111
sg112
F11.42974982743684
sg113
F1.0
sg15
I724
sg114
g115
sbsI617
g0
(g106
g2
Ntp152
Rp153
(dp154
g110
g111
sg112
F13.232313825535035
sg113
F1.0
sg15
I617
sg114
g115
sbsI23
g0
(g106
g2
Ntp155
Rp156
(dp157
g110
g111
sg112
F-3.1801136634679508
sg113
F1.0
sg15
I23
sg114
g115
sbsI669
g0
(g106
g2
Ntp158
Rp159
(dp160
g110
S'relu'
p161
sg112
F3.0402418342294544
sg113
F1.0
sg15
I669
sg114
g115
sbssg15
I123
sS'fitness'
p162
Nsb.