ccopy_reg
_reconstructor
p0
(cneat.genome
DefaultGenome
p1
c__builtin__
object
p2
Ntp3
Rp4
(dp5
S'connections'
p6
(dp7
(I189
I6
tp8
g0
(cneat.genes
DefaultConnectionGene
p9
g2
Ntp10
Rp11
(dp12
S'enabled'
p13
I01
sS'weight'
p14
F1.3634374429577103
sS'key'
p15
g8
sbs(I-5
I186
tp16
g0
(g9
g2
Ntp17
Rp18
(dp19
g13
I00
sg14
F2.2165168610772885
sg15
g16
sbs(I-2
I186
tp20
g0
(g9
g2
Ntp21
Rp22
(dp23
g13
I01
sg14
F0.2866026764806248
sg15
g20
sbs(I186
I1
tp24
g0
(g9
g2
Ntp25
Rp26
(dp27
g13
I01
sg14
F0.4255063870783554
sg15
g24
sbs(I6
I6
tp28
g0
(g9
g2
Ntp29
Rp30
(dp31
g13
I01
sg14
F-1.6299357285553597
sg15
g28
sbs(I189
I1
tp32
g0
(g9
g2
Ntp33
Rp34
(dp35
g13
I01
sg14
F1.1462866242750798
sg15
g32
sbs(I186
I5
tp36
g0
(g9
g2
Ntp37
Rp38
(dp39
g13
I00
sg14
F-1.242638812751853
sg15
g36
sbs(I-7
I437
tp40
g0
(g9
g2
Ntp41
Rp42
(dp43
g13
I01
sg14
F0.25225139446629885
sg15
g40
sbs(I-4
I186
tp44
g0
(g9
g2
Ntp45
Rp46
(dp47
g13
I00
sg14
F0.174592367833345
sg15
g44
sbs(I3
I3
tp48
g0
(g9
g2
Ntp49
Rp50
(dp51
g13
I00
sg14
F-0.6203470432779071
sg15
g48
sbs(I189
I9
tp52
g0
(g9
g2
Ntp53
Rp54
(dp55
g13
I01
sg14
F-1.1111458621411618
sg15
g52
sbs(I4
I4
tp56
g0
(g9
g2
Ntp57
Rp58
(dp59
g13
I01
sg14
F0.04665689751878899
sg15
g56
sbs(I189
I0
tp60
g0
(g9
g2
Ntp61
Rp62
(dp63
g13
I01
sg14
F-0.6284942544094683
sg15
g60
sbs(I-7
I186
tp64
g0
(g9
g2
Ntp65
Rp66
(dp67
g13
I01
sg14
F-1.5387942184199674
sg15
g64
sbs(I186
I6
tp68
g0
(g9
g2
Ntp69
Rp70
(dp71
g13
I01
sg14
F1.2613613717721868
sg15
g68
sbs(I-3
I186
tp72
g0
(g9
g2
Ntp73
Rp74
(dp75
g13
I01
sg14
F-0.8501517385831661
sg15
g72
sbs(I0
I0
tp76
g0
(g9
g2
Ntp77
Rp78
(dp79
g13
I00
sg14
F1.3282267136803245
sg15
g76
sbs(I189
I8
tp80
g0
(g9
g2
Ntp81
Rp82
(dp83
g13
I01
sg14
F-1.2454388129585108
sg15
g80
sbs(I-6
I186
tp84
g0
(g9
g2
Ntp85
Rp86
(dp87
g13
I01
sg14
F-0.4113712024170507
sg15
g84
sbs(I-10
I186
tp88
g0
(g9
g2
Ntp89
Rp90
(dp91
g13
I00
sg14
F1.064385756601216
sg15
g88
sbs(I186
I8
tp92
g0
(g9
g2
Ntp93
Rp94
(dp95
g13
I01
sg14
F-0.0236424353897684
sg15
g92
sbs(I189
I7
tp96
g0
(g9
g2
Ntp97
Rp98
(dp99
g13
I01
sg14
F-1.4186937957177883
sg15
g96
sbs(I8
I8
tp100
g0
(g9
g2
Ntp101
Rp102
(dp103
g13
I01
sg14
F-0.7944927266714044
sg15
g100
sbs(I189
I2
tp104
g0
(g9
g2
Ntp105
Rp106
(dp107
g13
I01
sg14
F0.5325111212730113
sg15
g104
sbs(I186
I4
tp108
g0
(g9
g2
Ntp109
Rp110
(dp111
g13
I01
sg14
F0.8911171592782889
sg15
g108
sbs(I186
I0
tp112
g0
(g9
g2
Ntp113
Rp114
(dp115
g13
I01
sg14
F-0.3926718113768718
sg15
g112
sbssS'nodes'
p116
(dp117
I0
g0
(cneat.genes
DefaultNodeGene
p118
g2
Ntp119
Rp120
(dp121
S'activation'
p122
S'tanh'
p123
sS'bias'
p124
F-8.65930194494667
sS'response'
p125
F1.0
sg15
I0
sS'aggregation'
p126
S'sum'
p127
sbsI1
g0
(g118
g2
Ntp128
Rp129
(dp130
g122
g123
sg124
F5.622209908501167
sg125
F1.0
sg15
I1
sg126
g127
sbsI2
g0
(g118
g2
Ntp131
Rp132
(dp133
g122
g123
sg124
F-16.769285366258668
sg125
F1.0
sg15
I2
sg126
g127
sbsI3
g0
(g118
g2
Ntp134
Rp135
(dp136
g122
g123
sg124
F16.591488386061165
sg125
F1.0
sg15
I3
sg126
g127
sbsI4
g0
(g118
g2
Ntp137
Rp138
(dp139
g122
g123
sg124
F-12.717549664361595
sg125
F1.0
sg15
I4
sg126
g127
sbsI5
g0
(g118
g2
Ntp140
Rp141
(dp142
g122
g123
sg124
F-6.346762840958903
sg125
F1.0
sg15
I5
sg126
g127
sbsI6
g0
(g118
g2
Ntp143
Rp144
(dp145
g122
g123
sg124
F10.397827579956527
sg125
F1.0
sg15
I6
sg126
g127
sbsI7
g0
(g118
g2
Ntp146
Rp147
(dp148
g122
g123
sg124
F15.005174125049416
sg125
F1.0
sg15
I7
sg126
g127
sbsI8
g0
(g118
g2
Ntp149
Rp150
(dp151
g122
g123
sg124
F-32.715498632087375
sg125
F1.0
sg15
I8
sg126
g127
sbsI9
g0
(g118
g2
Ntp152
Rp153
(dp154
g122
g123
sg124
F7.858753260445808
sg125
F1.0
sg15
I9
sg126
g127
sbsI437
g0
(g118
g2
Ntp155
Rp156
(dp157
g122
g123
sg124
F1.9774217006051413
sg125
F1.0
sg15
I437
sg126
g127
sbsI186
g0
(g118
g2
Ntp158
Rp159
(dp160
g122
g123
sg124
F-15.646479393986564
sg125
F1.0
sg15
I186
sg126
g127
sbsI189
g0
(g118
g2
Ntp161
Rp162
(dp163
g122
g123
sg124
F14.445585419631902
sg125
F1.0
sg15
I189
sg126
g127
sbssg15
I123
sS'fitness'
p164
Nsb.