ccopy_reg
_reconstructor
p0
(cneat.genome
DefaultGenome
p1
c__builtin__
object
p2
Ntp3
Rp4
(dp5
S'connections'
p6
(dp7
(I86
I3
tp8
g0
(cneat.genes
DefaultConnectionGene
p9
g2
Ntp10
Rp11
(dp12
S'enabled'
p13
I01
sS'weight'
p14
F-1.5289279215037794
sS'key'
p15
g8
sbs(I-10
I86
tp16
g0
(g9
g2
Ntp17
Rp18
(dp19
g13
I01
sg14
F0.09825317216337778
sg15
g16
sbs(I-6
I86
tp20
g0
(g9
g2
Ntp21
Rp22
(dp23
g13
I01
sg14
F-1.4829937111838156
sg15
g20
sbs(I86
I4
tp24
g0
(g9
g2
Ntp25
Rp26
(dp27
g13
I01
sg14
F-1.2450908922699062
sg15
g24
sbs(I-7
I0
tp28
g0
(g9
g2
Ntp29
Rp30
(dp31
g13
I01
sg14
F-0.454603876966325
sg15
g28
sbs(I-1
I86
tp32
g0
(g9
g2
Ntp33
Rp34
(dp35
g13
I01
sg14
F0.8176660710599191
sg15
g32
sbs(I86
I0
tp36
g0
(g9
g2
Ntp37
Rp38
(dp39
g13
I00
sg14
F0.32424076523678225
sg15
g36
sbs(I-4
I86
tp40
g0
(g9
g2
Ntp41
Rp42
(dp43
g13
I00
sg14
F-1.0503058640824918
sg15
g40
sbs(I86
I5
tp44
g0
(g9
g2
Ntp45
Rp46
(dp47
g13
I01
sg14
F1.1962197226507447
sg15
g44
sbs(I-2
I86
tp48
g0
(g9
g2
Ntp49
Rp50
(dp51
g13
I00
sg14
F0.7766384361432468
sg15
g48
sbs(I86
I8
tp52
g0
(g9
g2
Ntp53
Rp54
(dp55
g13
I01
sg14
F-0.6455754884047497
sg15
g52
sbs(I-8
I86
tp56
g0
(g9
g2
Ntp57
Rp58
(dp59
g13
I01
sg14
F-1.459422975680543
sg15
g56
sbs(I86
I1
tp60
g0
(g9
g2
Ntp61
Rp62
(dp63
g13
I01
sg14
F0.6775134753519082
sg15
g60
sbs(I-3
I86
tp64
g0
(g9
g2
Ntp65
Rp66
(dp67
g13
I00
sg14
F0.4872580994816432
sg15
g64
sbs(I86
I9
tp68
g0
(g9
g2
Ntp69
Rp70
(dp71
g13
I00
sg14
F0.8076792668880509
sg15
g68
sbs(I86
I6
tp72
g0
(g9
g2
Ntp73
Rp74
(dp75
g13
I01
sg14
F-1.949209787068618
sg15
g72
sbs(I-7
I86
tp76
g0
(g9
g2
Ntp77
Rp78
(dp79
g13
I01
sg14
F-0.05512496023795177
sg15
g76
sbs(I86
I2
tp80
g0
(g9
g2
Ntp81
Rp82
(dp83
g13
I00
sg14
F1.988126715823067
sg15
g80
sbs(I86
I7
tp84
g0
(g9
g2
Ntp85
Rp86
(dp87
g13
I01
sg14
F0.9698373663410622
sg15
g84
sbs(I-5
I86
tp88
g0
(g9
g2
Ntp89
Rp90
(dp91
g13
I01
sg14
F1.5586462450079521
sg15
g88
sbssS'nodes'
p92
(dp93
I0
g0
(cneat.genes
DefaultNodeGene
p94
g2
Ntp95
Rp96
(dp97
S'activation'
p98
S'tanh'
p99
sS'bias'
p100
F2.9638554086726714
sS'response'
p101
F1.0
sg15
I0
sS'aggregation'
p102
S'sum'
p103
sbsI1
g0
(g94
g2
Ntp104
Rp105
(dp106
g98
S'relu'
p107
sg100
F24.201692279516223
sg101
F1.0
sg15
I1
sg102
g103
sbsI2
g0
(g94
g2
Ntp108
Rp109
(dp110
g98
g107
sg100
F7.476006972102688
sg101
F1.0
sg15
I2
sg102
g103
sbsI3
g0
(g94
g2
Ntp111
Rp112
(dp113
g98
g107
sg100
F-22.39374320121783
sg101
F1.0
sg15
I3
sg102
g103
sbsI4
g0
(g94
g2
Ntp114
Rp115
(dp116
g98
g107
sg100
F-4.75310635262171
sg101
F1.0
sg15
I4
sg102
g103
sbsI5
g0
(g94
g2
Ntp117
Rp118
(dp119
g98
g107
sg100
F13.131401695773025
sg101
F1.0
sg15
I5
sg102
g103
sbsI6
g0
(g94
g2
Ntp120
Rp121
(dp122
g98
g107
sg100
F3.4748682324862097
sg101
F1.0
sg15
I6
sg102
g103
sbsI7
g0
(g94
g2
Ntp123
Rp124
(dp125
g98
g107
sg100
F-5.02954140573482
sg101
F1.0
sg15
I7
sg102
g103
sbsI8
g0
(g94
g2
Ntp126
Rp127
(dp128
g98
g107
sg100
F6.737931828542822
sg101
F1.0
sg15
I8
sg102
g103
sbsI9
g0
(g94
g2
Ntp129
Rp130
(dp131
g98
g107
sg100
F-3.948392570204065
sg101
F1.0
sg15
I9
sg102
g103
sbsI86
g0
(g94
g2
Ntp132
Rp133
(dp134
g98
g107
sg100
F7.337149589479866
sg101
F1.0
sg15
I86
sg102
g103
sbssg15
I1235
sS'fitness'
p135
F0.18632995320601775
sb.