ccopy_reg
_reconstructor
p0
(cneat.genome
DefaultGenome
p1
c__builtin__
object
p2
Ntp3
Rp4
(dp5
S'connections'
p6
(dp7
(I86
I3
tp8
g0
(cneat.genes
DefaultConnectionGene
p9
g2
Ntp10
Rp11
(dp12
S'enabled'
p13
I01
sS'weight'
p14
F-0.32705178165510584
sS'key'
p15
g8
sbs(I-10
I86
tp16
g0
(g9
g2
Ntp17
Rp18
(dp19
g13
I00
sg14
F0.4921905612655026
sg15
g16
sbs(I-6
I86
tp20
g0
(g9
g2
Ntp21
Rp22
(dp23
g13
I01
sg14
F-1.7664032730386037
sg15
g20
sbs(I86
I4
tp24
g0
(g9
g2
Ntp25
Rp26
(dp27
g13
I01
sg14
F1.0686516505600183
sg15
g24
sbs(I-7
I0
tp28
g0
(g9
g2
Ntp29
Rp30
(dp31
g13
I01
sg14
F-0.6053962275071015
sg15
g28
sbs(I-2
I86
tp32
g0
(g9
g2
Ntp33
Rp34
(dp35
g13
I01
sg14
F1.0080770798101553
sg15
g32
sbs(I86
I0
tp36
g0
(g9
g2
Ntp37
Rp38
(dp39
g13
I00
sg14
F-1.2920966145416304
sg15
g36
sbs(I277
I86
tp40
g0
(g9
g2
Ntp41
Rp42
(dp43
g13
I01
sg14
F1.0085636274602257
sg15
g40
sbs(I-9
I86
tp44
g0
(g9
g2
Ntp45
Rp46
(dp47
g13
I01
sg14
F-0.6065123192592338
sg15
g44
sbs(I-4
I86
tp48
g0
(g9
g2
Ntp49
Rp50
(dp51
g13
I00
sg14
F-1.7678858231725691
sg15
g48
sbs(I86
I5
tp52
g0
(g9
g2
Ntp53
Rp54
(dp55
g13
I01
sg14
F0.43846901949980865
sg15
g52
sbs(I-1
I86
tp56
g0
(g9
g2
Ntp57
Rp58
(dp59
g13
I00
sg14
F0.9762908584991049
sg15
g56
sbs(I86
I8
tp60
g0
(g9
g2
Ntp61
Rp62
(dp63
g13
I01
sg14
F-2.0319356753200837
sg15
g60
sbs(I-8
I86
tp64
g0
(g9
g2
Ntp65
Rp66
(dp67
g13
I01
sg14
F-1.7480441148798882
sg15
g64
sbs(I86
I1
tp68
g0
(g9
g2
Ntp69
Rp70
(dp71
g13
I01
sg14
F0.2278798435926162
sg15
g68
sbs(I-1
I277
tp72
g0
(g9
g2
Ntp73
Rp74
(dp75
g13
I01
sg14
F0.9649685828110263
sg15
g72
sbs(I-3
I86
tp76
g0
(g9
g2
Ntp77
Rp78
(dp79
g13
I01
sg14
F1.342773858487252
sg15
g76
sbs(I86
I9
tp80
g0
(g9
g2
Ntp81
Rp82
(dp83
g13
I00
sg14
F0.5749152018358743
sg15
g80
sbs(I86
I6
tp84
g0
(g9
g2
Ntp85
Rp86
(dp87
g13
I01
sg14
F-1.1536581048008383
sg15
g84
sbs(I-7
I86
tp88
g0
(g9
g2
Ntp89
Rp90
(dp91
g13
I01
sg14
F0.21317974552247848
sg15
g88
sbs(I86
I2
tp92
g0
(g9
g2
Ntp93
Rp94
(dp95
g13
I01
sg14
F2.159387939066988
sg15
g92
sbs(I86
I7
tp96
g0
(g9
g2
Ntp97
Rp98
(dp99
g13
I01
sg14
F2.4691936821385876
sg15
g96
sbs(I-5
I86
tp100
g0
(g9
g2
Ntp101
Rp102
(dp103
g13
I01
sg14
F1.9546134089308524
sg15
g100
sbssS'nodes'
p104
(dp105
I0
g0
(cneat.genes
DefaultNodeGene
p106
g2
Ntp107
Rp108
(dp109
S'activation'
p110
S'tanh'
p111
sS'bias'
p112
F10.024938447200963
sS'response'
p113
F1.0
sg15
I0
sS'aggregation'
p114
S'sum'
p115
sbsI1
g0
(g106
g2
Ntp116
Rp117
(dp118
g110
S'relu'
p119
sg112
F24.948068026658998
sg113
F1.0
sg15
I1
sg114
g115
sbsI2
g0
(g106
g2
Ntp120
Rp121
(dp122
g110
g119
sg112
F3.630235166392027
sg113
F1.0
sg15
I2
sg114
g115
sbsI3
g0
(g106
g2
Ntp123
Rp124
(dp125
g110
g111
sg112
F-19.646794799866356
sg113
F1.0
sg15
I3
sg114
g115
sbsI4
g0
(g106
g2
Ntp126
Rp127
(dp128
g110
g119
sg112
F-4.910894512085546
sg113
F1.0
sg15
I4
sg114
g115
sbsI5
g0
(g106
g2
Ntp129
Rp130
(dp131
g110
g119
sg112
F-8.688512043120797
sg113
F1.0
sg15
I5
sg114
g115
sbsI6
g0
(g106
g2
Ntp132
Rp133
(dp134
g110
g119
sg112
F5.003142424911757
sg113
F1.0
sg15
I6
sg114
g115
sbsI7
g0
(g106
g2
Ntp135
Rp136
(dp137
g110
g119
sg112
F-4.48314712670983
sg113
F1.0
sg15
I7
sg114
g115
sbsI8
g0
(g106
g2
Ntp138
Rp139
(dp140
g110
g119
sg112
F7.195974390361753
sg113
F1.0
sg15
I8
sg114
g115
sbsI9
g0
(g106
g2
Ntp141
Rp142
(dp143
g110
g119
sg112
F-13.766674914038504
sg113
F1.0
sg15
I9
sg114
g115
sbsI277
g0
(g106
g2
Ntp144
Rp145
(dp146
g110
g119
sg112
F15.757742459891055
sg113
F1.0
sg15
I277
sg114
g115
sbsI86
g0
(g106
g2
Ntp147
Rp148
(dp149
g110
g119
sg112
F7.359573161939656
sg113
F1.0
sg15
I86
sg114
g115
sbssg15
I1236
sS'fitness'
p150
F0.19092184551921443
sb.