ccopy_reg
_reconstructor
p0
(cneat.genome
DefaultGenome
p1
c__builtin__
object
p2
Ntp3
Rp4
(dp5
S'connections'
p6
(dp7
(I332
I495
tp8
g0
(cneat.genes
DefaultConnectionGene
p9
g2
Ntp10
Rp11
(dp12
S'enabled'
p13
I01
sS'weight'
p14
F2.0834161194279
sS'key'
p15
g8
sbs(I332
I7
tp16
g0
(g9
g2
Ntp17
Rp18
(dp19
g13
I01
sg14
F1.5750202741338428
sg15
g16
sbs(I333
I6
tp20
g0
(g9
g2
Ntp21
Rp22
(dp23
g13
I01
sg14
F0.7043666232873523
sg15
g20
sbs(I757
I5
tp24
g0
(g9
g2
Ntp25
Rp26
(dp27
g13
I01
sg14
F-0.8765767641036282
sg15
g24
sbs(I-8
I332
tp28
g0
(g9
g2
Ntp29
Rp30
(dp31
g13
I01
sg14
F3.319522225306828
sg15
g28
sbs(I6
I332
tp32
g0
(g9
g2
Ntp33
Rp34
(dp35
g13
I01
sg14
F0.3466661710620053
sg15
g32
sbs(I-1
I332
tp36
g0
(g9
g2
Ntp37
Rp38
(dp39
g13
I01
sg14
F-1.215663705799428
sg15
g36
sbs(I3
I3
tp40
g0
(g9
g2
Ntp41
Rp42
(dp43
g13
I01
sg14
F-0.33099996034758744
sg15
g40
sbs(I-10
I333
tp44
g0
(g9
g2
Ntp45
Rp46
(dp47
g13
I01
sg14
F0.7227828733645171
sg15
g44
sbs(I332
I0
tp48
g0
(g9
g2
Ntp49
Rp50
(dp51
g13
I01
sg14
F-1.830081695664973
sg15
g48
sbs(I4
I4
tp52
g0
(g9
g2
Ntp53
Rp54
(dp55
g13
I01
sg14
F0.06216373616395644
sg15
g52
sbs(I333
I5
tp56
g0
(g9
g2
Ntp57
Rp58
(dp59
g13
I01
sg14
F0.6565654396664942
sg15
g56
sbs(I-7
I332
tp60
g0
(g9
g2
Ntp61
Rp62
(dp63
g13
I00
sg14
F-1.9910873382585146
sg15
g60
sbs(I-3
I333
tp64
g0
(g9
g2
Ntp65
Rp66
(dp67
g13
I01
sg14
F0.5740008238479599
sg15
g64
sbs(I-8
I695
tp68
g0
(g9
g2
Ntp69
Rp70
(dp71
g13
I01
sg14
F2.052142500329662
sg15
g68
sbs(I333
I757
tp72
g0
(g9
g2
Ntp73
Rp74
(dp75
g13
I01
sg14
F0.8900767812280929
sg15
g72
sbs(I333
I0
tp76
g0
(g9
g2
Ntp77
Rp78
(dp79
g13
I00
sg14
F-1.8971257922129419
sg15
g76
sbs(I0
I0
tp80
g0
(g9
g2
Ntp81
Rp82
(dp83
g13
I01
sg14
F3.141411244270994
sg15
g80
sbs(I332
I1
tp84
g0
(g9
g2
Ntp85
Rp86
(dp87
g13
I01
sg14
F0.1702118577458951
sg15
g84
sbs(I-2
I332
tp88
g0
(g9
g2
Ntp89
Rp90
(dp91
g13
I00
sg14
F0.3516655025020525
sg15
g88
sbs(I-4
I744
tp92
g0
(g9
g2
Ntp93
Rp94
(dp95
g13
I01
sg14
F3.3632747710684967
sg15
g92
sbs(I332
I5
tp96
g0
(g9
g2
Ntp97
Rp98
(dp99
g13
I00
sg14
F0.9624066856009426
sg15
g96
sbs(I-3
I332
tp100
g0
(g9
g2
Ntp101
Rp102
(dp103
g13
I01
sg14
F-1.458477041301974
sg15
g100
sbs(I744
I8
tp104
g0
(g9
g2
Ntp105
Rp106
(dp107
g13
I01
sg14
F-0.86968308108285
sg15
g104
sbs(I332
I9
tp108
g0
(g9
g2
Ntp109
Rp110
(dp111
g13
I01
sg14
F-1.241771076572231
sg15
g108
sbs(I-6
I332
tp112
g0
(g9
g2
Ntp113
Rp114
(dp115
g13
I01
sg14
F0.07472262298312327
sg15
g112
sbs(I5
I5
tp116
g0
(g9
g2
Ntp117
Rp118
(dp119
g13
I01
sg14
F0.09183307915377315
sg15
g116
sbs(I8
I332
tp120
g0
(g9
g2
Ntp121
Rp122
(dp123
g13
I01
sg14
F-0.7190605573663507
sg15
g120
sbs(I332
I6
tp124
g0
(g9
g2
Ntp125
Rp126
(dp127
g13
I01
sg14
F-0.8264369060383961
sg15
g124
sbs(I-4
I8
tp128
g0
(g9
g2
Ntp129
Rp130
(dp131
g13
I01
sg14
F-1.606738107276249
sg15
g128
sbs(I333
I7
tp132
g0
(g9
g2
Ntp133
Rp134
(dp135
g13
I01
sg14
F0.19684516379779196
sg15
g132
sbs(I540
I0
tp136
g0
(g9
g2
Ntp137
Rp138
(dp139
g13
I01
sg14
F-0.2178284122026441
sg15
g136
sbs(I495
I5
tp140
g0
(g9
g2
Ntp141
Rp142
(dp143
g13
I01
sg14
F-1.9482337155090557
sg15
g140
sbs(I332
I3
tp144
g0
(g9
g2
Ntp145
Rp146
(dp147
g13
I01
sg14
F3.9095863308478274
sg15
g144
sbssS'nodes'
p148
(dp149
I0
g0
(cneat.genes
DefaultNodeGene
p150
g2
Ntp151
Rp152
(dp153
S'activation'
p154
S'tanh'
p155
sS'bias'
p156
F5.567533817707745
sS'response'
p157
F1.0
sg15
I0
sS'aggregation'
p158
S'sum'
p159
sbsI1
g0
(g150
g2
Ntp160
Rp161
(dp162
g154
g155
sg156
F0.06609763261604953
sg157
F1.0
sg15
I1
sg158
g159
sbsI2
g0
(g150
g2
Ntp163
Rp164
(dp165
g154
g155
sg156
F19.477461659378193
sg157
F1.0
sg15
I2
sg158
g159
sbsI3
g0
(g150
g2
Ntp166
Rp167
(dp168
g154
g155
sg156
F3.659418460341942
sg157
F1.0
sg15
I3
sg158
g159
sbsI4
g0
(g150
g2
Ntp169
Rp170
(dp171
g154
g155
sg156
F-5.070148199998678
sg157
F1.0
sg15
I4
sg158
g159
sbsI5
g0
(g150
g2
Ntp172
Rp173
(dp174
g154
g155
sg156
F8.476664151695768
sg157
F1.0
sg15
I5
sg158
g159
sbsI6
g0
(g150
g2
Ntp175
Rp176
(dp177
g154
g155
sg156
F13.262439830112063
sg157
F1.0
sg15
I6
sg158
g159
sbsI7
g0
(g150
g2
Ntp178
Rp179
(dp180
g154
g155
sg156
F-6.425113128731673
sg157
F1.0
sg15
I7
sg158
g159
sbsI8
g0
(g150
g2
Ntp181
Rp182
(dp183
g154
g155
sg156
F7.806059059518569
sg157
F1.0
sg15
I8
sg158
g159
sbsI9
g0
(g150
g2
Ntp184
Rp185
(dp186
g154
g155
sg156
F8.723332972701987
sg157
F1.0
sg15
I9
sg158
g159
sbsI332
g0
(g150
g2
Ntp187
Rp188
(dp189
g154
g155
sg156
F-4.483497469737348
sg157
F1.0
sg15
I332
sg158
g159
sbsI333
g0
(g150
g2
Ntp190
Rp191
(dp192
g154
g155
sg156
F-2.42210933408484
sg157
F1.0
sg15
I333
sg158
g159
sbsI495
g0
(g150
g2
Ntp193
Rp194
(dp195
g154
g155
sg156
F7.971479159638794
sg157
F1.0
sg15
I495
sg158
g159
sbsI744
g0
(g150
g2
Ntp196
Rp197
(dp198
g154
S'relu'
p199
sg156
F-2.394547729824495
sg157
F1.0
sg15
I744
sg158
g159
sbsI757
g0
(g150
g2
Ntp200
Rp201
(dp202
g154
g199
sg156
F-8.21908769077092
sg157
F1.0
sg15
I757
sg158
g159
sbsI695
g0
(g150
g2
Ntp203
Rp204
(dp205
g154
g155
sg156
F5.0402849510412215
sg157
F1.0
sg15
I695
sg158
g159
sbsI540
g0
(g150
g2
Ntp206
Rp207
(dp208
g154
g155
sg156
F4.747490905318849
sg157
F1.0
sg15
I540
sg158
g159
sbssg15
I124
sS'fitness'
p209
Nsb.