ccopy_reg
_reconstructor
p0
(cneat.genome
DefaultGenome
p1
c__builtin__
object
p2
Ntp3
Rp4
(dp5
S'connections'
p6
(dp7
(I23
I4
tp8
g0
(cneat.genes
DefaultConnectionGene
p9
g2
Ntp10
Rp11
(dp12
S'enabled'
p13
I01
sS'weight'
p14
F0.8109970978407258
sS'key'
p15
g8
sbs(I24
I8
tp16
g0
(g9
g2
Ntp17
Rp18
(dp19
g13
I00
sg14
F-1.3506887056629078
sg15
g16
sbs(I-2
I23
tp20
g0
(g9
g2
Ntp21
Rp22
(dp23
g13
I01
sg14
F4.076047310062506
sg15
g20
sbs(I7
I7
tp24
g0
(g9
g2
Ntp25
Rp26
(dp27
g13
I01
sg14
F2.946681192483111
sg15
g24
sbs(I24
I4
tp28
g0
(g9
g2
Ntp29
Rp30
(dp31
g13
I01
sg14
F-0.21228854724363722
sg15
g28
sbs(I23
I3
tp32
g0
(g9
g2
Ntp33
Rp34
(dp35
g13
I01
sg14
F2.050149112764048
sg15
g32
sbs(I22
I9
tp36
g0
(g9
g2
Ntp37
Rp38
(dp39
g13
I01
sg14
F-1.1547779015554511
sg15
g36
sbs(I-2
I22
tp40
g0
(g9
g2
Ntp41
Rp42
(dp43
g13
I01
sg14
F-1.8492624791454675
sg15
g40
sbs(I20
I8
tp44
g0
(g9
g2
Ntp45
Rp46
(dp47
g13
I01
sg14
F2.134717035186547
sg15
g44
sbs(I24
I0
tp48
g0
(g9
g2
Ntp49
Rp50
(dp51
g13
I00
sg14
F0.4047075007511538
sg15
g48
sbs(I-7
I22
tp52
g0
(g9
g2
Ntp53
Rp54
(dp55
g13
I01
sg14
F-0.5242940953672861
sg15
g52
sbs(I23
I7
tp56
g0
(g9
g2
Ntp57
Rp58
(dp59
g13
I01
sg14
F-0.28824052761829094
sg15
g56
sbs(I-10
I21
tp60
g0
(g9
g2
Ntp61
Rp62
(dp63
g13
I01
sg14
F1.5822908597210301
sg15
g60
sbs(I24
I9
tp64
g0
(g9
g2
Ntp65
Rp66
(dp67
g13
I01
sg14
F-0.8379392089731769
sg15
g64
sbs(I-5
I23
tp68
g0
(g9
g2
Ntp69
Rp70
(dp71
g13
I01
sg14
F0.13801787400187315
sg15
g68
sbs(I-6
I21
tp72
g0
(g9
g2
Ntp73
Rp74
(dp75
g13
I01
sg14
F0.28047616392062313
sg15
g72
sbs(I3
I3
tp76
g0
(g9
g2
Ntp77
Rp78
(dp79
g13
I00
sg14
F-1.2888285665964259
sg15
g76
sbs(I-5
I24
tp80
g0
(g9
g2
Ntp81
Rp82
(dp83
g13
I01
sg14
F0.4785133730919624
sg15
g80
sbs(I-1
I20
tp84
g0
(g9
g2
Ntp85
Rp86
(dp87
g13
I01
sg14
F-0.023435936060090645
sg15
g84
sbs(I-10
I9
tp88
g0
(g9
g2
Ntp89
Rp90
(dp91
g13
I01
sg14
F-0.42005907556558236
sg15
g88
sbs(I22
I0
tp92
g0
(g9
g2
Ntp93
Rp94
(dp95
g13
I01
sg14
F-2.7197836436174208
sg15
g92
sbs(I-9
I20
tp96
g0
(g9
g2
Ntp97
Rp98
(dp99
g13
I00
sg14
F2.168302393918446
sg15
g96
sbs(I-8
I24
tp100
g0
(g9
g2
Ntp101
Rp102
(dp103
g13
I01
sg14
F1.1000418600466833
sg15
g100
sbs(I2
I2
tp104
g0
(g9
g2
Ntp105
Rp106
(dp107
g13
I00
sg14
F-0.96053393555937
sg15
g104
sbs(I24
I1
tp108
g0
(g9
g2
Ntp109
Rp110
(dp111
g13
I01
sg14
F-0.3476491967898014
sg15
g108
sbs(I22
I7
tp112
g0
(g9
g2
Ntp113
Rp114
(dp115
g13
I01
sg14
F0.2986849148184607
sg15
g112
sbs(I-9
I24
tp116
g0
(g9
g2
Ntp117
Rp118
(dp119
g13
I00
sg14
F1.6286460198452826
sg15
g116
sbs(I-5
I22
tp120
g0
(g9
g2
Ntp121
Rp122
(dp123
g13
I01
sg14
F0.010248375800139986
sg15
g120
sbs(I-6
I22
tp124
g0
(g9
g2
Ntp125
Rp126
(dp127
g13
I01
sg14
F-0.21213858896458881
sg15
g124
sbs(I-2
I21
tp128
g0
(g9
g2
Ntp129
Rp130
(dp131
g13
I01
sg14
F-0.262174772802007
sg15
g128
sbs(I-10
I22
tp132
g0
(g9
g2
Ntp133
Rp134
(dp135
g13
I01
sg14
F0.595492238683663
sg15
g132
sbs(I-3
I20
tp136
g0
(g9
g2
Ntp137
Rp138
(dp139
g13
I00
sg14
F0.011375074430948894
sg15
g136
sbs(I23
I9
tp140
g0
(g9
g2
Ntp141
Rp142
(dp143
g13
I01
sg14
F1.355101807912351
sg15
g140
sbs(I22
I4
tp144
g0
(g9
g2
Ntp145
Rp146
(dp147
g13
I01
sg14
F-1.1555310912021286
sg15
g144
sbs(I21
I4
tp148
g0
(g9
g2
Ntp149
Rp150
(dp151
g13
I01
sg14
F0.6020768740693131
sg15
g148
sbs(I504
I8
tp152
g0
(g9
g2
Ntp153
Rp154
(dp155
g13
I01
sg14
F0.3201494808187256
sg15
g152
sbs(I24
I2
tp156
g0
(g9
g2
Ntp157
Rp158
(dp159
g13
I01
sg14
F-0.3372776710302625
sg15
g156
sbs(I-7
I20
tp160
g0
(g9
g2
Ntp161
Rp162
(dp163
g13
I01
sg14
F-1.0967475306958672
sg15
g160
sbs(I23
I1
tp164
g0
(g9
g2
Ntp165
Rp166
(dp167
g13
I01
sg14
F-1.0438470303261216
sg15
g164
sbs(I21
I0
tp168
g0
(g9
g2
Ntp169
Rp170
(dp171
g13
I00
sg14
F-1.2557336300675772
sg15
g168
sbs(I-8
I21
tp172
g0
(g9
g2
Ntp173
Rp174
(dp175
g13
I01
sg14
F-0.3009731206081079
sg15
g172
sbs(I22
I20
tp176
g0
(g9
g2
Ntp177
Rp178
(dp179
g13
I01
sg14
F0.5063722239258004
sg15
g176
sbs(I-6
I24
tp180
g0
(g9
g2
Ntp181
Rp182
(dp183
g13
I01
sg14
F-0.7665296427274291
sg15
g180
sbs(I23
I5
tp184
g0
(g9
g2
Ntp185
Rp186
(dp187
g13
I01
sg14
F0.729022762215171
sg15
g184
sbs(I-10
I23
tp188
g0
(g9
g2
Ntp189
Rp190
(dp191
g13
I01
sg14
F0.4240319879708722
sg15
g188
sbs(I24
I7
tp192
g0
(g9
g2
Ntp193
Rp194
(dp195
g13
I01
sg14
F-1.1562672064500168
sg15
g192
sbs(I21
I9
tp196
g0
(g9
g2
Ntp197
Rp198
(dp199
g13
I01
sg14
F1.241954666944216
sg15
g196
sbs(I20
I2
tp200
g0
(g9
g2
Ntp201
Rp202
(dp203
g13
I01
sg14
F-0.42011029375652775
sg15
g200
sbs(I20
I5
tp204
g0
(g9
g2
Ntp205
Rp206
(dp207
g13
I01
sg14
F1.81056779489338
sg15
g204
sbs(I-1
I21
tp208
g0
(g9
g2
Ntp209
Rp210
(dp211
g13
I01
sg14
F0.2524542932692215
sg15
g208
sbs(I-7
I0
tp212
g0
(g9
g2
Ntp213
Rp214
(dp215
g13
I01
sg14
F0.42793032161432737
sg15
g212
sbs(I-1
I22
tp216
g0
(g9
g2
Ntp217
Rp218
(dp219
g13
I01
sg14
F1.1044052252013277
sg15
g216
sbs(I24
I3
tp220
g0
(g9
g2
Ntp221
Rp222
(dp223
g13
I01
sg14
F-0.045944908484495284
sg15
g220
sbs(I8
I8
tp224
g0
(g9
g2
Ntp225
Rp226
(dp227
g13
I01
sg14
F-0.7923710854360363
sg15
g224
sbs(I24
I504
tp228
g0
(g9
g2
Ntp229
Rp230
(dp231
g13
I01
sg14
F-0.1891036383825901
sg15
g228
sbs(I22
I8
tp232
g0
(g9
g2
Ntp233
Rp234
(dp235
g13
I01
sg14
F1.7770505624399762
sg15
g232
sbs(I-4
I22
tp236
g0
(g9
g2
Ntp237
Rp238
(dp239
g13
I01
sg14
F0.028097245868663134
sg15
g236
sbs(I21
I7
tp240
g0
(g9
g2
Ntp241
Rp242
(dp243
g13
I01
sg14
F-0.680999019285318
sg15
g240
sbs(I-7
I23
tp244
g0
(g9
g2
Ntp245
Rp246
(dp247
g13
I01
sg14
F0.5604175804397025
sg15
g244
sbssS'nodes'
p248
(dp249
I0
g0
(cneat.genes
DefaultNodeGene
p250
g2
Ntp251
Rp252
(dp253
S'activation'
p254
S'tanh'
p255
sS'bias'
p256
F-0.9184955285742012
sS'response'
p257
F1.0
sg15
I0
sS'aggregation'
p258
S'sum'
p259
sbsI1
g0
(g250
g2
Ntp260
Rp261
(dp262
g254
g255
sg256
F-17.15607083063449
sg257
F1.0
sg15
I1
sg258
g259
sbsI2
g0
(g250
g2
Ntp263
Rp264
(dp265
g254
S'relu'
p266
sg256
F-14.152981198052517
sg257
F1.0
sg15
I2
sg258
g259
sbsI3
g0
(g250
g2
Ntp267
Rp268
(dp269
g254
g255
sg256
F14.197241887879818
sg257
F1.0
sg15
I3
sg258
g259
sbsI4
g0
(g250
g2
Ntp270
Rp271
(dp272
g254
g255
sg256
F12.349763252415991
sg257
F1.0
sg15
I4
sg258
g259
sbsI5
g0
(g250
g2
Ntp273
Rp274
(dp275
g254
g255
sg256
F5.4662482658108456
sg257
F1.0
sg15
I5
sg258
g259
sbsI6
g0
(g250
g2
Ntp276
Rp277
(dp278
g254
g255
sg256
F-0.8501089166842745
sg257
F1.0
sg15
I6
sg258
g259
sbsI7
g0
(g250
g2
Ntp279
Rp280
(dp281
g254
g255
sg256
F10.229606883036068
sg257
F1.0
sg15
I7
sg258
g259
sbsI8
g0
(g250
g2
Ntp282
Rp283
(dp284
g254
g255
sg256
F4.40678344771113
sg257
F1.0
sg15
I8
sg258
g259
sbsI9
g0
(g250
g2
Ntp285
Rp286
(dp287
g254
g255
sg256
F0.9925620368950405
sg257
F1.0
sg15
I9
sg258
g259
sbsI504
g0
(g250
g2
Ntp288
Rp289
(dp290
g254
g255
sg256
F0.8054445596440468
sg257
F1.0
sg15
I504
sg258
g259
sbsI20
g0
(g250
g2
Ntp291
Rp292
(dp293
g254
g266
sg256
F-12.850988318648136
sg257
F1.0
sg15
I20
sg258
g259
sbsI21
g0
(g250
g2
Ntp294
Rp295
(dp296
g254
g255
sg256
F-7.156519257709355
sg257
F1.0
sg15
I21
sg258
g259
sbsI22
g0
(g250
g2
Ntp297
Rp298
(dp299
g254
g255
sg256
F-14.222964173601506
sg257
F1.0
sg15
I22
sg258
g259
sbsI23
g0
(g250
g2
Ntp300
Rp301
(dp302
g254
g255
sg256
F7.621621978167522
sg257
F1.0
sg15
I23
sg258
g259
sbsI24
g0
(g250
g2
Ntp303
Rp304
(dp305
g254
g255
sg256
F7.902643497794945
sg257
F1.0
sg15
I24
sg258
g259
sbssg15
I124
sS'fitness'
p306
Nsb.