ccopy_reg
_reconstructor
p0
(cneat.genome
DefaultGenome
p1
c__builtin__
object
p2
Ntp3
Rp4
(dp5
S'connections'
p6
(dp7
(I332
I495
tp8
g0
(cneat.genes
DefaultConnectionGene
p9
g2
Ntp10
Rp11
(dp12
S'enabled'
p13
I01
sS'weight'
p14
F0.31065451363689195
sS'key'
p15
g8
sbs(I332
I7
tp16
g0
(g9
g2
Ntp17
Rp18
(dp19
g13
I01
sg14
F1.1318459087437864
sg15
g16
sbs(I333
I5
tp20
g0
(g9
g2
Ntp21
Rp22
(dp23
g13
I01
sg14
F-0.795088349571627
sg15
g20
sbs(I776
I9
tp24
g0
(g9
g2
Ntp25
Rp26
(dp27
g13
I00
sg14
F-0.8100053434536065
sg15
g24
sbs(I-8
I332
tp28
g0
(g9
g2
Ntp29
Rp30
(dp31
g13
I01
sg14
F-2.0019853723858256
sg15
g28
sbs(I-1
I332
tp32
g0
(g9
g2
Ntp33
Rp34
(dp35
g13
I01
sg14
F1.1634070274723045
sg15
g32
sbs(I3
I3
tp36
g0
(g9
g2
Ntp37
Rp38
(dp39
g13
I01
sg14
F-1.2035553291905645
sg15
g36
sbs(I-10
I333
tp40
g0
(g9
g2
Ntp41
Rp42
(dp43
g13
I01
sg14
F-1.0470822900537984
sg15
g40
sbs(I332
I0
tp44
g0
(g9
g2
Ntp45
Rp46
(dp47
g13
I01
sg14
F-0.6836844518589827
sg15
g44
sbs(I-3
I730
tp48
g0
(g9
g2
Ntp49
Rp50
(dp51
g13
I01
sg14
F1.4921926198497861
sg15
g48
sbs(I4
I4
tp52
g0
(g9
g2
Ntp53
Rp54
(dp55
g13
I01
sg14
F-0.7256596124622589
sg15
g52
sbs(I-7
I332
tp56
g0
(g9
g2
Ntp57
Rp58
(dp59
g13
I00
sg14
F1.4993333476988484
sg15
g56
sbs(I-3
I333
tp60
g0
(g9
g2
Ntp61
Rp62
(dp63
g13
I00
sg14
F3.2991217060619404
sg15
g60
sbs(I-8
I695
tp64
g0
(g9
g2
Ntp65
Rp66
(dp67
g13
I01
sg14
F-0.03324926746232548
sg15
g64
sbs(I333
I0
tp68
g0
(g9
g2
Ntp69
Rp70
(dp71
g13
I00
sg14
F0.20666650599626762
sg15
g68
sbs(I0
I0
tp72
g0
(g9
g2
Ntp73
Rp74
(dp75
g13
I01
sg14
F1.9362353436648179
sg15
g72
sbs(I332
I1
tp76
g0
(g9
g2
Ntp77
Rp78
(dp79
g13
I01
sg14
F-0.8491305296360835
sg15
g76
sbs(I-2
I332
tp80
g0
(g9
g2
Ntp81
Rp82
(dp83
g13
I00
sg14
F-0.5472096836079634
sg15
g80
sbs(I333
I4
tp84
g0
(g9
g2
Ntp85
Rp86
(dp87
g13
I01
sg14
F1.8570938915427053
sg15
g84
sbs(I332
I5
tp88
g0
(g9
g2
Ntp89
Rp90
(dp91
g13
I00
sg14
F2.2227833188897
sg15
g88
sbs(I-3
I332
tp92
g0
(g9
g2
Ntp93
Rp94
(dp95
g13
I01
sg14
F-0.42559250479540317
sg15
g92
sbs(I730
I333
tp96
g0
(g9
g2
Ntp97
Rp98
(dp99
g13
I01
sg14
F0.8415029516906287
sg15
g96
sbs(I495
I5
tp100
g0
(g9
g2
Ntp101
Rp102
(dp103
g13
I01
sg14
F-0.3272841763644837
sg15
g100
sbs(I332
I9
tp104
g0
(g9
g2
Ntp105
Rp106
(dp107
g13
I00
sg14
F-0.5282006408923654
sg15
g104
sbs(I-6
I332
tp108
g0
(g9
g2
Ntp109
Rp110
(dp111
g13
I01
sg14
F-0.5111914510223292
sg15
g108
sbs(I5
I5
tp112
g0
(g9
g2
Ntp113
Rp114
(dp115
g13
I01
sg14
F0.9672273786302714
sg15
g112
sbs(I8
I332
tp116
g0
(g9
g2
Ntp117
Rp118
(dp119
g13
I01
sg14
F-2.19613720787207
sg15
g116
sbs(I332
I6
tp120
g0
(g9
g2
Ntp121
Rp122
(dp123
g13
I01
sg14
F-0.12213790853354156
sg15
g120
sbs(I-4
I8
tp124
g0
(g9
g2
Ntp125
Rp126
(dp127
g13
I01
sg14
F0.6531375348644487
sg15
g124
sbs(I333
I7
tp128
g0
(g9
g2
Ntp129
Rp130
(dp131
g13
I01
sg14
F-0.9392949832007794
sg15
g128
sbs(I-2
I333
tp132
g0
(g9
g2
Ntp133
Rp134
(dp135
g13
I01
sg14
F-0.3168929217917946
sg15
g132
sbs(I333
I6
tp136
g0
(g9
g2
Ntp137
Rp138
(dp139
g13
I01
sg14
F1.284721460536982
sg15
g136
sbs(I540
I0
tp140
g0
(g9
g2
Ntp141
Rp142
(dp143
g13
I01
sg14
F-1.2781473608075742
sg15
g140
sbs(I332
I776
tp144
g0
(g9
g2
Ntp145
Rp146
(dp147
g13
I01
sg14
F1.3939810298403255
sg15
g144
sbs(I332
I3
tp148
g0
(g9
g2
Ntp149
Rp150
(dp151
g13
I01
sg14
F2.65650621491375
sg15
g148
sbssS'nodes'
p152
(dp153
I0
g0
(cneat.genes
DefaultNodeGene
p154
g2
Ntp155
Rp156
(dp157
S'activation'
p158
S'tanh'
p159
sS'bias'
p160
F4.474614306095986
sS'response'
p161
F1.0
sg15
I0
sS'aggregation'
p162
S'sum'
p163
sbsI1
g0
(g154
g2
Ntp164
Rp165
(dp166
g158
g159
sg160
F-13.363268179848152
sg161
F1.0
sg15
I1
sg162
g163
sbsI2
g0
(g154
g2
Ntp167
Rp168
(dp169
g158
g159
sg160
F21.021652058890748
sg161
F1.0
sg15
I2
sg162
g163
sbsI3
g0
(g154
g2
Ntp170
Rp171
(dp172
g158
g159
sg160
F-8.413535402732993
sg161
F1.0
sg15
I3
sg162
g163
sbsI4
g0
(g154
g2
Ntp173
Rp174
(dp175
g158
g159
sg160
F-5.966839849088124
sg161
F1.0
sg15
I4
sg162
g163
sbsI5
g0
(g154
g2
Ntp176
Rp177
(dp178
g158
g159
sg160
F3.084215957452266
sg161
F1.0
sg15
I5
sg162
g163
sbsI6
g0
(g154
g2
Ntp179
Rp180
(dp181
g158
g159
sg160
F14.302630860673608
sg161
F1.0
sg15
I6
sg162
g163
sbsI7
g0
(g154
g2
Ntp182
Rp183
(dp184
g158
g159
sg160
F24.597184484267093
sg161
F1.0
sg15
I7
sg162
g163
sbsI8
g0
(g154
g2
Ntp185
Rp186
(dp187
g158
g159
sg160
F8.992362292123484
sg161
F1.0
sg15
I8
sg162
g163
sbsI9
g0
(g154
g2
Ntp188
Rp189
(dp190
g158
g159
sg160
F4.5900359853323325
sg161
F1.0
sg15
I9
sg162
g163
sbsI332
g0
(g154
g2
Ntp191
Rp192
(dp193
g158
g159
sg160
F-4.782399559325123
sg161
F1.0
sg15
I332
sg162
g163
sbsI333
g0
(g154
g2
Ntp194
Rp195
(dp196
g158
g159
sg160
F-2.797754952085761
sg161
F1.0
sg15
I333
sg162
g163
sbsI495
g0
(g154
g2
Ntp197
Rp198
(dp199
g158
g159
sg160
F8.19495236545347
sg161
F1.0
sg15
I495
sg162
g163
sbsI776
g0
(g154
g2
Ntp200
Rp201
(dp202
g158
S'relu'
p203
sg160
F2.353536108904497
sg161
F1.0
sg15
I776
sg162
g163
sbsI790
g0
(g154
g2
Ntp204
Rp205
(dp206
g158
g159
sg160
F-7.109982515761849
sg161
F1.0
sg15
I790
sg162
g163
sbsI695
g0
(g154
g2
Ntp207
Rp208
(dp209
g158
g159
sg160
F-12.49653024702594
sg161
F1.0
sg15
I695
sg162
g163
sbsI730
g0
(g154
g2
Ntp210
Rp211
(dp212
g158
g203
sg160
F-18.742782001162062
sg161
F1.0
sg15
I730
sg162
g163
sbsI540
g0
(g154
g2
Ntp213
Rp214
(dp215
g158
g159
sg160
F10.919951478379003
sg161
F1.0
sg15
I540
sg162
g163
sbssg15
I125
sS'fitness'
p216
Nsb.