ccopy_reg
_reconstructor
p0
(cneat.genome
DefaultGenome
p1
c__builtin__
object
p2
Ntp3
Rp4
(dp5
S'connections'
p6
(dp7
(I332
I495
tp8
g0
(cneat.genes
DefaultConnectionGene
p9
g2
Ntp10
Rp11
(dp12
S'enabled'
p13
I01
sS'weight'
p14
F3.251219472730887
sS'key'
p15
g8
sbs(I332
I7
tp16
g0
(g9
g2
Ntp17
Rp18
(dp19
g13
I01
sg14
F1.5717210657478917
sg15
g16
sbs(I333
I6
tp20
g0
(g9
g2
Ntp21
Rp22
(dp23
g13
I01
sg14
F1.1877444515085245
sg15
g20
sbs(I757
I5
tp24
g0
(g9
g2
Ntp25
Rp26
(dp27
g13
I01
sg14
F0.12749213203744098
sg15
g24
sbs(I-8
I332
tp28
g0
(g9
g2
Ntp29
Rp30
(dp31
g13
I01
sg14
F-0.004220343034400318
sg15
g28
sbs(I6
I332
tp32
g0
(g9
g2
Ntp33
Rp34
(dp35
g13
I01
sg14
F-0.3144002987111998
sg15
g32
sbs(I-1
I332
tp36
g0
(g9
g2
Ntp37
Rp38
(dp39
g13
I01
sg14
F-1.1192130336212562
sg15
g36
sbs(I3
I3
tp40
g0
(g9
g2
Ntp41
Rp42
(dp43
g13
I01
sg14
F0.6294883962754152
sg15
g40
sbs(I-10
I333
tp44
g0
(g9
g2
Ntp45
Rp46
(dp47
g13
I01
sg14
F0.12263100054511922
sg15
g44
sbs(I332
I0
tp48
g0
(g9
g2
Ntp49
Rp50
(dp51
g13
I00
sg14
F-1.3624266479333764
sg15
g48
sbs(I-8
I6
tp52
g0
(g9
g2
Ntp53
Rp54
(dp55
g13
I01
sg14
F0.5331245160597929
sg15
g52
sbs(I4
I4
tp56
g0
(g9
g2
Ntp57
Rp58
(dp59
g13
I01
sg14
F0.402645811096487
sg15
g56
sbs(I333
I5
tp60
g0
(g9
g2
Ntp61
Rp62
(dp63
g13
I01
sg14
F0.0916133765804481
sg15
g60
sbs(I-7
I332
tp64
g0
(g9
g2
Ntp65
Rp66
(dp67
g13
I00
sg14
F-2.000662725752129
sg15
g64
sbs(I-3
I333
tp68
g0
(g9
g2
Ntp69
Rp70
(dp71
g13
I00
sg14
F2.3054090469938013
sg15
g68
sbs(I-8
I695
tp72
g0
(g9
g2
Ntp73
Rp74
(dp75
g13
I01
sg14
F0.6429125939686859
sg15
g72
sbs(I333
I757
tp76
g0
(g9
g2
Ntp77
Rp78
(dp79
g13
I01
sg14
F1.0149106958914407
sg15
g76
sbs(I333
I0
tp80
g0
(g9
g2
Ntp81
Rp82
(dp83
g13
I00
sg14
F0.8988301591580364
sg15
g80
sbs(I0
I0
tp84
g0
(g9
g2
Ntp85
Rp86
(dp87
g13
I01
sg14
F0.9362611951695506
sg15
g84
sbs(I332
I1
tp88
g0
(g9
g2
Ntp89
Rp90
(dp91
g13
I01
sg14
F-0.052774207355989866
sg15
g88
sbs(I-2
I332
tp92
g0
(g9
g2
Ntp93
Rp94
(dp95
g13
I00
sg14
F-0.8408953793311362
sg15
g92
sbs(I-4
I744
tp96
g0
(g9
g2
Ntp97
Rp98
(dp99
g13
I01
sg14
F3.114595600377756
sg15
g96
sbs(I332
I5
tp100
g0
(g9
g2
Ntp101
Rp102
(dp103
g13
I00
sg14
F-0.03352934106675365
sg15
g100
sbs(I-3
I332
tp104
g0
(g9
g2
Ntp105
Rp106
(dp107
g13
I01
sg14
F-1.707812418985232
sg15
g104
sbs(I744
I8
tp108
g0
(g9
g2
Ntp109
Rp110
(dp111
g13
I01
sg14
F-0.973255405079934
sg15
g108
sbs(I332
I9
tp112
g0
(g9
g2
Ntp113
Rp114
(dp115
g13
I01
sg14
F-0.6566552666327329
sg15
g112
sbs(I-6
I332
tp116
g0
(g9
g2
Ntp117
Rp118
(dp119
g13
I01
sg14
F-1.4517067077197516
sg15
g116
sbs(I5
I5
tp120
g0
(g9
g2
Ntp121
Rp122
(dp123
g13
I01
sg14
F1.4278957650222834
sg15
g120
sbs(I8
I332
tp124
g0
(g9
g2
Ntp125
Rp126
(dp127
g13
I01
sg14
F-2.666986850303826
sg15
g124
sbs(I332
I6
tp128
g0
(g9
g2
Ntp129
Rp130
(dp131
g13
I01
sg14
F-0.0569802433452941
sg15
g128
sbs(I-4
I8
tp132
g0
(g9
g2
Ntp133
Rp134
(dp135
g13
I01
sg14
F-2.1335003596243176
sg15
g132
sbs(I333
I7
tp136
g0
(g9
g2
Ntp137
Rp138
(dp139
g13
I01
sg14
F-0.4642997964032767
sg15
g136
sbs(I540
I0
tp140
g0
(g9
g2
Ntp141
Rp142
(dp143
g13
I01
sg14
F-0.9214313432658396
sg15
g140
sbs(I495
I5
tp144
g0
(g9
g2
Ntp145
Rp146
(dp147
g13
I01
sg14
F-2.4244127043133665
sg15
g144
sbs(I332
I3
tp148
g0
(g9
g2
Ntp149
Rp150
(dp151
g13
I01
sg14
F3.1479663195773866
sg15
g148
sbssS'nodes'
p152
(dp153
I0
g0
(cneat.genes
DefaultNodeGene
p154
g2
Ntp155
Rp156
(dp157
S'activation'
p158
S'tanh'
p159
sS'bias'
p160
F3.9442019845705705
sS'response'
p161
F1.0
sg15
I0
sS'aggregation'
p162
S'sum'
p163
sbsI1
g0
(g154
g2
Ntp164
Rp165
(dp166
g158
g159
sg160
F0.12694101869069488
sg161
F1.0
sg15
I1
sg162
g163
sbsI2
g0
(g154
g2
Ntp167
Rp168
(dp169
g158
g159
sg160
F19.421899324657396
sg161
F1.0
sg15
I2
sg162
g163
sbsI3
g0
(g154
g2
Ntp170
Rp171
(dp172
g158
g159
sg160
F-8.718315115240028
sg161
F1.0
sg15
I3
sg162
g163
sbsI4
g0
(g154
g2
Ntp173
Rp174
(dp175
g158
g159
sg160
F-6.53088239139843
sg161
F1.0
sg15
I4
sg162
g163
sbsI5
g0
(g154
g2
Ntp176
Rp177
(dp178
g158
g159
sg160
F8.397290435409875
sg161
F1.0
sg15
I5
sg162
g163
sbsI6
g0
(g154
g2
Ntp179
Rp180
(dp181
g158
g159
sg160
F13.385390745038771
sg161
F1.0
sg15
I6
sg162
g163
sbsI7
g0
(g154
g2
Ntp182
Rp183
(dp184
g158
g159
sg160
F-6.324495767533484
sg161
F1.0
sg15
I7
sg162
g163
sbsI8
g0
(g154
g2
Ntp185
Rp186
(dp187
g158
g159
sg160
F7.749069604672988
sg161
F1.0
sg15
I8
sg162
g163
sbsI9
g0
(g154
g2
Ntp188
Rp189
(dp190
g158
g159
sg160
F8.57188555555614
sg161
F1.0
sg15
I9
sg162
g163
sbsI332
g0
(g154
g2
Ntp191
Rp192
(dp193
g158
g159
sg160
F9.449815273658938
sg161
F1.0
sg15
I332
sg162
g163
sbsI333
g0
(g154
g2
Ntp194
Rp195
(dp196
g158
g159
sg160
F-2.7417646779513163
sg161
F1.0
sg15
I333
sg162
g163
sbsI495
g0
(g154
g2
Ntp197
Rp198
(dp199
g158
g159
sg160
F6.9489986160546
sg161
F1.0
sg15
I495
sg162
g163
sbsI744
g0
(g154
g2
Ntp200
Rp201
(dp202
g158
g159
sg160
F-0.9890180004890532
sg161
F1.0
sg15
I744
sg162
g163
sbsI757
g0
(g154
g2
Ntp203
Rp204
(dp205
g158
S'relu'
p206
sg160
F-8.307904653156458
sg161
F1.0
sg15
I757
sg162
g163
sbsI695
g0
(g154
g2
Ntp207
Rp208
(dp209
g158
g159
sg160
F1.7372949654092777
sg161
F1.0
sg15
I695
sg162
g163
sbsI540
g0
(g154
g2
Ntp210
Rp211
(dp212
g158
g159
sg160
F12.288482946821548
sg161
F1.0
sg15
I540
sg162
g163
sbssg15
I126
sS'fitness'
p213
Nsb.