ccopy_reg
_reconstructor
p0
(cneat.genome
DefaultGenome
p1
c__builtin__
object
p2
Ntp3
Rp4
(dp5
S'connections'
p6
(dp7
(I332
I495
tp8
g0
(cneat.genes
DefaultConnectionGene
p9
g2
Ntp10
Rp11
(dp12
S'enabled'
p13
I01
sS'weight'
p14
F0.6351396733432502
sS'key'
p15
g8
sbs(I332
I7
tp16
g0
(g9
g2
Ntp17
Rp18
(dp19
g13
I01
sg14
F2.9517717965804255
sg15
g16
sbs(I757
I5
tp20
g0
(g9
g2
Ntp21
Rp22
(dp23
g13
I01
sg14
F-0.49631751922234874
sg15
g20
sbs(I-8
I332
tp24
g0
(g9
g2
Ntp25
Rp26
(dp27
g13
I01
sg14
F1.9330005154833905
sg15
g24
sbs(I6
I332
tp28
g0
(g9
g2
Ntp29
Rp30
(dp31
g13
I01
sg14
F-0.1458953592889803
sg15
g28
sbs(I-1
I332
tp32
g0
(g9
g2
Ntp33
Rp34
(dp35
g13
I00
sg14
F1.4306943732926825
sg15
g32
sbs(I3
I3
tp36
g0
(g9
g2
Ntp37
Rp38
(dp39
g13
I01
sg14
F-1.319288964000583
sg15
g36
sbs(I332
I0
tp40
g0
(g9
g2
Ntp41
Rp42
(dp43
g13
I01
sg14
F0.7252282070858987
sg15
g40
sbs(I4
I4
tp44
g0
(g9
g2
Ntp45
Rp46
(dp47
g13
I01
sg14
F0.06216373616395644
sg15
g44
sbs(I-7
I332
tp48
g0
(g9
g2
Ntp49
Rp50
(dp51
g13
I00
sg14
F-2.112303839571853
sg15
g48
sbs(I-8
I695
tp52
g0
(g9
g2
Ntp53
Rp54
(dp55
g13
I01
sg14
F1.2041916236650456
sg15
g52
sbs(I332
I791
tp56
g0
(g9
g2
Ntp57
Rp58
(dp59
g13
I01
sg14
F0.8337712650105655
sg15
g56
sbs(I0
I0
tp60
g0
(g9
g2
Ntp61
Rp62
(dp63
g13
I01
sg14
F3.304856736420886
sg15
g60
sbs(I332
I1
tp64
g0
(g9
g2
Ntp65
Rp66
(dp67
g13
I00
sg14
F-0.6721276337980421
sg15
g64
sbs(I-2
I332
tp68
g0
(g9
g2
Ntp69
Rp70
(dp71
g13
I00
sg14
F1.6358983760955774
sg15
g68
sbs(I-4
I744
tp72
g0
(g9
g2
Ntp73
Rp74
(dp75
g13
I01
sg14
F1.670753486884876
sg15
g72
sbs(I332
I5
tp76
g0
(g9
g2
Ntp77
Rp78
(dp79
g13
I00
sg14
F1.3001913034030905
sg15
g76
sbs(I-3
I332
tp80
g0
(g9
g2
Ntp81
Rp82
(dp83
g13
I00
sg14
F-1.2361639296996425
sg15
g80
sbs(I744
I8
tp84
g0
(g9
g2
Ntp85
Rp86
(dp87
g13
I01
sg14
F-0.3695965185491591
sg15
g84
sbs(I791
I1
tp88
g0
(g9
g2
Ntp89
Rp90
(dp91
g13
I01
sg14
F0.18824982798620912
sg15
g88
sbs(I332
I9
tp92
g0
(g9
g2
Ntp93
Rp94
(dp95
g13
I01
sg14
F-1.0606289198741514
sg15
g92
sbs(I-6
I332
tp96
g0
(g9
g2
Ntp97
Rp98
(dp99
g13
I01
sg14
F0.012360333322681645
sg15
g96
sbs(I8
I332
tp100
g0
(g9
g2
Ntp101
Rp102
(dp103
g13
I01
sg14
F-1.1928201383930956
sg15
g100
sbs(I332
I6
tp104
g0
(g9
g2
Ntp105
Rp106
(dp107
g13
I01
sg14
F0.1778898362425842
sg15
g104
sbs(I-4
I8
tp108
g0
(g9
g2
Ntp109
Rp110
(dp111
g13
I01
sg14
F1.574045505040647
sg15
g108
sbs(I540
I0
tp112
g0
(g9
g2
Ntp113
Rp114
(dp115
g13
I01
sg14
F-0.5354357588357421
sg15
g112
sbs(I495
I5
tp116
g0
(g9
g2
Ntp117
Rp118
(dp119
g13
I01
sg14
F-2.572129332869237
sg15
g116
sbs(I332
I3
tp120
g0
(g9
g2
Ntp121
Rp122
(dp123
g13
I01
sg14
F2.3009753441903396
sg15
g120
sbssS'nodes'
p124
(dp125
I0
g0
(cneat.genes
DefaultNodeGene
p126
g2
Ntp127
Rp128
(dp129
S'activation'
p130
S'tanh'
p131
sS'bias'
p132
F4.686286922229181
sS'response'
p133
F1.0
sg15
I0
sS'aggregation'
p134
S'sum'
p135
sbsI1
g0
(g126
g2
Ntp136
Rp137
(dp138
g130
g131
sg132
F-13.166412672972
sg133
F1.0
sg15
I1
sg134
g135
sbsI2
g0
(g126
g2
Ntp139
Rp140
(dp141
g130
g131
sg132
F-8.913128674079266
sg133
F1.0
sg15
I2
sg134
g135
sbsI3
g0
(g126
g2
Ntp142
Rp143
(dp144
g130
g131
sg132
F-9.250078161258005
sg133
F1.0
sg15
I3
sg134
g135
sbsI4
g0
(g126
g2
Ntp145
Rp146
(dp147
g130
g131
sg132
F-5.987776611059303
sg133
F1.0
sg15
I4
sg134
g135
sbsI5
g0
(g126
g2
Ntp148
Rp149
(dp150
g130
g131
sg132
F8.641664616687383
sg133
F1.0
sg15
I5
sg134
g135
sbsI6
g0
(g126
g2
Ntp151
Rp152
(dp153
g130
g131
sg132
F13.779261805906721
sg133
F1.0
sg15
I6
sg134
g135
sbsI7
g0
(g126
g2
Ntp154
Rp155
(dp156
g130
g131
sg132
F2.221984497894648
sg133
F1.0
sg15
I7
sg134
g135
sbsI8
g0
(g126
g2
Ntp157
Rp158
(dp159
g130
g131
sg132
F7.904907819906998
sg133
F1.0
sg15
I8
sg134
g135
sbsI9
g0
(g126
g2
Ntp160
Rp161
(dp162
g130
g131
sg132
F4.173372127501526
sg133
F1.0
sg15
I9
sg134
g135
sbsI791
g0
(g126
g2
Ntp163
Rp164
(dp165
g130
g131
sg132
F-2.376413634687673
sg133
F1.0
sg15
I791
sg134
g135
sbsI332
g0
(g126
g2
Ntp166
Rp167
(dp168
g130
g131
sg132
F-4.242593673436663
sg133
F1.0
sg15
I332
sg134
g135
sbsI495
g0
(g126
g2
Ntp169
Rp170
(dp171
g130
g131
sg132
F7.716534462732398
sg133
F1.0
sg15
I495
sg134
g135
sbsI744
g0
(g126
g2
Ntp172
Rp173
(dp174
g130
g131
sg132
F-2.5180400789685224
sg133
F1.0
sg15
I744
sg134
g135
sbsI757
g0
(g126
g2
Ntp175
Rp176
(dp177
g130
S'relu'
p178
sg132
F-8.151436383381192
sg133
F1.0
sg15
I757
sg134
g135
sbsI695
g0
(g126
g2
Ntp179
Rp180
(dp181
g130
g131
sg132
F-6.8282815308899
sg133
F1.0
sg15
I695
sg134
g135
sbsI540
g0
(g126
g2
Ntp182
Rp183
(dp184
g130
g131
sg132
F4.431979480606154
sg133
F1.0
sg15
I540
sg134
g135
sbssg15
I127
sS'fitness'
p185
Nsb.