ccopy_reg
_reconstructor
p0
(cneat.genome
DefaultGenome
p1
c__builtin__
object
p2
Ntp3
Rp4
(dp5
S'connections'
p6
(dp7
(I-5
I58
tp8
g0
(cneat.genes
DefaultConnectionGene
p9
g2
Ntp10
Rp11
(dp12
S'enabled'
p13
I00
sS'weight'
p14
F-2.726012707746477
sS'key'
p15
g8
sbs(I-1
I58
tp16
g0
(g9
g2
Ntp17
Rp18
(dp19
g13
I01
sg14
F0.024351559646361688
sg15
g16
sbs(I58
I1
tp20
g0
(g9
g2
Ntp21
Rp22
(dp23
g13
I01
sg14
F5.400800394572273
sg15
g20
sbs(I-8
I58
tp24
g0
(g9
g2
Ntp25
Rp26
(dp27
g13
I00
sg14
F-2.2236517235428983
sg15
g24
sbs(I58
I5
tp28
g0
(g9
g2
Ntp29
Rp30
(dp31
g13
I01
sg14
F0.8565298581201957
sg15
g28
sbs(I-2
I58
tp32
g0
(g9
g2
Ntp33
Rp34
(dp35
g13
I01
sg14
F1.135106861338263
sg15
g32
sbs(I-2
I5
tp36
g0
(g9
g2
Ntp37
Rp38
(dp39
g13
I01
sg14
F-1.5839720310270353
sg15
g36
sbs(I-8
I1
tp40
g0
(g9
g2
Ntp41
Rp42
(dp43
g13
I00
sg14
F0.779602207452513
sg15
g40
sbs(I-4
I58
tp44
g0
(g9
g2
Ntp45
Rp46
(dp47
g13
I01
sg14
F-2.317516639626715
sg15
g44
sbs(I58
I2
tp48
g0
(g9
g2
Ntp49
Rp50
(dp51
g13
I00
sg14
F-0.8732329187385607
sg15
g48
sbs(I-7
I58
tp52
g0
(g9
g2
Ntp53
Rp54
(dp55
g13
I01
sg14
F-0.6790488270017329
sg15
g52
sbs(I266
I58
tp56
g0
(g9
g2
Ntp57
Rp58
(dp59
g13
I01
sg14
F1.2742603135727437
sg15
g56
sbs(I58
I6
tp60
g0
(g9
g2
Ntp61
Rp62
(dp63
g13
I01
sg14
F-0.48043278984141646
sg15
g60
sbs(I-3
I58
tp64
g0
(g9
g2
Ntp65
Rp66
(dp67
g13
I00
sg14
F0.9044821091556623
sg15
g64
sbs(I-6
I58
tp68
g0
(g9
g2
Ntp69
Rp70
(dp71
g13
I01
sg14
F1.3242284114288527
sg15
g68
sbs(I-3
I266
tp72
g0
(g9
g2
Ntp73
Rp74
(dp75
g13
I01
sg14
F1.6466914754960855
sg15
g72
sbs(I-10
I58
tp76
g0
(g9
g2
Ntp77
Rp78
(dp79
g13
I01
sg14
F1.197484152618486
sg15
g76
sbs(I58
I3
tp80
g0
(g9
g2
Ntp81
Rp82
(dp83
g13
I01
sg14
F-0.13095098335946387
sg15
g80
sbs(I58
I8
tp84
g0
(g9
g2
Ntp85
Rp86
(dp87
g13
I01
sg14
F-2.0664014912857342
sg15
g84
sbs(I-9
I0
tp88
g0
(g9
g2
Ntp89
Rp90
(dp91
g13
I01
sg14
F2.7652139456363396
sg15
g88
sbs(I-9
I58
tp92
g0
(g9
g2
Ntp93
Rp94
(dp95
g13
I00
sg14
F-0.3604586078800718
sg15
g92
sbs(I58
I7
tp96
g0
(g9
g2
Ntp97
Rp98
(dp99
g13
I00
sg14
F1.0574173956734723
sg15
g96
sbs(I58
I0
tp100
g0
(g9
g2
Ntp101
Rp102
(dp103
g13
I00
sg14
F0.41692888606254663
sg15
g100
sbs(I58
I9
tp104
g0
(g9
g2
Ntp105
Rp106
(dp107
g13
I01
sg14
F-0.6171902136973428
sg15
g104
sbs(I-10
I9
tp108
g0
(g9
g2
Ntp109
Rp110
(dp111
g13
I01
sg14
F-0.8829022864329116
sg15
g108
sbs(I58
I4
tp112
g0
(g9
g2
Ntp113
Rp114
(dp115
g13
I01
sg14
F-0.0015680941963285844
sg15
g112
sbssS'nodes'
p116
(dp117
I0
g0
(cneat.genes
DefaultNodeGene
p118
g2
Ntp119
Rp120
(dp121
S'activation'
p122
S'relu'
p123
sS'bias'
p124
F-18.75886526841859
sS'response'
p125
F1.0
sg15
I0
sS'aggregation'
p126
S'sum'
p127
sbsI1
g0
(g118
g2
Ntp128
Rp129
(dp130
g122
g123
sg124
F14.0920289847329
sg125
F1.0
sg15
I1
sg126
g127
sbsI2
g0
(g118
g2
Ntp131
Rp132
(dp133
g122
g123
sg124
F10.864145805128707
sg125
F1.0
sg15
I2
sg126
g127
sbsI3
g0
(g118
g2
Ntp134
Rp135
(dp136
g122
g123
sg124
F2.6499415506312074
sg125
F1.0
sg15
I3
sg126
g127
sbsI4
g0
(g118
g2
Ntp137
Rp138
(dp139
g122
g123
sg124
F7.781700447307589
sg125
F1.0
sg15
I4
sg126
g127
sbsI5
g0
(g118
g2
Ntp140
Rp141
(dp142
g122
g123
sg124
F-5.124693135525799
sg125
F1.0
sg15
I5
sg126
g127
sbsI6
g0
(g118
g2
Ntp143
Rp144
(dp145
g122
g123
sg124
F-14.855621352287907
sg125
F1.0
sg15
I6
sg126
g127
sbsI7
g0
(g118
g2
Ntp146
Rp147
(dp148
g122
g123
sg124
F-24.019220461303128
sg125
F1.0
sg15
I7
sg126
g127
sbsI8
g0
(g118
g2
Ntp149
Rp150
(dp151
g122
g123
sg124
F15.201331555727265
sg125
F1.0
sg15
I8
sg126
g127
sbsI9
g0
(g118
g2
Ntp152
Rp153
(dp154
g122
g123
sg124
F0.5470579934932407
sg125
F1.0
sg15
I9
sg126
g127
sbsI266
g0
(g118
g2
Ntp155
Rp156
(dp157
g122
g123
sg124
F7.459855360567107
sg125
F1.0
sg15
I266
sg126
g127
sbsI58
g0
(g118
g2
Ntp158
Rp159
(dp160
g122
g123
sg124
F20.533617202366095
sg125
F1.0
sg15
I58
sg126
g127
sbssg15
I1273
sS'fitness'
p161
F2.7898938554763903
sb.