ccopy_reg
_reconstructor
p0
(cneat.genome
DefaultGenome
p1
c__builtin__
object
p2
Ntp3
Rp4
(dp5
S'connections'
p6
(dp7
(I-9
I2
tp8
g0
(cneat.genes
DefaultConnectionGene
p9
g2
Ntp10
Rp11
(dp12
S'enabled'
p13
I01
sS'weight'
p14
F-1.1242828423768474
sS'key'
p15
g8
sbssS'nodes'
p16
(dp17
I0
g0
(cneat.genes
DefaultNodeGene
p18
g2
Ntp19
Rp20
(dp21
S'activation'
p22
S'relu'
p23
sS'bias'
p24
F8.43327273332486
sS'response'
p25
F1.0
sg15
I0
sS'aggregation'
p26
S'sum'
p27
sbsI1
g0
(g18
g2
Ntp28
Rp29
(dp30
g22
g23
sg24
F-5.007822721294146
sg25
F1.0
sg15
I1
sg26
g27
sbsI2
g0
(g18
g2
Ntp31
Rp32
(dp33
g22
g23
sg24
F-3.070405090238605
sg25
F1.0
sg15
I2
sg26
g27
sbsI3
g0
(g18
g2
Ntp34
Rp35
(dp36
g22
g23
sg24
F-6.9909644494890335
sg25
F1.0
sg15
I3
sg26
g27
sbsI4
g0
(g18
g2
Ntp37
Rp38
(dp39
g22
g23
sg24
F5.333685960645116
sg25
F1.0
sg15
I4
sg26
g27
sbsI5
g0
(g18
g2
Ntp40
Rp41
(dp42
g22
g23
sg24
F-14.20045026266577
sg25
F1.0
sg15
I5
sg26
g27
sbsI6
g0
(g18
g2
Ntp43
Rp44
(dp45
g22
g23
sg24
F-2.1739878306314004
sg25
F1.0
sg15
I6
sg26
g27
sbsI7
g0
(g18
g2
Ntp46
Rp47
(dp48
g22
g23
sg24
F-2.215039093436298
sg25
F1.0
sg15
I7
sg26
g27
sbsI8
g0
(g18
g2
Ntp49
Rp50
(dp51
g22
g23
sg24
F-13.328093551272943
sg25
F1.0
sg15
I8
sg26
g27
sbsI9
g0
(g18
g2
Ntp52
Rp53
(dp54
g22
g23
sg24
F7.724894894353663
sg25
F1.0
sg15
I9
sg26
g27
sbssg15
I1288
sS'fitness'
p55
Nsb.