ccopy_reg
_reconstructor
p0
(cneat.genome
DefaultGenome
p1
c__builtin__
object
p2
Ntp3
Rp4
(dp5
S'connections'
p6
(dp7
sS'nodes'
p8
(dp9
I0
g0
(cneat.genes
DefaultNodeGene
p10
g2
Ntp11
Rp12
(dp13
S'activation'
p14
S'relu'
p15
sS'bias'
p16
F8.10080817030524
sS'response'
p17
F1.0
sS'key'
p18
I0
sS'aggregation'
p19
S'sum'
p20
sbsI1
g0
(g10
g2
Ntp21
Rp22
(dp23
g14
g15
sg16
F-5.719587413655673
sg17
F1.0
sg18
I1
sg19
g20
sbsI2
g0
(g10
g2
Ntp24
Rp25
(dp26
g14
g15
sg16
F-4.10059387732236
sg17
F1.0
sg18
I2
sg19
g20
sbsI3
g0
(g10
g2
Ntp27
Rp28
(dp29
g14
g15
sg16
F-6.470863806317001
sg17
F1.0
sg18
I3
sg19
g20
sbsI4
g0
(g10
g2
Ntp30
Rp31
(dp32
g14
g15
sg16
F10.512768523773405
sg17
F1.0
sg18
I4
sg19
g20
sbsI5
g0
(g10
g2
Ntp33
Rp34
(dp35
g14
S'tanh'
p36
sg16
F-14.026619358147052
sg17
F1.0
sg18
I5
sg19
g20
sbsI6
g0
(g10
g2
Ntp37
Rp38
(dp39
g14
g15
sg16
F21.528395198801796
sg17
F1.0
sg18
I6
sg19
g20
sbsI7
g0
(g10
g2
Ntp40
Rp41
(dp42
g14
g15
sg16
F-1.7493652673334978
sg17
F1.0
sg18
I7
sg19
g20
sbsI8
g0
(g10
g2
Ntp43
Rp44
(dp45
g14
g15
sg16
F-12.338886647881303
sg17
F1.0
sg18
I8
sg19
g20
sbsI9
g0
(g10
g2
Ntp46
Rp47
(dp48
g14
g15
sg16
F-14.6302979569124
sg17
F1.0
sg18
I9
sg19
g20
sbssg18
I1289
sS'fitness'
p49
Nsb.