ccopy_reg
_reconstructor
p0
(cneat.genome
DefaultGenome
p1
c__builtin__
object
p2
Ntp3
Rp4
(dp5
S'connections'
p6
(dp7
(I23
I4
tp8
g0
(cneat.genes
DefaultConnectionGene
p9
g2
Ntp10
Rp11
(dp12
S'enabled'
p13
I01
sS'weight'
p14
F0.5289028199863399
sS'key'
p15
g8
sbs(I-2
I23
tp16
g0
(g9
g2
Ntp17
Rp18
(dp19
g13
I01
sg14
F2.5866480390847446
sg15
g16
sbs(I7
I7
tp20
g0
(g9
g2
Ntp21
Rp22
(dp23
g13
I01
sg14
F0.5440187111284378
sg15
g20
sbs(I9
I9
tp24
g0
(g9
g2
Ntp25
Rp26
(dp27
g13
I01
sg14
F-0.16435661365746465
sg15
g24
sbs(I23
I3
tp28
g0
(g9
g2
Ntp29
Rp30
(dp31
g13
I01
sg14
F0.97151626921506
sg15
g28
sbs(I22
I9
tp32
g0
(g9
g2
Ntp33
Rp34
(dp35
g13
I01
sg14
F0.29495198568389996
sg15
g32
sbs(I-1
I22
tp36
g0
(g9
g2
Ntp37
Rp38
(dp39
g13
I00
sg14
F0.12369328454186185
sg15
g36
sbs(I-3
I3
tp40
g0
(g9
g2
Ntp41
Rp42
(dp43
g13
I01
sg14
F-1.2718097035171323
sg15
g40
sbs(I-2
I22
tp44
g0
(g9
g2
Ntp45
Rp46
(dp47
g13
I01
sg14
F1.4540254573201923
sg15
g44
sbs(I-7
I22
tp48
g0
(g9
g2
Ntp49
Rp50
(dp51
g13
I01
sg14
F0.19956688888131133
sg15
g48
sbs(I23
I7
tp52
g0
(g9
g2
Ntp53
Rp54
(dp55
g13
I01
sg14
F-0.7292567999368033
sg15
g52
sbs(I-10
I21
tp56
g0
(g9
g2
Ntp57
Rp58
(dp59
g13
I01
sg14
F0.9502224885729964
sg15
g56
sbs(I-5
I23
tp60
g0
(g9
g2
Ntp61
Rp62
(dp63
g13
I00
sg14
F1.5344025617956993
sg15
g60
sbs(I-6
I21
tp64
g0
(g9
g2
Ntp65
Rp66
(dp67
g13
I01
sg14
F0.7362437429350737
sg15
g64
sbs(I21
I0
tp68
g0
(g9
g2
Ntp69
Rp70
(dp71
g13
I01
sg14
F-0.8393647715185223
sg15
g68
sbs(I22
I7
tp72
g0
(g9
g2
Ntp73
Rp74
(dp75
g13
I01
sg14
F-0.22476705835384164
sg15
g72
sbs(I2
I2
tp76
g0
(g9
g2
Ntp77
Rp78
(dp79
g13
I00
sg14
F-1.9895921184746266
sg15
g76
sbs(I-7
I21
tp80
g0
(g9
g2
Ntp81
Rp82
(dp83
g13
I01
sg14
F1.0030080989796493
sg15
g80
sbs(I-5
I22
tp84
g0
(g9
g2
Ntp85
Rp86
(dp87
g13
I01
sg14
F0.8888220177151851
sg15
g84
sbs(I-2
I21
tp88
g0
(g9
g2
Ntp89
Rp90
(dp91
g13
I01
sg14
F0.948442453873416
sg15
g88
sbs(I-6
I22
tp92
g0
(g9
g2
Ntp93
Rp94
(dp95
g13
I01
sg14
F1.7306223425500273
sg15
g92
sbs(I22
I4
tp96
g0
(g9
g2
Ntp97
Rp98
(dp99
g13
I01
sg14
F-0.13742934492966627
sg15
g96
sbs(I21
I4
tp100
g0
(g9
g2
Ntp101
Rp102
(dp103
g13
I01
sg14
F-0.26736134543214746
sg15
g100
sbs(I23
I1
tp104
g0
(g9
g2
Ntp105
Rp106
(dp107
g13
I01
sg14
F0.5512843047490399
sg15
g104
sbs(I-8
I21
tp108
g0
(g9
g2
Ntp109
Rp110
(dp111
g13
I01
sg14
F0.6664437814008602
sg15
g108
sbs(I22
I0
tp112
g0
(g9
g2
Ntp113
Rp114
(dp115
g13
I00
sg14
F-0.7214766165761725
sg15
g112
sbs(I23
I5
tp116
g0
(g9
g2
Ntp117
Rp118
(dp119
g13
I01
sg14
F-0.05388475617934468
sg15
g116
sbs(I-10
I23
tp120
g0
(g9
g2
Ntp121
Rp122
(dp123
g13
I01
sg14
F1.4587204141574004
sg15
g120
sbs(I21
I9
tp124
g0
(g9
g2
Ntp125
Rp126
(dp127
g13
I01
sg14
F1.3551893307937675
sg15
g124
sbs(I-1
I21
tp128
g0
(g9
g2
Ntp129
Rp130
(dp131
g13
I00
sg14
F0.6421276982019257
sg15
g128
sbs(I-4
I22
tp132
g0
(g9
g2
Ntp133
Rp134
(dp135
g13
I01
sg14
F-3.620173359904238
sg15
g132
sbs(I23
I9
tp136
g0
(g9
g2
Ntp137
Rp138
(dp139
g13
I01
sg14
F1.7821520732835303
sg15
g136
sbs(I8
I8
tp140
g0
(g9
g2
Ntp141
Rp142
(dp143
g13
I01
sg14
F1.0591731995840314
sg15
g140
sbs(I22
I8
tp144
g0
(g9
g2
Ntp145
Rp146
(dp147
g13
I01
sg14
F-1.07827738263937
sg15
g144
sbs(I21
I7
tp148
g0
(g9
g2
Ntp149
Rp150
(dp151
g13
I01
sg14
F-3.099983147373154
sg15
g148
sbs(I-7
I23
tp152
g0
(g9
g2
Ntp153
Rp154
(dp155
g13
I01
sg14
F0.6617063784113435
sg15
g152
sbssS'nodes'
p156
(dp157
I0
g0
(cneat.genes
DefaultNodeGene
p158
g2
Ntp159
Rp160
(dp161
S'activation'
p162
S'tanh'
p163
sS'bias'
p164
F2.922478160400663
sS'response'
p165
F1.0
sg15
I0
sS'aggregation'
p166
S'sum'
p167
sbsI1
g0
(g158
g2
Ntp168
Rp169
(dp170
g162
g163
sg164
F5.577060214986588
sg165
F1.0
sg15
I1
sg166
g167
sbsI2
g0
(g158
g2
Ntp171
Rp172
(dp173
g162
g163
sg164
F0.5877291090116459
sg165
F1.0
sg15
I2
sg166
g167
sbsI3
g0
(g158
g2
Ntp174
Rp175
(dp176
g162
g163
sg164
F-20.836097934148643
sg165
F1.0
sg15
I3
sg166
g167
sbsI4
g0
(g158
g2
Ntp177
Rp178
(dp179
g162
S'relu'
p180
sg164
F24.590371471166534
sg165
F1.0
sg15
I4
sg166
g167
sbsI5
g0
(g158
g2
Ntp181
Rp182
(dp183
g162
g163
sg164
F6.968020353811345
sg165
F1.0
sg15
I5
sg166
g167
sbsI6
g0
(g158
g2
Ntp184
Rp185
(dp186
g162
g163
sg164
F-2.262155869592689
sg165
F1.0
sg15
I6
sg166
g167
sbsI7
g0
(g158
g2
Ntp187
Rp188
(dp189
g162
g163
sg164
F5.972533184849649
sg165
F1.0
sg15
I7
sg166
g167
sbsI8
g0
(g158
g2
Ntp190
Rp191
(dp192
g162
g163
sg164
F-5.626212336806056
sg165
F1.0
sg15
I8
sg166
g167
sbsI9
g0
(g158
g2
Ntp193
Rp194
(dp195
g162
g163
sg164
F13.903641214869287
sg165
F1.0
sg15
I9
sg166
g167
sbsI21
g0
(g158
g2
Ntp196
Rp197
(dp198
g162
g163
sg164
F20.867169157520014
sg165
F1.0
sg15
I21
sg166
g167
sbsI22
g0
(g158
g2
Ntp199
Rp200
(dp201
g162
g163
sg164
F11.926603281318727
sg165
F1.0
sg15
I22
sg166
g167
sbsI23
g0
(g158
g2
Ntp202
Rp203
(dp204
g162
g163
sg164
F-1.2905244543476302
sg165
F1.0
sg15
I23
sg166
g167
sbssg15
I129
sS'fitness'
p205
F7.319187884747617
sb.