ccopy_reg
_reconstructor
p0
(cneat.genome
DefaultGenome
p1
c__builtin__
object
p2
Ntp3
Rp4
(dp5
S'connections'
p6
(dp7
(I-8
I752
tp8
g0
(cneat.genes
DefaultConnectionGene
p9
g2
Ntp10
Rp11
(dp12
S'enabled'
p13
I01
sS'weight'
p14
F0.43963645374765004
sS'key'
p15
g8
sbs(I-8
I327
tp16
g0
(g9
g2
Ntp17
Rp18
(dp19
g13
I00
sg14
F1.1051028517713606
sg15
g16
sbs(I328
I7
tp20
g0
(g9
g2
Ntp21
Rp22
(dp23
g13
I01
sg14
F0.7458200843248768
sg15
g20
sbs(I-5
I328
tp24
g0
(g9
g2
Ntp25
Rp26
(dp27
g13
I01
sg14
F2.032931342110008
sg15
g24
sbs(I327
I9
tp28
g0
(g9
g2
Ntp29
Rp30
(dp31
g13
I01
sg14
F-1.92652606970247
sg15
g28
sbs(I327
I4
tp32
g0
(g9
g2
Ntp33
Rp34
(dp35
g13
I01
sg14
F1.9447202897595197
sg15
g32
sbs(I3
I3
tp36
g0
(g9
g2
Ntp37
Rp38
(dp39
g13
I01
sg14
F-1.053389727679312
sg15
g36
sbs(I4
I4
tp40
g0
(g9
g2
Ntp41
Rp42
(dp43
g13
I01
sg14
F0.5273941651270344
sg15
g40
sbs(I-9
I328
tp44
g0
(g9
g2
Ntp45
Rp46
(dp47
g13
I00
sg14
F-2.1848938261762996
sg15
g44
sbs(I-2
I328
tp48
g0
(g9
g2
Ntp49
Rp50
(dp51
g13
I00
sg14
F-2.6993033128315984
sg15
g48
sbs(I-4
I3
tp52
g0
(g9
g2
Ntp53
Rp54
(dp55
g13
I01
sg14
F3.0328903985864475
sg15
g52
sbs(I3
I328
tp56
g0
(g9
g2
Ntp57
Rp58
(dp59
g13
I00
sg14
F0.15816569686397963
sg15
g56
sbs(I328
I8
tp60
g0
(g9
g2
Ntp61
Rp62
(dp63
g13
I00
sg14
F3.4619244782978256
sg15
g60
sbs(I2
I2
tp64
g0
(g9
g2
Ntp65
Rp66
(dp67
g13
I01
sg14
F0.3242033694825017
sg15
g64
sbs(I327
I8
tp68
g0
(g9
g2
Ntp69
Rp70
(dp71
g13
I01
sg14
F1.030602752047204
sg15
g68
sbs(I1
I1
tp72
g0
(g9
g2
Ntp73
Rp74
(dp75
g13
I01
sg14
F1.308773138826177
sg15
g72
sbs(I752
I327
tp76
g0
(g9
g2
Ntp77
Rp78
(dp79
g13
I01
sg14
F0.3174468533395102
sg15
g76
sbs(I327
I3
tp80
g0
(g9
g2
Ntp81
Rp82
(dp83
g13
I01
sg14
F1.0211804169007221
sg15
g80
sbs(I4
I327
tp84
g0
(g9
g2
Ntp85
Rp86
(dp87
g13
I00
sg14
F-0.8835283957563747
sg15
g84
sbs(I0
I0
tp88
g0
(g9
g2
Ntp89
Rp90
(dp91
g13
I00
sg14
F-0.7227865355667152
sg15
g88
sbs(I-8
I7
tp92
g0
(g9
g2
Ntp93
Rp94
(dp95
g13
I01
sg14
F2.065394492529776
sg15
g92
sbs(I328
I9
tp96
g0
(g9
g2
Ntp97
Rp98
(dp99
g13
I01
sg14
F1.6492388944888483
sg15
g96
sbs(I-6
I328
tp100
g0
(g9
g2
Ntp101
Rp102
(dp103
g13
I01
sg14
F0.12553856662666993
sg15
g100
sbs(I-8
I3
tp104
g0
(g9
g2
Ntp105
Rp106
(dp107
g13
I01
sg14
F-1.36511678268613
sg15
g104
sbs(I-10
I327
tp108
g0
(g9
g2
Ntp109
Rp110
(dp111
g13
I01
sg14
F1.3535437964260493
sg15
g108
sbs(I327
I2
tp112
g0
(g9
g2
Ntp113
Rp114
(dp115
g13
I01
sg14
F-1.0859815030210853
sg15
g112
sbs(I-3
I327
tp116
g0
(g9
g2
Ntp117
Rp118
(dp119
g13
I00
sg14
F-1.2342311029942319
sg15
g116
sbs(I328
I1
tp120
g0
(g9
g2
Ntp121
Rp122
(dp123
g13
I01
sg14
F1.167657625238736
sg15
g120
sbs(I327
I6
tp124
g0
(g9
g2
Ntp125
Rp126
(dp127
g13
I00
sg14
F0.4300196751780734
sg15
g124
sbs(I8
I8
tp128
g0
(g9
g2
Ntp129
Rp130
(dp131
g13
I00
sg14
F1.1101882958212275
sg15
g128
sbs(I-4
I327
tp132
g0
(g9
g2
Ntp133
Rp134
(dp135
g13
I01
sg14
F0.8213328530274701
sg15
g132
sbssS'nodes'
p136
(dp137
I0
g0
(cneat.genes
DefaultNodeGene
p138
g2
Ntp139
Rp140
(dp141
S'activation'
p142
S'tanh'
p143
sS'bias'
p144
F-15.450632987584353
sS'response'
p145
F1.0
sg15
I0
sS'aggregation'
p146
S'sum'
p147
sbsI1
g0
(g138
g2
Ntp148
Rp149
(dp150
g142
g143
sg144
F-15.677136456218049
sg145
F1.0
sg15
I1
sg146
g147
sbsI2
g0
(g138
g2
Ntp151
Rp152
(dp153
g142
g143
sg144
F-4.009786554079993
sg145
F1.0
sg15
I2
sg146
g147
sbsI3
g0
(g138
g2
Ntp154
Rp155
(dp156
g142
g143
sg144
F-5.794595033388539
sg145
F1.0
sg15
I3
sg146
g147
sbsI4
g0
(g138
g2
Ntp157
Rp158
(dp159
g142
g143
sg144
F-3.5522175655701638
sg145
F1.0
sg15
I4
sg146
g147
sbsI5
g0
(g138
g2
Ntp160
Rp161
(dp162
g142
g143
sg144
F2.3981361616426238
sg145
F1.0
sg15
I5
sg146
g147
sbsI6
g0
(g138
g2
Ntp163
Rp164
(dp165
g142
g143
sg144
F-4.416756351065004
sg145
F1.0
sg15
I6
sg146
g147
sbsI7
g0
(g138
g2
Ntp166
Rp167
(dp168
g142
g143
sg144
F-9.785120458150278
sg145
F1.0
sg15
I7
sg146
g147
sbsI8
g0
(g138
g2
Ntp169
Rp170
(dp171
g142
g143
sg144
F1.3623035349684818
sg145
F1.0
sg15
I8
sg146
g147
sbsI9
g0
(g138
g2
Ntp172
Rp173
(dp174
g142
g143
sg144
F18.012382400639538
sg145
F1.0
sg15
I9
sg146
g147
sbsI327
g0
(g138
g2
Ntp175
Rp176
(dp177
g142
g143
sg144
F-2.9284568239004938
sg145
F1.0
sg15
I327
sg146
g147
sbsI752
g0
(g138
g2
Ntp178
Rp179
(dp180
g142
g143
sg144
F11.752748554332689
sg145
F1.0
sg15
I752
sg146
g147
sbsI328
g0
(g138
g2
Ntp181
Rp182
(dp183
g142
g143
sg144
F-2.321541308101401
sg145
F1.0
sg15
I328
sg146
g147
sbssg15
I129
sS'fitness'
p184
Nsb.