ccopy_reg
_reconstructor
p0
(cneat.genome
DefaultGenome
p1
c__builtin__
object
p2
Ntp3
Rp4
(dp5
S'connections'
p6
(dp7
(I-10
I263
tp8
g0
(cneat.genes
DefaultConnectionGene
p9
g2
Ntp10
Rp11
(dp12
S'enabled'
p13
I01
sS'weight'
p14
F2.0035872969955104
sS'key'
p15
g8
sbs(I-1
I100
tp16
g0
(g9
g2
Ntp17
Rp18
(dp19
g13
I00
sg14
F-0.666886141792543
sg15
g16
sbs(I-9
I7
tp20
g0
(g9
g2
Ntp21
Rp22
(dp23
g13
I01
sg14
F1.0530035257793124
sg15
g20
sbssS'nodes'
p24
(dp25
I0
g0
(cneat.genes
DefaultNodeGene
p26
g2
Ntp27
Rp28
(dp29
S'activation'
p30
S'relu'
p31
sS'bias'
p32
F-3.717574659302347
sS'response'
p33
F1.0
sg15
I0
sS'aggregation'
p34
S'sum'
p35
sbsI1
g0
(g26
g2
Ntp36
Rp37
(dp38
g30
g31
sg32
F-7.443718647955121
sg33
F1.0
sg15
I1
sg34
g35
sbsI2
g0
(g26
g2
Ntp39
Rp40
(dp41
g30
g31
sg32
F-1.0071435962377673
sg33
F1.0
sg15
I2
sg34
g35
sbsI3
g0
(g26
g2
Ntp42
Rp43
(dp44
g30
g31
sg32
F-12.506916211213156
sg33
F1.0
sg15
I3
sg34
g35
sbsI4
g0
(g26
g2
Ntp45
Rp46
(dp47
g30
g31
sg32
F-2.041027083897022
sg33
F1.0
sg15
I4
sg34
g35
sbsI5
g0
(g26
g2
Ntp48
Rp49
(dp50
g30
g31
sg32
F2.6679903158958664
sg33
F1.0
sg15
I5
sg34
g35
sbsI6
g0
(g26
g2
Ntp51
Rp52
(dp53
g30
S'tanh'
p54
sg32
F9.575343645769383
sg33
F1.0
sg15
I6
sg34
g35
sbsI7
g0
(g26
g2
Ntp55
Rp56
(dp57
g30
g54
sg32
F-8.844752679765813
sg33
F1.0
sg15
I7
sg34
g35
sbsI8
g0
(g26
g2
Ntp58
Rp59
(dp60
g30
g31
sg32
F-17.214417682250687
sg33
F1.0
sg15
I8
sg34
g35
sbsI9
g0
(g26
g2
Ntp61
Rp62
(dp63
g30
g31
sg32
F14.459565238294395
sg33
F1.0
sg15
I9
sg34
g35
sbsI263
g0
(g26
g2
Ntp64
Rp65
(dp66
g30
g31
sg32
F12.495980685729272
sg33
F1.0
sg15
I263
sg34
g35
sbsI100
g0
(g26
g2
Ntp67
Rp68
(dp69
g30
g31
sg32
F2.7819655377847914
sg33
F1.0
sg15
I100
sg34
g35
sbssg15
I1291
sS'fitness'
p70
Nsb.