ccopy_reg
_reconstructor
p0
(cneat.genome
DefaultGenome
p1
c__builtin__
object
p2
Ntp3
Rp4
(dp5
S'connections'
p6
(dp7
(I-7
I301
tp8
g0
(cneat.genes
DefaultConnectionGene
p9
g2
Ntp10
Rp11
(dp12
S'enabled'
p13
I01
sS'weight'
p14
F1.0110069246439557
sS'key'
p15
g8
sbs(I301
I212
tp16
g0
(g9
g2
Ntp17
Rp18
(dp19
g13
I01
sg14
F1.1157684228616085
sg15
g16
sbs(I212
I1
tp20
g0
(g9
g2
Ntp21
Rp22
(dp23
g13
I01
sg14
F1.7056279731470685
sg15
g20
sbs(I-7
I1
tp24
g0
(g9
g2
Ntp25
Rp26
(dp27
g13
I00
sg14
F1.5855745101796035
sg15
g24
sbs(I-7
I212
tp28
g0
(g9
g2
Ntp29
Rp30
(dp31
g13
I00
sg14
F-0.06997126800814502
sg15
g28
sbssS'nodes'
p32
(dp33
I0
g0
(cneat.genes
DefaultNodeGene
p34
g2
Ntp35
Rp36
(dp37
S'activation'
p38
S'tanh'
p39
sS'bias'
p40
F30.284821743021432
sS'response'
p41
F1.0
sg15
I0
sS'aggregation'
p42
S'sum'
p43
sbsI1
g0
(g34
g2
Ntp44
Rp45
(dp46
g38
S'relu'
p47
sg40
F7.717481134487979
sg41
F1.0
sg15
I1
sg42
g43
sbsI2
g0
(g34
g2
Ntp48
Rp49
(dp50
g38
g39
sg40
F5.445929502273313
sg41
F1.0
sg15
I2
sg42
g43
sbsI3
g0
(g34
g2
Ntp51
Rp52
(dp53
g38
g47
sg40
F-6.219428844227637
sg41
F1.0
sg15
I3
sg42
g43
sbsI4
g0
(g34
g2
Ntp54
Rp55
(dp56
g38
g47
sg40
F-15.237082332352886
sg41
F1.0
sg15
I4
sg42
g43
sbsI5
g0
(g34
g2
Ntp57
Rp58
(dp59
g38
g39
sg40
F1.6549583525649691
sg41
F1.0
sg15
I5
sg42
g43
sbsI6
g0
(g34
g2
Ntp60
Rp61
(dp62
g38
g47
sg40
F3.0885991928302534
sg41
F1.0
sg15
I6
sg42
g43
sbsI7
g0
(g34
g2
Ntp63
Rp64
(dp65
g38
g47
sg40
F-9.745449808275149
sg41
F1.0
sg15
I7
sg42
g43
sbsI8
g0
(g34
g2
Ntp66
Rp67
(dp68
g38
g47
sg40
F0.9447899220167
sg41
F1.0
sg15
I8
sg42
g43
sbsI9
g0
(g34
g2
Ntp69
Rp70
(dp71
g38
g47
sg40
F11.743121491995314
sg41
F1.0
sg15
I9
sg42
g43
sbsI301
g0
(g34
g2
Ntp72
Rp73
(dp74
g38
g47
sg40
F6.993540146932152
sg41
F1.0
sg15
I301
sg42
g43
sbsI212
g0
(g34
g2
Ntp75
Rp76
(dp77
g38
g39
sg40
F-9.90034554730965
sg41
F1.0
sg15
I212
sg42
g43
sbssg15
I1293
sS'fitness'
p78
Nsb.