ccopy_reg
_reconstructor
p0
(cneat.genome
DefaultGenome
p1
c__builtin__
object
p2
Ntp3
Rp4
(dp5
S'connections'
p6
(dp7
(I212
I1
tp8
g0
(cneat.genes
DefaultConnectionGene
p9
g2
Ntp10
Rp11
(dp12
S'enabled'
p13
I01
sS'weight'
p14
F1.7259594147927477
sS'key'
p15
g8
sbs(I-7
I1
tp16
g0
(g9
g2
Ntp17
Rp18
(dp19
g13
I00
sg14
F1.3896958395795518
sg15
g16
sbs(I-7
I212
tp20
g0
(g9
g2
Ntp21
Rp22
(dp23
g13
I01
sg14
F1.6132028741906133
sg15
g20
sbssS'nodes'
p24
(dp25
I0
g0
(cneat.genes
DefaultNodeGene
p26
g2
Ntp27
Rp28
(dp29
S'activation'
p30
S'tanh'
p31
sS'bias'
p32
F29.689828409240825
sS'response'
p33
F1.0
sg15
I0
sS'aggregation'
p34
S'sum'
p35
sbsI1
g0
(g26
g2
Ntp36
Rp37
(dp38
g30
S'relu'
p39
sg32
F5.955523270048763
sg33
F1.0
sg15
I1
sg34
g35
sbsI2
g0
(g26
g2
Ntp40
Rp41
(dp42
g30
g31
sg32
F4.088262811394827
sg33
F1.0
sg15
I2
sg34
g35
sbsI3
g0
(g26
g2
Ntp43
Rp44
(dp45
g30
g39
sg32
F-5.576883622962034
sg33
F1.0
sg15
I3
sg34
g35
sbsI4
g0
(g26
g2
Ntp46
Rp47
(dp48
g30
g39
sg32
F-14.640629832454657
sg33
F1.0
sg15
I4
sg34
g35
sbsI5
g0
(g26
g2
Ntp49
Rp50
(dp51
g30
g31
sg32
F1.4584574810360034
sg33
F1.0
sg15
I5
sg34
g35
sbsI6
g0
(g26
g2
Ntp52
Rp53
(dp54
g30
g39
sg32
F3.6090113454386135
sg33
F1.0
sg15
I6
sg34
g35
sbsI7
g0
(g26
g2
Ntp55
Rp56
(dp57
g30
g39
sg32
F-7.206215889763694
sg33
F1.0
sg15
I7
sg34
g35
sbsI8
g0
(g26
g2
Ntp58
Rp59
(dp60
g30
g39
sg32
F1.464672455719911
sg33
F1.0
sg15
I8
sg34
g35
sbsI9
g0
(g26
g2
Ntp61
Rp62
(dp63
g30
g39
sg32
F-2.4347444153107896
sg33
F1.0
sg15
I9
sg34
g35
sbsI212
g0
(g26
g2
Ntp64
Rp65
(dp66
g30
g39
sg32
F-9.61203509792707
sg33
F1.0
sg15
I212
sg34
g35
sbssg15
I1294
sS'fitness'
p67
Nsb.