ccopy_reg
_reconstructor
p0
(cneat.genome
DefaultGenome
p1
c__builtin__
object
p2
Ntp3
Rp4
(dp5
S'connections'
p6
(dp7
(I-7
I1
tp8
g0
(cneat.genes
DefaultConnectionGene
p9
g2
Ntp10
Rp11
(dp12
S'enabled'
p13
I00
sS'weight'
p14
F1.3896958395795518
sS'key'
p15
g8
sbssS'nodes'
p16
(dp17
I0
g0
(cneat.genes
DefaultNodeGene
p18
g2
Ntp19
Rp20
(dp21
S'activation'
p22
S'tanh'
p23
sS'bias'
p24
F29.590915831826774
sS'response'
p25
F1.0
sg15
I0
sS'aggregation'
p26
S'sum'
p27
sbsI1
g0
(g18
g2
Ntp28
Rp29
(dp30
g22
S'relu'
p31
sg24
F7.074828084267575
sg25
F1.0
sg15
I1
sg26
g27
sbsI2
g0
(g18
g2
Ntp32
Rp33
(dp34
g22
g23
sg24
F4.315377420830631
sg25
F1.0
sg15
I2
sg26
g27
sbsI3
g0
(g18
g2
Ntp35
Rp36
(dp37
g22
g31
sg24
F-6.3416302043532635
sg25
F1.0
sg15
I3
sg26
g27
sbsI4
g0
(g18
g2
Ntp38
Rp39
(dp40
g22
g31
sg24
F-14.296188357277362
sg25
F1.0
sg15
I4
sg26
g27
sbsI5
g0
(g18
g2
Ntp41
Rp42
(dp43
g22
g23
sg24
F1.8025115894661616
sg25
F1.0
sg15
I5
sg26
g27
sbsI6
g0
(g18
g2
Ntp44
Rp45
(dp46
g22
g31
sg24
F3.6586420188123077
sg25
F1.0
sg15
I6
sg26
g27
sbsI7
g0
(g18
g2
Ntp47
Rp48
(dp49
g22
g31
sg24
F-6.415921232007859
sg25
F1.0
sg15
I7
sg26
g27
sbsI8
g0
(g18
g2
Ntp50
Rp51
(dp52
g22
g31
sg24
F0.6270861195175511
sg25
F1.0
sg15
I8
sg26
g27
sbsI9
g0
(g18
g2
Ntp53
Rp54
(dp55
g22
g31
sg24
F-1.6000299801841744
sg25
F1.0
sg15
I9
sg26
g27
sbssg15
I1295
sS'fitness'
p56
Nsb.