ccopy_reg
_reconstructor
p0
(cneat.genome
DefaultGenome
p1
c__builtin__
object
p2
Ntp3
Rp4
(dp5
S'connections'
p6
(dp7
(I-1
I44
tp8
g0
(cneat.genes
DefaultConnectionGene
p9
g2
Ntp10
Rp11
(dp12
S'enabled'
p13
I01
sS'weight'
p14
F-0.2578662748845095
sS'key'
p15
g8
sbs(I-6
I302
tp16
g0
(g9
g2
Ntp17
Rp18
(dp19
g13
I01
sg14
F1.4477959014169457
sg15
g16
sbs(I-2
I44
tp20
g0
(g9
g2
Ntp21
Rp22
(dp23
g13
I01
sg14
F0.7630976058563554
sg15
g20
sbs(I-7
I44
tp24
g0
(g9
g2
Ntp25
Rp26
(dp27
g13
I01
sg14
F-1.1534141802349551
sg15
g24
sbs(I-9
I44
tp28
g0
(g9
g2
Ntp29
Rp30
(dp31
g13
I01
sg14
F-2.6323503410898947
sg15
g28
sbs(I44
I4
tp32
g0
(g9
g2
Ntp33
Rp34
(dp35
g13
I01
sg14
F-2.1137155204838445
sg15
g32
sbs(I-4
I44
tp36
g0
(g9
g2
Ntp37
Rp38
(dp39
g13
I00
sg14
F0.07766098786900344
sg15
g36
sbs(I235
I44
tp40
g0
(g9
g2
Ntp41
Rp42
(dp43
g13
I01
sg14
F-0.7062427915283109
sg15
g40
sbs(I44
I8
tp44
g0
(g9
g2
Ntp45
Rp46
(dp47
g13
I01
sg14
F2.5879667838261042
sg15
g44
sbs(I44
I1
tp48
g0
(g9
g2
Ntp49
Rp50
(dp51
g13
I01
sg14
F-0.555849793484009
sg15
g48
sbs(I-10
I44
tp52
g0
(g9
g2
Ntp53
Rp54
(dp55
g13
I01
sg14
F-1.6056571546751877
sg15
g52
sbs(I44
I0
tp56
g0
(g9
g2
Ntp57
Rp58
(dp59
g13
I01
sg14
F1.0768543432213495
sg15
g56
sbs(I302
I44
tp60
g0
(g9
g2
Ntp61
Rp62
(dp63
g13
I01
sg14
F-0.19901262416144694
sg15
g60
sbs(I-3
I44
tp64
g0
(g9
g2
Ntp65
Rp66
(dp67
g13
I01
sg14
F0.33926013024364093
sg15
g64
sbs(I44
I9
tp68
g0
(g9
g2
Ntp69
Rp70
(dp71
g13
I00
sg14
F1.8839723869942893
sg15
g68
sbs(I-6
I44
tp72
g0
(g9
g2
Ntp73
Rp74
(dp75
g13
I00
sg14
F-1.6156029251686574
sg15
g72
sbs(I44
I2
tp76
g0
(g9
g2
Ntp77
Rp78
(dp79
g13
I00
sg14
F0.9980285868483203
sg15
g76
sbs(I44
I6
tp80
g0
(g9
g2
Ntp81
Rp82
(dp83
g13
I01
sg14
F0.6102308193981525
sg15
g80
sbs(I-10
I235
tp84
g0
(g9
g2
Ntp85
Rp86
(dp87
g13
I01
sg14
F2.180108190222073
sg15
g84
sbs(I44
I3
tp88
g0
(g9
g2
Ntp89
Rp90
(dp91
g13
I00
sg14
F-0.5168778414425677
sg15
g88
sbs(I44
I7
tp92
g0
(g9
g2
Ntp93
Rp94
(dp95
g13
I01
sg14
F-0.0031009118028736404
sg15
g92
sbs(I-5
I44
tp96
g0
(g9
g2
Ntp97
Rp98
(dp99
g13
I01
sg14
F-0.9555033242273027
sg15
g96
sbs(I-8
I44
tp100
g0
(g9
g2
Ntp101
Rp102
(dp103
g13
I01
sg14
F-0.35232824752179837
sg15
g100
sbssS'nodes'
p104
(dp105
I0
g0
(cneat.genes
DefaultNodeGene
p106
g2
Ntp107
Rp108
(dp109
S'activation'
p110
S'relu'
p111
sS'bias'
p112
F1.3252220112048265
sS'response'
p113
F1.0
sg15
I0
sS'aggregation'
p114
S'sum'
p115
sbsI1
g0
(g106
g2
Ntp116
Rp117
(dp118
g110
g111
sg112
F-19.442240789300655
sg113
F1.0
sg15
I1
sg114
g115
sbsI2
g0
(g106
g2
Ntp119
Rp120
(dp121
g110
g111
sg112
F5.40812782103615
sg113
F1.0
sg15
I2
sg114
g115
sbsI3
g0
(g106
g2
Ntp122
Rp123
(dp124
g110
g111
sg112
F15.84432126938908
sg113
F1.0
sg15
I3
sg114
g115
sbsI4
g0
(g106
g2
Ntp125
Rp126
(dp127
g110
g111
sg112
F-1.6249825087898517
sg113
F1.0
sg15
I4
sg114
g115
sbsI5
g0
(g106
g2
Ntp128
Rp129
(dp130
g110
g111
sg112
F-4.356711223937081
sg113
F1.0
sg15
I5
sg114
g115
sbsI6
g0
(g106
g2
Ntp131
Rp132
(dp133
g110
g111
sg112
F26.432075012169634
sg113
F1.0
sg15
I6
sg114
g115
sbsI7
g0
(g106
g2
Ntp134
Rp135
(dp136
g110
g111
sg112
F-7.799857746197445
sg113
F1.0
sg15
I7
sg114
g115
sbsI8
g0
(g106
g2
Ntp137
Rp138
(dp139
g110
g111
sg112
F3.3089777926336286
sg113
F1.0
sg15
I8
sg114
g115
sbsI9
g0
(g106
g2
Ntp140
Rp141
(dp142
g110
g111
sg112
F11.307421057425177
sg113
F1.0
sg15
I9
sg114
g115
sbsI235
g0
(g106
g2
Ntp143
Rp144
(dp145
g110
g111
sg112
F4.848671609249357
sg113
F1.0
sg15
I235
sg114
g115
sbsI44
g0
(g106
g2
Ntp146
Rp147
(dp148
g110
g111
sg112
F8.67307614099233
sg113
F1.0
sg15
I44
sg114
g115
sbsI302
g0
(g106
g2
Ntp149
Rp150
(dp151
g110
g111
sg112
F-0.12130750525926118
sg113
F1.0
sg15
I302
sg114
g115
sbssg15
I1296
sS'fitness'
p152
Nsb.