ccopy_reg
_reconstructor
p0
(cneat.genome
DefaultGenome
p1
c__builtin__
object
p2
Ntp3
Rp4
(dp5
S'connections'
p6
(dp7
(I-1
I44
tp8
g0
(cneat.genes
DefaultConnectionGene
p9
g2
Ntp10
Rp11
(dp12
S'enabled'
p13
I01
sS'weight'
p14
F0.8306490342001022
sS'key'
p15
g8
sbs(I44
I2
tp16
g0
(g9
g2
Ntp17
Rp18
(dp19
g13
I01
sg14
F-2.9720495127699778
sg15
g16
sbs(I44
I1
tp20
g0
(g9
g2
Ntp21
Rp22
(dp23
g13
I01
sg14
F-0.23417602682870192
sg15
g20
sbs(I-2
I44
tp24
g0
(g9
g2
Ntp25
Rp26
(dp27
g13
I01
sg14
F2.0482266106302403
sg15
g24
sbs(I-10
I44
tp28
g0
(g9
g2
Ntp29
Rp30
(dp31
g13
I00
sg14
F-1.905449203972159
sg15
g28
sbs(I44
I7
tp32
g0
(g9
g2
Ntp33
Rp34
(dp35
g13
I01
sg14
F-2.2399738530727324
sg15
g32
sbs(I44
I0
tp36
g0
(g9
g2
Ntp37
Rp38
(dp39
g13
I01
sg14
F0.8406469687814722
sg15
g36
sbs(I-5
I44
tp40
g0
(g9
g2
Ntp41
Rp42
(dp43
g13
I01
sg14
F-0.7007637940735074
sg15
g40
sbs(I44
I6
tp44
g0
(g9
g2
Ntp45
Rp46
(dp47
g13
I01
sg14
F2.5065073404946876
sg15
g44
sbs(I-7
I44
tp48
g0
(g9
g2
Ntp49
Rp50
(dp51
g13
I01
sg14
F-1.4316146430997314
sg15
g48
sbs(I44
I9
tp52
g0
(g9
g2
Ntp53
Rp54
(dp55
g13
I00
sg14
F0.8047190811761413
sg15
g52
sbs(I-10
I235
tp56
g0
(g9
g2
Ntp57
Rp58
(dp59
g13
I01
sg14
F2.050531487275507
sg15
g56
sbs(I-3
I44
tp60
g0
(g9
g2
Ntp61
Rp62
(dp63
g13
I01
sg14
F-2.2445128183195826
sg15
g60
sbs(I44
I4
tp64
g0
(g9
g2
Ntp65
Rp66
(dp67
g13
I01
sg14
F-1.5820809235771804
sg15
g64
sbs(I-8
I44
tp68
g0
(g9
g2
Ntp69
Rp70
(dp71
g13
I01
sg14
F2.7659038780411973
sg15
g68
sbs(I-9
I44
tp72
g0
(g9
g2
Ntp73
Rp74
(dp75
g13
I01
sg14
F0.6996764020277834
sg15
g72
sbs(I-4
I44
tp76
g0
(g9
g2
Ntp77
Rp78
(dp79
g13
I00
sg14
F0.22287996488136852
sg15
g76
sbs(I235
I44
tp80
g0
(g9
g2
Ntp81
Rp82
(dp83
g13
I01
sg14
F-0.988950548090222
sg15
g80
sbs(I-6
I44
tp84
g0
(g9
g2
Ntp85
Rp86
(dp87
g13
I01
sg14
F-1.3919072156425791
sg15
g84
sbs(I44
I3
tp88
g0
(g9
g2
Ntp89
Rp90
(dp91
g13
I00
sg14
F1.2470226806174516
sg15
g88
sbs(I44
I8
tp92
g0
(g9
g2
Ntp93
Rp94
(dp95
g13
I01
sg14
F1.7447075654057396
sg15
g92
sbssS'nodes'
p96
(dp97
I0
g0
(cneat.genes
DefaultNodeGene
p98
g2
Ntp99
Rp100
(dp101
S'activation'
p102
S'relu'
p103
sS'bias'
p104
F2.191736741758088
sS'response'
p105
F1.0
sg15
I0
sS'aggregation'
p106
S'sum'
p107
sbsI1
g0
(g98
g2
Ntp108
Rp109
(dp110
g102
g103
sg104
F-19.448890800494116
sg105
F1.0
sg15
I1
sg106
g107
sbsI2
g0
(g98
g2
Ntp111
Rp112
(dp113
g102
g103
sg104
F0.1394860339583096
sg105
F1.0
sg15
I2
sg106
g107
sbsI3
g0
(g98
g2
Ntp114
Rp115
(dp116
g102
g103
sg104
F-5.475762898302445
sg105
F1.0
sg15
I3
sg106
g107
sbsI4
g0
(g98
g2
Ntp117
Rp118
(dp119
g102
g103
sg104
F-1.5609174304370559
sg105
F1.0
sg15
I4
sg106
g107
sbsI5
g0
(g98
g2
Ntp120
Rp121
(dp122
g102
g103
sg104
F-4.216999923696799
sg105
F1.0
sg15
I5
sg106
g107
sbsI6
g0
(g98
g2
Ntp123
Rp124
(dp125
g102
g103
sg104
F27.808679798682217
sg105
F1.0
sg15
I6
sg106
g107
sbsI7
g0
(g98
g2
Ntp126
Rp127
(dp128
g102
g103
sg104
F-8.196313312753432
sg105
F1.0
sg15
I7
sg106
g107
sbsI8
g0
(g98
g2
Ntp129
Rp130
(dp131
g102
g103
sg104
F-3.168036108829677
sg105
F1.0
sg15
I8
sg106
g107
sbsI9
g0
(g98
g2
Ntp132
Rp133
(dp134
g102
g103
sg104
F16.18044955507102
sg105
F1.0
sg15
I9
sg106
g107
sbsI235
g0
(g98
g2
Ntp135
Rp136
(dp137
g102
g103
sg104
F4.61444925407249
sg105
F1.0
sg15
I235
sg106
g107
sbsI44
g0
(g98
g2
Ntp138
Rp139
(dp140
g102
g103
sg104
F17.47915196487102
sg105
F1.0
sg15
I44
sg106
g107
sbssg15
I1297
sS'fitness'
p141
Nsb.