ccopy_reg
_reconstructor
p0
(cneat.genome
DefaultGenome
p1
c__builtin__
object
p2
Ntp3
Rp4
(dp5
S'connections'
p6
(dp7
(I-1
I44
tp8
g0
(cneat.genes
DefaultConnectionGene
p9
g2
Ntp10
Rp11
(dp12
S'enabled'
p13
I01
sS'weight'
p14
F-0.036256256001793
sS'key'
p15
g8
sbs(I44
I2
tp16
g0
(g9
g2
Ntp17
Rp18
(dp19
g13
I01
sg14
F-2.4262062414762666
sg15
g16
sbs(I44
I1
tp20
g0
(g9
g2
Ntp21
Rp22
(dp23
g13
I01
sg14
F0.3224352048488376
sg15
g20
sbs(I-2
I44
tp24
g0
(g9
g2
Ntp25
Rp26
(dp27
g13
I01
sg14
F0.04524108267041025
sg15
g24
sbs(I-10
I44
tp28
g0
(g9
g2
Ntp29
Rp30
(dp31
g13
I00
sg14
F-2.4510577266328615
sg15
g28
sbs(I44
I7
tp32
g0
(g9
g2
Ntp33
Rp34
(dp35
g13
I01
sg14
F0.9119295508700622
sg15
g32
sbs(I44
I0
tp36
g0
(g9
g2
Ntp37
Rp38
(dp39
g13
I01
sg14
F-0.18447674245583512
sg15
g36
sbs(I-5
I44
tp40
g0
(g9
g2
Ntp41
Rp42
(dp43
g13
I01
sg14
F0.7991964801862019
sg15
g40
sbs(I44
I6
tp44
g0
(g9
g2
Ntp45
Rp46
(dp47
g13
I01
sg14
F1.6271251081706342
sg15
g44
sbs(I-7
I44
tp48
g0
(g9
g2
Ntp49
Rp50
(dp51
g13
I01
sg14
F0.9101355092978167
sg15
g48
sbs(I-3
I44
tp52
g0
(g9
g2
Ntp53
Rp54
(dp55
g13
I01
sg14
F1.6714744237073416
sg15
g52
sbs(I44
I4
tp56
g0
(g9
g2
Ntp57
Rp58
(dp59
g13
I01
sg14
F0.27970612296279845
sg15
g56
sbs(I-8
I44
tp60
g0
(g9
g2
Ntp61
Rp62
(dp63
g13
I01
sg14
F1.7093065693071803
sg15
g60
sbs(I-9
I44
tp64
g0
(g9
g2
Ntp65
Rp66
(dp67
g13
I01
sg14
F-2.114685398671513
sg15
g64
sbs(I-4
I44
tp68
g0
(g9
g2
Ntp69
Rp70
(dp71
g13
I00
sg14
F-0.12157528052910892
sg15
g68
sbs(I44
I9
tp72
g0
(g9
g2
Ntp73
Rp74
(dp75
g13
I00
sg14
F1.6255072600299507
sg15
g72
sbs(I-6
I44
tp76
g0
(g9
g2
Ntp77
Rp78
(dp79
g13
I01
sg14
F-1.1237034524522913
sg15
g76
sbs(I44
I3
tp80
g0
(g9
g2
Ntp81
Rp82
(dp83
g13
I00
sg14
F-1.2246449700872426
sg15
g80
sbs(I44
I8
tp84
g0
(g9
g2
Ntp85
Rp86
(dp87
g13
I01
sg14
F-0.6564199536548553
sg15
g84
sbssS'nodes'
p88
(dp89
I0
g0
(cneat.genes
DefaultNodeGene
p90
g2
Ntp91
Rp92
(dp93
S'activation'
p94
S'relu'
p95
sS'bias'
p96
F2.091088946737958
sS'response'
p97
F1.0
sg15
I0
sS'aggregation'
p98
S'sum'
p99
sbsI1
g0
(g90
g2
Ntp100
Rp101
(dp102
g94
g95
sg96
F-19.28270816446878
sg97
F1.0
sg15
I1
sg98
g99
sbsI2
g0
(g90
g2
Ntp103
Rp104
(dp105
g94
g95
sg96
F0.1394860339583096
sg97
F1.0
sg15
I2
sg98
g99
sbsI3
g0
(g90
g2
Ntp106
Rp107
(dp108
g94
g95
sg96
F-2.2102283451313305
sg97
F1.0
sg15
I3
sg98
g99
sbsI4
g0
(g90
g2
Ntp109
Rp110
(dp111
g94
g95
sg96
F-16.507505217847726
sg97
F1.0
sg15
I4
sg98
g99
sbsI5
g0
(g90
g2
Ntp112
Rp113
(dp114
g94
g95
sg96
F-3.0951934759465747
sg97
F1.0
sg15
I5
sg98
g99
sbsI6
g0
(g90
g2
Ntp115
Rp116
(dp117
g94
g95
sg96
F27.95582809289854
sg97
F1.0
sg15
I6
sg98
g99
sbsI7
g0
(g90
g2
Ntp118
Rp119
(dp120
g94
g95
sg96
F-7.899290769073558
sg97
F1.0
sg15
I7
sg98
g99
sbsI8
g0
(g90
g2
Ntp121
Rp122
(dp123
g94
g95
sg96
F3.214518646788393
sg97
F1.0
sg15
I8
sg98
g99
sbsI9
g0
(g90
g2
Ntp124
Rp125
(dp126
g94
g95
sg96
F14.426566142309994
sg97
F1.0
sg15
I9
sg98
g99
sbsI44
g0
(g90
g2
Ntp127
Rp128
(dp129
g94
g95
sg96
F9.164768235888634
sg97
F1.0
sg15
I44
sg98
g99
sbssg15
I1298
sS'fitness'
p130
Nsb.