ccopy_reg
_reconstructor
p0
(cneat.genome
DefaultGenome
p1
c__builtin__
object
p2
Ntp3
Rp4
(dp5
S'connections'
p6
(dp7
(I610
I7
tp8
g0
(cneat.genes
DefaultConnectionGene
p9
g2
Ntp10
Rp11
(dp12
S'enabled'
p13
I01
sS'weight'
p14
F-1.4227723434276212
sS'key'
p15
g8
sbs(I-2
I521
tp16
g0
(g9
g2
Ntp17
Rp18
(dp19
g13
I01
sg14
F2.8060067974459493
sg15
g16
sbs(I7
I7
tp20
g0
(g9
g2
Ntp21
Rp22
(dp23
g13
I01
sg14
F0.6955956729748038
sg15
g20
sbs(I-3
I3
tp24
g0
(g9
g2
Ntp25
Rp26
(dp27
g13
I01
sg14
F-0.9964969718838154
sg15
g24
sbs(I-1
I1
tp28
g0
(g9
g2
Ntp29
Rp30
(dp31
g13
I01
sg14
F1.0854413287985818
sg15
g28
sbs(I2
I2
tp32
g0
(g9
g2
Ntp33
Rp34
(dp35
g13
I00
sg14
F-1.3159432756531113
sg15
g32
sbs(I2
I551
tp36
g0
(g9
g2
Ntp37
Rp38
(dp39
g13
I01
sg14
F-0.6158995562871592
sg15
g36
sbs(I559
I0
tp40
g0
(g9
g2
Ntp41
Rp42
(dp43
g13
I01
sg14
F-1.2148831341369228
sg15
g40
sbs(I9
I9
tp44
g0
(g9
g2
Ntp45
Rp46
(dp47
g13
I01
sg14
F1.5352915255170827
sg15
g44
sbs(I8
I8
tp48
g0
(g9
g2
Ntp49
Rp50
(dp51
g13
I01
sg14
F-0.5868785884080476
sg15
g48
sbssS'nodes'
p52
(dp53
I0
g0
(cneat.genes
DefaultNodeGene
p54
g2
Ntp55
Rp56
(dp57
S'activation'
p58
S'tanh'
p59
sS'bias'
p60
F3.173225784816965
sS'response'
p61
F1.0
sg15
I0
sS'aggregation'
p62
S'sum'
p63
sbsI1
g0
(g54
g2
Ntp64
Rp65
(dp66
g58
g59
sg60
F-0.4307856883290041
sg61
F1.0
sg15
I1
sg62
g63
sbsI2
g0
(g54
g2
Ntp67
Rp68
(dp69
g58
g59
sg60
F8.34125529553648
sg61
F1.0
sg15
I2
sg62
g63
sbsI3
g0
(g54
g2
Ntp70
Rp71
(dp72
g58
g59
sg60
F-0.42492652208681175
sg61
F1.0
sg15
I3
sg62
g63
sbsI4
g0
(g54
g2
Ntp73
Rp74
(dp75
g58
S'relu'
p76
sg60
F24.912379233183703
sg61
F1.0
sg15
I4
sg62
g63
sbsI5
g0
(g54
g2
Ntp77
Rp78
(dp79
g58
g59
sg60
F9.055308953297155
sg61
F1.0
sg15
I5
sg62
g63
sbsI6
g0
(g54
g2
Ntp80
Rp81
(dp82
g58
g59
sg60
F18.497889675067757
sg61
F1.0
sg15
I6
sg62
g63
sbsI7
g0
(g54
g2
Ntp83
Rp84
(dp85
g58
g59
sg60
F6.155003886299563
sg61
F1.0
sg15
I7
sg62
g63
sbsI8
g0
(g54
g2
Ntp86
Rp87
(dp88
g58
g59
sg60
F-6.339726117933444
sg61
F1.0
sg15
I8
sg62
g63
sbsI9
g0
(g54
g2
Ntp89
Rp90
(dp91
g58
g59
sg60
F14.446707008711465
sg61
F1.0
sg15
I9
sg62
g63
sbsI551
g0
(g54
g2
Ntp92
Rp93
(dp94
g58
g59
sg60
F-1.243535877070482
sg61
F1.0
sg15
I551
sg62
g63
sbsI610
g0
(g54
g2
Ntp95
Rp96
(dp97
g58
g76
sg60
F-2.9244582209261685
sg61
F1.0
sg15
I610
sg62
g63
sbsI559
g0
(g54
g2
Ntp98
Rp99
(dp100
g58
g59
sg60
F12.10583908151297
sg61
F1.0
sg15
I559
sg62
g63
sbsI521
g0
(g54
g2
Ntp101
Rp102
(dp103
g58
g59
sg60
F13.602092099594358
sg61
F1.0
sg15
I521
sg62
g63
sbssg15
I13
sS'fitness'
p104
Nsb.