ccopy_reg
_reconstructor
p0
(cneat.genome
DefaultGenome
p1
c__builtin__
object
p2
Ntp3
Rp4
(dp5
S'connections'
p6
(dp7
(I257
I3
tp8
g0
(cneat.genes
DefaultConnectionGene
p9
g2
Ntp10
Rp11
(dp12
S'enabled'
p13
I00
sS'weight'
p14
F0.5104890875298266
sS'key'
p15
g8
sbs(I255
I8
tp16
g0
(g9
g2
Ntp17
Rp18
(dp19
g13
I01
sg14
F-0.49798111449230353
sg15
g16
sbs(I-9
I255
tp20
g0
(g9
g2
Ntp21
Rp22
(dp23
g13
I01
sg14
F0.22501756622483782
sg15
g20
sbs(I6
I6
tp24
g0
(g9
g2
Ntp25
Rp26
(dp27
g13
I01
sg14
F1.5273454920119296
sg15
g24
sbs(I258
I1
tp28
g0
(g9
g2
Ntp29
Rp30
(dp31
g13
I01
sg14
F-2.476609521603524
sg15
g28
sbs(I258
I4
tp32
g0
(g9
g2
Ntp33
Rp34
(dp35
g13
I00
sg14
F0.28924514401978496
sg15
g32
sbs(I-4
I258
tp36
g0
(g9
g2
Ntp37
Rp38
(dp39
g13
I01
sg14
F-2.937079061396572
sg15
g36
sbs(I-10
I258
tp40
g0
(g9
g2
Ntp41
Rp42
(dp43
g13
I00
sg14
F-1.5353510380836932
sg15
g40
sbs(I257
I6
tp44
g0
(g9
g2
Ntp45
Rp46
(dp47
g13
I00
sg14
F0.11322201852723107
sg15
g44
sbs(I-5
I255
tp48
g0
(g9
g2
Ntp49
Rp50
(dp51
g13
I01
sg14
F-2.381635702252966
sg15
g48
sbs(I258
I5
tp52
g0
(g9
g2
Ntp53
Rp54
(dp55
g13
I01
sg14
F-0.15071237172143387
sg15
g52
sbs(I-10
I255
tp56
g0
(g9
g2
Ntp57
Rp58
(dp59
g13
I01
sg14
F3.3577763959524556
sg15
g56
sbs(I257
I2
tp60
g0
(g9
g2
Ntp61
Rp62
(dp63
g13
I01
sg14
F1.156300344481302
sg15
g60
sbs(I-5
I257
tp64
g0
(g9
g2
Ntp65
Rp66
(dp67
g13
I01
sg14
F-0.2257406148261889
sg15
g64
sbs(I3
I3
tp68
g0
(g9
g2
Ntp69
Rp70
(dp71
g13
I00
sg14
F-2.9728637611895774
sg15
g68
sbs(I537
I4
tp72
g0
(g9
g2
Ntp73
Rp74
(dp75
g13
I01
sg14
F0.4792005348736358
sg15
g72
sbs(I255
I4
tp76
g0
(g9
g2
Ntp77
Rp78
(dp79
g13
I01
sg14
F-0.7561711319280244
sg15
g76
sbs(I255
I0
tp80
g0
(g9
g2
Ntp81
Rp82
(dp83
g13
I00
sg14
F-0.6809253415333048
sg15
g80
sbs(I257
I5
tp84
g0
(g9
g2
Ntp85
Rp86
(dp87
g13
I00
sg14
F3.980614865180397
sg15
g84
sbs(I258
I2
tp88
g0
(g9
g2
Ntp89
Rp90
(dp91
g13
I01
sg14
F-0.26893940420695195
sg15
g88
sbs(I255
I3
tp92
g0
(g9
g2
Ntp93
Rp94
(dp95
g13
I01
sg14
F-0.06942650343706624
sg15
g92
sbs(I-3
I255
tp96
g0
(g9
g2
Ntp97
Rp98
(dp99
g13
I01
sg14
F1.5709954060734836
sg15
g96
sbs(I257
I1
tp100
g0
(g9
g2
Ntp101
Rp102
(dp103
g13
I01
sg14
F-0.8927263462675161
sg15
g100
sbs(I-1
I258
tp104
g0
(g9
g2
Ntp105
Rp106
(dp107
g13
I01
sg14
F-0.7055225261389987
sg15
g104
sbs(I-7
I255
tp108
g0
(g9
g2
Ntp109
Rp110
(dp111
g13
I00
sg14
F1.1664368338976783
sg15
g108
sbs(I-2
I258
tp112
g0
(g9
g2
Ntp113
Rp114
(dp115
g13
I00
sg14
F-0.6163661543743452
sg15
g112
sbs(I257
I257
tp116
g0
(g9
g2
Ntp117
Rp118
(dp119
g13
I01
sg14
F-1.2395645927133807
sg15
g116
sbs(I255
I255
tp120
g0
(g9
g2
Ntp121
Rp122
(dp123
g13
I01
sg14
F-0.7240501271261323
sg15
g120
sbs(I257
I4
tp124
g0
(g9
g2
Ntp125
Rp126
(dp127
g13
I01
sg14
F0.45911292373464563
sg15
g124
sbs(I-2
I255
tp128
g0
(g9
g2
Ntp129
Rp130
(dp131
g13
I00
sg14
F-1.0698056252785921
sg15
g128
sbs(I257
I9
tp132
g0
(g9
g2
Ntp133
Rp134
(dp135
g13
I01
sg14
F1.385416584712187
sg15
g132
sbs(I255
I2
tp136
g0
(g9
g2
Ntp137
Rp138
(dp139
g13
I01
sg14
F-0.4613670044370353
sg15
g136
sbs(I-8
I255
tp140
g0
(g9
g2
Ntp141
Rp142
(dp143
g13
I01
sg14
F-0.8883012478760758
sg15
g140
sbs(I257
I411
tp144
g0
(g9
g2
Ntp145
Rp146
(dp147
g13
I01
sg14
F1.0448486141348903
sg15
g144
sbs(I2
I2
tp148
g0
(g9
g2
Ntp149
Rp150
(dp151
g13
I01
sg14
F-2.551664403435188
sg15
g148
sbs(I-6
I258
tp152
g0
(g9
g2
Ntp153
Rp154
(dp155
g13
I01
sg14
F0.967036816117288
sg15
g152
sbs(I258
I537
tp156
g0
(g9
g2
Ntp157
Rp158
(dp159
g13
I01
sg14
F1.6212548067655153
sg15
g156
sbs(I411
I3
tp160
g0
(g9
g2
Ntp161
Rp162
(dp163
g13
I00
sg14
F0.3394938462813869
sg15
g160
sbs(I255
I1
tp164
g0
(g9
g2
Ntp165
Rp166
(dp167
g13
I01
sg14
F-0.6178533902290098
sg15
g164
sbssS'nodes'
p168
(dp169
I0
g0
(cneat.genes
DefaultNodeGene
p170
g2
Ntp171
Rp172
(dp173
S'activation'
p174
S'tanh'
p175
sS'bias'
p176
F32.734739275460996
sS'response'
p177
F1.0
sg15
I0
sS'aggregation'
p178
S'sum'
p179
sbsI1
g0
(g170
g2
Ntp180
Rp181
(dp182
g174
S'relu'
p183
sg176
F6.810165678821886
sg177
F1.0
sg15
I1
sg178
g179
sbsI2
g0
(g170
g2
Ntp184
Rp185
(dp186
g174
g175
sg176
F8.744010335075686
sg177
F1.0
sg15
I2
sg178
g179
sbsI3
g0
(g170
g2
Ntp187
Rp188
(dp189
g174
g175
sg176
F6.707252722124312
sg177
F1.0
sg15
I3
sg178
g179
sbsI4
g0
(g170
g2
Ntp190
Rp191
(dp192
g174
g175
sg176
F4.0773460420342555
sg177
F1.0
sg15
I4
sg178
g179
sbsI5
g0
(g170
g2
Ntp193
Rp194
(dp195
g174
g175
sg176
F28.331382984185392
sg177
F1.0
sg15
I5
sg178
g179
sbsI6
g0
(g170
g2
Ntp196
Rp197
(dp198
g174
g183
sg176
F-13.961107627160633
sg177
F1.0
sg15
I6
sg178
g179
sbsI7
g0
(g170
g2
Ntp199
Rp200
(dp201
g174
g183
sg176
F-8.058993011644874
sg177
F1.0
sg15
I7
sg178
g179
sbsI8
g0
(g170
g2
Ntp202
Rp203
(dp204
g174
g175
sg176
F-13.35426495902171
sg177
F1.0
sg15
I8
sg178
g179
sbsI9
g0
(g170
g2
Ntp205
Rp206
(dp207
g174
g175
sg176
F5.258514596329488
sg177
F1.0
sg15
I9
sg178
g179
sbsI257
g0
(g170
g2
Ntp208
Rp209
(dp210
g174
g175
sg176
F-7.669528468651556
sg177
F1.0
sg15
I257
sg178
g179
sbsI258
g0
(g170
g2
Ntp211
Rp212
(dp213
g174
g175
sg176
F11.96003126192522
sg177
F1.0
sg15
I258
sg178
g179
sbsI537
g0
(g170
g2
Ntp214
Rp215
(dp216
g174
g183
sg176
F-11.358639008781353
sg177
F1.0
sg15
I537
sg178
g179
sbsI411
g0
(g170
g2
Ntp217
Rp218
(dp219
g174
g175
sg176
F3.0317418792865585
sg177
F1.0
sg15
I411
sg178
g179
sbsI255
g0
(g170
g2
Ntp220
Rp221
(dp222
g174
g175
sg176
F1.5646323236985045
sg177
F1.0
sg15
I255
sg178
g179
sbssg15
I13
sS'fitness'
p223
Nsb.