ccopy_reg
_reconstructor
p0
(cneat.genome
DefaultGenome
p1
c__builtin__
object
p2
Ntp3
Rp4
(dp5
S'connections'
p6
(dp7
(I86
I3
tp8
g0
(cneat.genes
DefaultConnectionGene
p9
g2
Ntp10
Rp11
(dp12
S'enabled'
p13
I01
sS'weight'
p14
F-0.310572653989575
sS'key'
p15
g8
sbs(I-10
I86
tp16
g0
(g9
g2
Ntp17
Rp18
(dp19
g13
I00
sg14
F0.2712316856909987
sg15
g16
sbs(I-6
I86
tp20
g0
(g9
g2
Ntp21
Rp22
(dp23
g13
I00
sg14
F-1.4097512611576648
sg15
g20
sbs(I86
I4
tp24
g0
(g9
g2
Ntp25
Rp26
(dp27
g13
I01
sg14
F0.7561504868823592
sg15
g24
sbs(I-7
I0
tp28
g0
(g9
g2
Ntp29
Rp30
(dp31
g13
I01
sg14
F-0.454603876966325
sg15
g28
sbs(I-1
I86
tp32
g0
(g9
g2
Ntp33
Rp34
(dp35
g13
I01
sg14
F0.8208738013173437
sg15
g32
sbs(I86
I0
tp36
g0
(g9
g2
Ntp37
Rp38
(dp39
g13
I00
sg14
F0.20498976505939753
sg15
g36
sbs(I277
I86
tp40
g0
(g9
g2
Ntp41
Rp42
(dp43
g13
I01
sg14
F0.5565439203662143
sg15
g40
sbs(I-9
I86
tp44
g0
(g9
g2
Ntp45
Rp46
(dp47
g13
I01
sg14
F-0.6555890829185712
sg15
g44
sbs(I86
I303
tp48
g0
(g9
g2
Ntp49
Rp50
(dp51
g13
I01
sg14
F0.697895340526289
sg15
g48
sbs(I-4
I86
tp52
g0
(g9
g2
Ntp53
Rp54
(dp55
g13
I00
sg14
F-1.0377917863317696
sg15
g52
sbs(I86
I5
tp56
g0
(g9
g2
Ntp57
Rp58
(dp59
g13
I01
sg14
F1.165378393373667
sg15
g56
sbs(I-2
I86
tp60
g0
(g9
g2
Ntp61
Rp62
(dp63
g13
I00
sg14
F1.008831562985083
sg15
g60
sbs(I86
I8
tp64
g0
(g9
g2
Ntp65
Rp66
(dp67
g13
I01
sg14
F-2.2775876106375597
sg15
g64
sbs(I-8
I86
tp68
g0
(g9
g2
Ntp69
Rp70
(dp71
g13
I01
sg14
F-2.5394509735206023
sg15
g68
sbs(I86
I1
tp72
g0
(g9
g2
Ntp73
Rp74
(dp75
g13
I01
sg14
F0.23643164861839405
sg15
g72
sbs(I-1
I277
tp76
g0
(g9
g2
Ntp77
Rp78
(dp79
g13
I01
sg14
F0.9344870773557592
sg15
g76
sbs(I303
I0
tp80
g0
(g9
g2
Ntp81
Rp82
(dp83
g13
I01
sg14
F1.0961330605995752
sg15
g80
sbs(I-3
I86
tp84
g0
(g9
g2
Ntp85
Rp86
(dp87
g13
I00
sg14
F1.6945617594560607
sg15
g84
sbs(I86
I9
tp88
g0
(g9
g2
Ntp89
Rp90
(dp91
g13
I00
sg14
F-0.04139812395544484
sg15
g88
sbs(I86
I6
tp92
g0
(g9
g2
Ntp93
Rp94
(dp95
g13
I01
sg14
F-1.0003154442188509
sg15
g92
sbs(I-7
I86
tp96
g0
(g9
g2
Ntp97
Rp98
(dp99
g13
I01
sg14
F-0.11395158932330916
sg15
g96
sbs(I86
I2
tp100
g0
(g9
g2
Ntp101
Rp102
(dp103
g13
I00
sg14
F2.1078530281990884
sg15
g100
sbs(I86
I7
tp104
g0
(g9
g2
Ntp105
Rp106
(dp107
g13
I01
sg14
F2.7075017535819135
sg15
g104
sbs(I-5
I86
tp108
g0
(g9
g2
Ntp109
Rp110
(dp111
g13
I01
sg14
F2.142966636972524
sg15
g108
sbssS'nodes'
p112
(dp113
I0
g0
(cneat.genes
DefaultNodeGene
p114
g2
Ntp115
Rp116
(dp117
S'activation'
p118
S'tanh'
p119
sS'bias'
p120
F6.87636807047164
sS'response'
p121
F1.0
sg15
I0
sS'aggregation'
p122
S'sum'
p123
sbsI1
g0
(g114
g2
Ntp124
Rp125
(dp126
g118
S'relu'
p127
sg120
F23.309717199205434
sg121
F1.0
sg15
I1
sg122
g123
sbsI2
g0
(g114
g2
Ntp128
Rp129
(dp130
g118
g127
sg120
F3.5600790341696023
sg121
F1.0
sg15
I2
sg122
g123
sbsI3
g0
(g114
g2
Ntp131
Rp132
(dp133
g118
g127
sg120
F-23.12023731379945
sg121
F1.0
sg15
I3
sg122
g123
sbsI4
g0
(g114
g2
Ntp134
Rp135
(dp136
g118
g127
sg120
F-4.77817669815558
sg121
F1.0
sg15
I4
sg122
g123
sbsI5
g0
(g114
g2
Ntp137
Rp138
(dp139
g118
g127
sg120
F13.392021643025183
sg121
F1.0
sg15
I5
sg122
g123
sbsI6
g0
(g114
g2
Ntp140
Rp141
(dp142
g118
g127
sg120
F5.003142424911757
sg121
F1.0
sg15
I6
sg122
g123
sbsI7
g0
(g114
g2
Ntp143
Rp144
(dp145
g118
g127
sg120
F-5.282591681513757
sg121
F1.0
sg15
I7
sg122
g123
sbsI8
g0
(g114
g2
Ntp146
Rp147
(dp148
g118
g127
sg120
F6.194639745592886
sg121
F1.0
sg15
I8
sg122
g123
sbsI9
g0
(g114
g2
Ntp149
Rp150
(dp151
g118
g127
sg120
F-14.428924375779326
sg121
F1.0
sg15
I9
sg122
g123
sbsI303
g0
(g114
g2
Ntp152
Rp153
(dp154
g118
g127
sg120
F9.04964410497077
sg121
F1.0
sg15
I303
sg122
g123
sbsI277
g0
(g114
g2
Ntp155
Rp156
(dp157
g118
g127
sg120
F15.974753275634363
sg121
F1.0
sg15
I277
sg122
g123
sbsI86
g0
(g114
g2
Ntp158
Rp159
(dp160
g118
g127
sg120
F7.070947271831862
sg121
F1.0
sg15
I86
sg122
g123
sbssg15
I1300
sS'fitness'
p161
Nsb.