ccopy_reg
_reconstructor
p0
(cneat.genome
DefaultGenome
p1
c__builtin__
object
p2
Ntp3
Rp4
(dp5
S'connections'
p6
(dp7
(I86
I3
tp8
g0
(cneat.genes
DefaultConnectionGene
p9
g2
Ntp10
Rp11
(dp12
S'enabled'
p13
I01
sS'weight'
p14
F-0.43860575670303736
sS'key'
p15
g8
sbs(I-10
I86
tp16
g0
(g9
g2
Ntp17
Rp18
(dp19
g13
I01
sg14
F0.19388385553735893
sg15
g16
sbs(I-6
I86
tp20
g0
(g9
g2
Ntp21
Rp22
(dp23
g13
I01
sg14
F-1.5195549736204186
sg15
g20
sbs(I86
I4
tp24
g0
(g9
g2
Ntp25
Rp26
(dp27
g13
I01
sg14
F0.8793370725362829
sg15
g24
sbs(I-7
I0
tp28
g0
(g9
g2
Ntp29
Rp30
(dp31
g13
I01
sg14
F-0.4701208816772604
sg15
g28
sbs(I-1
I86
tp32
g0
(g9
g2
Ntp33
Rp34
(dp35
g13
I01
sg14
F0.5414127027385374
sg15
g32
sbs(I86
I0
tp36
g0
(g9
g2
Ntp37
Rp38
(dp39
g13
I00
sg14
F-1.363085969600457
sg15
g36
sbs(I277
I86
tp40
g0
(g9
g2
Ntp41
Rp42
(dp43
g13
I01
sg14
F1.0085636274602257
sg15
g40
sbs(I-9
I86
tp44
g0
(g9
g2
Ntp45
Rp46
(dp47
g13
I01
sg14
F-0.11020650601693044
sg15
g44
sbs(I-4
I86
tp48
g0
(g9
g2
Ntp49
Rp50
(dp51
g13
I00
sg14
F0.45079682273344335
sg15
g48
sbs(I86
I5
tp52
g0
(g9
g2
Ntp53
Rp54
(dp55
g13
I01
sg14
F0.007742824020467498
sg15
g52
sbs(I-2
I86
tp56
g0
(g9
g2
Ntp57
Rp58
(dp59
g13
I01
sg14
F0.7766384361432468
sg15
g56
sbs(I86
I8
tp60
g0
(g9
g2
Ntp61
Rp62
(dp63
g13
I01
sg14
F-0.4906035577649715
sg15
g60
sbs(I-8
I86
tp64
g0
(g9
g2
Ntp65
Rp66
(dp67
g13
I01
sg14
F-0.998794865723192
sg15
g64
sbs(I86
I1
tp68
g0
(g9
g2
Ntp69
Rp70
(dp71
g13
I01
sg14
F0.9038357415015945
sg15
g68
sbs(I-1
I277
tp72
g0
(g9
g2
Ntp73
Rp74
(dp75
g13
I01
sg14
F0.9649685828110263
sg15
g72
sbs(I-3
I86
tp76
g0
(g9
g2
Ntp77
Rp78
(dp79
g13
I00
sg14
F0.19768318332433693
sg15
g76
sbs(I86
I9
tp80
g0
(g9
g2
Ntp81
Rp82
(dp83
g13
I00
sg14
F0.3842856765814434
sg15
g80
sbs(I86
I6
tp84
g0
(g9
g2
Ntp85
Rp86
(dp87
g13
I01
sg14
F-0.42597392377129195
sg15
g84
sbs(I-7
I86
tp88
g0
(g9
g2
Ntp89
Rp90
(dp91
g13
I01
sg14
F0.8566474774435487
sg15
g88
sbs(I86
I2
tp92
g0
(g9
g2
Ntp93
Rp94
(dp95
g13
I00
sg14
F1.0754997940894422
sg15
g92
sbs(I86
I7
tp96
g0
(g9
g2
Ntp97
Rp98
(dp99
g13
I01
sg14
F3.047505096686034
sg15
g96
sbs(I-5
I86
tp100
g0
(g9
g2
Ntp101
Rp102
(dp103
g13
I01
sg14
F1.4514430215475582
sg15
g100
sbssS'nodes'
p104
(dp105
I0
g0
(cneat.genes
DefaultNodeGene
p106
g2
Ntp107
Rp108
(dp109
S'activation'
p110
S'tanh'
p111
sS'bias'
p112
F9.971458313179806
sS'response'
p113
F1.0
sg15
I0
sS'aggregation'
p114
S'sum'
p115
sbsI1
g0
(g106
g2
Ntp116
Rp117
(dp118
g110
S'relu'
p119
sg112
F25.372572495542286
sg113
F1.0
sg15
I1
sg114
g115
sbsI2
g0
(g106
g2
Ntp120
Rp121
(dp122
g110
g119
sg112
F7.476006972102688
sg113
F1.0
sg15
I2
sg114
g115
sbsI3
g0
(g106
g2
Ntp123
Rp124
(dp125
g110
g111
sg112
F-19.78796012126995
sg113
F1.0
sg15
I3
sg114
g115
sbsI4
g0
(g106
g2
Ntp126
Rp127
(dp128
g110
g119
sg112
F-4.910894512085546
sg113
F1.0
sg15
I4
sg114
g115
sbsI5
g0
(g106
g2
Ntp129
Rp130
(dp131
g110
g119
sg112
F-9.014696081419762
sg113
F1.0
sg15
I5
sg114
g115
sbsI6
g0
(g106
g2
Ntp132
Rp133
(dp134
g110
g119
sg112
F3.4748682324862097
sg113
F1.0
sg15
I6
sg114
g115
sbsI7
g0
(g106
g2
Ntp135
Rp136
(dp137
g110
g119
sg112
F-4.48314712670983
sg113
F1.0
sg15
I7
sg114
g115
sbsI8
g0
(g106
g2
Ntp138
Rp139
(dp140
g110
g119
sg112
F0.4597852006414532
sg113
F1.0
sg15
I8
sg114
g115
sbsI9
g0
(g106
g2
Ntp141
Rp142
(dp143
g110
g119
sg112
F-13.734235697730762
sg113
F1.0
sg15
I9
sg114
g115
sbsI277
g0
(g106
g2
Ntp144
Rp145
(dp146
g110
g119
sg112
F15.757742459891055
sg113
F1.0
sg15
I277
sg114
g115
sbsI86
g0
(g106
g2
Ntp147
Rp148
(dp149
g110
g119
sg112
F7.359573161939656
sg113
F1.0
sg15
I86
sg114
g115
sbssg15
I1301
sS'fitness'
p150
Nsb.