ccopy_reg
_reconstructor
p0
(cneat.genome
DefaultGenome
p1
c__builtin__
object
p2
Ntp3
Rp4
(dp5
S'connections'
p6
(dp7
(I-6
I46
tp8
g0
(cneat.genes
DefaultConnectionGene
p9
g2
Ntp10
Rp11
(dp12
S'enabled'
p13
I01
sS'weight'
p14
F-3.207275803436913
sS'key'
p15
g8
sbs(I46
I7
tp16
g0
(g9
g2
Ntp17
Rp18
(dp19
g13
I01
sg14
F4.184630156584497
sg15
g16
sbs(I-9
I46
tp20
g0
(g9
g2
Ntp21
Rp22
(dp23
g13
I01
sg14
F-0.7952717629269902
sg15
g20
sbs(I46
I3
tp24
g0
(g9
g2
Ntp25
Rp26
(dp27
g13
I01
sg14
F0.39473892117539755
sg15
g24
sbs(I-10
I46
tp28
g0
(g9
g2
Ntp29
Rp30
(dp31
g13
I01
sg14
F-0.7658445484997831
sg15
g28
sbs(I46
I215
tp32
g0
(g9
g2
Ntp33
Rp34
(dp35
g13
I01
sg14
F1.2953501832987961
sg15
g32
sbs(I46
I8
tp36
g0
(g9
g2
Ntp37
Rp38
(dp39
g13
I01
sg14
F-0.9551770472842259
sg15
g36
sbs(I-5
I46
tp40
g0
(g9
g2
Ntp41
Rp42
(dp43
g13
I00
sg14
F0.11221321873916917
sg15
g40
sbs(I46
I4
tp44
g0
(g9
g2
Ntp45
Rp46
(dp47
g13
I01
sg14
F0.7158217522977731
sg15
g44
sbs(I-2
I46
tp48
g0
(g9
g2
Ntp49
Rp50
(dp51
g13
I01
sg14
F0.31958191826687476
sg15
g48
sbs(I-5
I304
tp52
g0
(g9
g2
Ntp53
Rp54
(dp55
g13
I01
sg14
F1.0
sg15
g52
sbs(I-8
I46
tp56
g0
(g9
g2
Ntp57
Rp58
(dp59
g13
I00
sg14
F0.5064534979065085
sg15
g56
sbs(I46
I0
tp60
g0
(g9
g2
Ntp61
Rp62
(dp63
g13
I01
sg14
F-2.010673984571641
sg15
g60
sbs(I46
I9
tp64
g0
(g9
g2
Ntp65
Rp66
(dp67
g13
I01
sg14
F1.58148876961089
sg15
g64
sbs(I46
I5
tp68
g0
(g9
g2
Ntp69
Rp70
(dp71
g13
I00
sg14
F-0.2774785982788337
sg15
g68
sbs(I-1
I46
tp72
g0
(g9
g2
Ntp73
Rp74
(dp75
g13
I01
sg14
F-1.1690909123573865
sg15
g72
sbs(I46
I1
tp76
g0
(g9
g2
Ntp77
Rp78
(dp79
g13
I01
sg14
F0.342265839810472
sg15
g76
sbs(I-7
I46
tp80
g0
(g9
g2
Ntp81
Rp82
(dp83
g13
I01
sg14
F4.157733746308798
sg15
g80
sbs(I-4
I46
tp84
g0
(g9
g2
Ntp85
Rp86
(dp87
g13
I01
sg14
F0.5389450648119354
sg15
g84
sbs(I304
I46
tp88
g0
(g9
g2
Ntp89
Rp90
(dp91
g13
I01
sg14
F-0.29562935754970887
sg15
g88
sbs(I215
I7
tp92
g0
(g9
g2
Ntp93
Rp94
(dp95
g13
I01
sg14
F1.4938906594699377
sg15
g92
sbs(I46
I6
tp96
g0
(g9
g2
Ntp97
Rp98
(dp99
g13
I01
sg14
F1.3408547389662722
sg15
g96
sbs(I46
I2
tp100
g0
(g9
g2
Ntp101
Rp102
(dp103
g13
I00
sg14
F1.3923978565401096
sg15
g100
sbssS'nodes'
p104
(dp105
I0
g0
(cneat.genes
DefaultNodeGene
p106
g2
Ntp107
Rp108
(dp109
S'activation'
p110
S'relu'
p111
sS'bias'
p112
F9.016786139586166
sS'response'
p113
F1.0
sg15
I0
sS'aggregation'
p114
S'sum'
p115
sbsI1
g0
(g106
g2
Ntp116
Rp117
(dp118
g110
g111
sg112
F1.926997205440443
sg113
F1.0
sg15
I1
sg114
g115
sbsI2
g0
(g106
g2
Ntp119
Rp120
(dp121
g110
g111
sg112
F10.275470353025979
sg113
F1.0
sg15
I2
sg114
g115
sbsI3
g0
(g106
g2
Ntp122
Rp123
(dp124
g110
g111
sg112
F6.151894079145547
sg113
F1.0
sg15
I3
sg114
g115
sbsI4
g0
(g106
g2
Ntp125
Rp126
(dp127
g110
g111
sg112
F-0.8985195176700845
sg113
F1.0
sg15
I4
sg114
g115
sbsI5
g0
(g106
g2
Ntp128
Rp129
(dp130
g110
g111
sg112
F-1.4511434601882867
sg113
F1.0
sg15
I5
sg114
g115
sbsI6
g0
(g106
g2
Ntp131
Rp132
(dp133
g110
g111
sg112
F-4.03763905440233
sg113
F1.0
sg15
I6
sg114
g115
sbsI7
g0
(g106
g2
Ntp134
Rp135
(dp136
g110
g111
sg112
F-11.405411995818246
sg113
F1.0
sg15
I7
sg114
g115
sbsI8
g0
(g106
g2
Ntp137
Rp138
(dp139
g110
g111
sg112
F5.676114167883336
sg113
F1.0
sg15
I8
sg114
g115
sbsI9
g0
(g106
g2
Ntp140
Rp141
(dp142
g110
g111
sg112
F-4.688012104155318
sg113
F1.0
sg15
I9
sg114
g115
sbsI46
g0
(g106
g2
Ntp143
Rp144
(dp145
g110
g111
sg112
F14.339377003559406
sg113
F1.0
sg15
I46
sg114
g115
sbsI304
g0
(g106
g2
Ntp146
Rp147
(dp148
g110
g111
sg112
F-6.4182858411266075
sg113
F1.0
sg15
I304
sg114
g115
sbsI215
g0
(g106
g2
Ntp149
Rp150
(dp151
g110
g111
sg112
F7.7321153714729345
sg113
F1.0
sg15
I215
sg114
g115
sbssg15
I1302
sS'fitness'
p152
Nsb.