ccopy_reg
_reconstructor
p0
(cneat.genome
DefaultGenome
p1
c__builtin__
object
p2
Ntp3
Rp4
(dp5
S'connections'
p6
(dp7
(I-6
I46
tp8
g0
(cneat.genes
DefaultConnectionGene
p9
g2
Ntp10
Rp11
(dp12
S'enabled'
p13
I00
sS'weight'
p14
F-3.7227006899428075
sS'key'
p15
g8
sbs(I46
I5
tp16
g0
(g9
g2
Ntp17
Rp18
(dp19
g13
I00
sg14
F-0.8808078808613319
sg15
g16
sbs(I-5
I46
tp20
g0
(g9
g2
Ntp21
Rp22
(dp23
g13
I01
sg14
F-0.1611846681659005
sg15
g20
sbs(I-2
I46
tp24
g0
(g9
g2
Ntp25
Rp26
(dp27
g13
I01
sg14
F0.8539899912379022
sg15
g24
sbs(I46
I4
tp28
g0
(g9
g2
Ntp29
Rp30
(dp31
g13
I01
sg14
F-0.5248399587693311
sg15
g28
sbs(I-1
I46
tp32
g0
(g9
g2
Ntp33
Rp34
(dp35
g13
I01
sg14
F-0.14517193387928418
sg15
g32
sbs(I46
I7
tp36
g0
(g9
g2
Ntp37
Rp38
(dp39
g13
I01
sg14
F5.434292893895108
sg15
g36
sbs(I46
I1
tp40
g0
(g9
g2
Ntp41
Rp42
(dp43
g13
I01
sg14
F0.342265839810472
sg15
g40
sbs(I-10
I46
tp44
g0
(g9
g2
Ntp45
Rp46
(dp47
g13
I01
sg14
F-0.6269350208562567
sg15
g44
sbs(I-8
I46
tp48
g0
(g9
g2
Ntp49
Rp50
(dp51
g13
I00
sg14
F1.6598599424229574
sg15
g48
sbs(I-9
I46
tp52
g0
(g9
g2
Ntp53
Rp54
(dp55
g13
I01
sg14
F-0.9398996307057291
sg15
g52
sbs(I-7
I46
tp56
g0
(g9
g2
Ntp57
Rp58
(dp59
g13
I00
sg14
F2.812579605412444
sg15
g56
sbs(I46
I0
tp60
g0
(g9
g2
Ntp61
Rp62
(dp63
g13
I01
sg14
F-1.08544079599883
sg15
g60
sbs(I46
I2
tp64
g0
(g9
g2
Ntp65
Rp66
(dp67
g13
I00
sg14
F1.3928795376728078
sg15
g64
sbs(I46
I3
tp68
g0
(g9
g2
Ntp69
Rp70
(dp71
g13
I01
sg14
F-0.42388410575967833
sg15
g68
sbs(I215
I7
tp72
g0
(g9
g2
Ntp73
Rp74
(dp75
g13
I01
sg14
F0.8879371644149425
sg15
g72
sbs(I46
I9
tp76
g0
(g9
g2
Ntp77
Rp78
(dp79
g13
I01
sg14
F0.863252448795706
sg15
g76
sbs(I46
I6
tp80
g0
(g9
g2
Ntp81
Rp82
(dp83
g13
I01
sg14
F2.243445612997257
sg15
g80
sbs(I46
I215
tp84
g0
(g9
g2
Ntp85
Rp86
(dp87
g13
I01
sg14
F1.4700880943743935
sg15
g84
sbs(I46
I8
tp88
g0
(g9
g2
Ntp89
Rp90
(dp91
g13
I01
sg14
F0.10288983316587058
sg15
g88
sbs(I-4
I46
tp92
g0
(g9
g2
Ntp93
Rp94
(dp95
g13
I01
sg14
F-1.1121260684904382
sg15
g92
sbssS'nodes'
p96
(dp97
I0
g0
(cneat.genes
DefaultNodeGene
p98
g2
Ntp99
Rp100
(dp101
S'activation'
p102
S'relu'
p103
sS'bias'
p104
F8.241780721756337
sS'response'
p105
F1.0
sg15
I0
sS'aggregation'
p106
S'sum'
p107
sbsI1
g0
(g98
g2
Ntp108
Rp109
(dp110
g102
g103
sg104
F2.132694382190845
sg105
F1.0
sg15
I1
sg106
g107
sbsI2
g0
(g98
g2
Ntp111
Rp112
(dp113
g102
g103
sg104
F10.948241578056024
sg105
F1.0
sg15
I2
sg106
g107
sbsI3
g0
(g98
g2
Ntp114
Rp115
(dp116
g102
g103
sg104
F6.151894079145547
sg105
F1.0
sg15
I3
sg106
g107
sbsI4
g0
(g98
g2
Ntp117
Rp118
(dp119
g102
g103
sg104
F-0.3581517843510037
sg105
F1.0
sg15
I4
sg106
g107
sbsI5
g0
(g98
g2
Ntp120
Rp121
(dp122
g102
S'tanh'
p123
sg104
F-0.2889566434800639
sg105
F1.0
sg15
I5
sg106
g107
sbsI6
g0
(g98
g2
Ntp124
Rp125
(dp126
g102
g103
sg104
F12.214539883854673
sg105
F1.0
sg15
I6
sg106
g107
sbsI7
g0
(g98
g2
Ntp127
Rp128
(dp129
g102
g103
sg104
F-11.46210402831054
sg105
F1.0
sg15
I7
sg106
g107
sbsI8
g0
(g98
g2
Ntp130
Rp131
(dp132
g102
g103
sg104
F6.870915544357251
sg105
F1.0
sg15
I8
sg106
g107
sbsI9
g0
(g98
g2
Ntp133
Rp134
(dp135
g102
g103
sg104
F-4.688012104155318
sg105
F1.0
sg15
I9
sg106
g107
sbsI46
g0
(g98
g2
Ntp136
Rp137
(dp138
g102
g103
sg104
F14.347738948812651
sg105
F1.0
sg15
I46
sg106
g107
sbsI215
g0
(g98
g2
Ntp139
Rp140
(dp141
g102
g103
sg104
F8.343496196930479
sg105
F1.0
sg15
I215
sg106
g107
sbssg15
I1303
sS'fitness'
p142
Nsb.