ccopy_reg
_reconstructor
p0
(cneat.genome
DefaultGenome
p1
c__builtin__
object
p2
Ntp3
Rp4
(dp5
S'connections'
p6
(dp7
(I-2
I5
tp8
g0
(cneat.genes
DefaultConnectionGene
p9
g2
Ntp10
Rp11
(dp12
S'enabled'
p13
I01
sS'weight'
p14
F-1.5839720310270353
sS'key'
p15
g8
sbs(I-8
I1
tp16
g0
(g9
g2
Ntp17
Rp18
(dp19
g13
I00
sg14
F0.1325340138532335
sg15
g16
sbs(I-3
I266
tp20
g0
(g9
g2
Ntp21
Rp22
(dp23
g13
I00
sg14
F0.86178276614598
sg15
g20
sbs(I-9
I0
tp24
g0
(g9
g2
Ntp25
Rp26
(dp27
g13
I01
sg14
F2.7585750662844033
sg15
g24
sbs(I-4
I305
tp28
g0
(g9
g2
Ntp29
Rp30
(dp31
g13
I01
sg14
F0.5036796649490081
sg15
g28
sbs(I-10
I9
tp32
g0
(g9
g2
Ntp33
Rp34
(dp35
g13
I01
sg14
F-1.3065594873391815
sg15
g32
sbssS'nodes'
p36
(dp37
I0
g0
(cneat.genes
DefaultNodeGene
p38
g2
Ntp39
Rp40
(dp41
S'activation'
p42
S'relu'
p43
sS'bias'
p44
F-18.75886526841859
sS'response'
p45
F1.0
sg15
I0
sS'aggregation'
p46
S'sum'
p47
sbsI1
g0
(g38
g2
Ntp48
Rp49
(dp50
g42
g43
sg44
F14.0920289847329
sg45
F1.0
sg15
I1
sg46
g47
sbsI2
g0
(g38
g2
Ntp51
Rp52
(dp53
g42
g43
sg44
F10.34397362448531
sg45
F1.0
sg15
I2
sg46
g47
sbsI3
g0
(g38
g2
Ntp54
Rp55
(dp56
g42
g43
sg44
F1.7805643924184955
sg45
F1.0
sg15
I3
sg46
g47
sbsI4
g0
(g38
g2
Ntp57
Rp58
(dp59
g42
g43
sg44
F7.781700447307589
sg45
F1.0
sg15
I4
sg46
g47
sbsI5
g0
(g38
g2
Ntp60
Rp61
(dp62
g42
g43
sg44
F-4.609855363883651
sg45
F1.0
sg15
I5
sg46
g47
sbsI6
g0
(g38
g2
Ntp63
Rp64
(dp65
g42
g43
sg44
F2.100700371341609
sg45
F1.0
sg15
I6
sg46
g47
sbsI7
g0
(g38
g2
Ntp66
Rp67
(dp68
g42
g43
sg44
F-23.35899237882863
sg45
F1.0
sg15
I7
sg46
g47
sbsI8
g0
(g38
g2
Ntp69
Rp70
(dp71
g42
g43
sg44
F4.8735377505212805
sg45
F1.0
sg15
I8
sg46
g47
sbsI9
g0
(g38
g2
Ntp72
Rp73
(dp74
g42
g43
sg44
F0.4979898383095307
sg45
F1.0
sg15
I9
sg46
g47
sbsI266
g0
(g38
g2
Ntp75
Rp76
(dp77
g42
g43
sg44
F7.318839265130857
sg45
F1.0
sg15
I266
sg46
g47
sbsI305
g0
(g38
g2
Ntp78
Rp79
(dp80
g42
g43
sg44
F-5.609296620620138
sg45
F1.0
sg15
I305
sg46
g47
sbssg15
I1306
sS'fitness'
p81
Nsb.