ccopy_reg
_reconstructor
p0
(cneat.genome
DefaultGenome
p1
c__builtin__
object
p2
Ntp3
Rp4
(dp5
S'connections'
p6
(dp7
(I-5
I58
tp8
g0
(cneat.genes
DefaultConnectionGene
p9
g2
Ntp10
Rp11
(dp12
S'enabled'
p13
I00
sS'weight'
p14
F-2.353278696048791
sS'key'
p15
g8
sbs(I-1
I58
tp16
g0
(g9
g2
Ntp17
Rp18
(dp19
g13
I00
sg14
F0.4261780991862144
sg15
g16
sbs(I58
I1
tp20
g0
(g9
g2
Ntp21
Rp22
(dp23
g13
I01
sg14
F4.311539234356427
sg15
g20
sbs(I-8
I58
tp24
g0
(g9
g2
Ntp25
Rp26
(dp27
g13
I00
sg14
F-1.0645459270104924
sg15
g24
sbs(I58
I5
tp28
g0
(g9
g2
Ntp29
Rp30
(dp31
g13
I01
sg14
F0.10646113269849466
sg15
g28
sbs(I-2
I58
tp32
g0
(g9
g2
Ntp33
Rp34
(dp35
g13
I01
sg14
F1.2759102481237643
sg15
g32
sbs(I-2
I5
tp36
g0
(g9
g2
Ntp37
Rp38
(dp39
g13
I01
sg14
F-1.4991687277027357
sg15
g36
sbs(I-8
I1
tp40
g0
(g9
g2
Ntp41
Rp42
(dp43
g13
I00
sg14
F1.0316339674397863
sg15
g40
sbs(I-4
I58
tp44
g0
(g9
g2
Ntp45
Rp46
(dp47
g13
I01
sg14
F-2.28555426883165
sg15
g44
sbs(I58
I2
tp48
g0
(g9
g2
Ntp49
Rp50
(dp51
g13
I00
sg14
F-1.2434127485648268
sg15
g48
sbs(I-7
I58
tp52
g0
(g9
g2
Ntp53
Rp54
(dp55
g13
I01
sg14
F-1.0681504703048041
sg15
g52
sbs(I58
I6
tp56
g0
(g9
g2
Ntp57
Rp58
(dp59
g13
I01
sg14
F-0.9204633654222133
sg15
g56
sbs(I-3
I58
tp60
g0
(g9
g2
Ntp61
Rp62
(dp63
g13
I00
sg14
F0.4560205433370942
sg15
g60
sbs(I-6
I58
tp64
g0
(g9
g2
Ntp65
Rp66
(dp67
g13
I01
sg14
F1.103058210706242
sg15
g64
sbs(I-10
I58
tp68
g0
(g9
g2
Ntp69
Rp70
(dp71
g13
I01
sg14
F-2.1005551284736823
sg15
g68
sbs(I58
I3
tp72
g0
(g9
g2
Ntp73
Rp74
(dp75
g13
I01
sg14
F-0.5627409797284701
sg15
g72
sbs(I58
I8
tp76
g0
(g9
g2
Ntp77
Rp78
(dp79
g13
I01
sg14
F-1.7080907208767317
sg15
g76
sbs(I-8
I131
tp80
g0
(g9
g2
Ntp81
Rp82
(dp83
g13
I01
sg14
F-0.5446737967453107
sg15
g80
sbs(I-9
I0
tp84
g0
(g9
g2
Ntp85
Rp86
(dp87
g13
I01
sg14
F2.065751000737282
sg15
g84
sbs(I-9
I58
tp88
g0
(g9
g2
Ntp89
Rp90
(dp91
g13
I01
sg14
F-1.5887015407079184
sg15
g88
sbs(I58
I7
tp92
g0
(g9
g2
Ntp93
Rp94
(dp95
g13
I00
sg14
F0.4150324502840048
sg15
g92
sbs(I58
I0
tp96
g0
(g9
g2
Ntp97
Rp98
(dp99
g13
I00
sg14
F-0.05374773623623191
sg15
g96
sbs(I131
I1
tp100
g0
(g9
g2
Ntp101
Rp102
(dp103
g13
I00
sg14
F0.41721054651712414
sg15
g100
sbs(I58
I9
tp104
g0
(g9
g2
Ntp105
Rp106
(dp107
g13
I01
sg14
F-0.6171902136973428
sg15
g104
sbs(I-10
I9
tp108
g0
(g9
g2
Ntp109
Rp110
(dp111
g13
I01
sg14
F0.5667108496427411
sg15
g108
sbs(I58
I4
tp112
g0
(g9
g2
Ntp113
Rp114
(dp115
g13
I01
sg14
F-0.21482349924248956
sg15
g112
sbssS'nodes'
p116
(dp117
I0
g0
(cneat.genes
DefaultNodeGene
p118
g2
Ntp119
Rp120
(dp121
S'activation'
p122
S'relu'
p123
sS'bias'
p124
F-18.75886526841859
sS'response'
p125
F1.0
sg15
I0
sS'aggregation'
p126
S'sum'
p127
sbsI1
g0
(g118
g2
Ntp128
Rp129
(dp130
g122
g123
sg124
F14.225538776253014
sg125
F1.0
sg15
I1
sg126
g127
sbsI2
g0
(g118
g2
Ntp131
Rp132
(dp133
g122
g123
sg124
F10.43057268425188
sg125
F1.0
sg15
I2
sg126
g127
sbsI3
g0
(g118
g2
Ntp134
Rp135
(dp136
g122
g123
sg124
F2.6499415506312074
sg125
F1.0
sg15
I3
sg126
g127
sbsI4
g0
(g118
g2
Ntp137
Rp138
(dp139
g122
g123
sg124
F6.954649743615681
sg125
F1.0
sg15
I4
sg126
g127
sbsI5
g0
(g118
g2
Ntp140
Rp141
(dp142
g122
g123
sg124
F-4.93253607494951
sg125
F1.0
sg15
I5
sg126
g127
sbsI6
g0
(g118
g2
Ntp143
Rp144
(dp145
g122
g123
sg124
F-14.776557452103527
sg125
F1.0
sg15
I6
sg126
g127
sbsI7
g0
(g118
g2
Ntp146
Rp147
(dp148
g122
g123
sg124
F-23.655922599607198
sg125
F1.0
sg15
I7
sg126
g127
sbsI8
g0
(g118
g2
Ntp149
Rp150
(dp151
g122
g123
sg124
F15.849669196197128
sg125
F1.0
sg15
I8
sg126
g127
sbsI9
g0
(g118
g2
Ntp152
Rp153
(dp154
g122
g123
sg124
F0.6247074944769382
sg125
F1.0
sg15
I9
sg126
g127
sbsI131
g0
(g118
g2
Ntp155
Rp156
(dp157
g122
g123
sg124
F-6.264252335899929
sg125
F1.0
sg15
I131
sg126
g127
sbsI58
g0
(g118
g2
Ntp158
Rp159
(dp160
g122
g123
sg124
F20.272047541346364
sg125
F1.0
sg15
I58
sg126
g127
sbssg15
I1308
sS'fitness'
p161
Nsb.