ccopy_reg
_reconstructor
p0
(cneat.genome
DefaultGenome
p1
c__builtin__
object
p2
Ntp3
Rp4
(dp5
S'connections'
p6
(dp7
(I-5
I58
tp8
g0
(cneat.genes
DefaultConnectionGene
p9
g2
Ntp10
Rp11
(dp12
S'enabled'
p13
I00
sS'weight'
p14
F-3.0225644749963205
sS'key'
p15
g8
sbs(I-1
I58
tp16
g0
(g9
g2
Ntp17
Rp18
(dp19
g13
I00
sg14
F-0.3579568209574939
sg15
g16
sbs(I58
I1
tp20
g0
(g9
g2
Ntp21
Rp22
(dp23
g13
I01
sg14
F5.204186303031633
sg15
g20
sbs(I-8
I58
tp24
g0
(g9
g2
Ntp25
Rp26
(dp27
g13
I00
sg14
F-2.7124931180103182
sg15
g24
sbs(I58
I5
tp28
g0
(g9
g2
Ntp29
Rp30
(dp31
g13
I01
sg14
F1.9396587594913852
sg15
g28
sbs(I-2
I58
tp32
g0
(g9
g2
Ntp33
Rp34
(dp35
g13
I01
sg14
F1.1242748248913994
sg15
g32
sbs(I-2
I5
tp36
g0
(g9
g2
Ntp37
Rp38
(dp39
g13
I01
sg14
F1.3946429536629985
sg15
g36
sbs(I-8
I1
tp40
g0
(g9
g2
Ntp41
Rp42
(dp43
g13
I00
sg14
F1.4107306643082067
sg15
g40
sbs(I-4
I58
tp44
g0
(g9
g2
Ntp45
Rp46
(dp47
g13
I01
sg14
F-1.0678018199336714
sg15
g44
sbs(I58
I2
tp48
g0
(g9
g2
Ntp49
Rp50
(dp51
g13
I00
sg14
F0.20547046069968478
sg15
g48
sbs(I-7
I58
tp52
g0
(g9
g2
Ntp53
Rp54
(dp55
g13
I01
sg14
F-0.9504929804681445
sg15
g52
sbs(I58
I6
tp56
g0
(g9
g2
Ntp57
Rp58
(dp59
g13
I00
sg14
F-0.6188525592252715
sg15
g56
sbs(I-3
I58
tp60
g0
(g9
g2
Ntp61
Rp62
(dp63
g13
I00
sg14
F1.4866980283969204
sg15
g60
sbs(I-6
I58
tp64
g0
(g9
g2
Ntp65
Rp66
(dp67
g13
I01
sg14
F1.3242284114288527
sg15
g64
sbs(I-10
I58
tp68
g0
(g9
g2
Ntp69
Rp70
(dp71
g13
I01
sg14
F0.8104515536453939
sg15
g68
sbs(I58
I3
tp72
g0
(g9
g2
Ntp73
Rp74
(dp75
g13
I01
sg14
F-0.6040695455656442
sg15
g72
sbs(I58
I8
tp76
g0
(g9
g2
Ntp77
Rp78
(dp79
g13
I01
sg14
F-0.945576724119114
sg15
g76
sbs(I-8
I131
tp80
g0
(g9
g2
Ntp81
Rp82
(dp83
g13
I01
sg14
F0.09635373231971228
sg15
g80
sbs(I-9
I0
tp84
g0
(g9
g2
Ntp85
Rp86
(dp87
g13
I01
sg14
F-1.2050457977315248
sg15
g84
sbs(I-9
I58
tp88
g0
(g9
g2
Ntp89
Rp90
(dp91
g13
I00
sg14
F-1.5734755102161198
sg15
g88
sbs(I58
I7
tp92
g0
(g9
g2
Ntp93
Rp94
(dp95
g13
I00
sg14
F0.7448393674250838
sg15
g92
sbs(I58
I0
tp96
g0
(g9
g2
Ntp97
Rp98
(dp99
g13
I00
sg14
F0.060458827418988656
sg15
g96
sbs(I131
I1
tp100
g0
(g9
g2
Ntp101
Rp102
(dp103
g13
I00
sg14
F-1.0798488218044267
sg15
g100
sbs(I58
I9
tp104
g0
(g9
g2
Ntp105
Rp106
(dp107
g13
I01
sg14
F-0.6171902136973428
sg15
g104
sbs(I-10
I9
tp108
g0
(g9
g2
Ntp109
Rp110
(dp111
g13
I01
sg14
F-1.2907865206210503
sg15
g108
sbs(I58
I4
tp112
g0
(g9
g2
Ntp113
Rp114
(dp115
g13
I01
sg14
F1.1683509584756453
sg15
g112
sbssS'nodes'
p116
(dp117
I0
g0
(cneat.genes
DefaultNodeGene
p118
g2
Ntp119
Rp120
(dp121
S'activation'
p122
S'relu'
p123
sS'bias'
p124
F-17.9201102469408
sS'response'
p125
F1.0
sg15
I0
sS'aggregation'
p126
S'sum'
p127
sbsI1
g0
(g118
g2
Ntp128
Rp129
(dp130
g122
g123
sg124
F14.07464833375313
sg125
F1.0
sg15
I1
sg126
g127
sbsI2
g0
(g118
g2
Ntp131
Rp132
(dp133
g122
g123
sg124
F10.421679736998586
sg125
F1.0
sg15
I2
sg126
g127
sbsI3
g0
(g118
g2
Ntp134
Rp135
(dp136
g122
g123
sg124
F2.5610822642655466
sg125
F1.0
sg15
I3
sg126
g127
sbsI4
g0
(g118
g2
Ntp137
Rp138
(dp139
g122
g123
sg124
F7.874127491434201
sg125
F1.0
sg15
I4
sg126
g127
sbsI5
g0
(g118
g2
Ntp140
Rp141
(dp142
g122
g123
sg124
F-5.379562798298347
sg125
F1.0
sg15
I5
sg126
g127
sbsI6
g0
(g118
g2
Ntp143
Rp144
(dp145
g122
g123
sg124
F-16.481628081599514
sg125
F1.0
sg15
I6
sg126
g127
sbsI7
g0
(g118
g2
Ntp146
Rp147
(dp148
g122
g123
sg124
F-23.5104864648172
sg125
F1.0
sg15
I7
sg126
g127
sbsI8
g0
(g118
g2
Ntp149
Rp150
(dp151
g122
g123
sg124
F16.145472732934923
sg125
F1.0
sg15
I8
sg126
g127
sbsI9
g0
(g118
g2
Ntp152
Rp153
(dp154
g122
g123
sg124
F0.5470579934932407
sg125
F1.0
sg15
I9
sg126
g127
sbsI131
g0
(g118
g2
Ntp155
Rp156
(dp157
g122
g123
sg124
F-7.2992706780435
sg125
F1.0
sg15
I131
sg126
g127
sbsI58
g0
(g118
g2
Ntp158
Rp159
(dp160
g122
g123
sg124
F20.09950188322795
sg125
F1.0
sg15
I58
sg126
g127
sbssg15
I1309
sS'fitness'
p161
Nsb.