ccopy_reg
_reconstructor
p0
(cneat.genome
DefaultGenome
p1
c__builtin__
object
p2
Ntp3
Rp4
(dp5
S'connections'
p6
(dp7
(I-5
I58
tp8
g0
(cneat.genes
DefaultConnectionGene
p9
g2
Ntp10
Rp11
(dp12
S'enabled'
p13
I00
sS'weight'
p14
F-2.726012707746477
sS'key'
p15
g8
sbs(I-1
I58
tp16
g0
(g9
g2
Ntp17
Rp18
(dp19
g13
I01
sg14
F0.2524547836197034
sg15
g16
sbs(I58
I1
tp20
g0
(g9
g2
Ntp21
Rp22
(dp23
g13
I01
sg14
F5.085363308408142
sg15
g20
sbs(I-8
I58
tp24
g0
(g9
g2
Ntp25
Rp26
(dp27
g13
I00
sg14
F-3.2469680901017224
sg15
g24
sbs(I58
I5
tp28
g0
(g9
g2
Ntp29
Rp30
(dp31
g13
I01
sg14
F0.7472007344966621
sg15
g28
sbs(I-2
I58
tp32
g0
(g9
g2
Ntp33
Rp34
(dp35
g13
I01
sg14
F-0.6536954282582744
sg15
g32
sbs(I-2
I5
tp36
g0
(g9
g2
Ntp37
Rp38
(dp39
g13
I01
sg14
F1.6038091665146301
sg15
g36
sbs(I-8
I1
tp40
g0
(g9
g2
Ntp41
Rp42
(dp43
g13
I00
sg14
F0.2590017502915186
sg15
g40
sbs(I-4
I58
tp44
g0
(g9
g2
Ntp45
Rp46
(dp47
g13
I01
sg14
F-2.8028800744548885
sg15
g44
sbs(I58
I2
tp48
g0
(g9
g2
Ntp49
Rp50
(dp51
g13
I00
sg14
F-1.1664014731685854
sg15
g48
sbs(I-7
I58
tp52
g0
(g9
g2
Ntp53
Rp54
(dp55
g13
I01
sg14
F-2.6727851719664177
sg15
g52
sbs(I58
I6
tp56
g0
(g9
g2
Ntp57
Rp58
(dp59
g13
I00
sg14
F-0.029246328964556922
sg15
g56
sbs(I-3
I58
tp60
g0
(g9
g2
Ntp61
Rp62
(dp63
g13
I01
sg14
F0.6875044383115133
sg15
g60
sbs(I-6
I58
tp64
g0
(g9
g2
Ntp65
Rp66
(dp67
g13
I01
sg14
F1.3133375229331545
sg15
g64
sbs(I-10
I58
tp68
g0
(g9
g2
Ntp69
Rp70
(dp71
g13
I01
sg14
F1.6623874205559614
sg15
g68
sbs(I58
I3
tp72
g0
(g9
g2
Ntp73
Rp74
(dp75
g13
I00
sg14
F0.3922982492718041
sg15
g72
sbs(I58
I8
tp76
g0
(g9
g2
Ntp77
Rp78
(dp79
g13
I01
sg14
F-2.341678277163849
sg15
g76
sbs(I-8
I131
tp80
g0
(g9
g2
Ntp81
Rp82
(dp83
g13
I01
sg14
F1.251778855590713
sg15
g80
sbs(I-9
I0
tp84
g0
(g9
g2
Ntp85
Rp86
(dp87
g13
I01
sg14
F2.4452810073058555
sg15
g84
sbs(I-9
I58
tp88
g0
(g9
g2
Ntp89
Rp90
(dp91
g13
I01
sg14
F-0.21803600887565058
sg15
g88
sbs(I58
I7
tp92
g0
(g9
g2
Ntp93
Rp94
(dp95
g13
I00
sg14
F1.0574173956734723
sg15
g92
sbs(I58
I0
tp96
g0
(g9
g2
Ntp97
Rp98
(dp99
g13
I00
sg14
F1.1282388037325215
sg15
g96
sbs(I131
I1
tp100
g0
(g9
g2
Ntp101
Rp102
(dp103
g13
I00
sg14
F0.041766047449233235
sg15
g100
sbs(I58
I9
tp104
g0
(g9
g2
Ntp105
Rp106
(dp107
g13
I01
sg14
F-0.8680715901649652
sg15
g104
sbs(I-10
I9
tp108
g0
(g9
g2
Ntp109
Rp110
(dp111
g13
I01
sg14
F-0.2286573982364151
sg15
g108
sbs(I58
I4
tp112
g0
(g9
g2
Ntp113
Rp114
(dp115
g13
I01
sg14
F0.5243362327043202
sg15
g112
sbssS'nodes'
p116
(dp117
I0
g0
(cneat.genes
DefaultNodeGene
p118
g2
Ntp119
Rp120
(dp121
S'activation'
p122
S'relu'
p123
sS'bias'
p124
F9.923918988451085
sS'response'
p125
F1.0
sg15
I0
sS'aggregation'
p126
S'sum'
p127
sbsI1
g0
(g118
g2
Ntp128
Rp129
(dp130
g122
g123
sg124
F14.089428998505824
sg125
F1.0
sg15
I1
sg126
g127
sbsI2
g0
(g118
g2
Ntp131
Rp132
(dp133
g122
g123
sg124
F-13.960407265022157
sg125
F1.0
sg15
I2
sg126
g127
sbsI3
g0
(g118
g2
Ntp134
Rp135
(dp136
g122
g123
sg124
F2.3246771472841914
sg125
F1.0
sg15
I3
sg126
g127
sbsI4
g0
(g118
g2
Ntp137
Rp138
(dp139
g122
g123
sg124
F8.152956675745308
sg125
F1.0
sg15
I4
sg126
g127
sbsI5
g0
(g118
g2
Ntp140
Rp141
(dp142
g122
g123
sg124
F-5.24287651989603
sg125
F1.0
sg15
I5
sg126
g127
sbsI6
g0
(g118
g2
Ntp143
Rp144
(dp145
g122
g123
sg124
F-13.941402662254461
sg125
F1.0
sg15
I6
sg126
g127
sbsI7
g0
(g118
g2
Ntp146
Rp147
(dp148
g122
g123
sg124
F-22.871292937704137
sg125
F1.0
sg15
I7
sg126
g127
sbsI8
g0
(g118
g2
Ntp149
Rp150
(dp151
g122
g123
sg124
F15.545915548804302
sg125
F1.0
sg15
I8
sg126
g127
sbsI9
g0
(g118
g2
Ntp152
Rp153
(dp154
g122
g123
sg124
F1.5503691771333519
sg125
F1.0
sg15
I9
sg126
g127
sbsI131
g0
(g118
g2
Ntp155
Rp156
(dp157
g122
g123
sg124
F-6.502724680719781
sg125
F1.0
sg15
I131
sg126
g127
sbsI58
g0
(g118
g2
Ntp158
Rp159
(dp160
g122
g123
sg124
F20.638352915309703
sg125
F1.0
sg15
I58
sg126
g127
sbssg15
I1311
sS'fitness'
p161
Nsb.