ccopy_reg
_reconstructor
p0
(cneat.genome
DefaultGenome
p1
c__builtin__
object
p2
Ntp3
Rp4
(dp5
S'connections'
p6
(dp7
(I-5
I58
tp8
g0
(cneat.genes
DefaultConnectionGene
p9
g2
Ntp10
Rp11
(dp12
S'enabled'
p13
I00
sS'weight'
p14
F-3.5313834300004245
sS'key'
p15
g8
sbs(I-1
I58
tp16
g0
(g9
g2
Ntp17
Rp18
(dp19
g13
I00
sg14
F0.8546499526239372
sg15
g16
sbs(I58
I1
tp20
g0
(g9
g2
Ntp21
Rp22
(dp23
g13
I01
sg14
F4.646623166526585
sg15
g20
sbs(I-8
I58
tp24
g0
(g9
g2
Ntp25
Rp26
(dp27
g13
I00
sg14
F-2.7676980253027264
sg15
g24
sbs(I58
I5
tp28
g0
(g9
g2
Ntp29
Rp30
(dp31
g13
I01
sg14
F1.4210725370109258
sg15
g28
sbs(I-2
I58
tp32
g0
(g9
g2
Ntp33
Rp34
(dp35
g13
I01
sg14
F1.0278925247824764
sg15
g32
sbs(I-2
I5
tp36
g0
(g9
g2
Ntp37
Rp38
(dp39
g13
I01
sg14
F1.4388024660049543
sg15
g36
sbs(I-8
I1
tp40
g0
(g9
g2
Ntp41
Rp42
(dp43
g13
I01
sg14
F1.211372554328302
sg15
g40
sbs(I-4
I58
tp44
g0
(g9
g2
Ntp45
Rp46
(dp47
g13
I01
sg14
F-1.8782820505722644
sg15
g44
sbs(I58
I2
tp48
g0
(g9
g2
Ntp49
Rp50
(dp51
g13
I00
sg14
F0.13297572014394926
sg15
g48
sbs(I-7
I58
tp52
g0
(g9
g2
Ntp53
Rp54
(dp55
g13
I01
sg14
F-2.506221578356715
sg15
g52
sbs(I58
I6
tp56
g0
(g9
g2
Ntp57
Rp58
(dp59
g13
I00
sg14
F-0.3978314845906892
sg15
g56
sbs(I-3
I58
tp60
g0
(g9
g2
Ntp61
Rp62
(dp63
g13
I00
sg14
F0.7130733383687221
sg15
g60
sbs(I-10
I0
tp64
g0
(g9
g2
Ntp65
Rp66
(dp67
g13
I01
sg14
F-0.3520831516450781
sg15
g64
sbs(I-6
I58
tp68
g0
(g9
g2
Ntp69
Rp70
(dp71
g13
I01
sg14
F0.540710079500229
sg15
g68
sbs(I-10
I58
tp72
g0
(g9
g2
Ntp73
Rp74
(dp75
g13
I01
sg14
F-2.1005551284736823
sg15
g72
sbs(I58
I3
tp76
g0
(g9
g2
Ntp77
Rp78
(dp79
g13
I00
sg14
F0.05040458733764358
sg15
g76
sbs(I58
I8
tp80
g0
(g9
g2
Ntp81
Rp82
(dp83
g13
I01
sg14
F-2.0664014912857342
sg15
g80
sbs(I-8
I131
tp84
g0
(g9
g2
Ntp85
Rp86
(dp87
g13
I01
sg14
F0.059376459920816416
sg15
g84
sbs(I-9
I0
tp88
g0
(g9
g2
Ntp89
Rp90
(dp91
g13
I01
sg14
F0.14917373016141122
sg15
g88
sbs(I-9
I58
tp92
g0
(g9
g2
Ntp93
Rp94
(dp95
g13
I01
sg14
F-2.048609604552964
sg15
g92
sbs(I58
I7
tp96
g0
(g9
g2
Ntp97
Rp98
(dp99
g13
I00
sg14
F0.4658994417334187
sg15
g96
sbs(I58
I0
tp100
g0
(g9
g2
Ntp101
Rp102
(dp103
g13
I00
sg14
F-0.5112329021681973
sg15
g100
sbs(I131
I1
tp104
g0
(g9
g2
Ntp105
Rp106
(dp107
g13
I01
sg14
F-0.11769769361634219
sg15
g104
sbs(I58
I9
tp108
g0
(g9
g2
Ntp109
Rp110
(dp111
g13
I01
sg14
F-1.286537886486451
sg15
g108
sbs(I-10
I9
tp112
g0
(g9
g2
Ntp113
Rp114
(dp115
g13
I01
sg14
F-0.3210639366885639
sg15
g112
sbs(I58
I4
tp116
g0
(g9
g2
Ntp117
Rp118
(dp119
g13
I01
sg14
F-0.16918590639907505
sg15
g116
sbssS'nodes'
p120
(dp121
I0
g0
(cneat.genes
DefaultNodeGene
p122
g2
Ntp123
Rp124
(dp125
S'activation'
p126
S'relu'
p127
sS'bias'
p128
F11.236869132530671
sS'response'
p129
F1.0
sg15
I0
sS'aggregation'
p130
S'sum'
p131
sbsI1
g0
(g122
g2
Ntp132
Rp133
(dp134
g126
g127
sg128
F12.896790223743372
sg129
F1.0
sg15
I1
sg130
g131
sbsI2
g0
(g122
g2
Ntp135
Rp136
(dp137
g126
g127
sg128
F11.322627684262548
sg129
F1.0
sg15
I2
sg130
g131
sbsI3
g0
(g122
g2
Ntp138
Rp139
(dp140
g126
g127
sg128
F2.0953455419768203
sg129
F1.0
sg15
I3
sg130
g131
sbsI4
g0
(g122
g2
Ntp141
Rp142
(dp143
g126
g127
sg128
F5.494945103898376
sg129
F1.0
sg15
I4
sg130
g131
sbsI5
g0
(g122
g2
Ntp144
Rp145
(dp146
g126
g127
sg128
F-5.379562798298347
sg129
F1.0
sg15
I5
sg130
g131
sbsI6
g0
(g122
g2
Ntp147
Rp148
(dp149
g126
g127
sg128
F-17.227224174803197
sg129
F1.0
sg15
I6
sg130
g131
sbsI7
g0
(g122
g2
Ntp150
Rp151
(dp152
g126
g127
sg128
F-23.028723268606754
sg129
F1.0
sg15
I7
sg130
g131
sbsI8
g0
(g122
g2
Ntp153
Rp154
(dp155
g126
g127
sg128
F15.529057808200346
sg129
F1.0
sg15
I8
sg130
g131
sbsI9
g0
(g122
g2
Ntp156
Rp157
(dp158
g126
g127
sg128
F0.9215841878606006
sg129
F1.0
sg15
I9
sg130
g131
sbsI131
g0
(g122
g2
Ntp159
Rp160
(dp161
g126
g127
sg128
F-7.462422713030033
sg129
F1.0
sg15
I131
sg130
g131
sbsI58
g0
(g122
g2
Ntp162
Rp163
(dp164
g126
g127
sg128
F20.15395554219772
sg129
F1.0
sg15
I58
sg130
g131
sbssg15
I1312
sS'fitness'
p165
Nsb.