ccopy_reg
_reconstructor
p0
(cneat.genome
DefaultGenome
p1
c__builtin__
object
p2
Ntp3
Rp4
(dp5
S'connections'
p6
(dp7
(I268
I257
tp8
g0
(cneat.genes
DefaultConnectionGene
p9
g2
Ntp10
Rp11
(dp12
S'enabled'
p13
I01
sS'weight'
p14
F0.7936591674330992
sS'key'
p15
g8
sbs(I38
I8
tp16
g0
(g9
g2
Ntp17
Rp18
(dp19
g13
I01
sg14
F-0.10269107973843605
sg15
g16
sbs(I38
I1
tp20
g0
(g9
g2
Ntp21
Rp22
(dp23
g13
I01
sg14
F0.7982676968467879
sg15
g20
sbs(I174
I7
tp24
g0
(g9
g2
Ntp25
Rp26
(dp27
g13
I01
sg14
F2.7729649612323355
sg15
g24
sbs(I-5
I38
tp28
g0
(g9
g2
Ntp29
Rp30
(dp31
g13
I00
sg14
F0.926903971135462
sg15
g28
sbs(I-6
I38
tp32
g0
(g9
g2
Ntp33
Rp34
(dp35
g13
I01
sg14
F1.3228882847328873
sg15
g32
sbs(I-1
I38
tp36
g0
(g9
g2
Ntp37
Rp38
(dp39
g13
I00
sg14
F-0.6831416303267115
sg15
g36
sbs(I38
I9
tp40
g0
(g9
g2
Ntp41
Rp42
(dp43
g13
I01
sg14
F-0.835344679687661
sg15
g40
sbs(I-5
I257
tp44
g0
(g9
g2
Ntp45
Rp46
(dp47
g13
I00
sg14
F1.4385060255376068
sg15
g44
sbs(I38
I6
tp48
g0
(g9
g2
Ntp49
Rp50
(dp51
g13
I01
sg14
F0.7317264167965295
sg15
g48
sbs(I38
I2
tp52
g0
(g9
g2
Ntp53
Rp54
(dp55
g13
I00
sg14
F0.46956567681727485
sg15
g52
sbs(I257
I38
tp56
g0
(g9
g2
Ntp57
Rp58
(dp59
g13
I01
sg14
F0.952825790472653
sg15
g56
sbs(I38
I174
tp60
g0
(g9
g2
Ntp61
Rp62
(dp63
g13
I01
sg14
F2.291644589003165
sg15
g60
sbs(I-4
I38
tp64
g0
(g9
g2
Ntp65
Rp66
(dp67
g13
I01
sg14
F1.078970506842472
sg15
g64
sbs(I38
I7
tp68
g0
(g9
g2
Ntp69
Rp70
(dp71
g13
I00
sg14
F3.0902750185556305
sg15
g68
sbs(I-8
I38
tp72
g0
(g9
g2
Ntp73
Rp74
(dp75
g13
I01
sg14
F-0.45680623007864674
sg15
g72
sbs(I-5
I268
tp76
g0
(g9
g2
Ntp77
Rp78
(dp79
g13
I01
sg14
F1.648279992293539
sg15
g76
sbs(I38
I3
tp80
g0
(g9
g2
Ntp81
Rp82
(dp83
g13
I01
sg14
F-0.8085431772839945
sg15
g80
sbs(I-10
I38
tp84
g0
(g9
g2
Ntp85
Rp86
(dp87
g13
I01
sg14
F-2.4311751578111167
sg15
g84
sbs(I-2
I287
tp88
g0
(g9
g2
Ntp89
Rp90
(dp91
g13
I01
sg14
F1.207002006398028
sg15
g88
sbs(I-2
I38
tp92
g0
(g9
g2
Ntp93
Rp94
(dp95
g13
I00
sg14
F0.4045826529019268
sg15
g92
sbs(I-3
I38
tp96
g0
(g9
g2
Ntp97
Rp98
(dp99
g13
I01
sg14
F2.9645597300666795
sg15
g96
sbs(I38
I4
tp100
g0
(g9
g2
Ntp101
Rp102
(dp103
g13
I01
sg14
F-2.075446959422575
sg15
g100
sbs(I287
I38
tp104
g0
(g9
g2
Ntp105
Rp106
(dp107
g13
I01
sg14
F0.3628071178633294
sg15
g104
sbs(I-7
I38
tp108
g0
(g9
g2
Ntp109
Rp110
(dp111
g13
I00
sg14
F-1.1286850133199908
sg15
g108
sbs(I38
I0
tp112
g0
(g9
g2
Ntp113
Rp114
(dp115
g13
I01
sg14
F-3.0493828350858703
sg15
g112
sbs(I129
I38
tp116
g0
(g9
g2
Ntp117
Rp118
(dp119
g13
I01
sg14
F-0.4751013074703715
sg15
g116
sbs(I-7
I129
tp120
g0
(g9
g2
Ntp121
Rp122
(dp123
g13
I01
sg14
F1.4088503218376953
sg15
g120
sbs(I129
I7
tp124
g0
(g9
g2
Ntp125
Rp126
(dp127
g13
I00
sg14
F1.1389484566602226
sg15
g124
sbs(I-9
I268
tp128
g0
(g9
g2
Ntp129
Rp130
(dp131
g13
I01
sg14
F0.1986749633740842
sg15
g128
sbs(I-9
I38
tp132
g0
(g9
g2
Ntp133
Rp134
(dp135
g13
I01
sg14
F-0.592794896220072
sg15
g132
sbs(I38
I5
tp136
g0
(g9
g2
Ntp137
Rp138
(dp139
g13
I01
sg14
F0.8808639700216254
sg15
g136
sbssS'nodes'
p140
(dp141
I0
g0
(cneat.genes
DefaultNodeGene
p142
g2
Ntp143
Rp144
(dp145
S'activation'
p146
S'relu'
p147
sS'bias'
p148
F-3.358513667631212
sS'response'
p149
F1.0
sg15
I0
sS'aggregation'
p150
S'sum'
p151
sbsI1
g0
(g142
g2
Ntp152
Rp153
(dp154
g146
g147
sg148
F3.923117505198073
sg149
F1.0
sg15
I1
sg150
g151
sbsI2
g0
(g142
g2
Ntp155
Rp156
(dp157
g146
S'tanh'
p158
sg148
F6.238186367225218
sg149
F1.0
sg15
I2
sg150
g151
sbsI3
g0
(g142
g2
Ntp159
Rp160
(dp161
g146
g147
sg148
F8.882247237378564
sg149
F1.0
sg15
I3
sg150
g151
sbsI4
g0
(g142
g2
Ntp162
Rp163
(dp164
g146
g147
sg148
F3.7947280640135386
sg149
F1.0
sg15
I4
sg150
g151
sbsI5
g0
(g142
g2
Ntp165
Rp166
(dp167
g146
g158
sg148
F-1.000689920026986
sg149
F1.0
sg15
I5
sg150
g151
sbsI6
g0
(g142
g2
Ntp168
Rp169
(dp170
g146
g147
sg148
F-15.708029650700196
sg149
F1.0
sg15
I6
sg150
g151
sbsI7
g0
(g142
g2
Ntp171
Rp172
(dp173
g146
g147
sg148
F-3.3475636223252825
sg149
F1.0
sg15
I7
sg150
g151
sbsI8
g0
(g142
g2
Ntp174
Rp175
(dp176
g146
g147
sg148
F-11.294639427415454
sg149
F1.0
sg15
I8
sg150
g151
sbsI9
g0
(g142
g2
Ntp177
Rp178
(dp179
g146
g147
sg148
F2.477738375029811
sg149
F1.0
sg15
I9
sg150
g151
sbsI257
g0
(g142
g2
Ntp180
Rp181
(dp182
g146
g147
sg148
F15.006413509538527
sg149
F1.0
sg15
I257
sg150
g151
sbsI129
g0
(g142
g2
Ntp183
Rp184
(dp185
g146
g158
sg148
F-6.702767505550594
sg149
F1.0
sg15
I129
sg150
g151
sbsI174
g0
(g142
g2
Ntp186
Rp187
(dp188
g146
g147
sg148
F5.44206433726077
sg149
F1.0
sg15
I174
sg150
g151
sbsI268
g0
(g142
g2
Ntp189
Rp190
(dp191
g146
g147
sg148
F13.913111480438964
sg149
F1.0
sg15
I268
sg150
g151
sbsI38
g0
(g142
g2
Ntp192
Rp193
(dp194
g146
g147
sg148
F16.549872063321168
sg149
F1.0
sg15
I38
sg150
g151
sbsI287
g0
(g142
g2
Ntp195
Rp196
(dp197
g146
g147
sg148
F-18.85433170970823
sg149
F1.0
sg15
I287
sg150
g151
sbssg15
I1313
sS'fitness'
p198
Nsb.