ccopy_reg
_reconstructor
p0
(cneat.genome
DefaultGenome
p1
c__builtin__
object
p2
Ntp3
Rp4
(dp5
S'connections'
p6
(dp7
(I268
I257
tp8
g0
(cneat.genes
DefaultConnectionGene
p9
g2
Ntp10
Rp11
(dp12
S'enabled'
p13
I01
sS'weight'
p14
F0.30733417854836287
sS'key'
p15
g8
sbs(I38
I8
tp16
g0
(g9
g2
Ntp17
Rp18
(dp19
g13
I01
sg14
F0.5355452344090961
sg15
g16
sbs(I38
I1
tp20
g0
(g9
g2
Ntp21
Rp22
(dp23
g13
I01
sg14
F0.5497603393460775
sg15
g20
sbs(I174
I7
tp24
g0
(g9
g2
Ntp25
Rp26
(dp27
g13
I01
sg14
F-0.9534688478813927
sg15
g24
sbs(I-5
I38
tp28
g0
(g9
g2
Ntp29
Rp30
(dp31
g13
I00
sg14
F1.0123388219493954
sg15
g28
sbs(I306
I38
tp32
g0
(g9
g2
Ntp33
Rp34
(dp35
g13
I01
sg14
F2.906174711569532
sg15
g32
sbs(I-6
I38
tp36
g0
(g9
g2
Ntp37
Rp38
(dp39
g13
I01
sg14
F0.670747873948969
sg15
g36
sbs(I-1
I38
tp40
g0
(g9
g2
Ntp41
Rp42
(dp43
g13
I00
sg14
F-0.8043137882536204
sg15
g40
sbs(I38
I9
tp44
g0
(g9
g2
Ntp45
Rp46
(dp47
g13
I01
sg14
F-0.2696647604457084
sg15
g44
sbs(I-5
I257
tp48
g0
(g9
g2
Ntp49
Rp50
(dp51
g13
I00
sg14
F2.2146098869469832
sg15
g48
sbs(I-3
I306
tp52
g0
(g9
g2
Ntp53
Rp54
(dp55
g13
I01
sg14
F1.0502173283512553
sg15
g52
sbs(I38
I6
tp56
g0
(g9
g2
Ntp57
Rp58
(dp59
g13
I01
sg14
F-0.05374194181050014
sg15
g56
sbs(I38
I2
tp60
g0
(g9
g2
Ntp61
Rp62
(dp63
g13
I00
sg14
F0.455299275635166
sg15
g60
sbs(I257
I38
tp64
g0
(g9
g2
Ntp65
Rp66
(dp67
g13
I01
sg14
F0.8135310429355136
sg15
g64
sbs(I38
I174
tp68
g0
(g9
g2
Ntp69
Rp70
(dp71
g13
I01
sg14
F2.608717497188587
sg15
g68
sbs(I-4
I38
tp72
g0
(g9
g2
Ntp73
Rp74
(dp75
g13
I01
sg14
F1.5018656016677427
sg15
g72
sbs(I38
I7
tp76
g0
(g9
g2
Ntp77
Rp78
(dp79
g13
I00
sg14
F2.5740374319089487
sg15
g76
sbs(I-8
I38
tp80
g0
(g9
g2
Ntp81
Rp82
(dp83
g13
I01
sg14
F-1.2658644985356624
sg15
g80
sbs(I-5
I268
tp84
g0
(g9
g2
Ntp85
Rp86
(dp87
g13
I01
sg14
F1.0560813494927608
sg15
g84
sbs(I38
I3
tp88
g0
(g9
g2
Ntp89
Rp90
(dp91
g13
I01
sg14
F-0.5408881185512227
sg15
g88
sbs(I-10
I38
tp92
g0
(g9
g2
Ntp93
Rp94
(dp95
g13
I01
sg14
F0.21489039743539548
sg15
g92
sbs(I-2
I287
tp96
g0
(g9
g2
Ntp97
Rp98
(dp99
g13
I01
sg14
F0.21907225108972
sg15
g96
sbs(I-2
I38
tp100
g0
(g9
g2
Ntp101
Rp102
(dp103
g13
I00
sg14
F0.3797785733953387
sg15
g100
sbs(I-3
I38
tp104
g0
(g9
g2
Ntp105
Rp106
(dp107
g13
I00
sg14
F3.534748210419237
sg15
g104
sbs(I38
I4
tp108
g0
(g9
g2
Ntp109
Rp110
(dp111
g13
I01
sg14
F-1.6393438150520652
sg15
g108
sbs(I287
I38
tp112
g0
(g9
g2
Ntp113
Rp114
(dp115
g13
I01
sg14
F1.245391419779129
sg15
g112
sbs(I-7
I38
tp116
g0
(g9
g2
Ntp117
Rp118
(dp119
g13
I00
sg14
F-1.6656790004812136
sg15
g116
sbs(I38
I0
tp120
g0
(g9
g2
Ntp121
Rp122
(dp123
g13
I01
sg14
F-2.9225794237651233
sg15
g120
sbs(I129
I38
tp124
g0
(g9
g2
Ntp125
Rp126
(dp127
g13
I01
sg14
F0.2508115800098479
sg15
g124
sbs(I-7
I129
tp128
g0
(g9
g2
Ntp129
Rp130
(dp131
g13
I01
sg14
F0.7460074645489746
sg15
g128
sbs(I129
I7
tp132
g0
(g9
g2
Ntp133
Rp134
(dp135
g13
I01
sg14
F1.1117434010424851
sg15
g132
sbs(I-9
I268
tp136
g0
(g9
g2
Ntp137
Rp138
(dp139
g13
I01
sg14
F0.24788157077980366
sg15
g136
sbs(I-9
I38
tp140
g0
(g9
g2
Ntp141
Rp142
(dp143
g13
I01
sg14
F-0.963823859432022
sg15
g140
sbs(I38
I5
tp144
g0
(g9
g2
Ntp145
Rp146
(dp147
g13
I01
sg14
F0.0706340743543058
sg15
g144
sbssS'nodes'
p148
(dp149
I0
g0
(cneat.genes
DefaultNodeGene
p150
g2
Ntp151
Rp152
(dp153
S'activation'
p154
S'relu'
p155
sS'bias'
p156
F-2.7681712708282102
sS'response'
p157
F1.0
sg15
I0
sS'aggregation'
p158
S'sum'
p159
sbsI1
g0
(g150
g2
Ntp160
Rp161
(dp162
g154
g155
sg156
F3.5251640839461906
sg157
F1.0
sg15
I1
sg158
g159
sbsI2
g0
(g150
g2
Ntp163
Rp164
(dp165
g154
S'tanh'
p166
sg156
F7.38254469595389
sg157
F1.0
sg15
I2
sg158
g159
sbsI3
g0
(g150
g2
Ntp167
Rp168
(dp169
g154
g155
sg156
F9.314150025950036
sg157
F1.0
sg15
I3
sg158
g159
sbsI4
g0
(g150
g2
Ntp170
Rp171
(dp172
g154
g155
sg156
F3.2414838437636906
sg157
F1.0
sg15
I4
sg158
g159
sbsI5
g0
(g150
g2
Ntp173
Rp174
(dp175
g154
g166
sg156
F-1.1354248854337765
sg157
F1.0
sg15
I5
sg158
g159
sbsI6
g0
(g150
g2
Ntp176
Rp177
(dp178
g154
g155
sg156
F-15.867356479873187
sg157
F1.0
sg15
I6
sg158
g159
sbsI7
g0
(g150
g2
Ntp179
Rp180
(dp181
g154
g155
sg156
F-3.27529925275561
sg157
F1.0
sg15
I7
sg158
g159
sbsI8
g0
(g150
g2
Ntp182
Rp183
(dp184
g154
g155
sg156
F-10.702599634972131
sg157
F1.0
sg15
I8
sg158
g159
sbsI9
g0
(g150
g2
Ntp185
Rp186
(dp187
g154
g155
sg156
F2.496387735459571
sg157
F1.0
sg15
I9
sg158
g159
sbsI257
g0
(g150
g2
Ntp188
Rp189
(dp190
g154
g155
sg156
F15.429769844965573
sg157
F1.0
sg15
I257
sg158
g159
sbsI129
g0
(g150
g2
Ntp191
Rp192
(dp193
g154
g166
sg156
F-7.67520962450826
sg157
F1.0
sg15
I129
sg158
g159
sbsI306
g0
(g150
g2
Ntp194
Rp195
(dp196
g154
g155
sg156
F8.041991361710094
sg157
F1.0
sg15
I306
sg158
g159
sbsI174
g0
(g150
g2
Ntp197
Rp198
(dp199
g154
g155
sg156
F4.2041812120767785
sg157
F1.0
sg15
I174
sg158
g159
sbsI268
g0
(g150
g2
Ntp200
Rp201
(dp202
g154
g155
sg156
F15.7679731524837
sg157
F1.0
sg15
I268
sg158
g159
sbsI38
g0
(g150
g2
Ntp203
Rp204
(dp205
g154
g155
sg156
F16.886490530126142
sg157
F1.0
sg15
I38
sg158
g159
sbsI287
g0
(g150
g2
Ntp206
Rp207
(dp208
g154
g155
sg156
F-19.192626796479303
sg157
F1.0
sg15
I287
sg158
g159
sbssg15
I1315
sS'fitness'
p209
Nsb.