ccopy_reg
_reconstructor
p0
(cneat.genome
DefaultGenome
p1
c__builtin__
object
p2
Ntp3
Rp4
(dp5
S'connections'
p6
(dp7
(I268
I257
tp8
g0
(cneat.genes
DefaultConnectionGene
p9
g2
Ntp10
Rp11
(dp12
S'enabled'
p13
I01
sS'weight'
p14
F0.4281894631299813
sS'key'
p15
g8
sbs(I38
I8
tp16
g0
(g9
g2
Ntp17
Rp18
(dp19
g13
I01
sg14
F0.18028377641134075
sg15
g16
sbs(I38
I1
tp20
g0
(g9
g2
Ntp21
Rp22
(dp23
g13
I01
sg14
F0.7495444791155147
sg15
g20
sbs(I174
I7
tp24
g0
(g9
g2
Ntp25
Rp26
(dp27
g13
I00
sg14
F2.027036169175959
sg15
g24
sbs(I-5
I38
tp28
g0
(g9
g2
Ntp29
Rp30
(dp31
g13
I00
sg14
F0.5436928411626794
sg15
g28
sbs(I-6
I38
tp32
g0
(g9
g2
Ntp33
Rp34
(dp35
g13
I01
sg14
F1.1203691401207023
sg15
g32
sbs(I-1
I38
tp36
g0
(g9
g2
Ntp37
Rp38
(dp39
g13
I00
sg14
F-0.4678946358747279
sg15
g36
sbs(I38
I9
tp40
g0
(g9
g2
Ntp41
Rp42
(dp43
g13
I01
sg14
F-1.3280737462587626
sg15
g40
sbs(I-5
I257
tp44
g0
(g9
g2
Ntp45
Rp46
(dp47
g13
I00
sg14
F1.2828532028388762
sg15
g44
sbs(I38
I6
tp48
g0
(g9
g2
Ntp49
Rp50
(dp51
g13
I01
sg14
F0.6870610241100815
sg15
g48
sbs(I38
I2
tp52
g0
(g9
g2
Ntp53
Rp54
(dp55
g13
I00
sg14
F-0.6049653457286075
sg15
g52
sbs(I257
I38
tp56
g0
(g9
g2
Ntp57
Rp58
(dp59
g13
I01
sg14
F1.1634677349648845
sg15
g56
sbs(I38
I174
tp60
g0
(g9
g2
Ntp61
Rp62
(dp63
g13
I01
sg14
F2.4208483149321545
sg15
g60
sbs(I-4
I38
tp64
g0
(g9
g2
Ntp65
Rp66
(dp67
g13
I01
sg14
F-0.4323275649132376
sg15
g64
sbs(I38
I7
tp68
g0
(g9
g2
Ntp69
Rp70
(dp71
g13
I00
sg14
F2.148638330609373
sg15
g68
sbs(I-8
I38
tp72
g0
(g9
g2
Ntp73
Rp74
(dp75
g13
I01
sg14
F-1.262909713451429
sg15
g72
sbs(I-5
I268
tp76
g0
(g9
g2
Ntp77
Rp78
(dp79
g13
I01
sg14
F0.5051846124725274
sg15
g76
sbs(I38
I3
tp80
g0
(g9
g2
Ntp81
Rp82
(dp83
g13
I01
sg14
F-0.6607053581024804
sg15
g80
sbs(I-10
I38
tp84
g0
(g9
g2
Ntp85
Rp86
(dp87
g13
I01
sg14
F-3.108705369631882
sg15
g84
sbs(I-2
I38
tp88
g0
(g9
g2
Ntp89
Rp90
(dp91
g13
I00
sg14
F-0.6415677299593687
sg15
g88
sbs(I-3
I38
tp92
g0
(g9
g2
Ntp93
Rp94
(dp95
g13
I01
sg14
F2.4537832940642694
sg15
g92
sbs(I38
I4
tp96
g0
(g9
g2
Ntp97
Rp98
(dp99
g13
I01
sg14
F-1.449505980497025
sg15
g96
sbs(I-7
I38
tp100
g0
(g9
g2
Ntp101
Rp102
(dp103
g13
I00
sg14
F-2.239676976179845
sg15
g100
sbs(I38
I0
tp104
g0
(g9
g2
Ntp105
Rp106
(dp107
g13
I01
sg14
F-2.325012482577036
sg15
g104
sbs(I129
I38
tp108
g0
(g9
g2
Ntp109
Rp110
(dp111
g13
I01
sg14
F0.8294612199160368
sg15
g108
sbs(I-7
I129
tp112
g0
(g9
g2
Ntp113
Rp114
(dp115
g13
I01
sg14
F1.404498384670765
sg15
g112
sbs(I129
I7
tp116
g0
(g9
g2
Ntp117
Rp118
(dp119
g13
I01
sg14
F-0.912486779379178
sg15
g116
sbs(I-9
I268
tp120
g0
(g9
g2
Ntp121
Rp122
(dp123
g13
I01
sg14
F0.20620357568930303
sg15
g120
sbs(I-9
I38
tp124
g0
(g9
g2
Ntp125
Rp126
(dp127
g13
I01
sg14
F-2.3787805150934838
sg15
g124
sbs(I38
I5
tp128
g0
(g9
g2
Ntp129
Rp130
(dp131
g13
I01
sg14
F-0.1573941279286204
sg15
g128
sbssS'nodes'
p132
(dp133
I0
g0
(cneat.genes
DefaultNodeGene
p134
g2
Ntp135
Rp136
(dp137
S'activation'
p138
S'relu'
p139
sS'bias'
p140
F-2.7279419744327886
sS'response'
p141
F1.0
sg15
I0
sS'aggregation'
p142
S'sum'
p143
sbsI1
g0
(g134
g2
Ntp144
Rp145
(dp146
g138
g139
sg140
F3.923117505198073
sg141
F1.0
sg15
I1
sg142
g143
sbsI2
g0
(g134
g2
Ntp147
Rp148
(dp149
g138
S'tanh'
p150
sg140
F-22.162315646372313
sg141
F1.0
sg15
I2
sg142
g143
sbsI3
g0
(g134
g2
Ntp151
Rp152
(dp153
g138
g139
sg140
F9.025991232290762
sg141
F1.0
sg15
I3
sg142
g143
sbsI4
g0
(g134
g2
Ntp154
Rp155
(dp156
g138
g139
sg140
F3.2414838437636906
sg141
F1.0
sg15
I4
sg142
g143
sbsI5
g0
(g134
g2
Ntp157
Rp158
(dp159
g138
g150
sg140
F-1.2643358262600672
sg141
F1.0
sg15
I5
sg142
g143
sbsI6
g0
(g134
g2
Ntp160
Rp161
(dp162
g138
g139
sg140
F8.385746215307481
sg141
F1.0
sg15
I6
sg142
g143
sbsI7
g0
(g134
g2
Ntp163
Rp164
(dp165
g138
g139
sg140
F-2.2696824267359075
sg141
F1.0
sg15
I7
sg142
g143
sbsI8
g0
(g134
g2
Ntp166
Rp167
(dp168
g138
g139
sg140
F-9.390776669471222
sg141
F1.0
sg15
I8
sg142
g143
sbsI9
g0
(g134
g2
Ntp169
Rp170
(dp171
g138
g139
sg140
F2.77672784077562
sg141
F1.0
sg15
I9
sg142
g143
sbsI257
g0
(g134
g2
Ntp172
Rp173
(dp174
g138
g139
sg140
F14.623428364718153
sg141
F1.0
sg15
I257
sg142
g143
sbsI129
g0
(g134
g2
Ntp175
Rp176
(dp177
g138
g150
sg140
F-7.310270852293899
sg141
F1.0
sg15
I129
sg142
g143
sbsI174
g0
(g134
g2
Ntp178
Rp179
(dp180
g138
g139
sg140
F6.081110675425804
sg141
F1.0
sg15
I174
sg142
g143
sbsI268
g0
(g134
g2
Ntp181
Rp182
(dp183
g138
g139
sg140
F17.135379087651984
sg141
F1.0
sg15
I268
sg142
g143
sbsI38
g0
(g134
g2
Ntp184
Rp185
(dp186
g138
g139
sg140
F17.19653445703432
sg141
F1.0
sg15
I38
sg142
g143
sbssg15
I1316
sS'fitness'
p187
Nsb.