ccopy_reg
_reconstructor
p0
(cneat.genome
DefaultGenome
p1
c__builtin__
object
p2
Ntp3
Rp4
(dp5
S'connections'
p6
(dp7
(I268
I257
tp8
g0
(cneat.genes
DefaultConnectionGene
p9
g2
Ntp10
Rp11
(dp12
S'enabled'
p13
I01
sS'weight'
p14
F1.1479546706964885
sS'key'
p15
g8
sbs(I38
I8
tp16
g0
(g9
g2
Ntp17
Rp18
(dp19
g13
I01
sg14
F1.3814638880287442
sg15
g16
sbs(I38
I1
tp20
g0
(g9
g2
Ntp21
Rp22
(dp23
g13
I01
sg14
F0.3798002477332646
sg15
g20
sbs(I174
I7
tp24
g0
(g9
g2
Ntp25
Rp26
(dp27
g13
I01
sg14
F1.8014828713011322
sg15
g24
sbs(I-5
I38
tp28
g0
(g9
g2
Ntp29
Rp30
(dp31
g13
I01
sg14
F0.09182096690581183
sg15
g28
sbs(I-6
I38
tp32
g0
(g9
g2
Ntp33
Rp34
(dp35
g13
I01
sg14
F1.992988643972899
sg15
g32
sbs(I-1
I38
tp36
g0
(g9
g2
Ntp37
Rp38
(dp39
g13
I00
sg14
F-0.028400643596911412
sg15
g36
sbs(I38
I9
tp40
g0
(g9
g2
Ntp41
Rp42
(dp43
g13
I01
sg14
F-1.5130567485949216
sg15
g40
sbs(I-5
I257
tp44
g0
(g9
g2
Ntp45
Rp46
(dp47
g13
I00
sg14
F1.5288348952120652
sg15
g44
sbs(I38
I6
tp48
g0
(g9
g2
Ntp49
Rp50
(dp51
g13
I01
sg14
F1.7510074276916858
sg15
g48
sbs(I38
I2
tp52
g0
(g9
g2
Ntp53
Rp54
(dp55
g13
I00
sg14
F-0.9241349048842893
sg15
g52
sbs(I257
I38
tp56
g0
(g9
g2
Ntp57
Rp58
(dp59
g13
I01
sg14
F1.249799659988671
sg15
g56
sbs(I38
I174
tp60
g0
(g9
g2
Ntp61
Rp62
(dp63
g13
I01
sg14
F2.771229902367299
sg15
g60
sbs(I-4
I38
tp64
g0
(g9
g2
Ntp65
Rp66
(dp67
g13
I01
sg14
F1.2183745313033199
sg15
g64
sbs(I38
I7
tp68
g0
(g9
g2
Ntp69
Rp70
(dp71
g13
I00
sg14
F1.7171940294580341
sg15
g68
sbs(I-8
I38
tp72
g0
(g9
g2
Ntp73
Rp74
(dp75
g13
I01
sg14
F-1.329027404248664
sg15
g72
sbs(I-5
I268
tp76
g0
(g9
g2
Ntp77
Rp78
(dp79
g13
I01
sg14
F1.2629381235107613
sg15
g76
sbs(I38
I3
tp80
g0
(g9
g2
Ntp81
Rp82
(dp83
g13
I01
sg14
F-0.4193468564231637
sg15
g80
sbs(I-10
I38
tp84
g0
(g9
g2
Ntp85
Rp86
(dp87
g13
I01
sg14
F-2.7356651495661772
sg15
g84
sbs(I-2
I38
tp88
g0
(g9
g2
Ntp89
Rp90
(dp91
g13
I00
sg14
F0.2573421380031777
sg15
g88
sbs(I-3
I38
tp92
g0
(g9
g2
Ntp93
Rp94
(dp95
g13
I01
sg14
F2.8592886606441903
sg15
g92
sbs(I38
I4
tp96
g0
(g9
g2
Ntp97
Rp98
(dp99
g13
I01
sg14
F-3.141562762636171
sg15
g96
sbs(I-7
I38
tp100
g0
(g9
g2
Ntp101
Rp102
(dp103
g13
I00
sg14
F-1.7058409804429895
sg15
g100
sbs(I38
I0
tp104
g0
(g9
g2
Ntp105
Rp106
(dp107
g13
I01
sg14
F-2.463186311209286
sg15
g104
sbs(I129
I38
tp108
g0
(g9
g2
Ntp109
Rp110
(dp111
g13
I01
sg14
F1.0816817129627403
sg15
g108
sbs(I-7
I129
tp112
g0
(g9
g2
Ntp113
Rp114
(dp115
g13
I01
sg14
F1.5900004782468324
sg15
g112
sbs(I129
I7
tp116
g0
(g9
g2
Ntp117
Rp118
(dp119
g13
I01
sg14
F0.4880352619556306
sg15
g116
sbs(I-9
I38
tp120
g0
(g9
g2
Ntp121
Rp122
(dp123
g13
I01
sg14
F-1.314823081328168
sg15
g120
sbs(I38
I5
tp124
g0
(g9
g2
Ntp125
Rp126
(dp127
g13
I01
sg14
F-0.35891266394350996
sg15
g124
sbssS'nodes'
p128
(dp129
I0
g0
(cneat.genes
DefaultNodeGene
p130
g2
Ntp131
Rp132
(dp133
S'activation'
p134
S'relu'
p135
sS'bias'
p136
F-18.273775599790593
sS'response'
p137
F1.0
sg15
I0
sS'aggregation'
p138
S'sum'
p139
sbsI1
g0
(g130
g2
Ntp140
Rp141
(dp142
g134
g135
sg136
F2.5753909403233726
sg137
F1.0
sg15
I1
sg138
g139
sbsI2
g0
(g130
g2
Ntp143
Rp144
(dp145
g134
S'tanh'
p146
sg136
F7.078852724691328
sg137
F1.0
sg15
I2
sg138
g139
sbsI3
g0
(g130
g2
Ntp147
Rp148
(dp149
g134
g135
sg136
F9.52858738623536
sg137
F1.0
sg15
I3
sg138
g139
sbsI4
g0
(g130
g2
Ntp150
Rp151
(dp152
g134
g135
sg136
F2.4276228048189123
sg137
F1.0
sg15
I4
sg138
g139
sbsI5
g0
(g130
g2
Ntp153
Rp154
(dp155
g134
g146
sg136
F-1.3706807627712747
sg137
F1.0
sg15
I5
sg138
g139
sbsI6
g0
(g130
g2
Ntp156
Rp157
(dp158
g134
g135
sg136
F-16.496497177352136
sg137
F1.0
sg15
I6
sg138
g139
sbsI7
g0
(g130
g2
Ntp159
Rp160
(dp161
g134
g135
sg136
F-3.3475636223252825
sg137
F1.0
sg15
I7
sg138
g139
sbsI8
g0
(g130
g2
Ntp162
Rp163
(dp164
g134
g135
sg136
F-11.406139714910859
sg137
F1.0
sg15
I8
sg138
g139
sbsI9
g0
(g130
g2
Ntp165
Rp166
(dp167
g134
g135
sg136
F8.154243718370351
sg137
F1.0
sg15
I9
sg138
g139
sbsI257
g0
(g130
g2
Ntp168
Rp169
(dp170
g134
g135
sg136
F13.522984101335247
sg137
F1.0
sg15
I257
sg138
g139
sbsI129
g0
(g130
g2
Ntp171
Rp172
(dp173
g134
g135
sg136
F-7.576848703710724
sg137
F1.0
sg15
I129
sg138
g139
sbsI174
g0
(g130
g2
Ntp174
Rp175
(dp176
g134
g135
sg136
F5.0439821576471875
sg137
F1.0
sg15
I174
sg138
g139
sbsI268
g0
(g130
g2
Ntp177
Rp178
(dp179
g134
g135
sg136
F16.089218756023214
sg137
F1.0
sg15
I268
sg138
g139
sbsI38
g0
(g130
g2
Ntp180
Rp181
(dp182
g134
g135
sg136
F16.978294944263524
sg137
F1.0
sg15
I38
sg138
g139
sbssg15
I1317
sS'fitness'
p183
Nsb.