ccopy_reg
_reconstructor
p0
(cneat.genome
DefaultGenome
p1
c__builtin__
object
p2
Ntp3
Rp4
(dp5
S'connections'
p6
(dp7
(I20
I154
tp8
g0
(cneat.genes
DefaultConnectionGene
p9
g2
Ntp10
Rp11
(dp12
S'enabled'
p13
I01
sS'weight'
p14
F1.445795916759316
sS'key'
p15
g8
sbs(I20
I4
tp16
g0
(g9
g2
Ntp17
Rp18
(dp19
g13
I01
sg14
F0.2271375143693946
sg15
g16
sbs(I-5
I20
tp20
g0
(g9
g2
Ntp21
Rp22
(dp23
g13
I00
sg14
F-1.5640852316162501
sg15
g20
sbs(I-6
I20
tp24
g0
(g9
g2
Ntp25
Rp26
(dp27
g13
I00
sg14
F-0.8189464071080464
sg15
g24
sbs(I20
I3
tp28
g0
(g9
g2
Ntp29
Rp30
(dp31
g13
I00
sg14
F-2.2126135641466833
sg15
g28
sbs(I-10
I20
tp32
g0
(g9
g2
Ntp33
Rp34
(dp35
g13
I01
sg14
F-1.3887445775638003
sg15
g32
sbs(I20
I2
tp36
g0
(g9
g2
Ntp37
Rp38
(dp39
g13
I01
sg14
F-0.39544120594391363
sg15
g36
sbs(I-3
I20
tp40
g0
(g9
g2
Ntp41
Rp42
(dp43
g13
I01
sg14
F-0.4299962196511503
sg15
g40
sbs(I20
I1
tp44
g0
(g9
g2
Ntp45
Rp46
(dp47
g13
I01
sg14
F0.8439364739381584
sg15
g44
sbs(I20
I0
tp48
g0
(g9
g2
Ntp49
Rp50
(dp51
g13
I01
sg14
F1.942801630232819
sg15
g48
sbs(I154
I1
tp52
g0
(g9
g2
Ntp53
Rp54
(dp55
g13
I01
sg14
F3.4086961989329176
sg15
g52
sbs(I20
I7
tp56
g0
(g9
g2
Ntp57
Rp58
(dp59
g13
I00
sg14
F2.682591572586808
sg15
g56
sbs(I-4
I20
tp60
g0
(g9
g2
Ntp61
Rp62
(dp63
g13
I01
sg14
F-3.902220674491502
sg15
g60
sbs(I-1
I20
tp64
g0
(g9
g2
Ntp65
Rp66
(dp67
g13
I01
sg14
F0.40346272721389465
sg15
g64
sbs(I20
I6
tp68
g0
(g9
g2
Ntp69
Rp70
(dp71
g13
I01
sg14
F5.437851296646776
sg15
g68
sbs(I-7
I20
tp72
g0
(g9
g2
Ntp73
Rp74
(dp75
g13
I00
sg14
F0.1603770966990975
sg15
g72
sbs(I20
I8
tp76
g0
(g9
g2
Ntp77
Rp78
(dp79
g13
I01
sg14
F-0.08043413206075634
sg15
g76
sbs(I20
I5
tp80
g0
(g9
g2
Ntp81
Rp82
(dp83
g13
I00
sg14
F1.0918429937640783
sg15
g80
sbs(I20
I9
tp84
g0
(g9
g2
Ntp85
Rp86
(dp87
g13
I00
sg14
F-1.3274117287960243
sg15
g84
sbs(I-2
I20
tp88
g0
(g9
g2
Ntp89
Rp90
(dp91
g13
I01
sg14
F-1.743708533459347
sg15
g88
sbs(I-8
I20
tp92
g0
(g9
g2
Ntp93
Rp94
(dp95
g13
I00
sg14
F-0.049281043495825294
sg15
g92
sbssS'nodes'
p96
(dp97
I0
g0
(cneat.genes
DefaultNodeGene
p98
g2
Ntp99
Rp100
(dp101
S'activation'
p102
S'relu'
p103
sS'bias'
p104
F9.817451273304863
sS'response'
p105
F1.0
sg15
I0
sS'aggregation'
p106
S'sum'
p107
sbsI1
g0
(g98
g2
Ntp108
Rp109
(dp110
g102
g103
sg104
F-16.377154549500517
sg105
F1.0
sg15
I1
sg106
g107
sbsI2
g0
(g98
g2
Ntp111
Rp112
(dp113
g102
g103
sg104
F0.8619596462681491
sg105
F1.0
sg15
I2
sg106
g107
sbsI3
g0
(g98
g2
Ntp114
Rp115
(dp116
g102
g103
sg104
F-18.04657334656284
sg105
F1.0
sg15
I3
sg106
g107
sbsI4
g0
(g98
g2
Ntp117
Rp118
(dp119
g102
g103
sg104
F13.707857887721065
sg105
F1.0
sg15
I4
sg106
g107
sbsI5
g0
(g98
g2
Ntp120
Rp121
(dp122
g102
g103
sg104
F3.0736130993150215
sg105
F1.0
sg15
I5
sg106
g107
sbsI6
g0
(g98
g2
Ntp123
Rp124
(dp125
g102
g103
sg104
F-3.5367908376797232
sg105
F1.0
sg15
I6
sg106
g107
sbsI7
g0
(g98
g2
Ntp126
Rp127
(dp128
g102
g103
sg104
F2.9054426711101025
sg105
F1.0
sg15
I7
sg106
g107
sbsI8
g0
(g98
g2
Ntp129
Rp130
(dp131
g102
g103
sg104
F11.994213444224808
sg105
F1.0
sg15
I8
sg106
g107
sbsI9
g0
(g98
g2
Ntp132
Rp133
(dp134
g102
S'tanh'
p135
sg104
F-5.0958684921008786
sg105
F1.0
sg15
I9
sg106
g107
sbsI20
g0
(g98
g2
Ntp136
Rp137
(dp138
g102
g103
sg104
F11.179571774628497
sg105
F1.0
sg15
I20
sg106
g107
sbsI154
g0
(g98
g2
Ntp139
Rp140
(dp141
g102
g103
sg104
F6.501518258562386
sg105
F1.0
sg15
I154
sg106
g107
sbssg15
I1319
sS'fitness'
p142
Nsb.