ccopy_reg
_reconstructor
p0
(cneat.genome
DefaultGenome
p1
c__builtin__
object
p2
Ntp3
Rp4
(dp5
S'connections'
p6
(dp7
(I327
I3
tp8
g0
(cneat.genes
DefaultConnectionGene
p9
g2
Ntp10
Rp11
(dp12
S'enabled'
p13
I01
sS'weight'
p14
F-1.2172483771203473
sS'key'
p15
g8
sbs(I4
I327
tp16
g0
(g9
g2
Ntp17
Rp18
(dp19
g13
I01
sg14
F-0.18918686465228146
sg15
g16
sbs(I0
I0
tp20
g0
(g9
g2
Ntp21
Rp22
(dp23
g13
I00
sg14
F1.5689197580230196
sg15
g20
sbs(I3
I3
tp24
g0
(g9
g2
Ntp25
Rp26
(dp27
g13
I00
sg14
F-1.4619756125396017
sg15
g24
sbs(I-8
I327
tp28
g0
(g9
g2
Ntp29
Rp30
(dp31
g13
I01
sg14
F-1.0181631262573887
sg15
g28
sbs(I4
I4
tp32
g0
(g9
g2
Ntp33
Rp34
(dp35
g13
I01
sg14
F1.2478726894772865
sg15
g32
sbs(I327
I7
tp36
g0
(g9
g2
Ntp37
Rp38
(dp39
g13
I01
sg14
F-3.312109596370874
sg15
g36
sbs(I-4
I3
tp40
g0
(g9
g2
Ntp41
Rp42
(dp43
g13
I00
sg14
F-0.544144899105985
sg15
g40
sbs(I8
I8
tp44
g0
(g9
g2
Ntp45
Rp46
(dp47
g13
I00
sg14
F3.23074088059888
sg15
g44
sbs(I327
I4
tp48
g0
(g9
g2
Ntp49
Rp50
(dp51
g13
I01
sg14
F-0.04765240485454114
sg15
g48
sbs(I-3
I327
tp52
g0
(g9
g2
Ntp53
Rp54
(dp55
g13
I00
sg14
F1.598866416061176
sg15
g52
sbs(I2
I2
tp56
g0
(g9
g2
Ntp57
Rp58
(dp59
g13
I01
sg14
F2.3582762921482656
sg15
g56
sbs(I5
I327
tp60
g0
(g9
g2
Ntp61
Rp62
(dp63
g13
I01
sg14
F-2.766791888395069
sg15
g60
sbs(I-4
I327
tp64
g0
(g9
g2
Ntp65
Rp66
(dp67
g13
I01
sg14
F0.05963385800979515
sg15
g64
sbs(I327
I8
tp68
g0
(g9
g2
Ntp69
Rp70
(dp71
g13
I01
sg14
F-4.432529137907835
sg15
g68
sbs(I1
I1
tp72
g0
(g9
g2
Ntp73
Rp74
(dp75
g13
I01
sg14
F-0.00400398264088056
sg15
g72
sbs(I327
I2
tp76
g0
(g9
g2
Ntp77
Rp78
(dp79
g13
I01
sg14
F-0.8979297136884767
sg15
g76
sbs(I327
I9
tp80
g0
(g9
g2
Ntp81
Rp82
(dp83
g13
I00
sg14
F0.7236641617569117
sg15
g80
sbssS'nodes'
p84
(dp85
I0
g0
(cneat.genes
DefaultNodeGene
p86
g2
Ntp87
Rp88
(dp89
S'activation'
p90
S'tanh'
p91
sS'bias'
p92
F-0.38535148610422276
sS'response'
p93
F1.0
sg15
I0
sS'aggregation'
p94
S'sum'
p95
sbsI1
g0
(g86
g2
Ntp96
Rp97
(dp98
g90
g91
sg92
F-17.80070337579157
sg93
F1.0
sg15
I1
sg94
g95
sbsI2
g0
(g86
g2
Ntp99
Rp100
(dp101
g90
g91
sg92
F0.2634368967516082
sg93
F1.0
sg15
I2
sg94
g95
sbsI3
g0
(g86
g2
Ntp102
Rp103
(dp104
g90
g91
sg92
F-10.934293766560131
sg93
F1.0
sg15
I3
sg94
g95
sbsI4
g0
(g86
g2
Ntp105
Rp106
(dp107
g90
g91
sg92
F3.6221219418807995
sg93
F1.0
sg15
I4
sg94
g95
sbsI5
g0
(g86
g2
Ntp108
Rp109
(dp110
g90
g91
sg92
F1.016735860649608
sg93
F1.0
sg15
I5
sg94
g95
sbsI6
g0
(g86
g2
Ntp111
Rp112
(dp113
g90
g91
sg92
F3.9168056097690065
sg93
F1.0
sg15
I6
sg94
g95
sbsI7
g0
(g86
g2
Ntp114
Rp115
(dp116
g90
g91
sg92
F0.15806710282816572
sg93
F1.0
sg15
I7
sg94
g95
sbsI8
g0
(g86
g2
Ntp117
Rp118
(dp119
g90
g91
sg92
F-7.949660339915242
sg93
F1.0
sg15
I8
sg94
g95
sbsI9
g0
(g86
g2
Ntp120
Rp121
(dp122
g90
g91
sg92
F-2.965613559666296
sg93
F1.0
sg15
I9
sg94
g95
sbsI327
g0
(g86
g2
Ntp123
Rp124
(dp125
g90
g91
sg92
F3.7545254783852946
sg93
F1.0
sg15
I327
sg94
g95
sbssg15
I132
sS'fitness'
p126
Nsb.