ccopy_reg
_reconstructor
p0
(cneat.genome
DefaultGenome
p1
c__builtin__
object
p2
Ntp3
Rp4
(dp5
S'connections'
p6
(dp7
(I20
I4
tp8
g0
(cneat.genes
DefaultConnectionGene
p9
g2
Ntp10
Rp11
(dp12
S'enabled'
p13
I01
sS'weight'
p14
F0.3925279037340337
sS'key'
p15
g8
sbs(I-5
I20
tp16
g0
(g9
g2
Ntp17
Rp18
(dp19
g13
I00
sg14
F-0.612644249158216
sg15
g16
sbs(I-6
I20
tp20
g0
(g9
g2
Ntp21
Rp22
(dp23
g13
I00
sg14
F-1.496487008402301
sg15
g20
sbs(I20
I3
tp24
g0
(g9
g2
Ntp25
Rp26
(dp27
g13
I00
sg14
F-0.48979890455833813
sg15
g24
sbs(I-10
I20
tp28
g0
(g9
g2
Ntp29
Rp30
(dp31
g13
I01
sg14
F0.8359705732333941
sg15
g28
sbs(I20
I2
tp32
g0
(g9
g2
Ntp33
Rp34
(dp35
g13
I01
sg14
F-1.4021911167233139
sg15
g32
sbs(I-3
I20
tp36
g0
(g9
g2
Ntp37
Rp38
(dp39
g13
I01
sg14
F-1.7010489446384094
sg15
g36
sbs(I20
I1
tp40
g0
(g9
g2
Ntp41
Rp42
(dp43
g13
I01
sg14
F1.4572243407643852
sg15
g40
sbs(I20
I0
tp44
g0
(g9
g2
Ntp45
Rp46
(dp47
g13
I01
sg14
F1.0752678337220167
sg15
g44
sbs(I20
I7
tp48
g0
(g9
g2
Ntp49
Rp50
(dp51
g13
I00
sg14
F2.1989909725909955
sg15
g48
sbs(I-4
I20
tp52
g0
(g9
g2
Ntp53
Rp54
(dp55
g13
I01
sg14
F-1.7308988920362096
sg15
g52
sbs(I20
I9
tp56
g0
(g9
g2
Ntp57
Rp58
(dp59
g13
I01
sg14
F-0.5045228237734852
sg15
g56
sbs(I20
I6
tp60
g0
(g9
g2
Ntp61
Rp62
(dp63
g13
I01
sg14
F4.947317230636465
sg15
g60
sbs(I-7
I20
tp64
g0
(g9
g2
Ntp65
Rp66
(dp67
g13
I00
sg14
F-2.0186755143376773
sg15
g64
sbs(I20
I8
tp68
g0
(g9
g2
Ntp69
Rp70
(dp71
g13
I01
sg14
F-1.0967668076261952
sg15
g68
sbs(I20
I5
tp72
g0
(g9
g2
Ntp73
Rp74
(dp75
g13
I00
sg14
F0.06402313099940846
sg15
g72
sbs(I-1
I20
tp76
g0
(g9
g2
Ntp77
Rp78
(dp79
g13
I00
sg14
F0.8890193271047715
sg15
g76
sbs(I-8
I20
tp80
g0
(g9
g2
Ntp81
Rp82
(dp83
g13
I00
sg14
F1.0971961238708212
sg15
g80
sbssS'nodes'
p84
(dp85
I0
g0
(cneat.genes
DefaultNodeGene
p86
g2
Ntp87
Rp88
(dp89
S'activation'
p90
S'relu'
p91
sS'bias'
p92
F9.717968629817166
sS'response'
p93
F1.0
sg15
I0
sS'aggregation'
p94
S'sum'
p95
sbsI1
g0
(g86
g2
Ntp96
Rp97
(dp98
g90
g91
sg92
F21.80275459171039
sg93
F1.0
sg15
I1
sg94
g95
sbsI2
g0
(g86
g2
Ntp99
Rp100
(dp101
g90
g91
sg92
F3.1352523012471307
sg93
F1.0
sg15
I2
sg94
g95
sbsI3
g0
(g86
g2
Ntp102
Rp103
(dp104
g90
g91
sg92
F-6.175370660541253
sg93
F1.0
sg15
I3
sg94
g95
sbsI4
g0
(g86
g2
Ntp105
Rp106
(dp107
g90
g91
sg92
F14.965606943403696
sg93
F1.0
sg15
I4
sg94
g95
sbsI5
g0
(g86
g2
Ntp108
Rp109
(dp110
g90
g91
sg92
F0.42785363612750194
sg93
F1.0
sg15
I5
sg94
g95
sbsI6
g0
(g86
g2
Ntp111
Rp112
(dp113
g90
g91
sg92
F-3.0099381928771525
sg93
F1.0
sg15
I6
sg94
g95
sbsI7
g0
(g86
g2
Ntp114
Rp115
(dp116
g90
g91
sg92
F3.5162028845189766
sg93
F1.0
sg15
I7
sg94
g95
sbsI8
g0
(g86
g2
Ntp117
Rp118
(dp119
g90
g91
sg92
F-3.5535687629266413
sg93
F1.0
sg15
I8
sg94
g95
sbsI9
g0
(g86
g2
Ntp120
Rp121
(dp122
g90
S'tanh'
p123
sg92
F-4.651210533012064
sg93
F1.0
sg15
I9
sg94
g95
sbsI20
g0
(g86
g2
Ntp124
Rp125
(dp126
g90
g91
sg92
F11.315731015702468
sg93
F1.0
sg15
I20
sg94
g95
sbssg15
I1321
sS'fitness'
p127
Nsb.