ccopy_reg
_reconstructor
p0
(cneat.genome
DefaultGenome
p1
c__builtin__
object
p2
Ntp3
Rp4
(dp5
S'connections'
p6
(dp7
(I20
I154
tp8
g0
(cneat.genes
DefaultConnectionGene
p9
g2
Ntp10
Rp11
(dp12
S'enabled'
p13
I01
sS'weight'
p14
F1.734583689368244
sS'key'
p15
g8
sbs(I20
I4
tp16
g0
(g9
g2
Ntp17
Rp18
(dp19
g13
I01
sg14
F-1.179020639248358
sg15
g16
sbs(I-5
I20
tp20
g0
(g9
g2
Ntp21
Rp22
(dp23
g13
I00
sg14
F-0.8173824831896606
sg15
g20
sbs(I-6
I20
tp24
g0
(g9
g2
Ntp25
Rp26
(dp27
g13
I00
sg14
F-1.8795014045864313
sg15
g24
sbs(I20
I3
tp28
g0
(g9
g2
Ntp29
Rp30
(dp31
g13
I00
sg14
F-0.9368820082296052
sg15
g28
sbs(I-10
I20
tp32
g0
(g9
g2
Ntp33
Rp34
(dp35
g13
I01
sg14
F1.1549999964958932
sg15
g32
sbs(I20
I2
tp36
g0
(g9
g2
Ntp37
Rp38
(dp39
g13
I01
sg14
F-0.12658757752169283
sg15
g36
sbs(I-3
I20
tp40
g0
(g9
g2
Ntp41
Rp42
(dp43
g13
I01
sg14
F-0.22247632688091357
sg15
g40
sbs(I20
I1
tp44
g0
(g9
g2
Ntp45
Rp46
(dp47
g13
I01
sg14
F0.5253253336879959
sg15
g44
sbs(I20
I0
tp48
g0
(g9
g2
Ntp49
Rp50
(dp51
g13
I01
sg14
F1.9842485660386706
sg15
g48
sbs(I154
I1
tp52
g0
(g9
g2
Ntp53
Rp54
(dp55
g13
I01
sg14
F3.130286770229774
sg15
g52
sbs(I20
I7
tp56
g0
(g9
g2
Ntp57
Rp58
(dp59
g13
I00
sg14
F4.375025018578283
sg15
g56
sbs(I-4
I20
tp60
g0
(g9
g2
Ntp61
Rp62
(dp63
g13
I01
sg14
F-3.993404929637673
sg15
g60
sbs(I-1
I20
tp64
g0
(g9
g2
Ntp65
Rp66
(dp67
g13
I01
sg14
F-0.8785331078389179
sg15
g64
sbs(I20
I6
tp68
g0
(g9
g2
Ntp69
Rp70
(dp71
g13
I01
sg14
F0.4368714379967439
sg15
g68
sbs(I-7
I20
tp72
g0
(g9
g2
Ntp73
Rp74
(dp75
g13
I00
sg14
F0.01876951926367798
sg15
g72
sbs(I20
I8
tp76
g0
(g9
g2
Ntp77
Rp78
(dp79
g13
I01
sg14
F-1.3464400996688035
sg15
g76
sbs(I20
I5
tp80
g0
(g9
g2
Ntp81
Rp82
(dp83
g13
I00
sg14
F-0.24060509156053833
sg15
g80
sbs(I20
I9
tp84
g0
(g9
g2
Ntp85
Rp86
(dp87
g13
I00
sg14
F-1.5384676910887085
sg15
g84
sbs(I-2
I20
tp88
g0
(g9
g2
Ntp89
Rp90
(dp91
g13
I01
sg14
F-0.3201820513615189
sg15
g88
sbs(I-8
I20
tp92
g0
(g9
g2
Ntp93
Rp94
(dp95
g13
I00
sg14
F0.8811933771753419
sg15
g92
sbssS'nodes'
p96
(dp97
I0
g0
(cneat.genes
DefaultNodeGene
p98
g2
Ntp99
Rp100
(dp101
S'activation'
p102
S'relu'
p103
sS'bias'
p104
F10.591300301185088
sS'response'
p105
F1.0
sg15
I0
sS'aggregation'
p106
S'sum'
p107
sbsI1
g0
(g98
g2
Ntp108
Rp109
(dp110
g102
g103
sg104
F23.401619604384393
sg105
F1.0
sg15
I1
sg106
g107
sbsI2
g0
(g98
g2
Ntp111
Rp112
(dp113
g102
g103
sg104
F1.072837223400849
sg105
F1.0
sg15
I2
sg106
g107
sbsI3
g0
(g98
g2
Ntp114
Rp115
(dp116
g102
g103
sg104
F-17.666490338694665
sg105
F1.0
sg15
I3
sg106
g107
sbsI4
g0
(g98
g2
Ntp117
Rp118
(dp119
g102
g103
sg104
F13.031342386241281
sg105
F1.0
sg15
I4
sg106
g107
sbsI5
g0
(g98
g2
Ntp120
Rp121
(dp122
g102
g103
sg104
F2.7268055129741313
sg105
F1.0
sg15
I5
sg106
g107
sbsI6
g0
(g98
g2
Ntp123
Rp124
(dp125
g102
g103
sg104
F-2.9413930772265533
sg105
F1.0
sg15
I6
sg106
g107
sbsI7
g0
(g98
g2
Ntp126
Rp127
(dp128
g102
g103
sg104
F3.5800678608846006
sg105
F1.0
sg15
I7
sg106
g107
sbsI8
g0
(g98
g2
Ntp129
Rp130
(dp131
g102
g103
sg104
F12.013147351722802
sg105
F1.0
sg15
I8
sg106
g107
sbsI9
g0
(g98
g2
Ntp132
Rp133
(dp134
g102
S'tanh'
p135
sg104
F-5.139394987361284
sg105
F1.0
sg15
I9
sg106
g107
sbsI20
g0
(g98
g2
Ntp136
Rp137
(dp138
g102
g103
sg104
F10.890639499665994
sg105
F1.0
sg15
I20
sg106
g107
sbsI154
g0
(g98
g2
Ntp139
Rp140
(dp141
g102
g103
sg104
F6.356234774702755
sg105
F1.0
sg15
I154
sg106
g107
sbssg15
I1322
sS'fitness'
p142
Nsb.