ccopy_reg
_reconstructor
p0
(cneat.genome
DefaultGenome
p1
c__builtin__
object
p2
Ntp3
Rp4
(dp5
S'connections'
p6
(dp7
(I20
I154
tp8
g0
(cneat.genes
DefaultConnectionGene
p9
g2
Ntp10
Rp11
(dp12
S'enabled'
p13
I01
sS'weight'
p14
F1.7781530875341558
sS'key'
p15
g8
sbs(I20
I4
tp16
g0
(g9
g2
Ntp17
Rp18
(dp19
g13
I01
sg14
F0.9455764768142948
sg15
g16
sbs(I-5
I20
tp20
g0
(g9
g2
Ntp21
Rp22
(dp23
g13
I00
sg14
F-0.43673256573047814
sg15
g20
sbs(I-6
I20
tp24
g0
(g9
g2
Ntp25
Rp26
(dp27
g13
I00
sg14
F-0.743823600743327
sg15
g24
sbs(I20
I3
tp28
g0
(g9
g2
Ntp29
Rp30
(dp31
g13
I00
sg14
F-0.5387386844430944
sg15
g28
sbs(I20
I2
tp32
g0
(g9
g2
Ntp33
Rp34
(dp35
g13
I01
sg14
F-1.9442667258638104
sg15
g32
sbs(I-3
I20
tp36
g0
(g9
g2
Ntp37
Rp38
(dp39
g13
I01
sg14
F-0.5566895185844529
sg15
g36
sbs(I20
I1
tp40
g0
(g9
g2
Ntp41
Rp42
(dp43
g13
I01
sg14
F-0.5325466179332561
sg15
g40
sbs(I20
I0
tp44
g0
(g9
g2
Ntp45
Rp46
(dp47
g13
I01
sg14
F0.9475593680626815
sg15
g44
sbs(I154
I1
tp48
g0
(g9
g2
Ntp49
Rp50
(dp51
g13
I01
sg14
F2.3402101728735105
sg15
g48
sbs(I20
I7
tp52
g0
(g9
g2
Ntp53
Rp54
(dp55
g13
I00
sg14
F2.664087892492416
sg15
g52
sbs(I-4
I20
tp56
g0
(g9
g2
Ntp57
Rp58
(dp59
g13
I01
sg14
F-3.503003801947479
sg15
g56
sbs(I-1
I20
tp60
g0
(g9
g2
Ntp61
Rp62
(dp63
g13
I01
sg14
F1.2731260967080813
sg15
g60
sbs(I20
I6
tp64
g0
(g9
g2
Ntp65
Rp66
(dp67
g13
I00
sg14
F6.704148292077719
sg15
g64
sbs(I-7
I20
tp68
g0
(g9
g2
Ntp69
Rp70
(dp71
g13
I00
sg14
F-0.6914799807523122
sg15
g68
sbs(I20
I8
tp72
g0
(g9
g2
Ntp73
Rp74
(dp75
g13
I01
sg14
F-0.2925977089565301
sg15
g72
sbs(I20
I5
tp76
g0
(g9
g2
Ntp77
Rp78
(dp79
g13
I00
sg14
F1.1404267620154465
sg15
g76
sbs(I20
I9
tp80
g0
(g9
g2
Ntp81
Rp82
(dp83
g13
I01
sg14
F-1.5556887842362694
sg15
g80
sbs(I-2
I20
tp84
g0
(g9
g2
Ntp85
Rp86
(dp87
g13
I01
sg14
F-0.7564097859279195
sg15
g84
sbs(I-8
I20
tp88
g0
(g9
g2
Ntp89
Rp90
(dp91
g13
I00
sg14
F0.15997916328312822
sg15
g88
sbssS'nodes'
p92
(dp93
I0
g0
(cneat.genes
DefaultNodeGene
p94
g2
Ntp95
Rp96
(dp97
S'activation'
p98
S'relu'
p99
sS'bias'
p100
F8.92838244227888
sS'response'
p101
F1.0
sg15
I0
sS'aggregation'
p102
S'sum'
p103
sbsI1
g0
(g94
g2
Ntp104
Rp105
(dp106
g98
g99
sg100
F21.46065266716884
sg101
F1.0
sg15
I1
sg102
g103
sbsI2
g0
(g94
g2
Ntp107
Rp108
(dp109
g98
g99
sg100
F1.072837223400849
sg101
F1.0
sg15
I2
sg102
g103
sbsI3
g0
(g94
g2
Ntp110
Rp111
(dp112
g98
g99
sg100
F4.259381327021282
sg101
F1.0
sg15
I3
sg102
g103
sbsI4
g0
(g94
g2
Ntp113
Rp114
(dp115
g98
g99
sg100
F13.462339449269109
sg101
F1.0
sg15
I4
sg102
g103
sbsI5
g0
(g94
g2
Ntp116
Rp117
(dp118
g98
g99
sg100
F2.6626595036431056
sg101
F1.0
sg15
I5
sg102
g103
sbsI6
g0
(g94
g2
Ntp119
Rp120
(dp121
g98
g99
sg100
F5.915932203815681
sg101
F1.0
sg15
I6
sg102
g103
sbsI7
g0
(g94
g2
Ntp122
Rp123
(dp124
g98
g99
sg100
F19.09699194262138
sg101
F1.0
sg15
I7
sg102
g103
sbsI8
g0
(g94
g2
Ntp125
Rp126
(dp127
g98
g99
sg100
F11.994213444224808
sg101
F1.0
sg15
I8
sg102
g103
sbsI9
g0
(g94
g2
Ntp128
Rp129
(dp130
g98
S'tanh'
p131
sg100
F-4.826897916288061
sg101
F1.0
sg15
I9
sg102
g103
sbsI20
g0
(g94
g2
Ntp132
Rp133
(dp134
g98
g99
sg100
F11.484914511349544
sg101
F1.0
sg15
I20
sg102
g103
sbsI154
g0
(g94
g2
Ntp135
Rp136
(dp137
g98
g99
sg100
F8.104203022966143
sg101
F1.0
sg15
I154
sg102
g103
sbssg15
I1323
sS'fitness'
p138
Nsb.