ccopy_reg
_reconstructor
p0
(cneat.genome
DefaultGenome
p1
c__builtin__
object
p2
Ntp3
Rp4
(dp5
S'connections'
p6
(dp7
(I154
I1
tp8
g0
(cneat.genes
DefaultConnectionGene
p9
g2
Ntp10
Rp11
(dp12
S'enabled'
p13
I01
sS'weight'
p14
F3.400514759558384
sS'key'
p15
g8
sbs(I-2
I5
tp16
g0
(g9
g2
Ntp17
Rp18
(dp19
g13
I01
sg14
F-0.5387975491024508
sg15
g16
sbssS'nodes'
p20
(dp21
I0
g0
(cneat.genes
DefaultNodeGene
p22
g2
Ntp23
Rp24
(dp25
S'activation'
p26
S'relu'
p27
sS'bias'
p28
F8.822530954178726
sS'response'
p29
F1.0
sg15
I0
sS'aggregation'
p30
S'sum'
p31
sbsI1
g0
(g22
g2
Ntp32
Rp33
(dp34
g26
g27
sg28
F21.02583711391907
sg29
F1.0
sg15
I1
sg30
g31
sbsI2
g0
(g22
g2
Ntp35
Rp36
(dp37
g26
g27
sg28
F3.813253376718616
sg29
F1.0
sg15
I2
sg30
g31
sbsI3
g0
(g22
g2
Ntp38
Rp39
(dp40
g26
g27
sg28
F-7.032200551899106
sg29
F1.0
sg15
I3
sg30
g31
sbsI4
g0
(g22
g2
Ntp41
Rp42
(dp43
g26
g27
sg28
F15.703555254362726
sg29
F1.0
sg15
I4
sg30
g31
sbsI5
g0
(g22
g2
Ntp44
Rp45
(dp46
g26
g27
sg28
F1.803744893211418
sg29
F1.0
sg15
I5
sg30
g31
sbsI6
g0
(g22
g2
Ntp47
Rp48
(dp49
g26
g27
sg28
F5.950019697176247
sg29
F1.0
sg15
I6
sg30
g31
sbsI7
g0
(g22
g2
Ntp50
Rp51
(dp52
g26
g27
sg28
F4.234776104300035
sg29
F1.0
sg15
I7
sg30
g31
sbsI8
g0
(g22
g2
Ntp53
Rp54
(dp55
g26
g27
sg28
F-3.93191569061083
sg29
F1.0
sg15
I8
sg30
g31
sbsI9
g0
(g22
g2
Ntp56
Rp57
(dp58
g26
S'tanh'
p59
sg28
F-4.326300299468237
sg29
F1.0
sg15
I9
sg30
g31
sbsI154
g0
(g22
g2
Ntp60
Rp61
(dp62
g26
g27
sg28
F-2.249935824652105
sg29
F1.0
sg15
I154
sg30
g31
sbssg15
I1324
sS'fitness'
p63
Nsb.