ccopy_reg
_reconstructor
p0
(cneat.genome
DefaultGenome
p1
c__builtin__
object
p2
Ntp3
Rp4
(dp5
S'connections'
p6
(dp7
(I20
I154
tp8
g0
(cneat.genes
DefaultConnectionGene
p9
g2
Ntp10
Rp11
(dp12
S'enabled'
p13
I01
sS'weight'
p14
F0.8410168321379309
sS'key'
p15
g8
sbs(I20
I4
tp16
g0
(g9
g2
Ntp17
Rp18
(dp19
g13
I01
sg14
F0.689237181587681
sg15
g16
sbs(I-5
I20
tp20
g0
(g9
g2
Ntp21
Rp22
(dp23
g13
I00
sg14
F-1.018457404873878
sg15
g20
sbs(I-6
I20
tp24
g0
(g9
g2
Ntp25
Rp26
(dp27
g13
I00
sg14
F-0.4972646760760845
sg15
g24
sbs(I20
I3
tp28
g0
(g9
g2
Ntp29
Rp30
(dp31
g13
I00
sg14
F-2.3174272215740683
sg15
g28
sbs(I-10
I20
tp32
g0
(g9
g2
Ntp33
Rp34
(dp35
g13
I01
sg14
F1.5429930469749298
sg15
g32
sbs(I20
I2
tp36
g0
(g9
g2
Ntp37
Rp38
(dp39
g13
I01
sg14
F-1.4678357970851337
sg15
g36
sbs(I-3
I20
tp40
g0
(g9
g2
Ntp41
Rp42
(dp43
g13
I01
sg14
F-2.099587729162806
sg15
g40
sbs(I20
I1
tp44
g0
(g9
g2
Ntp45
Rp46
(dp47
g13
I01
sg14
F1.9505617090723317
sg15
g44
sbs(I20
I0
tp48
g0
(g9
g2
Ntp49
Rp50
(dp51
g13
I01
sg14
F0.7307275001706904
sg15
g48
sbs(I154
I1
tp52
g0
(g9
g2
Ntp53
Rp54
(dp55
g13
I01
sg14
F3.614126394088633
sg15
g52
sbs(I20
I7
tp56
g0
(g9
g2
Ntp57
Rp58
(dp59
g13
I00
sg14
F1.442788579196829
sg15
g56
sbs(I-4
I20
tp60
g0
(g9
g2
Ntp61
Rp62
(dp63
g13
I01
sg14
F-1.4454562866978058
sg15
g60
sbs(I20
I9
tp64
g0
(g9
g2
Ntp65
Rp66
(dp67
g13
I01
sg14
F-0.5602889549761193
sg15
g64
sbs(I20
I6
tp68
g0
(g9
g2
Ntp69
Rp70
(dp71
g13
I01
sg14
F4.1339278970876485
sg15
g68
sbs(I-7
I20
tp72
g0
(g9
g2
Ntp73
Rp74
(dp75
g13
I00
sg14
F-2.366344334073088
sg15
g72
sbs(I20
I8
tp76
g0
(g9
g2
Ntp77
Rp78
(dp79
g13
I01
sg14
F-0.7156793356306657
sg15
g76
sbs(I20
I5
tp80
g0
(g9
g2
Ntp81
Rp82
(dp83
g13
I00
sg14
F-0.46006591661772966
sg15
g80
sbs(I-1
I20
tp84
g0
(g9
g2
Ntp85
Rp86
(dp87
g13
I01
sg14
F0.546091180181531
sg15
g84
sbs(I-8
I20
tp88
g0
(g9
g2
Ntp89
Rp90
(dp91
g13
I01
sg14
F0.6503369514405286
sg15
g88
sbssS'nodes'
p92
(dp93
I0
g0
(cneat.genes
DefaultNodeGene
p94
g2
Ntp95
Rp96
(dp97
S'activation'
p98
S'relu'
p99
sS'bias'
p100
F9.4701167531272
sS'response'
p101
F1.0
sg15
I0
sS'aggregation'
p102
S'sum'
p103
sbsI1
g0
(g94
g2
Ntp104
Rp105
(dp106
g98
g99
sg100
F20.380030896606957
sg101
F1.0
sg15
I1
sg102
g103
sbsI2
g0
(g94
g2
Ntp107
Rp108
(dp109
g98
g99
sg100
F4.340682919887708
sg101
F1.0
sg15
I2
sg102
g103
sbsI3
g0
(g94
g2
Ntp110
Rp111
(dp112
g98
g99
sg100
F-6.520413133721353
sg101
F1.0
sg15
I3
sg102
g103
sbsI4
g0
(g94
g2
Ntp113
Rp114
(dp115
g98
g99
sg100
F15.187402211635279
sg101
F1.0
sg15
I4
sg102
g103
sbsI5
g0
(g94
g2
Ntp116
Rp117
(dp118
g98
g99
sg100
F-6.82378979304236
sg101
F1.0
sg15
I5
sg102
g103
sbsI6
g0
(g94
g2
Ntp119
Rp120
(dp121
g98
g99
sg100
F-2.062694827838263
sg101
F1.0
sg15
I6
sg102
g103
sbsI7
g0
(g94
g2
Ntp122
Rp123
(dp124
g98
g99
sg100
F3.972804524321292
sg101
F1.0
sg15
I7
sg102
g103
sbsI8
g0
(g94
g2
Ntp125
Rp126
(dp127
g98
g99
sg100
F-3.521013124151456
sg101
F1.0
sg15
I8
sg102
g103
sbsI9
g0
(g94
g2
Ntp128
Rp129
(dp130
g98
S'tanh'
p131
sg100
F-3.924395522412389
sg101
F1.0
sg15
I9
sg102
g103
sbsI20
g0
(g94
g2
Ntp132
Rp133
(dp134
g98
g99
sg100
F10.565118458493128
sg101
F1.0
sg15
I20
sg102
g103
sbsI154
g0
(g94
g2
Ntp135
Rp136
(dp137
g98
g99
sg100
F6.999522479581453
sg101
F1.0
sg15
I154
sg102
g103
sbssg15
I1326
sS'fitness'
p138
Nsb.