ccopy_reg
_reconstructor
p0
(cneat.genome
DefaultGenome
p1
c__builtin__
object
p2
Ntp3
Rp4
(dp5
S'connections'
p6
(dp7
(I-1
I27
tp8
g0
(cneat.genes
DefaultConnectionGene
p9
g2
Ntp10
Rp11
(dp12
S'enabled'
p13
I00
sS'weight'
p14
F0.3512753041053755
sS'key'
p15
g8
sbs(I-2
I27
tp16
g0
(g9
g2
Ntp17
Rp18
(dp19
g13
I00
sg14
F4.3349735830533795
sg15
g16
sbs(I-10
I27
tp20
g0
(g9
g2
Ntp21
Rp22
(dp23
g13
I01
sg14
F-0.7320046214295842
sg15
g20
sbs(I-8
I27
tp24
g0
(g9
g2
Ntp25
Rp26
(dp27
g13
I00
sg14
F-0.11082410572318063
sg15
g24
sbs(I27
I6
tp28
g0
(g9
g2
Ntp29
Rp30
(dp31
g13
I00
sg14
F-0.3015206697102774
sg15
g28
sbs(I-4
I27
tp32
g0
(g9
g2
Ntp33
Rp34
(dp35
g13
I01
sg14
F2.740241401050298
sg15
g32
sbs(I27
I2
tp36
g0
(g9
g2
Ntp37
Rp38
(dp39
g13
I01
sg14
F-0.023243849153200297
sg15
g36
sbs(I96
I0
tp40
g0
(g9
g2
Ntp41
Rp42
(dp43
g13
I01
sg14
F6.254605392722294
sg15
g40
sbs(I27
I5
tp44
g0
(g9
g2
Ntp45
Rp46
(dp47
g13
I01
sg14
F-0.09992718622700603
sg15
g44
sbs(I190
I27
tp48
g0
(g9
g2
Ntp49
Rp50
(dp51
g13
I01
sg14
F0.35521623100238575
sg15
g48
sbs(I27
I1
tp52
g0
(g9
g2
Ntp53
Rp54
(dp55
g13
I01
sg14
F1.3490144115673455
sg15
g52
sbs(I-6
I27
tp56
g0
(g9
g2
Ntp57
Rp58
(dp59
g13
I01
sg14
F-0.19481786968849224
sg15
g56
sbs(I-5
I27
tp60
g0
(g9
g2
Ntp61
Rp62
(dp63
g13
I00
sg14
F0.9162365561197254
sg15
g60
sbs(I-3
I190
tp64
g0
(g9
g2
Ntp65
Rp66
(dp67
g13
I01
sg14
F0.2693630719804897
sg15
g64
sbs(I27
I96
tp68
g0
(g9
g2
Ntp69
Rp70
(dp71
g13
I01
sg14
F3.992066209739338
sg15
g68
sbs(I-6
I5
tp72
g0
(g9
g2
Ntp73
Rp74
(dp75
g13
I01
sg14
F-1.4077695736053717
sg15
g72
sbs(I27
I4
tp76
g0
(g9
g2
Ntp77
Rp78
(dp79
g13
I00
sg14
F2.679023182571904
sg15
g76
sbs(I-9
I27
tp80
g0
(g9
g2
Ntp81
Rp82
(dp83
g13
I01
sg14
F-0.15957165719726374
sg15
g80
sbs(I27
I9
tp84
g0
(g9
g2
Ntp85
Rp86
(dp87
g13
I01
sg14
F-0.8675926929465043
sg15
g84
sbs(I27
I0
tp88
g0
(g9
g2
Ntp89
Rp90
(dp91
g13
I00
sg14
F1.5554793744689872
sg15
g88
sbs(I27
I7
tp92
g0
(g9
g2
Ntp93
Rp94
(dp95
g13
I00
sg14
F-2.3174285257127454
sg15
g92
sbs(I-7
I27
tp96
g0
(g9
g2
Ntp97
Rp98
(dp99
g13
I01
sg14
F-0.17208108640173378
sg15
g96
sbs(I27
I8
tp100
g0
(g9
g2
Ntp101
Rp102
(dp103
g13
I00
sg14
F1.8652911171938378
sg15
g100
sbs(I27
I3
tp104
g0
(g9
g2
Ntp105
Rp106
(dp107
g13
I00
sg14
F3.5832810217592397
sg15
g104
sbs(I-3
I27
tp108
g0
(g9
g2
Ntp109
Rp110
(dp111
g13
I01
sg14
F-0.649789417429885
sg15
g108
sbssS'nodes'
p112
(dp113
I0
g0
(cneat.genes
DefaultNodeGene
p114
g2
Ntp115
Rp116
(dp117
S'activation'
p118
S'relu'
p119
sS'bias'
p120
F8.969879665928834
sS'response'
p121
F1.0
sg15
I0
sS'aggregation'
p122
S'sum'
p123
sbsI1
g0
(g114
g2
Ntp124
Rp125
(dp126
g118
g119
sg120
F-2.4890977035377624
sg121
F1.0
sg15
I1
sg122
g123
sbsI2
g0
(g114
g2
Ntp127
Rp128
(dp129
g118
g119
sg120
F-2.9590969478186957
sg121
F1.0
sg15
I2
sg122
g123
sbsI3
g0
(g114
g2
Ntp130
Rp131
(dp132
g118
g119
sg120
F-7.966989571639806
sg121
F1.0
sg15
I3
sg122
g123
sbsI4
g0
(g114
g2
Ntp133
Rp134
(dp135
g118
g119
sg120
F1.3739353655357673
sg121
F1.0
sg15
I4
sg122
g123
sbsI5
g0
(g114
g2
Ntp136
Rp137
(dp138
g118
g119
sg120
F4.122624819018838
sg121
F1.0
sg15
I5
sg122
g123
sbsI6
g0
(g114
g2
Ntp139
Rp140
(dp141
g118
g119
sg120
F18.874722904421198
sg121
F1.0
sg15
I6
sg122
g123
sbsI7
g0
(g114
g2
Ntp142
Rp143
(dp144
g118
g119
sg120
F11.613242990126494
sg121
F1.0
sg15
I7
sg122
g123
sbsI8
g0
(g114
g2
Ntp145
Rp146
(dp147
g118
g119
sg120
F-7.183660583371536
sg121
F1.0
sg15
I8
sg122
g123
sbsI9
g0
(g114
g2
Ntp148
Rp149
(dp150
g118
g119
sg120
F3.1910106551210355
sg121
F1.0
sg15
I9
sg122
g123
sbsI96
g0
(g114
g2
Ntp151
Rp152
(dp153
g118
g119
sg120
F13.603007434144093
sg121
F1.0
sg15
I96
sg122
g123
sbsI27
g0
(g114
g2
Ntp154
Rp155
(dp156
g118
g119
sg120
F16.70471095690939
sg121
F1.0
sg15
I27
sg122
g123
sbsI190
g0
(g114
g2
Ntp157
Rp158
(dp159
g118
g119
sg120
F0.08233736676658798
sg121
F1.0
sg15
I190
sg122
g123
sbssg15
I1327
sS'fitness'
p160
Nsb.