ccopy_reg
_reconstructor
p0
(cneat.genome
DefaultGenome
p1
c__builtin__
object
p2
Ntp3
Rp4
(dp5
S'connections'
p6
(dp7
(I-1
I27
tp8
g0
(cneat.genes
DefaultConnectionGene
p9
g2
Ntp10
Rp11
(dp12
S'enabled'
p13
I01
sS'weight'
p14
F-0.5850099762420263
sS'key'
p15
g8
sbs(I-2
I27
tp16
g0
(g9
g2
Ntp17
Rp18
(dp19
g13
I00
sg14
F3.8091037011991427
sg15
g16
sbs(I-10
I27
tp20
g0
(g9
g2
Ntp21
Rp22
(dp23
g13
I01
sg14
F-0.9243442091465184
sg15
g20
sbs(I-8
I27
tp24
g0
(g9
g2
Ntp25
Rp26
(dp27
g13
I00
sg14
F-1.5835932008458924
sg15
g24
sbs(I27
I6
tp28
g0
(g9
g2
Ntp29
Rp30
(dp31
g13
I01
sg14
F1.1576852614956934
sg15
g28
sbs(I-4
I27
tp32
g0
(g9
g2
Ntp33
Rp34
(dp35
g13
I01
sg14
F2.582048471448885
sg15
g32
sbs(I27
I2
tp36
g0
(g9
g2
Ntp37
Rp38
(dp39
g13
I01
sg14
F0.9724296629819217
sg15
g36
sbs(I96
I0
tp40
g0
(g9
g2
Ntp41
Rp42
(dp43
g13
I01
sg14
F4.698779194666442
sg15
g40
sbs(I27
I5
tp44
g0
(g9
g2
Ntp45
Rp46
(dp47
g13
I01
sg14
F-1.085076740553884
sg15
g44
sbs(I190
I27
tp48
g0
(g9
g2
Ntp49
Rp50
(dp51
g13
I01
sg14
F-0.8920548982395529
sg15
g48
sbs(I27
I1
tp52
g0
(g9
g2
Ntp53
Rp54
(dp55
g13
I01
sg14
F2.0775877952303325
sg15
g52
sbs(I-6
I27
tp56
g0
(g9
g2
Ntp57
Rp58
(dp59
g13
I01
sg14
F1.966698427490275
sg15
g56
sbs(I-5
I27
tp60
g0
(g9
g2
Ntp61
Rp62
(dp63
g13
I00
sg14
F2.6883253671887997
sg15
g60
sbs(I-3
I190
tp64
g0
(g9
g2
Ntp65
Rp66
(dp67
g13
I01
sg14
F-0.45831109597623615
sg15
g64
sbs(I27
I96
tp68
g0
(g9
g2
Ntp69
Rp70
(dp71
g13
I01
sg14
F2.7178210218138075
sg15
g68
sbs(I27
I4
tp72
g0
(g9
g2
Ntp73
Rp74
(dp75
g13
I01
sg14
F1.726819318811058
sg15
g72
sbs(I-9
I27
tp76
g0
(g9
g2
Ntp77
Rp78
(dp79
g13
I01
sg14
F-0.7588257750255134
sg15
g76
sbs(I27
I9
tp80
g0
(g9
g2
Ntp81
Rp82
(dp83
g13
I01
sg14
F-0.37308116127777363
sg15
g80
sbs(I27
I0
tp84
g0
(g9
g2
Ntp85
Rp86
(dp87
g13
I00
sg14
F0.6226271206535103
sg15
g84
sbs(I27
I7
tp88
g0
(g9
g2
Ntp89
Rp90
(dp91
g13
I00
sg14
F-3.3611120005694213
sg15
g88
sbs(I-7
I27
tp92
g0
(g9
g2
Ntp93
Rp94
(dp95
g13
I01
sg14
F3.9517060453930952
sg15
g92
sbs(I27
I8
tp96
g0
(g9
g2
Ntp97
Rp98
(dp99
g13
I00
sg14
F2.261123293450115
sg15
g96
sbs(I27
I3
tp100
g0
(g9
g2
Ntp101
Rp102
(dp103
g13
I01
sg14
F3.0153750841586895
sg15
g100
sbs(I-3
I27
tp104
g0
(g9
g2
Ntp105
Rp106
(dp107
g13
I01
sg14
F-1.1537762592813414
sg15
g104
sbssS'nodes'
p108
(dp109
I0
g0
(cneat.genes
DefaultNodeGene
p110
g2
Ntp111
Rp112
(dp113
S'activation'
p114
S'relu'
p115
sS'bias'
p116
F-12.874291454207913
sS'response'
p117
F1.0
sg15
I0
sS'aggregation'
p118
S'sum'
p119
sbsI1
g0
(g110
g2
Ntp120
Rp121
(dp122
g114
g115
sg116
F-3.1353882348548696
sg117
F1.0
sg15
I1
sg118
g119
sbsI2
g0
(g110
g2
Ntp123
Rp124
(dp125
g114
g115
sg116
F-12.78088675298987
sg117
F1.0
sg15
I2
sg118
g119
sbsI3
g0
(g110
g2
Ntp126
Rp127
(dp128
g114
g115
sg116
F-8.418253651630325
sg117
F1.0
sg15
I3
sg118
g119
sbsI4
g0
(g110
g2
Ntp129
Rp130
(dp131
g114
g115
sg116
F1.8072014003306172
sg117
F1.0
sg15
I4
sg118
g119
sbsI5
g0
(g110
g2
Ntp132
Rp133
(dp134
g114
g115
sg116
F4.908357074527004
sg117
F1.0
sg15
I5
sg118
g119
sbsI6
g0
(g110
g2
Ntp135
Rp136
(dp137
g114
g115
sg116
F18.15040855028466
sg117
F1.0
sg15
I6
sg118
g119
sbsI7
g0
(g110
g2
Ntp138
Rp139
(dp140
g114
g115
sg116
F11.600378644841658
sg117
F1.0
sg15
I7
sg118
g119
sbsI8
g0
(g110
g2
Ntp141
Rp142
(dp143
g114
g115
sg116
F-5.770778455729514
sg117
F1.0
sg15
I8
sg118
g119
sbsI9
g0
(g110
g2
Ntp144
Rp145
(dp146
g114
g115
sg116
F2.6750557049348593
sg117
F1.0
sg15
I9
sg118
g119
sbsI96
g0
(g110
g2
Ntp147
Rp148
(dp149
g114
g115
sg116
F13.083656082897177
sg117
F1.0
sg15
I96
sg118
g119
sbsI27
g0
(g110
g2
Ntp150
Rp151
(dp152
g114
g115
sg116
F16.791131378055912
sg117
F1.0
sg15
I27
sg118
g119
sbsI190
g0
(g110
g2
Ntp153
Rp154
(dp155
g114
g115
sg116
F0.6866314905442659
sg117
F1.0
sg15
I190
sg118
g119
sbssg15
I1328
sS'fitness'
p156
Nsb.