ccopy_reg
_reconstructor
p0
(cneat.genome
DefaultGenome
p1
c__builtin__
object
p2
Ntp3
Rp4
(dp5
S'connections'
p6
(dp7
(I-1
I27
tp8
g0
(cneat.genes
DefaultConnectionGene
p9
g2
Ntp10
Rp11
(dp12
S'enabled'
p13
I01
sS'weight'
p14
F-1.506021767653905
sS'key'
p15
g8
sbs(I-2
I27
tp16
g0
(g9
g2
Ntp17
Rp18
(dp19
g13
I00
sg14
F4.574020379189417
sg15
g16
sbs(I-10
I27
tp20
g0
(g9
g2
Ntp21
Rp22
(dp23
g13
I01
sg14
F-0.7320046214295842
sg15
g20
sbs(I-8
I27
tp24
g0
(g9
g2
Ntp25
Rp26
(dp27
g13
I00
sg14
F-1.6180182850453178
sg15
g24
sbs(I-4
I9
tp28
g0
(g9
g2
Ntp29
Rp30
(dp31
g13
I01
sg14
F1.2373555227543476
sg15
g28
sbs(I27
I6
tp32
g0
(g9
g2
Ntp33
Rp34
(dp35
g13
I01
sg14
F-0.2875407267688157
sg15
g32
sbs(I-4
I27
tp36
g0
(g9
g2
Ntp37
Rp38
(dp39
g13
I01
sg14
F2.8379541391488297
sg15
g36
sbs(I27
I2
tp40
g0
(g9
g2
Ntp41
Rp42
(dp43
g13
I01
sg14
F0.38772558546012603
sg15
g40
sbs(I96
I0
tp44
g0
(g9
g2
Ntp45
Rp46
(dp47
g13
I01
sg14
F6.957170852099468
sg15
g44
sbs(I27
I5
tp48
g0
(g9
g2
Ntp49
Rp50
(dp51
g13
I01
sg14
F-0.9452810825280676
sg15
g48
sbs(I190
I27
tp52
g0
(g9
g2
Ntp53
Rp54
(dp55
g13
I01
sg14
F0.05526646710662264
sg15
g52
sbs(I27
I1
tp56
g0
(g9
g2
Ntp57
Rp58
(dp59
g13
I01
sg14
F1.5243037990602994
sg15
g56
sbs(I-6
I27
tp60
g0
(g9
g2
Ntp61
Rp62
(dp63
g13
I01
sg14
F0.3877246799838371
sg15
g60
sbs(I-3
I190
tp64
g0
(g9
g2
Ntp65
Rp66
(dp67
g13
I01
sg14
F0.2693630719804897
sg15
g64
sbs(I27
I96
tp68
g0
(g9
g2
Ntp69
Rp70
(dp71
g13
I01
sg14
F3.271122552926628
sg15
g68
sbs(I27
I4
tp72
g0
(g9
g2
Ntp73
Rp74
(dp75
g13
I01
sg14
F1.7502625604864888
sg15
g72
sbs(I-9
I27
tp76
g0
(g9
g2
Ntp77
Rp78
(dp79
g13
I01
sg14
F-0.6612424755715455
sg15
g76
sbs(I27
I9
tp80
g0
(g9
g2
Ntp81
Rp82
(dp83
g13
I01
sg14
F1.2470192159362845
sg15
g80
sbs(I27
I0
tp84
g0
(g9
g2
Ntp85
Rp86
(dp87
g13
I00
sg14
F1.965737937098386
sg15
g84
sbs(I27
I7
tp88
g0
(g9
g2
Ntp89
Rp90
(dp91
g13
I00
sg14
F-2.3890510728683556
sg15
g88
sbs(I-7
I27
tp92
g0
(g9
g2
Ntp93
Rp94
(dp95
g13
I01
sg14
F-0.8739782311310896
sg15
g92
sbs(I27
I8
tp96
g0
(g9
g2
Ntp97
Rp98
(dp99
g13
I00
sg14
F0.13159474222212167
sg15
g96
sbs(I27
I3
tp100
g0
(g9
g2
Ntp101
Rp102
(dp103
g13
I01
sg14
F4.533643797134945
sg15
g100
sbs(I-3
I27
tp104
g0
(g9
g2
Ntp105
Rp106
(dp107
g13
I01
sg14
F1.439804362444303
sg15
g104
sbssS'nodes'
p108
(dp109
I0
g0
(cneat.genes
DefaultNodeGene
p110
g2
Ntp111
Rp112
(dp113
S'activation'
p114
S'relu'
p115
sS'bias'
p116
F-12.901219488630538
sS'response'
p117
F1.0
sg15
I0
sS'aggregation'
p118
S'sum'
p119
sbsI1
g0
(g110
g2
Ntp120
Rp121
(dp122
g114
g115
sg116
F-3.1814246811607854
sg117
F1.0
sg15
I1
sg118
g119
sbsI2
g0
(g110
g2
Ntp123
Rp124
(dp125
g114
g115
sg116
F-10.656728426330272
sg117
F1.0
sg15
I2
sg118
g119
sbsI3
g0
(g110
g2
Ntp126
Rp127
(dp128
g114
g115
sg116
F-8.314985946130244
sg117
F1.0
sg15
I3
sg118
g119
sbsI4
g0
(g110
g2
Ntp129
Rp130
(dp131
g114
g115
sg116
F2.2007742304287423
sg117
F1.0
sg15
I4
sg118
g119
sbsI5
g0
(g110
g2
Ntp132
Rp133
(dp134
g114
g115
sg116
F4.661381558539582
sg117
F1.0
sg15
I5
sg118
g119
sbsI6
g0
(g110
g2
Ntp135
Rp136
(dp137
g114
g115
sg116
F18.702080183027963
sg117
F1.0
sg15
I6
sg118
g119
sbsI7
g0
(g110
g2
Ntp138
Rp139
(dp140
g114
g115
sg116
F11.293784288596102
sg117
F1.0
sg15
I7
sg118
g119
sbsI8
g0
(g110
g2
Ntp141
Rp142
(dp143
g114
g115
sg116
F-7.107993493886001
sg117
F1.0
sg15
I8
sg118
g119
sbsI9
g0
(g110
g2
Ntp144
Rp145
(dp146
g114
g115
sg116
F3.042738574194983
sg117
F1.0
sg15
I9
sg118
g119
sbsI96
g0
(g110
g2
Ntp147
Rp148
(dp149
g114
g115
sg116
F12.54367801910576
sg117
F1.0
sg15
I96
sg118
g119
sbsI27
g0
(g110
g2
Ntp150
Rp151
(dp152
g114
g115
sg116
F17.377155430473653
sg117
F1.0
sg15
I27
sg118
g119
sbsI190
g0
(g110
g2
Ntp153
Rp154
(dp155
g114
g115
sg116
F0.4527028311589695
sg117
F1.0
sg15
I190
sg118
g119
sbssg15
I1329
sS'fitness'
p156
Nsb.