ccopy_reg
_reconstructor
p0
(cneat.genome
DefaultGenome
p1
c__builtin__
object
p2
Ntp3
Rp4
(dp5
S'connections'
p6
(dp7
(I-3
I743
tp8
g0
(cneat.genes
DefaultConnectionGene
p9
g2
Ntp10
Rp11
(dp12
S'enabled'
p13
I01
sS'weight'
p14
F0.36404333639881675
sS'key'
p15
g8
sbs(I-8
I327
tp16
g0
(g9
g2
Ntp17
Rp18
(dp19
g13
I00
sg14
F-0.728589980993409
sg15
g16
sbs(I327
I9
tp20
g0
(g9
g2
Ntp21
Rp22
(dp23
g13
I00
sg14
F-1.6479715199219134
sg15
g20
sbs(I3
I3
tp24
g0
(g9
g2
Ntp25
Rp26
(dp27
g13
I00
sg14
F-1.4619756125396017
sg15
g24
sbs(I792
I327
tp28
g0
(g9
g2
Ntp29
Rp30
(dp31
g13
I01
sg14
F-0.8338303972663672
sg15
g28
sbs(I4
I4
tp32
g0
(g9
g2
Ntp33
Rp34
(dp35
g13
I01
sg14
F1.0946824731683769
sg15
g32
sbs(I743
I327
tp36
g0
(g9
g2
Ntp37
Rp38
(dp39
g13
I00
sg14
F1.5709508867138364
sg15
g36
sbs(I-4
I3
tp40
g0
(g9
g2
Ntp41
Rp42
(dp43
g13
I00
sg14
F0.5876374469083794
sg15
g40
sbs(I-8
I792
tp44
g0
(g9
g2
Ntp45
Rp46
(dp47
g13
I01
sg14
F1.172012751229795
sg15
g44
sbs(I2
I2
tp48
g0
(g9
g2
Ntp49
Rp50
(dp51
g13
I01
sg14
F-0.20614988882427165
sg15
g48
sbs(I327
I8
tp52
g0
(g9
g2
Ntp53
Rp54
(dp55
g13
I01
sg14
F-5.338336725853503
sg15
g52
sbs(I1
I1
tp56
g0
(g9
g2
Ntp57
Rp58
(dp59
g13
I01
sg14
F1.2553479510740535
sg15
g56
sbs(I327
I3
tp60
g0
(g9
g2
Ntp61
Rp62
(dp63
g13
I00
sg14
F-1.9571944796545078
sg15
g60
sbs(I4
I327
tp64
g0
(g9
g2
Ntp65
Rp66
(dp67
g13
I01
sg14
F-0.5067799945203028
sg15
g64
sbs(I0
I0
tp68
g0
(g9
g2
Ntp69
Rp70
(dp71
g13
I00
sg14
F1.9964651729187284
sg15
g68
sbs(I327
I7
tp72
g0
(g9
g2
Ntp73
Rp74
(dp75
g13
I01
sg14
F-2.698481052563931
sg15
g72
sbs(I5
I327
tp76
g0
(g9
g2
Ntp77
Rp78
(dp79
g13
I01
sg14
F-1.9863856399965818
sg15
g76
sbs(I327
I2
tp80
g0
(g9
g2
Ntp81
Rp82
(dp83
g13
I01
sg14
F-1.3144157814621709
sg15
g80
sbs(I-3
I327
tp84
g0
(g9
g2
Ntp85
Rp86
(dp87
g13
I00
sg14
F0.5146860356743626
sg15
g84
sbs(I8
I8
tp88
g0
(g9
g2
Ntp89
Rp90
(dp91
g13
I01
sg14
F4.224132631088186
sg15
g88
sbs(I-4
I327
tp92
g0
(g9
g2
Ntp93
Rp94
(dp95
g13
I01
sg14
F0.5893890904420986
sg15
g92
sbssS'nodes'
p96
(dp97
I0
g0
(cneat.genes
DefaultNodeGene
p98
g2
Ntp99
Rp100
(dp101
S'activation'
p102
S'tanh'
p103
sS'bias'
p104
F-1.4800622741845415
sS'response'
p105
F1.0
sg15
I0
sS'aggregation'
p106
S'sum'
p107
sbsI1
g0
(g98
g2
Ntp108
Rp109
(dp110
g102
g103
sg104
F-16.17607240763323
sg105
F1.0
sg15
I1
sg106
g107
sbsI2
g0
(g98
g2
Ntp111
Rp112
(dp113
g102
g103
sg104
F1.3403681834853298
sg105
F1.0
sg15
I2
sg106
g107
sbsI3
g0
(g98
g2
Ntp114
Rp115
(dp116
g102
g103
sg104
F-4.896846897189736
sg105
F1.0
sg15
I3
sg106
g107
sbsI4
g0
(g98
g2
Ntp117
Rp118
(dp119
g102
g103
sg104
F3.5187409894791335
sg105
F1.0
sg15
I4
sg106
g107
sbsI5
g0
(g98
g2
Ntp120
Rp121
(dp122
g102
g103
sg104
F2.043414018912279
sg105
F1.0
sg15
I5
sg106
g107
sbsI6
g0
(g98
g2
Ntp123
Rp124
(dp125
g102
g103
sg104
F2.841634249852926
sg105
F1.0
sg15
I6
sg106
g107
sbsI7
g0
(g98
g2
Ntp126
Rp127
(dp128
g102
g103
sg104
F-0.6039386927138193
sg105
F1.0
sg15
I7
sg106
g107
sbsI8
g0
(g98
g2
Ntp129
Rp130
(dp131
g102
g103
sg104
F-7.609245479335909
sg105
F1.0
sg15
I8
sg106
g107
sbsI9
g0
(g98
g2
Ntp132
Rp133
(dp134
g102
g103
sg104
F-3.9134747962139165
sg105
F1.0
sg15
I9
sg106
g107
sbsI327
g0
(g98
g2
Ntp135
Rp136
(dp137
g102
g103
sg104
F3.5551298067741595
sg105
F1.0
sg15
I327
sg106
g107
sbsI743
g0
(g98
g2
Ntp138
Rp139
(dp140
g102
S'relu'
p141
sg104
F-4.74567463066732
sg105
F1.0
sg15
I743
sg106
g107
sbsI792
g0
(g98
g2
Ntp142
Rp143
(dp144
g102
g141
sg104
F-3.2110418458691923
sg105
F1.0
sg15
I792
sg106
g107
sbssg15
I133
sS'fitness'
p145
Nsb.