ccopy_reg
_reconstructor
p0
(cneat.genome
DefaultGenome
p1
c__builtin__
object
p2
Ntp3
Rp4
(dp5
S'connections'
p6
(dp7
(I96
I0
tp8
g0
(cneat.genes
DefaultConnectionGene
p9
g2
Ntp10
Rp11
(dp12
S'enabled'
p13
I01
sS'weight'
p14
F4.362157763695589
sS'key'
p15
g8
sbs(I-3
I190
tp16
g0
(g9
g2
Ntp17
Rp18
(dp19
g13
I01
sg14
F-0.37835568042959755
sg15
g16
sbssS'nodes'
p20
(dp21
I0
g0
(cneat.genes
DefaultNodeGene
p22
g2
Ntp23
Rp24
(dp25
S'activation'
p26
S'relu'
p27
sS'bias'
p28
F-12.997730743275604
sS'response'
p29
F1.0
sg15
I0
sS'aggregation'
p30
S'sum'
p31
sbsI1
g0
(g22
g2
Ntp32
Rp33
(dp34
g26
g27
sg28
F-1.8016623899396773
sg29
F1.0
sg15
I1
sg30
g31
sbsI2
g0
(g22
g2
Ntp35
Rp36
(dp37
g26
g27
sg28
F-12.343686990043942
sg29
F1.0
sg15
I2
sg30
g31
sbsI3
g0
(g22
g2
Ntp38
Rp39
(dp40
g26
g27
sg28
F-8.823543774339496
sg29
F1.0
sg15
I3
sg30
g31
sbsI4
g0
(g22
g2
Ntp41
Rp42
(dp43
g26
g27
sg28
F1.3089877479750032
sg29
F1.0
sg15
I4
sg30
g31
sbsI5
g0
(g22
g2
Ntp44
Rp45
(dp46
g26
g27
sg28
F4.5676124568710454
sg29
F1.0
sg15
I5
sg30
g31
sbsI6
g0
(g22
g2
Ntp47
Rp48
(dp49
g26
g27
sg28
F16.8612276426177
sg29
F1.0
sg15
I6
sg30
g31
sbsI7
g0
(g22
g2
Ntp50
Rp51
(dp52
g26
g27
sg28
F11.509852341432069
sg29
F1.0
sg15
I7
sg30
g31
sbsI8
g0
(g22
g2
Ntp53
Rp54
(dp55
g26
g27
sg28
F-6.30649848616586
sg29
F1.0
sg15
I8
sg30
g31
sbsI9
g0
(g22
g2
Ntp56
Rp57
(dp58
g26
g27
sg28
F2.1332112893859985
sg29
F1.0
sg15
I9
sg30
g31
sbsI96
g0
(g22
g2
Ntp59
Rp60
(dp61
g26
g27
sg28
F12.145973317522081
sg29
F1.0
sg15
I96
sg30
g31
sbsI190
g0
(g22
g2
Ntp62
Rp63
(dp64
g26
g27
sg28
F1.435957226284731
sg29
F1.0
sg15
I190
sg30
g31
sbssg15
I1330
sS'fitness'
p65
Nsb.