ccopy_reg
_reconstructor
p0
(cneat.genome
DefaultGenome
p1
c__builtin__
object
p2
Ntp3
Rp4
(dp5
S'connections'
p6
(dp7
(I96
I0
tp8
g0
(cneat.genes
DefaultConnectionGene
p9
g2
Ntp10
Rp11
(dp12
S'enabled'
p13
I01
sS'weight'
p14
F6.163326534818034
sS'key'
p15
g8
sbs(I-3
I190
tp16
g0
(g9
g2
Ntp17
Rp18
(dp19
g13
I01
sg14
F1.1922314376821757
sg15
g16
sbssS'nodes'
p20
(dp21
I0
g0
(cneat.genes
DefaultNodeGene
p22
g2
Ntp23
Rp24
(dp25
S'activation'
p26
S'relu'
p27
sS'bias'
p28
F-12.44921032083527
sS'response'
p29
F1.0
sg15
I0
sS'aggregation'
p30
S'sum'
p31
sbsI1
g0
(g22
g2
Ntp32
Rp33
(dp34
g26
g27
sg28
F-2.3228879924248598
sg29
F1.0
sg15
I1
sg30
g31
sbsI2
g0
(g22
g2
Ntp35
Rp36
(dp37
g26
g27
sg28
F-8.67907431877406
sg29
F1.0
sg15
I2
sg30
g31
sbsI3
g0
(g22
g2
Ntp38
Rp39
(dp40
g26
g27
sg28
F-7.835942613050681
sg29
F1.0
sg15
I3
sg30
g31
sbsI4
g0
(g22
g2
Ntp41
Rp42
(dp43
g26
g27
sg28
F1.5571610407239918
sg29
F1.0
sg15
I4
sg30
g31
sbsI5
g0
(g22
g2
Ntp44
Rp45
(dp46
g26
g27
sg28
F4.423567046270864
sg29
F1.0
sg15
I5
sg30
g31
sbsI6
g0
(g22
g2
Ntp47
Rp48
(dp49
g26
g27
sg28
F18.718788503896363
sg29
F1.0
sg15
I6
sg30
g31
sbsI7
g0
(g22
g2
Ntp50
Rp51
(dp52
g26
g27
sg28
F11.565069090254033
sg29
F1.0
sg15
I7
sg30
g31
sbsI8
g0
(g22
g2
Ntp53
Rp54
(dp55
g26
g27
sg28
F-6.186576666207404
sg29
F1.0
sg15
I8
sg30
g31
sbsI9
g0
(g22
g2
Ntp56
Rp57
(dp58
g26
g27
sg28
F2.2432135335022174
sg29
F1.0
sg15
I9
sg30
g31
sbsI96
g0
(g22
g2
Ntp59
Rp60
(dp61
g26
g27
sg28
F12.637172714952412
sg29
F1.0
sg15
I96
sg30
g31
sbsI190
g0
(g22
g2
Ntp62
Rp63
(dp64
g26
g27
sg28
F0.35932807504178754
sg29
F1.0
sg15
I190
sg30
g31
sbssg15
I1331
sS'fitness'
p65
Nsb.