ccopy_reg
_reconstructor
p0
(cneat.genome
DefaultGenome
p1
c__builtin__
object
p2
Ntp3
Rp4
(dp5
S'connections'
p6
(dp7
(I-1
I27
tp8
g0
(cneat.genes
DefaultConnectionGene
p9
g2
Ntp10
Rp11
(dp12
S'enabled'
p13
I01
sS'weight'
p14
F-0.7836095518147075
sS'key'
p15
g8
sbs(I-2
I27
tp16
g0
(g9
g2
Ntp17
Rp18
(dp19
g13
I00
sg14
F4.3349735830533795
sg15
g16
sbs(I-10
I27
tp20
g0
(g9
g2
Ntp21
Rp22
(dp23
g13
I01
sg14
F0.0809430632218473
sg15
g20
sbs(I-8
I27
tp24
g0
(g9
g2
Ntp25
Rp26
(dp27
g13
I00
sg14
F-0.8802826313654634
sg15
g24
sbs(I27
I6
tp28
g0
(g9
g2
Ntp29
Rp30
(dp31
g13
I01
sg14
F-0.020013917332158182
sg15
g28
sbs(I-4
I27
tp32
g0
(g9
g2
Ntp33
Rp34
(dp35
g13
I01
sg14
F2.2515842587144417
sg15
g32
sbs(I27
I2
tp36
g0
(g9
g2
Ntp37
Rp38
(dp39
g13
I01
sg14
F-0.14170170898103357
sg15
g36
sbs(I96
I0
tp40
g0
(g9
g2
Ntp41
Rp42
(dp43
g13
I01
sg14
F6.564094556703008
sg15
g40
sbs(I27
I5
tp44
g0
(g9
g2
Ntp45
Rp46
(dp47
g13
I01
sg14
F-1.0298924466792347
sg15
g44
sbs(I27
I1
tp48
g0
(g9
g2
Ntp49
Rp50
(dp51
g13
I01
sg14
F2.3345539263862687
sg15
g48
sbs(I-6
I27
tp52
g0
(g9
g2
Ntp53
Rp54
(dp55
g13
I01
sg14
F1.7908028631904291
sg15
g52
sbs(I-5
I27
tp56
g0
(g9
g2
Ntp57
Rp58
(dp59
g13
I00
sg14
F1.9459977479433346
sg15
g56
sbs(I27
I96
tp60
g0
(g9
g2
Ntp61
Rp62
(dp63
g13
I01
sg14
F3.174407020864594
sg15
g60
sbs(I27
I4
tp64
g0
(g9
g2
Ntp65
Rp66
(dp67
g13
I01
sg14
F1.4948574697419974
sg15
g64
sbs(I-9
I27
tp68
g0
(g9
g2
Ntp69
Rp70
(dp71
g13
I01
sg14
F1.0936951835161257
sg15
g68
sbs(I27
I9
tp72
g0
(g9
g2
Ntp73
Rp74
(dp75
g13
I01
sg14
F-0.5490401808475446
sg15
g72
sbs(I27
I0
tp76
g0
(g9
g2
Ntp77
Rp78
(dp79
g13
I00
sg14
F1.5918183104217003
sg15
g76
sbs(I27
I7
tp80
g0
(g9
g2
Ntp81
Rp82
(dp83
g13
I00
sg14
F-2.846683622764963
sg15
g80
sbs(I-7
I27
tp84
g0
(g9
g2
Ntp85
Rp86
(dp87
g13
I01
sg14
F4.284532460302024
sg15
g84
sbs(I27
I8
tp88
g0
(g9
g2
Ntp89
Rp90
(dp91
g13
I00
sg14
F0.5384726872712821
sg15
g88
sbs(I27
I3
tp92
g0
(g9
g2
Ntp93
Rp94
(dp95
g13
I01
sg14
F3.337343340136786
sg15
g92
sbs(I-3
I27
tp96
g0
(g9
g2
Ntp97
Rp98
(dp99
g13
I01
sg14
F-0.20502640644785625
sg15
g96
sbssS'nodes'
p100
(dp101
I0
g0
(cneat.genes
DefaultNodeGene
p102
g2
Ntp103
Rp104
(dp105
S'activation'
p106
S'relu'
p107
sS'bias'
p108
F-13.151544552075878
sS'response'
p109
F1.0
sg15
I0
sS'aggregation'
p110
S'sum'
p111
sbsI1
g0
(g102
g2
Ntp112
Rp113
(dp114
g106
g107
sg108
F-2.4890977035377624
sg109
F1.0
sg15
I1
sg110
g111
sbsI2
g0
(g102
g2
Ntp115
Rp116
(dp117
g106
g107
sg108
F-10.98472356031177
sg109
F1.0
sg15
I2
sg110
g111
sbsI3
g0
(g102
g2
Ntp118
Rp119
(dp120
g106
g107
sg108
F-8.192850923750997
sg109
F1.0
sg15
I3
sg110
g111
sbsI4
g0
(g102
g2
Ntp121
Rp122
(dp123
g106
g107
sg108
F1.7379947576671446
sg109
F1.0
sg15
I4
sg110
g111
sbsI5
g0
(g102
g2
Ntp124
Rp125
(dp126
g106
g107
sg108
F4.750656557692205
sg109
F1.0
sg15
I5
sg110
g111
sbsI6
g0
(g102
g2
Ntp127
Rp128
(dp129
g106
g107
sg108
F1.0024465145148382
sg109
F1.0
sg15
I6
sg110
g111
sbsI7
g0
(g102
g2
Ntp130
Rp131
(dp132
g106
g107
sg108
F11.229200068285596
sg109
F1.0
sg15
I7
sg110
g111
sbsI8
g0
(g102
g2
Ntp133
Rp134
(dp135
g106
g107
sg108
F-7.136688987220892
sg109
F1.0
sg15
I8
sg110
g111
sbsI9
g0
(g102
g2
Ntp136
Rp137
(dp138
g106
S'tanh'
p139
sg108
F2.5274627991870733
sg109
F1.0
sg15
I9
sg110
g111
sbsI96
g0
(g102
g2
Ntp140
Rp141
(dp142
g106
g107
sg108
F13.179577671328019
sg109
F1.0
sg15
I96
sg110
g111
sbsI27
g0
(g102
g2
Ntp143
Rp144
(dp145
g106
g107
sg108
F16.70471095690939
sg109
F1.0
sg15
I27
sg110
g111
sbssg15
I1332
sS'fitness'
p146
Nsb.