ccopy_reg
_reconstructor
p0
(cneat.genome
DefaultGenome
p1
c__builtin__
object
p2
Ntp3
Rp4
(dp5
S'connections'
p6
(dp7
(I-5
I64
tp8
g0
(cneat.genes
DefaultConnectionGene
p9
g2
Ntp10
Rp11
(dp12
S'enabled'
p13
I01
sS'weight'
p14
F0.48030018347243203
sS'key'
p15
g8
sbs(I262
I9
tp16
g0
(g9
g2
Ntp17
Rp18
(dp19
g13
I01
sg14
F-0.1733885924718072
sg15
g16
sbs(I64
I0
tp20
g0
(g9
g2
Ntp21
Rp22
(dp23
g13
I01
sg14
F-0.9036655684269921
sg15
g20
sbs(I64
I307
tp24
g0
(g9
g2
Ntp25
Rp26
(dp27
g13
I01
sg14
F0.3391893500564238
sg15
g24
sbs(I64
I113
tp28
g0
(g9
g2
Ntp29
Rp30
(dp31
g13
I01
sg14
F1.1243680132297704
sg15
g28
sbs(I-9
I64
tp32
g0
(g9
g2
Ntp33
Rp34
(dp35
g13
I01
sg14
F-0.47275680170090223
sg15
g32
sbs(I-4
I64
tp36
g0
(g9
g2
Ntp37
Rp38
(dp39
g13
I01
sg14
F-0.19059489883935163
sg15
g36
sbs(I64
I8
tp40
g0
(g9
g2
Ntp41
Rp42
(dp43
g13
I01
sg14
F7.9112672803356965
sg15
g40
sbs(I-1
I64
tp44
g0
(g9
g2
Ntp45
Rp46
(dp47
g13
I00
sg14
F-3.2162780448428645
sg15
g44
sbs(I64
I1
tp48
g0
(g9
g2
Ntp49
Rp50
(dp51
g13
I01
sg14
F-1.8213992087216146
sg15
g48
sbs(I64
I262
tp52
g0
(g9
g2
Ntp53
Rp54
(dp55
g13
I01
sg14
F0.8592077757788095
sg15
g52
sbs(I-3
I64
tp56
g0
(g9
g2
Ntp57
Rp58
(dp59
g13
I00
sg14
F1.354724893687858
sg15
g56
sbs(I64
I6
tp60
g0
(g9
g2
Ntp61
Rp62
(dp63
g13
I01
sg14
F1.2253937549647262
sg15
g60
sbs(I64
I9
tp64
g0
(g9
g2
Ntp65
Rp66
(dp67
g13
I00
sg14
F0.375363258788983
sg15
g64
sbs(I-8
I64
tp68
g0
(g9
g2
Ntp69
Rp70
(dp71
g13
I01
sg14
F-0.5672148245614089
sg15
g68
sbs(I64
I2
tp72
g0
(g9
g2
Ntp73
Rp74
(dp75
g13
I00
sg14
F0.8841677740948373
sg15
g72
sbs(I-2
I64
tp76
g0
(g9
g2
Ntp77
Rp78
(dp79
g13
I01
sg14
F2.292507537007602
sg15
g76
sbs(I64
I7
tp80
g0
(g9
g2
Ntp81
Rp82
(dp83
g13
I01
sg14
F-0.6188222056174737
sg15
g80
sbs(I-7
I64
tp84
g0
(g9
g2
Ntp85
Rp86
(dp87
g13
I01
sg14
F-0.4865035405769089
sg15
g84
sbs(I64
I3
tp88
g0
(g9
g2
Ntp89
Rp90
(dp91
g13
I00
sg14
F1.2349851666128169
sg15
g88
sbs(I113
I2
tp92
g0
(g9
g2
Ntp93
Rp94
(dp95
g13
I01
sg14
F1.1178669893788131
sg15
g92
sbs(I-6
I64
tp96
g0
(g9
g2
Ntp97
Rp98
(dp99
g13
I01
sg14
F2.0151061208525443
sg15
g96
sbs(I-10
I64
tp100
g0
(g9
g2
Ntp101
Rp102
(dp103
g13
I01
sg14
F3.1159402023858194
sg15
g100
sbs(I307
I2
tp104
g0
(g9
g2
Ntp105
Rp106
(dp107
g13
I01
sg14
F0.6384159936753537
sg15
g104
sbs(I64
I4
tp108
g0
(g9
g2
Ntp109
Rp110
(dp111
g13
I01
sg14
F2.2207634893370622
sg15
g108
sbs(I64
I5
tp112
g0
(g9
g2
Ntp113
Rp114
(dp115
g13
I01
sg14
F-0.5320195182456255
sg15
g112
sbs(I-9
I7
tp116
g0
(g9
g2
Ntp117
Rp118
(dp119
g13
I01
sg14
F-1.1074832863351451
sg15
g116
sbssS'nodes'
p120
(dp121
I0
g0
(cneat.genes
DefaultNodeGene
p122
g2
Ntp123
Rp124
(dp125
S'activation'
p126
S'relu'
p127
sS'bias'
p128
F-11.670099811264611
sS'response'
p129
F1.0
sg15
I0
sS'aggregation'
p130
S'sum'
p131
sbsI1
g0
(g122
g2
Ntp132
Rp133
(dp134
g126
g127
sg128
F5.261653231465983
sg129
F1.0
sg15
I1
sg130
g131
sbsI2
g0
(g122
g2
Ntp135
Rp136
(dp137
g126
S'tanh'
p138
sg128
F-15.873149935567188
sg129
F1.0
sg15
I2
sg130
g131
sbsI3
g0
(g122
g2
Ntp139
Rp140
(dp141
g126
g138
sg128
F15.148300279124506
sg129
F1.0
sg15
I3
sg130
g131
sbsI4
g0
(g122
g2
Ntp142
Rp143
(dp144
g126
g127
sg128
F-6.151730860321577
sg129
F1.0
sg15
I4
sg130
g131
sbsI5
g0
(g122
g2
Ntp145
Rp146
(dp147
g126
g127
sg128
F-18.54446614535585
sg129
F1.0
sg15
I5
sg130
g131
sbsI6
g0
(g122
g2
Ntp148
Rp149
(dp150
g126
g127
sg128
F11.25503901864877
sg129
F1.0
sg15
I6
sg130
g131
sbsI7
g0
(g122
g2
Ntp151
Rp152
(dp153
g126
g127
sg128
F15.358966891999914
sg129
F1.0
sg15
I7
sg130
g131
sbsI8
g0
(g122
g2
Ntp154
Rp155
(dp156
g126
g127
sg128
F-1.1668818304643687
sg129
F1.0
sg15
I8
sg130
g131
sbsI9
g0
(g122
g2
Ntp157
Rp158
(dp159
g126
g127
sg128
F-7.004296933568877
sg129
F1.0
sg15
I9
sg130
g131
sbsI262
g0
(g122
g2
Ntp160
Rp161
(dp162
g126
g127
sg128
F-4.438197061355746
sg129
F1.0
sg15
I262
sg130
g131
sbsI64
g0
(g122
g2
Ntp163
Rp164
(dp165
g126
g127
sg128
F16.514602189624032
sg129
F1.0
sg15
I64
sg130
g131
sbsI113
g0
(g122
g2
Ntp166
Rp167
(dp168
g126
g127
sg128
F-6.259893046870519
sg129
F1.0
sg15
I113
sg130
g131
sbsI307
g0
(g122
g2
Ntp169
Rp170
(dp171
g126
g127
sg128
F4.987778731537807
sg129
F1.0
sg15
I307
sg130
g131
sbssg15
I1334
sS'fitness'
p172
Nsb.