ccopy_reg
_reconstructor
p0
(cneat.genome
DefaultGenome
p1
c__builtin__
object
p2
Ntp3
Rp4
(dp5
S'connections'
p6
(dp7
(I-5
I64
tp8
g0
(cneat.genes
DefaultConnectionGene
p9
g2
Ntp10
Rp11
(dp12
S'enabled'
p13
I01
sS'weight'
p14
F0.25006870899409567
sS'key'
p15
g8
sbs(I262
I9
tp16
g0
(g9
g2
Ntp17
Rp18
(dp19
g13
I01
sg14
F-1.3648551955594361
sg15
g16
sbs(I64
I0
tp20
g0
(g9
g2
Ntp21
Rp22
(dp23
g13
I00
sg14
F-0.8217044122032098
sg15
g20
sbs(I-9
I64
tp24
g0
(g9
g2
Ntp25
Rp26
(dp27
g13
I01
sg14
F-0.7001142140299286
sg15
g24
sbs(I-4
I64
tp28
g0
(g9
g2
Ntp29
Rp30
(dp31
g13
I01
sg14
F0.48187003107853027
sg15
g28
sbs(I64
I8
tp32
g0
(g9
g2
Ntp33
Rp34
(dp35
g13
I01
sg14
F7.849691755196579
sg15
g32
sbs(I-1
I64
tp36
g0
(g9
g2
Ntp37
Rp38
(dp39
g13
I00
sg14
F-2.0498356992227142
sg15
g36
sbs(I64
I1
tp40
g0
(g9
g2
Ntp41
Rp42
(dp43
g13
I01
sg14
F-2.182485907424049
sg15
g40
sbs(I64
I262
tp44
g0
(g9
g2
Ntp45
Rp46
(dp47
g13
I01
sg14
F0.9014414069752182
sg15
g44
sbs(I-3
I64
tp48
g0
(g9
g2
Ntp49
Rp50
(dp51
g13
I00
sg14
F2.1046098781690294
sg15
g48
sbs(I64
I6
tp52
g0
(g9
g2
Ntp53
Rp54
(dp55
g13
I01
sg14
F0.970544136732783
sg15
g52
sbs(I64
I9
tp56
g0
(g9
g2
Ntp57
Rp58
(dp59
g13
I00
sg14
F-2.404815385434625
sg15
g56
sbs(I-8
I64
tp60
g0
(g9
g2
Ntp61
Rp62
(dp63
g13
I01
sg14
F-1.5192198292186652
sg15
g60
sbs(I64
I2
tp64
g0
(g9
g2
Ntp65
Rp66
(dp67
g13
I00
sg14
F1.0392893701370902
sg15
g64
sbs(I-2
I64
tp68
g0
(g9
g2
Ntp69
Rp70
(dp71
g13
I01
sg14
F0.3059780365292935
sg15
g68
sbs(I64
I7
tp72
g0
(g9
g2
Ntp73
Rp74
(dp75
g13
I01
sg14
F0.0728517628246814
sg15
g72
sbs(I-7
I64
tp76
g0
(g9
g2
Ntp77
Rp78
(dp79
g13
I01
sg14
F1.8197367001377123
sg15
g76
sbs(I64
I3
tp80
g0
(g9
g2
Ntp81
Rp82
(dp83
g13
I00
sg14
F2.1081597928510227
sg15
g80
sbs(I-6
I64
tp84
g0
(g9
g2
Ntp85
Rp86
(dp87
g13
I01
sg14
F0.6226209399673631
sg15
g84
sbs(I-10
I64
tp88
g0
(g9
g2
Ntp89
Rp90
(dp91
g13
I01
sg14
F3.969685776585626
sg15
g88
sbs(I64
I4
tp92
g0
(g9
g2
Ntp93
Rp94
(dp95
g13
I01
sg14
F-0.54714386282167
sg15
g92
sbs(I64
I5
tp96
g0
(g9
g2
Ntp97
Rp98
(dp99
g13
I01
sg14
F0.6535748792572021
sg15
g96
sbs(I-9
I7
tp100
g0
(g9
g2
Ntp101
Rp102
(dp103
g13
I01
sg14
F-0.22698872088677918
sg15
g100
sbssS'nodes'
p104
(dp105
I0
g0
(cneat.genes
DefaultNodeGene
p106
g2
Ntp107
Rp108
(dp109
S'activation'
p110
S'relu'
p111
sS'bias'
p112
F8.939065325662964
sS'response'
p113
F1.0
sg15
I0
sS'aggregation'
p114
S'sum'
p115
sbsI1
g0
(g106
g2
Ntp116
Rp117
(dp118
g110
S'tanh'
p119
sg112
F6.063989805945534
sg113
F1.0
sg15
I1
sg114
g115
sbsI2
g0
(g106
g2
Ntp120
Rp121
(dp122
g110
g119
sg112
F1.2138132813883231
sg113
F1.0
sg15
I2
sg114
g115
sbsI3
g0
(g106
g2
Ntp123
Rp124
(dp125
g110
g119
sg112
F14.365502944715994
sg113
F1.0
sg15
I3
sg114
g115
sbsI4
g0
(g106
g2
Ntp126
Rp127
(dp128
g110
g111
sg112
F8.002425152225994
sg113
F1.0
sg15
I4
sg114
g115
sbsI5
g0
(g106
g2
Ntp129
Rp130
(dp131
g110
g111
sg112
F-18.037643355808243
sg113
F1.0
sg15
I5
sg114
g115
sbsI6
g0
(g106
g2
Ntp132
Rp133
(dp134
g110
g111
sg112
F-3.6983318220599255
sg113
F1.0
sg15
I6
sg114
g115
sbsI7
g0
(g106
g2
Ntp135
Rp136
(dp137
g110
g111
sg112
F-0.4746866822092751
sg113
F1.0
sg15
I7
sg114
g115
sbsI8
g0
(g106
g2
Ntp138
Rp139
(dp140
g110
g111
sg112
F-0.7176860769384288
sg113
F1.0
sg15
I8
sg114
g115
sbsI9
g0
(g106
g2
Ntp141
Rp142
(dp143
g110
g111
sg112
F-7.27687462381135
sg113
F1.0
sg15
I9
sg114
g115
sbsI262
g0
(g106
g2
Ntp144
Rp145
(dp146
g110
g111
sg112
F-5.910979601512102
sg113
F1.0
sg15
I262
sg114
g115
sbsI64
g0
(g106
g2
Ntp147
Rp148
(dp149
g110
g111
sg112
F15.912279319701376
sg113
F1.0
sg15
I64
sg114
g115
sbssg15
I1335
sS'fitness'
p150
Nsb.