ccopy_reg
_reconstructor
p0
(cneat.genome
DefaultGenome
p1
c__builtin__
object
p2
Ntp3
Rp4
(dp5
S'connections'
p6
(dp7
(I-5
I64
tp8
g0
(cneat.genes
DefaultConnectionGene
p9
g2
Ntp10
Rp11
(dp12
S'enabled'
p13
I01
sS'weight'
p14
F-0.6994362334863954
sS'key'
p15
g8
sbs(I262
I9
tp16
g0
(g9
g2
Ntp17
Rp18
(dp19
g13
I01
sg14
F0.34470428921099827
sg15
g16
sbs(I64
I0
tp20
g0
(g9
g2
Ntp21
Rp22
(dp23
g13
I01
sg14
F-1.260344437375809
sg15
g20
sbs(I64
I113
tp24
g0
(g9
g2
Ntp25
Rp26
(dp27
g13
I01
sg14
F-0.976038277868597
sg15
g24
sbs(I-9
I64
tp28
g0
(g9
g2
Ntp29
Rp30
(dp31
g13
I01
sg14
F0.04965656616517089
sg15
g28
sbs(I308
I6
tp32
g0
(g9
g2
Ntp33
Rp34
(dp35
g13
I01
sg14
F0.5879791899891926
sg15
g32
sbs(I-4
I64
tp36
g0
(g9
g2
Ntp37
Rp38
(dp39
g13
I01
sg14
F0.7562337100258638
sg15
g36
sbs(I64
I8
tp40
g0
(g9
g2
Ntp41
Rp42
(dp43
g13
I01
sg14
F7.616077629562435
sg15
g40
sbs(I-2
I64
tp44
g0
(g9
g2
Ntp45
Rp46
(dp47
g13
I01
sg14
F3.1923942196795663
sg15
g44
sbs(I64
I1
tp48
g0
(g9
g2
Ntp49
Rp50
(dp51
g13
I01
sg14
F-2.0534507816834067
sg15
g48
sbs(I64
I262
tp52
g0
(g9
g2
Ntp53
Rp54
(dp55
g13
I01
sg14
F1.1319126672602127
sg15
g52
sbs(I-3
I64
tp56
g0
(g9
g2
Ntp57
Rp58
(dp59
g13
I01
sg14
F1.941259925512383
sg15
g56
sbs(I64
I6
tp60
g0
(g9
g2
Ntp61
Rp62
(dp63
g13
I00
sg14
F-0.18360562258254465
sg15
g60
sbs(I64
I9
tp64
g0
(g9
g2
Ntp65
Rp66
(dp67
g13
I00
sg14
F0.453174798654501
sg15
g64
sbs(I-8
I64
tp68
g0
(g9
g2
Ntp69
Rp70
(dp71
g13
I01
sg14
F-0.6828453323041395
sg15
g68
sbs(I64
I2
tp72
g0
(g9
g2
Ntp73
Rp74
(dp75
g13
I00
sg14
F0.7723654849181555
sg15
g72
sbs(I-1
I64
tp76
g0
(g9
g2
Ntp77
Rp78
(dp79
g13
I00
sg14
F-1.5967841289196927
sg15
g76
sbs(I64
I7
tp80
g0
(g9
g2
Ntp81
Rp82
(dp83
g13
I01
sg14
F0.5510429727979884
sg15
g80
sbs(I-7
I64
tp84
g0
(g9
g2
Ntp85
Rp86
(dp87
g13
I01
sg14
F1.9049429518782994
sg15
g84
sbs(I64
I3
tp88
g0
(g9
g2
Ntp89
Rp90
(dp91
g13
I00
sg14
F0.8253563045388265
sg15
g88
sbs(I113
I2
tp92
g0
(g9
g2
Ntp93
Rp94
(dp95
g13
I01
sg14
F1.1661130003484768
sg15
g92
sbs(I-6
I64
tp96
g0
(g9
g2
Ntp97
Rp98
(dp99
g13
I01
sg14
F2.019231998685899
sg15
g96
sbs(I64
I308
tp100
g0
(g9
g2
Ntp101
Rp102
(dp103
g13
I01
sg14
F0.7864577218014792
sg15
g100
sbs(I-9
I7
tp104
g0
(g9
g2
Ntp105
Rp106
(dp107
g13
I01
sg14
F-0.8108924831544908
sg15
g104
sbs(I64
I4
tp108
g0
(g9
g2
Ntp109
Rp110
(dp111
g13
I01
sg14
F0.18538775424591508
sg15
g108
sbs(I64
I5
tp112
g0
(g9
g2
Ntp113
Rp114
(dp115
g13
I01
sg14
F-0.5163239163041143
sg15
g112
sbs(I-10
I64
tp116
g0
(g9
g2
Ntp117
Rp118
(dp119
g13
I01
sg14
F2.4578352817960885
sg15
g116
sbssS'nodes'
p120
(dp121
I0
g0
(cneat.genes
DefaultNodeGene
p122
g2
Ntp123
Rp124
(dp125
S'activation'
p126
S'relu'
p127
sS'bias'
p128
F8.66562603464086
sS'response'
p129
F1.0
sg15
I0
sS'aggregation'
p130
S'sum'
p131
sbsI1
g0
(g122
g2
Ntp132
Rp133
(dp134
g126
S'tanh'
p135
sg128
F4.848644823453584
sg129
F1.0
sg15
I1
sg130
g131
sbsI2
g0
(g122
g2
Ntp136
Rp137
(dp138
g126
g135
sg128
F-15.285806528026775
sg129
F1.0
sg15
I2
sg130
g131
sbsI3
g0
(g122
g2
Ntp139
Rp140
(dp141
g126
g135
sg128
F14.689712058157399
sg129
F1.0
sg15
I3
sg130
g131
sbsI4
g0
(g122
g2
Ntp142
Rp143
(dp144
g126
g127
sg128
F-5.245814774213512
sg129
F1.0
sg15
I4
sg130
g131
sbsI5
g0
(g122
g2
Ntp145
Rp146
(dp147
g126
g127
sg128
F-18.220116534345703
sg129
F1.0
sg15
I5
sg130
g131
sbsI6
g0
(g122
g2
Ntp148
Rp149
(dp150
g126
g127
sg128
F11.818790097971295
sg129
F1.0
sg15
I6
sg130
g131
sbsI7
g0
(g122
g2
Ntp151
Rp152
(dp153
g126
g127
sg128
F14.511163927548775
sg129
F1.0
sg15
I7
sg130
g131
sbsI8
g0
(g122
g2
Ntp154
Rp155
(dp156
g126
g127
sg128
F-2.080244767911714
sg129
F1.0
sg15
I8
sg130
g131
sbsI9
g0
(g122
g2
Ntp157
Rp158
(dp159
g126
g127
sg128
F-7.671120449240318
sg129
F1.0
sg15
I9
sg130
g131
sbsI262
g0
(g122
g2
Ntp160
Rp161
(dp162
g126
g127
sg128
F-5.1003977967097365
sg129
F1.0
sg15
I262
sg130
g131
sbsI64
g0
(g122
g2
Ntp163
Rp164
(dp165
g126
g127
sg128
F16.08346261988691
sg129
F1.0
sg15
I64
sg130
g131
sbsI113
g0
(g122
g2
Ntp166
Rp167
(dp168
g126
g127
sg128
F-6.475352761192943
sg129
F1.0
sg15
I113
sg130
g131
sbsI308
g0
(g122
g2
Ntp169
Rp170
(dp171
g126
g127
sg128
F-5.086781379172366
sg129
F1.0
sg15
I308
sg130
g131
sbssg15
I1336
sS'fitness'
p172
Nsb.