ccopy_reg
_reconstructor
p0
(cneat.genome
DefaultGenome
p1
c__builtin__
object
p2
Ntp3
Rp4
(dp5
S'connections'
p6
(dp7
(I-5
I64
tp8
g0
(cneat.genes
DefaultConnectionGene
p9
g2
Ntp10
Rp11
(dp12
S'enabled'
p13
I01
sS'weight'
p14
F1.2046997718461996
sS'key'
p15
g8
sbs(I262
I9
tp16
g0
(g9
g2
Ntp17
Rp18
(dp19
g13
I01
sg14
F-1.2392298147776928
sg15
g16
sbs(I64
I0
tp20
g0
(g9
g2
Ntp21
Rp22
(dp23
g13
I01
sg14
F-0.6784480207897325
sg15
g20
sbs(I64
I113
tp24
g0
(g9
g2
Ntp25
Rp26
(dp27
g13
I01
sg14
F0.38276354665948037
sg15
g24
sbs(I-9
I64
tp28
g0
(g9
g2
Ntp29
Rp30
(dp31
g13
I01
sg14
F-0.8647154694562725
sg15
g28
sbs(I-4
I64
tp32
g0
(g9
g2
Ntp33
Rp34
(dp35
g13
I01
sg14
F0.47689920062885144
sg15
g32
sbs(I64
I8
tp36
g0
(g9
g2
Ntp37
Rp38
(dp39
g13
I01
sg14
F8.360878069304405
sg15
g36
sbs(I-2
I64
tp40
g0
(g9
g2
Ntp41
Rp42
(dp43
g13
I01
sg14
F2.235122658043834
sg15
g40
sbs(I64
I1
tp44
g0
(g9
g2
Ntp45
Rp46
(dp47
g13
I01
sg14
F-1.8471700782582172
sg15
g44
sbs(I64
I262
tp48
g0
(g9
g2
Ntp49
Rp50
(dp51
g13
I01
sg14
F1.3045115413596162
sg15
g48
sbs(I-3
I64
tp52
g0
(g9
g2
Ntp53
Rp54
(dp55
g13
I00
sg14
F1.6182749808699461
sg15
g52
sbs(I64
I6
tp56
g0
(g9
g2
Ntp57
Rp58
(dp59
g13
I01
sg14
F0.1926876295703024
sg15
g56
sbs(I64
I9
tp60
g0
(g9
g2
Ntp61
Rp62
(dp63
g13
I00
sg14
F1.0255376721394196
sg15
g60
sbs(I-8
I64
tp64
g0
(g9
g2
Ntp65
Rp66
(dp67
g13
I01
sg14
F-1.0355136938770908
sg15
g64
sbs(I64
I2
tp68
g0
(g9
g2
Ntp69
Rp70
(dp71
g13
I01
sg14
F2.102379222019347
sg15
g68
sbs(I-1
I64
tp72
g0
(g9
g2
Ntp73
Rp74
(dp75
g13
I00
sg14
F-1.7595070674828213
sg15
g72
sbs(I64
I7
tp76
g0
(g9
g2
Ntp77
Rp78
(dp79
g13
I01
sg14
F0.4050556780928785
sg15
g76
sbs(I-7
I64
tp80
g0
(g9
g2
Ntp81
Rp82
(dp83
g13
I01
sg14
F1.5344745546553193
sg15
g80
sbs(I64
I3
tp84
g0
(g9
g2
Ntp85
Rp86
(dp87
g13
I00
sg14
F1.089385785929553
sg15
g84
sbs(I113
I2
tp88
g0
(g9
g2
Ntp89
Rp90
(dp91
g13
I01
sg14
F0.861295518810316
sg15
g88
sbs(I-6
I64
tp92
g0
(g9
g2
Ntp93
Rp94
(dp95
g13
I01
sg14
F0.5898534869464976
sg15
g92
sbs(I-9
I7
tp96
g0
(g9
g2
Ntp97
Rp98
(dp99
g13
I01
sg14
F0.02690547812883659
sg15
g96
sbs(I-7
I1
tp100
g0
(g9
g2
Ntp101
Rp102
(dp103
g13
I01
sg14
F-0.07310104599076167
sg15
g100
sbs(I64
I4
tp104
g0
(g9
g2
Ntp105
Rp106
(dp107
g13
I01
sg14
F0.5477936841002312
sg15
g104
sbs(I64
I5
tp108
g0
(g9
g2
Ntp109
Rp110
(dp111
g13
I01
sg14
F-1.2135578859514036
sg15
g108
sbs(I-10
I64
tp112
g0
(g9
g2
Ntp113
Rp114
(dp115
g13
I01
sg14
F2.9594236025444194
sg15
g112
sbssS'nodes'
p116
(dp117
I0
g0
(cneat.genes
DefaultNodeGene
p118
g2
Ntp119
Rp120
(dp121
S'activation'
p122
S'relu'
p123
sS'bias'
p124
F-11.670099811264611
sS'response'
p125
F1.0
sg15
I0
sS'aggregation'
p126
S'sum'
p127
sbsI1
g0
(g118
g2
Ntp128
Rp129
(dp130
g122
S'tanh'
p131
sg124
F2.6844796898502343
sg125
F1.0
sg15
I1
sg126
g127
sbsI2
g0
(g118
g2
Ntp132
Rp133
(dp134
g122
g131
sg124
F1.1917133263711417
sg125
F1.0
sg15
I2
sg126
g127
sbsI3
g0
(g118
g2
Ntp135
Rp136
(dp137
g122
g131
sg124
F14.66619278859488
sg125
F1.0
sg15
I3
sg126
g127
sbsI4
g0
(g118
g2
Ntp138
Rp139
(dp140
g122
g123
sg124
F-5.245814774213512
sg125
F1.0
sg15
I4
sg126
g127
sbsI5
g0
(g118
g2
Ntp141
Rp142
(dp143
g122
g123
sg124
F-18.451660898849212
sg125
F1.0
sg15
I5
sg126
g127
sbsI6
g0
(g118
g2
Ntp144
Rp145
(dp146
g122
g123
sg124
F12.170736797959187
sg125
F1.0
sg15
I6
sg126
g127
sbsI7
g0
(g118
g2
Ntp147
Rp148
(dp149
g122
g123
sg124
F0.057150057795769316
sg125
F1.0
sg15
I7
sg126
g127
sbsI8
g0
(g118
g2
Ntp150
Rp151
(dp152
g122
g123
sg124
F-1.4616334745937847
sg125
F1.0
sg15
I8
sg126
g127
sbsI9
g0
(g118
g2
Ntp153
Rp154
(dp155
g122
g123
sg124
F-6.421749597883786
sg125
F1.0
sg15
I9
sg126
g127
sbsI262
g0
(g118
g2
Ntp156
Rp157
(dp158
g122
g123
sg124
F-5.09652349938416
sg125
F1.0
sg15
I262
sg126
g127
sbsI64
g0
(g118
g2
Ntp159
Rp160
(dp161
g122
g123
sg124
F16.408591253461207
sg125
F1.0
sg15
I64
sg126
g127
sbsI113
g0
(g118
g2
Ntp162
Rp163
(dp164
g122
g123
sg124
F1.7920465894614677
sg125
F1.0
sg15
I113
sg126
g127
sbssg15
I1338
sS'fitness'
p165
Nsb.