ccopy_reg
_reconstructor
p0
(cneat.genome
DefaultGenome
p1
c__builtin__
object
p2
Ntp3
Rp4
(dp5
S'connections'
p6
(dp7
(I23
I4
tp8
g0
(cneat.genes
DefaultConnectionGene
p9
g2
Ntp10
Rp11
(dp12
S'enabled'
p13
I00
sS'weight'
p14
F0.577434561592007
sS'key'
p15
g8
sbs(I-2
I521
tp16
g0
(g9
g2
Ntp17
Rp18
(dp19
g13
I01
sg14
F0.0688770109149909
sg15
g16
sbs(I-2
I663
tp20
g0
(g9
g2
Ntp21
Rp22
(dp23
g13
I00
sg14
F-0.030484721646881596
sg15
g20
sbs(I23
I610
tp24
g0
(g9
g2
Ntp25
Rp26
(dp27
g13
I01
sg14
F-2.980101217203182
sg15
g24
sbs(I23
I3
tp28
g0
(g9
g2
Ntp29
Rp30
(dp31
g13
I00
sg14
F0.6315688930764415
sg15
g28
sbs(I-3
I3
tp32
g0
(g9
g2
Ntp33
Rp34
(dp35
g13
I01
sg14
F-0.7041126522455011
sg15
g32
sbs(I23
I7
tp36
g0
(g9
g2
Ntp37
Rp38
(dp39
g13
I00
sg14
F0.7499542941142887
sg15
g36
sbs(I-5
I23
tp40
g0
(g9
g2
Ntp41
Rp42
(dp43
g13
I00
sg14
F0.10372292682926393
sg15
g40
sbs(I-1
I1
tp44
g0
(g9
g2
Ntp45
Rp46
(dp47
g13
I01
sg14
F-0.28256795351279684
sg15
g44
sbs(I694
I23
tp48
g0
(g9
g2
Ntp49
Rp50
(dp51
g13
I00
sg14
F3.097650682670478
sg15
g48
sbs(I-6
I9
tp52
g0
(g9
g2
Ntp53
Rp54
(dp55
g13
I01
sg14
F-1.0594323510014332
sg15
g52
sbs(I2
I2
tp56
g0
(g9
g2
Ntp57
Rp58
(dp59
g13
I00
sg14
F-0.8747052958218933
sg15
g56
sbs(I-7
I694
tp60
g0
(g9
g2
Ntp61
Rp62
(dp63
g13
I01
sg14
F0.5013561600835366
sg15
g60
sbs(I610
I7
tp64
g0
(g9
g2
Ntp65
Rp66
(dp67
g13
I00
sg14
F-1.381657706351374
sg15
g64
sbs(I-2
I23
tp68
g0
(g9
g2
Ntp69
Rp70
(dp71
g13
I01
sg14
F1.9601561648717996
sg15
g68
sbs(I559
I0
tp72
g0
(g9
g2
Ntp73
Rp74
(dp75
g13
I00
sg14
F-2.2811295677444505
sg15
g72
sbs(I735
I23
tp76
g0
(g9
g2
Ntp77
Rp78
(dp79
g13
I01
sg14
F2.9105512678092693
sg15
g76
sbs(I23
I1
tp80
g0
(g9
g2
Ntp81
Rp82
(dp83
g13
I01
sg14
F-1.194745687345212
sg15
g80
sbs(I-5
I694
tp84
g0
(g9
g2
Ntp85
Rp86
(dp87
g13
I00
sg14
F-1.2576310948289955
sg15
g84
sbs(I-1
I559
tp88
g0
(g9
g2
Ntp89
Rp90
(dp91
g13
I00
sg14
F0.86891791257999
sg15
g88
sbs(I617
I559
tp92
g0
(g9
g2
Ntp93
Rp94
(dp95
g13
I00
sg14
F0.5334498610567798
sg15
g92
sbs(I-1
I617
tp96
g0
(g9
g2
Ntp97
Rp98
(dp99
g13
I00
sg14
F0.35798587468849097
sg15
g96
sbs(I9
I9
tp100
g0
(g9
g2
Ntp101
Rp102
(dp103
g13
I01
sg14
F1.165670566344631
sg15
g100
sbs(I663
I521
tp104
g0
(g9
g2
Ntp105
Rp106
(dp107
g13
I01
sg14
F0.8137793019324301
sg15
g104
sbs(I8
I8
tp108
g0
(g9
g2
Ntp109
Rp110
(dp111
g13
I00
sg14
F-1.4498244330724732
sg15
g108
sbs(I610
I610
tp112
g0
(g9
g2
Ntp113
Rp114
(dp115
g13
I01
sg14
F-1.9219361238744994
sg15
g112
sbs(I694
I735
tp116
g0
(g9
g2
Ntp117
Rp118
(dp119
g13
I01
sg14
F-1.7615863739772253
sg15
g116
sbs(I-7
I23
tp120
g0
(g9
g2
Ntp121
Rp122
(dp123
g13
I00
sg14
F-0.8136919489477501
sg15
g120
sbssS'nodes'
p124
(dp125
I0
g0
(cneat.genes
DefaultNodeGene
p126
g2
Ntp127
Rp128
(dp129
S'activation'
p130
S'tanh'
p131
sS'bias'
p132
F1.7382449670328723
sS'response'
p133
F1.0
sg15
I0
sS'aggregation'
p134
S'sum'
p135
sbsI1
g0
(g126
g2
Ntp136
Rp137
(dp138
g130
g131
sg132
F-15.738386147326198
sg133
F1.0
sg15
I1
sg134
g135
sbsI2
g0
(g126
g2
Ntp139
Rp140
(dp141
g130
g131
sg132
F10.983360729112551
sg133
F1.0
sg15
I2
sg134
g135
sbsI3
g0
(g126
g2
Ntp142
Rp143
(dp144
g130
g131
sg132
F1.0275696020532603
sg133
F1.0
sg15
I3
sg134
g135
sbsI4
g0
(g126
g2
Ntp145
Rp146
(dp147
g130
g131
sg132
F-8.746156913494604
sg133
F1.0
sg15
I4
sg134
g135
sbsI5
g0
(g126
g2
Ntp148
Rp149
(dp150
g130
g131
sg132
F-3.6180182719212386
sg133
F1.0
sg15
I5
sg134
g135
sbsI6
g0
(g126
g2
Ntp151
Rp152
(dp153
g130
g131
sg132
F20.506826243839114
sg133
F1.0
sg15
I6
sg134
g135
sbsI7
g0
(g126
g2
Ntp154
Rp155
(dp156
g130
g131
sg132
F4.079604528430135
sg133
F1.0
sg15
I7
sg134
g135
sbsI8
g0
(g126
g2
Ntp157
Rp158
(dp159
g130
g131
sg132
F-10.505758838982935
sg133
F1.0
sg15
I8
sg134
g135
sbsI9
g0
(g126
g2
Ntp160
Rp161
(dp162
g130
g131
sg132
F0.44828157262897816
sg133
F1.0
sg15
I9
sg134
g135
sbsI617
g0
(g126
g2
Ntp163
Rp164
(dp165
g130
g131
sg132
F-9.448612137358616
sg133
F1.0
sg15
I617
sg134
g135
sbsI551
g0
(g126
g2
Ntp166
Rp167
(dp168
g130
g131
sg132
F-3.1698320545131375
sg133
F1.0
sg15
I551
sg134
g135
sbsI610
g0
(g126
g2
Ntp169
Rp170
(dp171
g130
g131
sg132
F-3.600060562492053
sg133
F1.0
sg15
I610
sg134
g135
sbsI559
g0
(g126
g2
Ntp172
Rp173
(dp174
g130
g131
sg132
F-7.238726998362858
sg133
F1.0
sg15
I559
sg134
g135
sbsI521
g0
(g126
g2
Ntp175
Rp176
(dp177
g130
g131
sg132
F-1.0100524826056811
sg133
F1.0
sg15
I521
sg134
g135
sbsI694
g0
(g126
g2
Ntp178
Rp179
(dp180
g130
g131
sg132
F-0.7447541259714974
sg133
F1.0
sg15
I694
sg134
g135
sbsI663
g0
(g126
g2
Ntp181
Rp182
(dp183
g130
g131
sg132
F-14.52278629485485
sg133
F1.0
sg15
I663
sg134
g135
sbsI23
g0
(g126
g2
Ntp184
Rp185
(dp186
g130
g131
sg132
F4.161410745678623
sg133
F1.0
sg15
I23
sg134
g135
sbsI735
g0
(g126
g2
Ntp187
Rp188
(dp189
g130
g131
sg132
F-0.3857035410259045
sg133
F1.0
sg15
I735
sg134
g135
sbssg15
I134
sS'fitness'
p190
Nsb.