ccopy_reg
_reconstructor
p0
(cneat.genome
DefaultGenome
p1
c__builtin__
object
p2
Ntp3
Rp4
(dp5
S'connections'
p6
(dp7
(I262
I9
tp8
g0
(cneat.genes
DefaultConnectionGene
p9
g2
Ntp10
Rp11
(dp12
S'enabled'
p13
I01
sS'weight'
p14
F0.2191926556532024
sS'key'
p15
g8
sbs(I113
I2
tp16
g0
(g9
g2
Ntp17
Rp18
(dp19
g13
I01
sg14
F0.7538033515357598
sg15
g16
sbs(I-9
I7
tp20
g0
(g9
g2
Ntp21
Rp22
(dp23
g13
I01
sg14
F-1.0780579489363178
sg15
g20
sbssS'nodes'
p24
(dp25
I0
g0
(cneat.genes
DefaultNodeGene
p26
g2
Ntp27
Rp28
(dp29
S'activation'
p30
S'relu'
p31
sS'bias'
p32
F-11.845574723594188
sS'response'
p33
F1.0
sg15
I0
sS'aggregation'
p34
S'sum'
p35
sbsI1
g0
(g26
g2
Ntp36
Rp37
(dp38
g30
g31
sg32
F5.276816472102615
sg33
F1.0
sg15
I1
sg34
g35
sbsI2
g0
(g26
g2
Ntp39
Rp40
(dp41
g30
S'tanh'
p42
sg32
F-15.824788028089198
sg33
F1.0
sg15
I2
sg34
g35
sbsI3
g0
(g26
g2
Ntp43
Rp44
(dp45
g30
g42
sg32
F15.432535311373618
sg33
F1.0
sg15
I3
sg34
g35
sbsI4
g0
(g26
g2
Ntp46
Rp47
(dp48
g30
g31
sg32
F10.112640680593586
sg33
F1.0
sg15
I4
sg34
g35
sbsI5
g0
(g26
g2
Ntp49
Rp50
(dp51
g30
g31
sg32
F-18.01504057475212
sg33
F1.0
sg15
I5
sg34
g35
sbsI6
g0
(g26
g2
Ntp52
Rp53
(dp54
g30
g42
sg32
F2.6227845634863405
sg33
F1.0
sg15
I6
sg34
g35
sbsI7
g0
(g26
g2
Ntp55
Rp56
(dp57
g30
g31
sg32
F-5.41501030348855
sg33
F1.0
sg15
I7
sg34
g35
sbsI8
g0
(g26
g2
Ntp58
Rp59
(dp60
g30
g31
sg32
F-1.2867993369171575
sg33
F1.0
sg15
I8
sg34
g35
sbsI9
g0
(g26
g2
Ntp61
Rp62
(dp63
g30
g31
sg32
F-8.309569331144406
sg33
F1.0
sg15
I9
sg34
g35
sbsI262
g0
(g26
g2
Ntp64
Rp65
(dp66
g30
g31
sg32
F-3.7306300518571622
sg33
F1.0
sg15
I262
sg34
g35
sbsI113
g0
(g26
g2
Ntp67
Rp68
(dp69
g30
g31
sg32
F-5.855512254915409
sg33
F1.0
sg15
I113
sg34
g35
sbssg15
I1341
sS'fitness'
p70
Nsb.