ccopy_reg
_reconstructor
p0
(cneat.genome
DefaultGenome
p1
c__builtin__
object
p2
Ntp3
Rp4
(dp5
S'connections'
p6
(dp7
(I-5
I64
tp8
g0
(cneat.genes
DefaultConnectionGene
p9
g2
Ntp10
Rp11
(dp12
S'enabled'
p13
I01
sS'weight'
p14
F0.7527708800394318
sS'key'
p15
g8
sbs(I262
I9
tp16
g0
(g9
g2
Ntp17
Rp18
(dp19
g13
I01
sg14
F-3.2299926991939216
sg15
g16
sbs(I64
I0
tp20
g0
(g9
g2
Ntp21
Rp22
(dp23
g13
I01
sg14
F-1.4699635343929964
sg15
g20
sbs(I64
I113
tp24
g0
(g9
g2
Ntp25
Rp26
(dp27
g13
I01
sg14
F-1.7370611670864502
sg15
g24
sbs(I-9
I64
tp28
g0
(g9
g2
Ntp29
Rp30
(dp31
g13
I01
sg14
F-1.2478533653693
sg15
g28
sbs(I-4
I64
tp32
g0
(g9
g2
Ntp33
Rp34
(dp35
g13
I01
sg14
F-0.341907021614995
sg15
g32
sbs(I64
I8
tp36
g0
(g9
g2
Ntp37
Rp38
(dp39
g13
I01
sg14
F8.501051661189248
sg15
g36
sbs(I-1
I64
tp40
g0
(g9
g2
Ntp41
Rp42
(dp43
g13
I00
sg14
F-1.5996761806685718
sg15
g40
sbs(I64
I1
tp44
g0
(g9
g2
Ntp45
Rp46
(dp47
g13
I01
sg14
F-1.8545188046219512
sg15
g44
sbs(I64
I262
tp48
g0
(g9
g2
Ntp49
Rp50
(dp51
g13
I01
sg14
F0.8038976444339838
sg15
g48
sbs(I-3
I64
tp52
g0
(g9
g2
Ntp53
Rp54
(dp55
g13
I00
sg14
F0.29490984122882347
sg15
g52
sbs(I64
I6
tp56
g0
(g9
g2
Ntp57
Rp58
(dp59
g13
I01
sg14
F1.208616296399065
sg15
g56
sbs(I64
I9
tp60
g0
(g9
g2
Ntp61
Rp62
(dp63
g13
I00
sg14
F0.9304137858041548
sg15
g60
sbs(I-8
I64
tp64
g0
(g9
g2
Ntp65
Rp66
(dp67
g13
I01
sg14
F-0.5469426494588867
sg15
g64
sbs(I64
I2
tp68
g0
(g9
g2
Ntp69
Rp70
(dp71
g13
I00
sg14
F0.7423092596795143
sg15
g68
sbs(I-2
I64
tp72
g0
(g9
g2
Ntp73
Rp74
(dp75
g13
I01
sg14
F3.1571811518407498
sg15
g72
sbs(I64
I7
tp76
g0
(g9
g2
Ntp77
Rp78
(dp79
g13
I01
sg14
F0.06114181575221458
sg15
g76
sbs(I-7
I64
tp80
g0
(g9
g2
Ntp81
Rp82
(dp83
g13
I01
sg14
F1.2022460030451296
sg15
g80
sbs(I64
I3
tp84
g0
(g9
g2
Ntp85
Rp86
(dp87
g13
I00
sg14
F1.521250266426682
sg15
g84
sbs(I113
I2
tp88
g0
(g9
g2
Ntp89
Rp90
(dp91
g13
I01
sg14
F0.9374197512085378
sg15
g88
sbs(I-6
I64
tp92
g0
(g9
g2
Ntp93
Rp94
(dp95
g13
I01
sg14
F0.32574559469279596
sg15
g92
sbs(I-10
I64
tp96
g0
(g9
g2
Ntp97
Rp98
(dp99
g13
I01
sg14
F4.638162269686103
sg15
g96
sbs(I64
I4
tp100
g0
(g9
g2
Ntp101
Rp102
(dp103
g13
I01
sg14
F1.9374252747664669
sg15
g100
sbs(I64
I5
tp104
g0
(g9
g2
Ntp105
Rp106
(dp107
g13
I01
sg14
F-1.9567377906767476
sg15
g104
sbs(I-9
I7
tp108
g0
(g9
g2
Ntp109
Rp110
(dp111
g13
I00
sg14
F-0.3547380622254496
sg15
g108
sbssS'nodes'
p112
(dp113
I0
g0
(cneat.genes
DefaultNodeGene
p114
g2
Ntp115
Rp116
(dp117
S'activation'
p118
S'relu'
p119
sS'bias'
p120
F-12.376252858270815
sS'response'
p121
F1.0
sg15
I0
sS'aggregation'
p122
S'sum'
p123
sbsI1
g0
(g114
g2
Ntp124
Rp125
(dp126
g118
S'tanh'
p127
sg120
F0.5756881481951974
sg121
F1.0
sg15
I1
sg122
g123
sbsI2
g0
(g114
g2
Ntp128
Rp129
(dp130
g118
g127
sg120
F-5.052506789611998
sg121
F1.0
sg15
I2
sg122
g123
sbsI3
g0
(g114
g2
Ntp131
Rp132
(dp133
g118
g127
sg120
F14.211824521473575
sg121
F1.0
sg15
I3
sg122
g123
sbsI4
g0
(g114
g2
Ntp134
Rp135
(dp136
g118
g119
sg120
F-5.245814774213512
sg121
F1.0
sg15
I4
sg122
g123
sbsI5
g0
(g114
g2
Ntp137
Rp138
(dp139
g118
g119
sg120
F-17.564509656752946
sg121
F1.0
sg15
I5
sg122
g123
sbsI6
g0
(g114
g2
Ntp140
Rp141
(dp142
g118
g119
sg120
F10.875214405936548
sg121
F1.0
sg15
I6
sg122
g123
sbsI7
g0
(g114
g2
Ntp143
Rp144
(dp145
g118
g119
sg120
F15.85607749559117
sg121
F1.0
sg15
I7
sg122
g123
sbsI8
g0
(g114
g2
Ntp146
Rp147
(dp148
g118
g119
sg120
F-0.8849025960294129
sg121
F1.0
sg15
I8
sg122
g123
sbsI9
g0
(g114
g2
Ntp149
Rp150
(dp151
g118
g119
sg120
F-7.3689038686928825
sg121
F1.0
sg15
I9
sg122
g123
sbsI262
g0
(g114
g2
Ntp152
Rp153
(dp154
g118
g119
sg120
F-4.638528099669776
sg121
F1.0
sg15
I262
sg122
g123
sbsI64
g0
(g114
g2
Ntp155
Rp156
(dp157
g118
g119
sg120
F17.408522254837035
sg121
F1.0
sg15
I64
sg122
g123
sbsI113
g0
(g114
g2
Ntp158
Rp159
(dp160
g118
g119
sg120
F-6.240846807655859
sg121
F1.0
sg15
I113
sg122
g123
sbssg15
I1343
sS'fitness'
p161
Nsb.