ccopy_reg
_reconstructor
p0
(cneat.genome
DefaultGenome
p1
c__builtin__
object
p2
Ntp3
Rp4
(dp5
S'connections'
p6
(dp7
(I23
I4
tp8
g0
(cneat.genes
DefaultConnectionGene
p9
g2
Ntp10
Rp11
(dp12
S'enabled'
p13
I00
sS'weight'
p14
F0.6373709675425865
sS'key'
p15
g8
sbs(I-2
I521
tp16
g0
(g9
g2
Ntp17
Rp18
(dp19
g13
I01
sg14
F-3.2320510109899843
sg15
g16
sbs(I-2
I663
tp20
g0
(g9
g2
Ntp21
Rp22
(dp23
g13
I00
sg14
F-0.07667150811976431
sg15
g20
sbs(I7
I7
tp24
g0
(g9
g2
Ntp25
Rp26
(dp27
g13
I00
sg14
F1.389723220732225
sg15
g24
sbs(I7
I793
tp28
g0
(g9
g2
Ntp29
Rp30
(dp31
g13
I01
sg14
F1.3367563158673286
sg15
g28
sbs(I23
I3
tp32
g0
(g9
g2
Ntp33
Rp34
(dp35
g13
I00
sg14
F1.301089358375682
sg15
g32
sbs(I-3
I3
tp36
g0
(g9
g2
Ntp37
Rp38
(dp39
g13
I01
sg14
F-0.5842151723032785
sg15
g36
sbs(I23
I7
tp40
g0
(g9
g2
Ntp41
Rp42
(dp43
g13
I00
sg14
F-1.1355574659375551
sg15
g40
sbs(I-5
I23
tp44
g0
(g9
g2
Ntp45
Rp46
(dp47
g13
I00
sg14
F-1.894792497400157
sg15
g44
sbs(I-1
I1
tp48
g0
(g9
g2
Ntp49
Rp50
(dp51
g13
I01
sg14
F-0.1680579068999557
sg15
g48
sbs(I-6
I9
tp52
g0
(g9
g2
Ntp53
Rp54
(dp55
g13
I01
sg14
F2.633935722793477
sg15
g52
sbs(I2
I2
tp56
g0
(g9
g2
Ntp57
Rp58
(dp59
g13
I00
sg14
F-1.3798469460707121
sg15
g56
sbs(I610
I7
tp60
g0
(g9
g2
Ntp61
Rp62
(dp63
g13
I01
sg14
F-0.9006685962729737
sg15
g60
sbs(I-2
I23
tp64
g0
(g9
g2
Ntp65
Rp66
(dp67
g13
I01
sg14
F1.899703352809356
sg15
g64
sbs(I559
I0
tp68
g0
(g9
g2
Ntp69
Rp70
(dp71
g13
I00
sg14
F-2.395919247900132
sg15
g68
sbs(I793
I7
tp72
g0
(g9
g2
Ntp73
Rp74
(dp75
g13
I01
sg14
F0.7079762553701296
sg15
g72
sbs(I735
I23
tp76
g0
(g9
g2
Ntp77
Rp78
(dp79
g13
I01
sg14
F3.376200094264911
sg15
g76
sbs(I23
I1
tp80
g0
(g9
g2
Ntp81
Rp82
(dp83
g13
I01
sg14
F0.20978736085561614
sg15
g80
sbs(I-1
I559
tp84
g0
(g9
g2
Ntp85
Rp86
(dp87
g13
I00
sg14
F1.4222114186529813
sg15
g84
sbs(I617
I559
tp88
g0
(g9
g2
Ntp89
Rp90
(dp91
g13
I00
sg14
F-0.06865528900730888
sg15
g88
sbs(I-1
I617
tp92
g0
(g9
g2
Ntp93
Rp94
(dp95
g13
I00
sg14
F0.2662003236200855
sg15
g92
sbs(I9
I9
tp96
g0
(g9
g2
Ntp97
Rp98
(dp99
g13
I01
sg14
F-0.6243093153229631
sg15
g96
sbs(I663
I521
tp100
g0
(g9
g2
Ntp101
Rp102
(dp103
g13
I01
sg14
F0.27170235638974327
sg15
g100
sbs(I8
I8
tp104
g0
(g9
g2
Ntp105
Rp106
(dp107
g13
I00
sg14
F-0.9087688671429411
sg15
g104
sbs(I610
I610
tp108
g0
(g9
g2
Ntp109
Rp110
(dp111
g13
I01
sg14
F0.01973973491619241
sg15
g108
sbs(I-7
I23
tp112
g0
(g9
g2
Ntp113
Rp114
(dp115
g13
I00
sg14
F0.6109501724828158
sg15
g112
sbssS'nodes'
p116
(dp117
I0
g0
(cneat.genes
DefaultNodeGene
p118
g2
Ntp119
Rp120
(dp121
S'activation'
p122
S'tanh'
p123
sS'bias'
p124
F3.487531968089174
sS'response'
p125
F1.0
sg15
I0
sS'aggregation'
p126
S'sum'
p127
sbsI1
g0
(g118
g2
Ntp128
Rp129
(dp130
g122
g123
sg124
F-15.744350125580702
sg125
F1.0
sg15
I1
sg126
g127
sbsI2
g0
(g118
g2
Ntp131
Rp132
(dp133
g122
g123
sg124
F10.973522573369529
sg125
F1.0
sg15
I2
sg126
g127
sbsI3
g0
(g118
g2
Ntp134
Rp135
(dp136
g122
g123
sg124
F0.14813215664384716
sg125
F1.0
sg15
I3
sg126
g127
sbsI4
g0
(g118
g2
Ntp137
Rp138
(dp139
g122
g123
sg124
F-11.13669614794603
sg125
F1.0
sg15
I4
sg126
g127
sbsI5
g0
(g118
g2
Ntp140
Rp141
(dp142
g122
g123
sg124
F-3.2317648418885088
sg125
F1.0
sg15
I5
sg126
g127
sbsI6
g0
(g118
g2
Ntp143
Rp144
(dp145
g122
g123
sg124
F20.701285411596867
sg125
F1.0
sg15
I6
sg126
g127
sbsI7
g0
(g118
g2
Ntp146
Rp147
(dp148
g122
g123
sg124
F9.473098764798982
sg125
F1.0
sg15
I7
sg126
g127
sbsI8
g0
(g118
g2
Ntp149
Rp150
(dp151
g122
g123
sg124
F-10.975055089702943
sg125
F1.0
sg15
I8
sg126
g127
sbsI9
g0
(g118
g2
Ntp152
Rp153
(dp154
g122
g123
sg124
F-0.48501118229392454
sg125
F1.0
sg15
I9
sg126
g127
sbsI617
g0
(g118
g2
Ntp155
Rp156
(dp157
g122
g123
sg124
F-6.485927630813643
sg125
F1.0
sg15
I617
sg126
g127
sbsI551
g0
(g118
g2
Ntp158
Rp159
(dp160
g122
g123
sg124
F-2.3603821654510506
sg125
F1.0
sg15
I551
sg126
g127
sbsI610
g0
(g118
g2
Ntp161
Rp162
(dp163
g122
g123
sg124
F-4.048781310079479
sg125
F1.0
sg15
I610
sg126
g127
sbsI559
g0
(g118
g2
Ntp164
Rp165
(dp166
g122
g123
sg124
F16.568315593829205
sg125
F1.0
sg15
I559
sg126
g127
sbsI521
g0
(g118
g2
Ntp167
Rp168
(dp169
g122
g123
sg124
F-2.3101345037583503
sg125
F1.0
sg15
I521
sg126
g127
sbsI663
g0
(g118
g2
Ntp170
Rp171
(dp172
g122
g123
sg124
F-15.207359302490236
sg125
F1.0
sg15
I663
sg126
g127
sbsI23
g0
(g118
g2
Ntp173
Rp174
(dp175
g122
g123
sg124
F-0.9101663581182274
sg125
F1.0
sg15
I23
sg126
g127
sbsI793
g0
(g118
g2
Ntp176
Rp177
(dp178
g122
S'relu'
p179
sg124
F-4.155976230593956
sg125
F1.0
sg15
I793
sg126
g127
sbsI735
g0
(g118
g2
Ntp180
Rp181
(dp182
g122
g123
sg124
F-0.2490166007276473
sg125
F1.0
sg15
I735
sg126
g127
sbssg15
I136
sS'fitness'
p183
Nsb.