ccopy_reg
_reconstructor
p0
(cneat.genome
DefaultGenome
p1
c__builtin__
object
p2
Ntp3
Rp4
(dp5
S'connections'
p6
(dp7
(I-9
I36
tp8
g0
(cneat.genes
DefaultConnectionGene
p9
g2
Ntp10
Rp11
(dp12
S'enabled'
p13
I01
sS'weight'
p14
F0.526780836950972
sS'key'
p15
g8
sbs(I36
I7
tp16
g0
(g9
g2
Ntp17
Rp18
(dp19
g13
I01
sg14
F-1.4189618401373059
sg15
g16
sbs(I-4
I36
tp20
g0
(g9
g2
Ntp21
Rp22
(dp23
g13
I01
sg14
F-1.6334191684432473
sg15
g20
sbs(I36
I9
tp24
g0
(g9
g2
Ntp25
Rp26
(dp27
g13
I01
sg14
F-0.25789767795291674
sg15
g24
sbs(I36
I6
tp28
g0
(g9
g2
Ntp29
Rp30
(dp31
g13
I01
sg14
F-0.6189563780181043
sg15
g28
sbs(I-7
I36
tp32
g0
(g9
g2
Ntp33
Rp34
(dp35
g13
I01
sg14
F-2.4303218927099772
sg15
g32
sbs(I36
I8
tp36
g0
(g9
g2
Ntp37
Rp38
(dp39
g13
I01
sg14
F0.890482080932571
sg15
g36
sbs(I36
I5
tp40
g0
(g9
g2
Ntp41
Rp42
(dp43
g13
I01
sg14
F-1.0617039367388987
sg15
g40
sbs(I-1
I36
tp44
g0
(g9
g2
Ntp45
Rp46
(dp47
g13
I01
sg14
F-0.9520137442962573
sg15
g44
sbs(I36
I4
tp48
g0
(g9
g2
Ntp49
Rp50
(dp51
g13
I01
sg14
F-1.3914170977457712
sg15
g48
sbs(I-8
I36
tp52
g0
(g9
g2
Ntp53
Rp54
(dp55
g13
I01
sg14
F-0.048019936460129364
sg15
g52
sbs(I-10
I36
tp56
g0
(g9
g2
Ntp57
Rp58
(dp59
g13
I01
sg14
F-1.82184570517853
sg15
g56
sbs(I-5
I36
tp60
g0
(g9
g2
Ntp61
Rp62
(dp63
g13
I01
sg14
F0.7104230311902235
sg15
g60
sbs(I-6
I36
tp64
g0
(g9
g2
Ntp65
Rp66
(dp67
g13
I01
sg14
F-1.7694765425398828
sg15
g64
sbs(I36
I3
tp68
g0
(g9
g2
Ntp69
Rp70
(dp71
g13
I01
sg14
F0.9643540459244426
sg15
g68
sbs(I-2
I36
tp72
g0
(g9
g2
Ntp73
Rp74
(dp75
g13
I01
sg14
F1.415013664391938
sg15
g72
sbs(I36
I2
tp76
g0
(g9
g2
Ntp77
Rp78
(dp79
g13
I01
sg14
F-2.087128556307314
sg15
g76
sbs(I-3
I36
tp80
g0
(g9
g2
Ntp81
Rp82
(dp83
g13
I01
sg14
F-1.364869457344836
sg15
g80
sbs(I36
I1
tp84
g0
(g9
g2
Ntp85
Rp86
(dp87
g13
I01
sg14
F0.5773839119235824
sg15
g84
sbs(I36
I0
tp88
g0
(g9
g2
Ntp89
Rp90
(dp91
g13
I01
sg14
F-0.686733407411772
sg15
g88
sbssS'nodes'
p92
(dp93
I0
g0
(cneat.genes
DefaultNodeGene
p94
g2
Ntp95
Rp96
(dp97
S'activation'
p98
S'tanh'
p99
sS'bias'
p100
F30.332878336896727
sS'response'
p101
F1.0
sg15
I0
sS'aggregation'
p102
S'sum'
p103
sbsI1
g0
(g94
g2
Ntp104
Rp105
(dp106
g98
S'relu'
p107
sg100
F4.232910070943626
sg101
F1.0
sg15
I1
sg102
g103
sbsI2
g0
(g94
g2
Ntp108
Rp109
(dp110
g98
g107
sg100
F3.8998241250555252
sg101
F1.0
sg15
I2
sg102
g103
sbsI3
g0
(g94
g2
Ntp111
Rp112
(dp113
g98
g107
sg100
F-6.632850692712009
sg101
F1.0
sg15
I3
sg102
g103
sbsI4
g0
(g94
g2
Ntp114
Rp115
(dp116
g98
g107
sg100
F-7.354694189778231
sg101
F1.0
sg15
I4
sg102
g103
sbsI5
g0
(g94
g2
Ntp117
Rp118
(dp119
g98
g107
sg100
F2.943226208770304
sg101
F1.0
sg15
I5
sg102
g103
sbsI6
g0
(g94
g2
Ntp120
Rp121
(dp122
g98
g107
sg100
F2.4474890388367183
sg101
F1.0
sg15
I6
sg102
g103
sbsI7
g0
(g94
g2
Ntp123
Rp124
(dp125
g98
g107
sg100
F16.16491459688597
sg101
F1.0
sg15
I7
sg102
g103
sbsI8
g0
(g94
g2
Ntp126
Rp127
(dp128
g98
g107
sg100
F-3.4513820235204262
sg101
F1.0
sg15
I8
sg102
g103
sbsI9
g0
(g94
g2
Ntp129
Rp130
(dp131
g98
g107
sg100
F0.6809729112792883
sg101
F1.0
sg15
I9
sg102
g103
sbsI36
g0
(g94
g2
Ntp132
Rp133
(dp134
g98
g107
sg100
F-25.392306392094333
sg101
F1.0
sg15
I36
sg102
g103
sbssg15
I137
sS'fitness'
p135
Nsb.