ccopy_reg
_reconstructor
p0
(cneat.genome
DefaultGenome
p1
c__builtin__
object
p2
Ntp3
Rp4
(dp5
S'connections'
p6
(dp7
(I23
I4
tp8
g0
(cneat.genes
DefaultConnectionGene
p9
g2
Ntp10
Rp11
(dp12
S'enabled'
p13
I00
sS'weight'
p14
F-0.07395551381730386
sS'key'
p15
g8
sbs(I794
I23
tp16
g0
(g9
g2
Ntp17
Rp18
(dp19
g13
I01
sg14
F1.9324593635829026
sg15
g16
sbs(I-2
I521
tp20
g0
(g9
g2
Ntp21
Rp22
(dp23
g13
I01
sg14
F0.2602257848611826
sg15
g20
sbs(I-2
I663
tp24
g0
(g9
g2
Ntp25
Rp26
(dp27
g13
I00
sg14
F0.36502386624280614
sg15
g24
sbs(I7
I7
tp28
g0
(g9
g2
Ntp29
Rp30
(dp31
g13
I01
sg14
F1.1000101986492596
sg15
g28
sbs(I23
I610
tp32
g0
(g9
g2
Ntp33
Rp34
(dp35
g13
I01
sg14
F-2.202719326682458
sg15
g32
sbs(I23
I3
tp36
g0
(g9
g2
Ntp37
Rp38
(dp39
g13
I01
sg14
F1.2139465483148237
sg15
g36
sbs(I-3
I3
tp40
g0
(g9
g2
Ntp41
Rp42
(dp43
g13
I01
sg14
F-0.19095525450908607
sg15
g40
sbs(I23
I7
tp44
g0
(g9
g2
Ntp45
Rp46
(dp47
g13
I00
sg14
F-0.9992806956730044
sg15
g44
sbs(I-5
I23
tp48
g0
(g9
g2
Ntp49
Rp50
(dp51
g13
I00
sg14
F-0.17988517868627768
sg15
g48
sbs(I-1
I1
tp52
g0
(g9
g2
Ntp53
Rp54
(dp55
g13
I01
sg14
F-1.1496377761464918
sg15
g52
sbs(I694
I23
tp56
g0
(g9
g2
Ntp57
Rp58
(dp59
g13
I00
sg14
F2.250716914984012
sg15
g56
sbs(I-6
I9
tp60
g0
(g9
g2
Ntp61
Rp62
(dp63
g13
I01
sg14
F2.9091832086510396
sg15
g60
sbs(I2
I2
tp64
g0
(g9
g2
Ntp65
Rp66
(dp67
g13
I00
sg14
F-1.3318047838833447
sg15
g64
sbs(I-7
I694
tp68
g0
(g9
g2
Ntp69
Rp70
(dp71
g13
I01
sg14
F0.7951602861795287
sg15
g68
sbs(I610
I7
tp72
g0
(g9
g2
Ntp73
Rp74
(dp75
g13
I01
sg14
F-1.1746544700646995
sg15
g72
sbs(I-2
I23
tp76
g0
(g9
g2
Ntp77
Rp78
(dp79
g13
I00
sg14
F2.1420483386230953
sg15
g76
sbs(I559
I0
tp80
g0
(g9
g2
Ntp81
Rp82
(dp83
g13
I00
sg14
F-1.7978124571864464
sg15
g80
sbs(I735
I23
tp84
g0
(g9
g2
Ntp85
Rp86
(dp87
g13
I01
sg14
F0.0993202042111507
sg15
g84
sbs(I23
I1
tp88
g0
(g9
g2
Ntp89
Rp90
(dp91
g13
I01
sg14
F0.16352765861064672
sg15
g88
sbs(I-5
I694
tp92
g0
(g9
g2
Ntp93
Rp94
(dp95
g13
I00
sg14
F-0.6452352643726772
sg15
g92
sbs(I-2
I794
tp96
g0
(g9
g2
Ntp97
Rp98
(dp99
g13
I01
sg14
F0.9794771599518012
sg15
g96
sbs(I-1
I559
tp100
g0
(g9
g2
Ntp101
Rp102
(dp103
g13
I00
sg14
F1.0399967158412828
sg15
g100
sbs(I9
I9
tp104
g0
(g9
g2
Ntp105
Rp106
(dp107
g13
I01
sg14
F-0.03526185208630697
sg15
g104
sbs(I663
I521
tp108
g0
(g9
g2
Ntp109
Rp110
(dp111
g13
I01
sg14
F0.8350079293820104
sg15
g108
sbs(I8
I8
tp112
g0
(g9
g2
Ntp113
Rp114
(dp115
g13
I00
sg14
F-2.2410868859175235
sg15
g112
sbs(I610
I610
tp116
g0
(g9
g2
Ntp117
Rp118
(dp119
g13
I01
sg14
F0.21665204433879925
sg15
g116
sbs(I694
I735
tp120
g0
(g9
g2
Ntp121
Rp122
(dp123
g13
I01
sg14
F-0.4762990560454292
sg15
g120
sbs(I-7
I23
tp124
g0
(g9
g2
Ntp125
Rp126
(dp127
g13
I00
sg14
F0.26018261621595606
sg15
g124
sbssS'nodes'
p128
(dp129
I0
g0
(cneat.genes
DefaultNodeGene
p130
g2
Ntp131
Rp132
(dp133
S'activation'
p134
S'tanh'
p135
sS'bias'
p136
F1.9598914563445828
sS'response'
p137
F1.0
sg15
I0
sS'aggregation'
p138
S'sum'
p139
sbsI1
g0
(g130
g2
Ntp140
Rp141
(dp142
g134
g135
sg136
F-15.633569082005385
sg137
F1.0
sg15
I1
sg138
g139
sbsI2
g0
(g130
g2
Ntp143
Rp144
(dp145
g134
g135
sg136
F12.183271663824737
sg137
F1.0
sg15
I2
sg138
g139
sbsI3
g0
(g130
g2
Ntp146
Rp147
(dp148
g134
g135
sg136
F1.223628924879899
sg137
F1.0
sg15
I3
sg138
g139
sbsI4
g0
(g130
g2
Ntp149
Rp150
(dp151
g134
g135
sg136
F-8.648493200049726
sg137
F1.0
sg15
I4
sg138
g139
sbsI5
g0
(g130
g2
Ntp152
Rp153
(dp154
g134
g135
sg136
F-3.1087133343911457
sg137
F1.0
sg15
I5
sg138
g139
sbsI6
g0
(g130
g2
Ntp155
Rp156
(dp157
g134
g135
sg136
F20.719166679379228
sg137
F1.0
sg15
I6
sg138
g139
sbsI7
g0
(g130
g2
Ntp158
Rp159
(dp160
g134
g135
sg136
F5.03262439454323
sg137
F1.0
sg15
I7
sg138
g139
sbsI8
g0
(g130
g2
Ntp161
Rp162
(dp163
g134
g135
sg136
F-9.872500017842274
sg137
F1.0
sg15
I8
sg138
g139
sbsI9
g0
(g130
g2
Ntp164
Rp165
(dp166
g134
g135
sg136
F-0.5888343955926308
sg137
F1.0
sg15
I9
sg138
g139
sbsI551
g0
(g130
g2
Ntp167
Rp168
(dp169
g134
g135
sg136
F-1.657693948060223
sg137
F1.0
sg15
I551
sg138
g139
sbsI610
g0
(g130
g2
Ntp170
Rp171
(dp172
g134
g135
sg136
F-4.586699998419044
sg137
F1.0
sg15
I610
sg138
g139
sbsI559
g0
(g130
g2
Ntp173
Rp174
(dp175
g134
g135
sg136
F16.87716249731114
sg137
F1.0
sg15
I559
sg138
g139
sbsI521
g0
(g130
g2
Ntp176
Rp177
(dp178
g134
g135
sg136
F-2.235728803785678
sg137
F1.0
sg15
I521
sg138
g139
sbsI694
g0
(g130
g2
Ntp179
Rp180
(dp181
g134
g135
sg136
F-1.5022404679500756
sg137
F1.0
sg15
I694
sg138
g139
sbsI663
g0
(g130
g2
Ntp182
Rp183
(dp184
g134
g135
sg136
F-15.82631420162187
sg137
F1.0
sg15
I663
sg138
g139
sbsI23
g0
(g130
g2
Ntp185
Rp186
(dp187
g134
g135
sg136
F-2.3089796893329115
sg137
F1.0
sg15
I23
sg138
g139
sbsI794
g0
(g130
g2
Ntp188
Rp189
(dp190
g134
S'relu'
p191
sg136
F9.978102084657984
sg137
F1.0
sg15
I794
sg138
g139
sbsI735
g0
(g130
g2
Ntp192
Rp193
(dp194
g134
g135
sg136
F-1.4678789208275778
sg137
F1.0
sg15
I735
sg138
g139
sbssg15
I137
sS'fitness'
p195
Nsb.