ccopy_reg
_reconstructor
p0
(cneat.genome
DefaultGenome
p1
c__builtin__
object
p2
Ntp3
Rp4
(dp5
S'connections'
p6
(dp7
(I-8
I327
tp8
g0
(cneat.genes
DefaultConnectionGene
p9
g2
Ntp10
Rp11
(dp12
S'enabled'
p13
I01
sS'weight'
p14
F-1.5268635179683034
sS'key'
p15
g8
sbs(I-2
I328
tp16
g0
(g9
g2
Ntp17
Rp18
(dp19
g13
I00
sg14
F-1.528135354050103
sg15
g16
sbs(I328
I7
tp20
g0
(g9
g2
Ntp21
Rp22
(dp23
g13
I01
sg14
F0.6311541888195304
sg15
g20
sbs(I-5
I328
tp24
g0
(g9
g2
Ntp25
Rp26
(dp27
g13
I01
sg14
F-0.5650633374156404
sg15
g24
sbs(I327
I9
tp28
g0
(g9
g2
Ntp29
Rp30
(dp31
g13
I01
sg14
F-1.9189106148853567
sg15
g28
sbs(I327
I4
tp32
g0
(g9
g2
Ntp33
Rp34
(dp35
g13
I01
sg14
F0.40447225807065496
sg15
g32
sbs(I3
I3
tp36
g0
(g9
g2
Ntp37
Rp38
(dp39
g13
I01
sg14
F0.6770377030721568
sg15
g36
sbs(I4
I4
tp40
g0
(g9
g2
Ntp41
Rp42
(dp43
g13
I01
sg14
F0.6519850520625825
sg15
g40
sbs(I-9
I328
tp44
g0
(g9
g2
Ntp45
Rp46
(dp47
g13
I00
sg14
F-1.1873991783336533
sg15
g44
sbs(I-4
I3
tp48
g0
(g9
g2
Ntp49
Rp50
(dp51
g13
I01
sg14
F0.8801845103680982
sg15
g48
sbs(I3
I328
tp52
g0
(g9
g2
Ntp53
Rp54
(dp55
g13
I00
sg14
F0.10033992754833972
sg15
g52
sbs(I328
I8
tp56
g0
(g9
g2
Ntp57
Rp58
(dp59
g13
I00
sg14
F1.8189556359741783
sg15
g56
sbs(I2
I2
tp60
g0
(g9
g2
Ntp61
Rp62
(dp63
g13
I01
sg14
F1.947241649447807
sg15
g60
sbs(I327
I8
tp64
g0
(g9
g2
Ntp65
Rp66
(dp67
g13
I01
sg14
F0.22004850680001078
sg15
g64
sbs(I1
I1
tp68
g0
(g9
g2
Ntp69
Rp70
(dp71
g13
I01
sg14
F1.49903466569358
sg15
g68
sbs(I327
I3
tp72
g0
(g9
g2
Ntp73
Rp74
(dp75
g13
I01
sg14
F0.14288597066420128
sg15
g72
sbs(I4
I327
tp76
g0
(g9
g2
Ntp77
Rp78
(dp79
g13
I01
sg14
F-1.3215780591635147
sg15
g76
sbs(I0
I0
tp80
g0
(g9
g2
Ntp81
Rp82
(dp83
g13
I00
sg14
F-0.6245151139546825
sg15
g80
sbs(I327
I7
tp84
g0
(g9
g2
Ntp85
Rp86
(dp87
g13
I01
sg14
F-0.3662639684670892
sg15
g84
sbs(I328
I9
tp88
g0
(g9
g2
Ntp89
Rp90
(dp91
g13
I01
sg14
F-1.3027065382062193
sg15
g88
sbs(I-6
I328
tp92
g0
(g9
g2
Ntp93
Rp94
(dp95
g13
I01
sg14
F0.2879016139721452
sg15
g92
sbs(I-8
I3
tp96
g0
(g9
g2
Ntp97
Rp98
(dp99
g13
I01
sg14
F0.14984818071031214
sg15
g96
sbs(I-10
I327
tp100
g0
(g9
g2
Ntp101
Rp102
(dp103
g13
I01
sg14
F2.8194717870369246
sg15
g100
sbs(I327
I2
tp104
g0
(g9
g2
Ntp105
Rp106
(dp107
g13
I01
sg14
F-0.5700063834647504
sg15
g104
sbs(I-3
I327
tp108
g0
(g9
g2
Ntp109
Rp110
(dp111
g13
I00
sg14
F-2.5332333094981694
sg15
g108
sbs(I328
I1
tp112
g0
(g9
g2
Ntp113
Rp114
(dp115
g13
I01
sg14
F1.004602980006688
sg15
g112
sbs(I327
I6
tp116
g0
(g9
g2
Ntp117
Rp118
(dp119
g13
I00
sg14
F-2.9161365435393956
sg15
g116
sbs(I8
I8
tp120
g0
(g9
g2
Ntp121
Rp122
(dp123
g13
I00
sg14
F1.2651813342934326
sg15
g120
sbs(I-4
I327
tp124
g0
(g9
g2
Ntp125
Rp126
(dp127
g13
I01
sg14
F0.6695977383824254
sg15
g124
sbssS'nodes'
p128
(dp129
I0
g0
(cneat.genes
DefaultNodeGene
p130
g2
Ntp131
Rp132
(dp133
S'activation'
p134
S'tanh'
p135
sS'bias'
p136
F-13.46791492128978
sS'response'
p137
F1.0
sg15
I0
sS'aggregation'
p138
S'sum'
p139
sbsI1
g0
(g130
g2
Ntp140
Rp141
(dp142
g134
g135
sg136
F-15.725564252565809
sg137
F1.0
sg15
I1
sg138
g139
sbsI2
g0
(g130
g2
Ntp143
Rp144
(dp145
g134
g135
sg136
F-1.279357896941989
sg137
F1.0
sg15
I2
sg138
g139
sbsI3
g0
(g130
g2
Ntp146
Rp147
(dp148
g134
g135
sg136
F-6.569030702531936
sg137
F1.0
sg15
I3
sg138
g139
sbsI4
g0
(g130
g2
Ntp149
Rp150
(dp151
g134
g135
sg136
F-3.070294678119419
sg137
F1.0
sg15
I4
sg138
g139
sbsI5
g0
(g130
g2
Ntp152
Rp153
(dp154
g134
g135
sg136
F1.8929054950143114
sg137
F1.0
sg15
I5
sg138
g139
sbsI6
g0
(g130
g2
Ntp155
Rp156
(dp157
g134
g135
sg136
F11.283947851018791
sg137
F1.0
sg15
I6
sg138
g139
sbsI7
g0
(g130
g2
Ntp158
Rp159
(dp160
g134
g135
sg136
F-8.96217757250396
sg137
F1.0
sg15
I7
sg138
g139
sbsI8
g0
(g130
g2
Ntp161
Rp162
(dp163
g134
g135
sg136
F-0.40022452200592823
sg137
F1.0
sg15
I8
sg138
g139
sbsI9
g0
(g130
g2
Ntp164
Rp165
(dp166
g134
S'relu'
p167
sg136
F18.62699427577061
sg137
F1.0
sg15
I9
sg138
g139
sbsI327
g0
(g130
g2
Ntp168
Rp169
(dp170
g134
g135
sg136
F-3.6210817941547977
sg137
F1.0
sg15
I327
sg138
g139
sbsI328
g0
(g130
g2
Ntp171
Rp172
(dp173
g134
g135
sg136
F-3.0671222254990282
sg137
F1.0
sg15
I328
sg138
g139
sbssg15
I137
sS'fitness'
p174
Nsb.