ccopy_reg
_reconstructor
p0
(cneat.genome
DefaultGenome
p1
c__builtin__
object
p2
Ntp3
Rp4
(dp5
S'connections'
p6
(dp7
(I23
I4
tp8
g0
(cneat.genes
DefaultConnectionGene
p9
g2
Ntp10
Rp11
(dp12
S'enabled'
p13
I01
sS'weight'
p14
F-1.9340435785152807
sS'key'
p15
g8
sbs(I21
I737
tp16
g0
(g9
g2
Ntp17
Rp18
(dp19
g13
I00
sg14
F-0.108070936016835
sg15
g16
sbs(I-2
I23
tp20
g0
(g9
g2
Ntp21
Rp22
(dp23
g13
I00
sg14
F0.592483209698386
sg15
g20
sbs(I7
I7
tp24
g0
(g9
g2
Ntp25
Rp26
(dp27
g13
I01
sg14
F4.442018882783794
sg15
g24
sbs(I21
I9
tp28
g0
(g9
g2
Ntp29
Rp30
(dp31
g13
I01
sg14
F-1.5184413170887179
sg15
g28
sbs(I-7
I0
tp32
g0
(g9
g2
Ntp33
Rp34
(dp35
g13
I01
sg14
F0.24105617452624764
sg15
g32
sbs(I20
I8
tp36
g0
(g9
g2
Ntp37
Rp38
(dp39
g13
I01
sg14
F1.8213034727538728
sg15
g36
sbs(I21
I3
tp40
g0
(g9
g2
Ntp41
Rp42
(dp43
g13
I00
sg14
F-1.4140942464511013
sg15
g40
sbs(I23
I7
tp44
g0
(g9
g2
Ntp45
Rp46
(dp47
g13
I01
sg14
F-0.1546560578174167
sg15
g44
sbs(I-10
I21
tp48
g0
(g9
g2
Ntp49
Rp50
(dp51
g13
I01
sg14
F2.1089582428993765
sg15
g48
sbs(I-5
I23
tp52
g0
(g9
g2
Ntp53
Rp54
(dp55
g13
I01
sg14
F-2.090144897834965
sg15
g52
sbs(I-6
I21
tp56
g0
(g9
g2
Ntp57
Rp58
(dp59
g13
I00
sg14
F0.9987469444604252
sg15
g56
sbs(I3
I3
tp60
g0
(g9
g2
Ntp61
Rp62
(dp63
g13
I00
sg14
F-1.6494782237723338
sg15
g60
sbs(I-1
I20
tp64
g0
(g9
g2
Ntp65
Rp66
(dp67
g13
I00
sg14
F1.6895417603999463
sg15
g64
sbs(I533
I8
tp68
g0
(g9
g2
Ntp69
Rp70
(dp71
g13
I01
sg14
F1.5432695065242208
sg15
g68
sbs(I-9
I20
tp72
g0
(g9
g2
Ntp73
Rp74
(dp75
g13
I01
sg14
F1.1290584022351784
sg15
g72
sbs(I20
I9
tp76
g0
(g9
g2
Ntp77
Rp78
(dp79
g13
I01
sg14
F-0.007726445736993243
sg15
g76
sbs(I2
I2
tp80
g0
(g9
g2
Ntp81
Rp82
(dp83
g13
I00
sg14
F-2.006227996606537
sg15
g80
sbs(I21
I0
tp84
g0
(g9
g2
Ntp85
Rp86
(dp87
g13
I00
sg14
F0.5805661734607654
sg15
g84
sbs(I-3
I20
tp88
g0
(g9
g2
Ntp89
Rp90
(dp91
g13
I00
sg14
F-2.0212355752184594
sg15
g88
sbs(I21
I20
tp92
g0
(g9
g2
Ntp93
Rp94
(dp95
g13
I01
sg14
F3.0741774004110134
sg15
g92
sbs(I21
I4
tp96
g0
(g9
g2
Ntp97
Rp98
(dp99
g13
I01
sg14
F0.24061729769030535
sg15
g96
sbs(I-7
I20
tp100
g0
(g9
g2
Ntp101
Rp102
(dp103
g13
I01
sg14
F0.03505924071330635
sg15
g100
sbs(I23
I1
tp104
g0
(g9
g2
Ntp105
Rp106
(dp107
g13
I01
sg14
F-5.2175190240479505
sg15
g104
sbs(I20
I5
tp108
g0
(g9
g2
Ntp109
Rp110
(dp111
g13
I01
sg14
F-0.18316057311098366
sg15
g108
sbs(I-8
I21
tp112
g0
(g9
g2
Ntp113
Rp114
(dp115
g13
I01
sg14
F-5.564146423648589
sg15
g112
sbs(I23
I5
tp116
g0
(g9
g2
Ntp117
Rp118
(dp119
g13
I01
sg14
F0.31426289036727684
sg15
g116
sbs(I-1
I533
tp120
g0
(g9
g2
Ntp121
Rp122
(dp123
g13
I01
sg14
F1.108631964592235
sg15
g120
sbs(I20
I2
tp124
g0
(g9
g2
Ntp125
Rp126
(dp127
g13
I01
sg14
F0.04489122023886222
sg15
g124
sbs(I-1
I21
tp128
g0
(g9
g2
Ntp129
Rp130
(dp131
g13
I01
sg14
F1.0530367859303635
sg15
g128
sbs(I23
I9
tp132
g0
(g9
g2
Ntp133
Rp134
(dp135
g13
I01
sg14
F3.1231644600818247
sg15
g132
sbs(I-10
I9
tp136
g0
(g9
g2
Ntp137
Rp138
(dp139
g13
I01
sg14
F-1.070933155055638
sg15
g136
sbs(I8
I8
tp140
g0
(g9
g2
Ntp141
Rp142
(dp143
g13
I01
sg14
F0.2323214586983645
sg15
g140
sbs(I21
I7
tp144
g0
(g9
g2
Ntp145
Rp146
(dp147
g13
I00
sg14
F0.5790370709738697
sg15
g144
sbs(I-7
I23
tp148
g0
(g9
g2
Ntp149
Rp150
(dp151
g13
I01
sg14
F0.5321802918384498
sg15
g148
sbssS'nodes'
p152
(dp153
I0
g0
(cneat.genes
DefaultNodeGene
p154
g2
Ntp155
Rp156
(dp157
S'activation'
p158
S'tanh'
p159
sS'bias'
p160
F3.895935395491844
sS'response'
p161
F1.0
sg15
I0
sS'aggregation'
p162
S'sum'
p163
sbsI1
g0
(g154
g2
Ntp164
Rp165
(dp166
g158
g159
sg160
F-13.525777070670259
sg161
F1.0
sg15
I1
sg162
g163
sbsI2
g0
(g154
g2
Ntp167
Rp168
(dp169
g158
g159
sg160
F11.507449169444719
sg161
F1.0
sg15
I2
sg162
g163
sbsI3
g0
(g154
g2
Ntp170
Rp171
(dp172
g158
g159
sg160
F-1.5581335810007673
sg161
F1.0
sg15
I3
sg162
g163
sbsI4
g0
(g154
g2
Ntp173
Rp174
(dp175
g158
g159
sg160
F-10.359712317883803
sg161
F1.0
sg15
I4
sg162
g163
sbsI5
g0
(g154
g2
Ntp176
Rp177
(dp178
g158
g159
sg160
F7.4288817641234
sg161
F1.0
sg15
I5
sg162
g163
sbsI6
g0
(g154
g2
Ntp179
Rp180
(dp181
g158
g159
sg160
F-3.4501219585181992
sg161
F1.0
sg15
I6
sg162
g163
sbsI7
g0
(g154
g2
Ntp182
Rp183
(dp184
g158
g159
sg160
F-1.126219615380713
sg161
F1.0
sg15
I7
sg162
g163
sbsI8
g0
(g154
g2
Ntp185
Rp186
(dp187
g158
g159
sg160
F3.594470218585123
sg161
F1.0
sg15
I8
sg162
g163
sbsI9
g0
(g154
g2
Ntp188
Rp189
(dp190
g158
g159
sg160
F-10.063893371576752
sg161
F1.0
sg15
I9
sg162
g163
sbsI20
g0
(g154
g2
Ntp191
Rp192
(dp193
g158
g159
sg160
F-22.281533798170976
sg161
F1.0
sg15
I20
sg162
g163
sbsI21
g0
(g154
g2
Ntp194
Rp195
(dp196
g158
g159
sg160
F-5.190194131771987
sg161
F1.0
sg15
I21
sg162
g163
sbsI23
g0
(g154
g2
Ntp197
Rp198
(dp199
g158
g159
sg160
F-6.199333886587741
sg161
F1.0
sg15
I23
sg162
g163
sbsI737
g0
(g154
g2
Ntp200
Rp201
(dp202
g158
S'relu'
p203
sg160
F-1.8197211812347458
sg161
F1.0
sg15
I737
sg162
g163
sbsI533
g0
(g154
g2
Ntp204
Rp205
(dp206
g158
g159
sg160
F-2.089998534867288
sg161
F1.0
sg15
I533
sg162
g163
sbssg15
I138
sS'fitness'
p207
Nsb.