ccopy_reg
_reconstructor
p0
(cneat.genome
DefaultGenome
p1
c__builtin__
object
p2
Ntp3
Rp4
(dp5
S'connections'
p6
(dp7
(I-2
I30
tp8
g0
(cneat.genes
DefaultConnectionGene
p9
g2
Ntp10
Rp11
(dp12
S'enabled'
p13
I01
sS'weight'
p14
F-2.015495603036056
sS'key'
p15
g8
sbs(I-8
I30
tp16
g0
(g9
g2
Ntp17
Rp18
(dp19
g13
I01
sg14
F2.041108537910213
sg15
g16
sbs(I-9
I30
tp20
g0
(g9
g2
Ntp21
Rp22
(dp23
g13
I01
sg14
F-1.2929636823403823
sg15
g20
sbs(I-7
I30
tp24
g0
(g9
g2
Ntp25
Rp26
(dp27
g13
I01
sg14
F1.3339696866629278
sg15
g24
sbs(I-4
I30
tp28
g0
(g9
g2
Ntp29
Rp30
(dp31
g13
I01
sg14
F-1.1949217599894906
sg15
g28
sbs(I30
I6
tp32
g0
(g9
g2
Ntp33
Rp34
(dp35
g13
I01
sg14
F0.08210354016170736
sg15
g32
sbs(I-3
I30
tp36
g0
(g9
g2
Ntp37
Rp38
(dp39
g13
I01
sg14
F-1.7372560937221955
sg15
g36
sbs(I30
I9
tp40
g0
(g9
g2
Ntp41
Rp42
(dp43
g13
I01
sg14
F0.07939628168231522
sg15
g40
sbs(I30
I2
tp44
g0
(g9
g2
Ntp45
Rp46
(dp47
g13
I01
sg14
F0.6200488199875324
sg15
g44
sbs(I30
I8
tp48
g0
(g9
g2
Ntp49
Rp50
(dp51
g13
I01
sg14
F-2.403566575508544
sg15
g48
sbs(I-10
I30
tp52
g0
(g9
g2
Ntp53
Rp54
(dp55
g13
I01
sg14
F-1.967714653164694
sg15
g52
sbs(I30
I3
tp56
g0
(g9
g2
Ntp57
Rp58
(dp59
g13
I01
sg14
F-0.6599911159593579
sg15
g56
sbs(I-6
I30
tp60
g0
(g9
g2
Ntp61
Rp62
(dp63
g13
I01
sg14
F-0.2600811020233273
sg15
g60
sbs(I30
I5
tp64
g0
(g9
g2
Ntp65
Rp66
(dp67
g13
I01
sg14
F-0.22501009520946907
sg15
g64
sbs(I-1
I30
tp68
g0
(g9
g2
Ntp69
Rp70
(dp71
g13
I01
sg14
F-0.7724483096476835
sg15
g68
sbs(I30
I1
tp72
g0
(g9
g2
Ntp73
Rp74
(dp75
g13
I01
sg14
F-0.2992473176272914
sg15
g72
sbs(I30
I4
tp76
g0
(g9
g2
Ntp77
Rp78
(dp79
g13
I01
sg14
F-0.36053838257411347
sg15
g76
sbs(I-5
I30
tp80
g0
(g9
g2
Ntp81
Rp82
(dp83
g13
I01
sg14
F1.243540945796858
sg15
g80
sbs(I30
I7
tp84
g0
(g9
g2
Ntp85
Rp86
(dp87
g13
I01
sg14
F-1.6862479220697688
sg15
g84
sbs(I30
I0
tp88
g0
(g9
g2
Ntp89
Rp90
(dp91
g13
I01
sg14
F0.22784610543728034
sg15
g88
sbssS'nodes'
p92
(dp93
I0
g0
(cneat.genes
DefaultNodeGene
p94
g2
Ntp95
Rp96
(dp97
S'activation'
p98
S'relu'
p99
sS'bias'
p100
F-2.5956627475008323
sS'response'
p101
F1.0
sg15
I0
sS'aggregation'
p102
S'sum'
p103
sbsI1
g0
(g94
g2
Ntp104
Rp105
(dp106
g98
g99
sg100
F18.373205965575284
sg101
F1.0
sg15
I1
sg102
g103
sbsI2
g0
(g94
g2
Ntp107
Rp108
(dp109
g98
g99
sg100
F0.15869778673325005
sg101
F1.0
sg15
I2
sg102
g103
sbsI3
g0
(g94
g2
Ntp110
Rp111
(dp112
g98
g99
sg100
F12.982824817186344
sg101
F1.0
sg15
I3
sg102
g103
sbsI4
g0
(g94
g2
Ntp113
Rp114
(dp115
g98
g99
sg100
F-7.8959262285980625
sg101
F1.0
sg15
I4
sg102
g103
sbsI5
g0
(g94
g2
Ntp116
Rp117
(dp118
g98
g99
sg100
F1.3003201284237016
sg101
F1.0
sg15
I5
sg102
g103
sbsI6
g0
(g94
g2
Ntp119
Rp120
(dp121
g98
g99
sg100
F-12.808022921942253
sg101
F1.0
sg15
I6
sg102
g103
sbsI7
g0
(g94
g2
Ntp122
Rp123
(dp124
g98
g99
sg100
F-3.2451787618303145
sg101
F1.0
sg15
I7
sg102
g103
sbsI8
g0
(g94
g2
Ntp125
Rp126
(dp127
g98
g99
sg100
F-10.415584938615293
sg101
F1.0
sg15
I8
sg102
g103
sbsI9
g0
(g94
g2
Ntp128
Rp129
(dp130
g98
g99
sg100
F-2.9809572159058213
sg101
F1.0
sg15
I9
sg102
g103
sbsI30
g0
(g94
g2
Ntp131
Rp132
(dp133
g98
g99
sg100
F-6.797011260144488
sg101
F1.0
sg15
I30
sg102
g103
sbssg15
I138
sS'fitness'
p134
Nsb.