ccopy_reg
_reconstructor
p0
(cneat.genome
DefaultGenome
p1
c__builtin__
object
p2
Ntp3
Rp4
(dp5
S'connections'
p6
(dp7
(I-8
I327
tp8
g0
(cneat.genes
DefaultConnectionGene
p9
g2
Ntp10
Rp11
(dp12
S'enabled'
p13
I01
sS'weight'
p14
F-0.46189748927901964
sS'key'
p15
g8
sbs(I329
I3
tp16
g0
(g9
g2
Ntp17
Rp18
(dp19
g13
I01
sg14
F-1.4337131342470475
sg15
g16
sbs(I329
I6
tp20
g0
(g9
g2
Ntp21
Rp22
(dp23
g13
I00
sg14
F-0.5345657531010517
sg15
g20
sbs(I-7
I329
tp24
g0
(g9
g2
Ntp25
Rp26
(dp27
g13
I01
sg14
F-0.49326738790326496
sg15
g24
sbs(I327
I9
tp28
g0
(g9
g2
Ntp29
Rp30
(dp31
g13
I01
sg14
F-0.5639184780884559
sg15
g28
sbs(I549
I9
tp32
g0
(g9
g2
Ntp33
Rp34
(dp35
g13
I01
sg14
F-0.5754314636164821
sg15
g32
sbs(I3
I3
tp36
g0
(g9
g2
Ntp37
Rp38
(dp39
g13
I00
sg14
F0.0873998929580774
sg15
g36
sbs(I-3
I329
tp40
g0
(g9
g2
Ntp41
Rp42
(dp43
g13
I01
sg14
F-0.47073826926910733
sg15
g40
sbs(I4
I4
tp44
g0
(g9
g2
Ntp45
Rp46
(dp47
g13
I01
sg14
F0.43453776074788597
sg15
g44
sbs(I329
I9
tp48
g0
(g9
g2
Ntp49
Rp50
(dp51
g13
I01
sg14
F0.08898279606155442
sg15
g48
sbs(I-4
I3
tp52
g0
(g9
g2
Ntp53
Rp54
(dp55
g13
I01
sg14
F1.6312820884220542
sg15
g52
sbs(I327
I4
tp56
g0
(g9
g2
Ntp57
Rp58
(dp59
g13
I01
sg14
F0.8639669633171767
sg15
g56
sbs(I2
I2
tp60
g0
(g9
g2
Ntp61
Rp62
(dp63
g13
I01
sg14
F0.8339745654341787
sg15
g60
sbs(I327
I8
tp64
g0
(g9
g2
Ntp65
Rp66
(dp67
g13
I01
sg14
F0.3955237779216064
sg15
g64
sbs(I1
I1
tp68
g0
(g9
g2
Ntp69
Rp70
(dp71
g13
I01
sg14
F1.1450027080745928
sg15
g68
sbs(I-8
I329
tp72
g0
(g9
g2
Ntp73
Rp74
(dp75
g13
I01
sg14
F-1.527724119064997
sg15
g72
sbs(I327
I3
tp76
g0
(g9
g2
Ntp77
Rp78
(dp79
g13
I01
sg14
F1.3632588752511494
sg15
g76
sbs(I0
I0
tp80
g0
(g9
g2
Ntp81
Rp82
(dp83
g13
I00
sg14
F-1.1050372291770632
sg15
g80
sbs(I-4
I329
tp84
g0
(g9
g2
Ntp85
Rp86
(dp87
g13
I01
sg14
F0.9859458008990682
sg15
g84
sbs(I327
I7
tp88
g0
(g9
g2
Ntp89
Rp90
(dp91
g13
I01
sg14
F1.2879900238101922
sg15
g88
sbs(I-10
I327
tp92
g0
(g9
g2
Ntp93
Rp94
(dp95
g13
I01
sg14
F2.3457136008452926
sg15
g92
sbs(I327
I2
tp96
g0
(g9
g2
Ntp97
Rp98
(dp99
g13
I01
sg14
F0.26230117596951813
sg15
g96
sbs(I329
I0
tp100
g0
(g9
g2
Ntp101
Rp102
(dp103
g13
I01
sg14
F0.827557360339171
sg15
g100
sbs(I-3
I327
tp104
g0
(g9
g2
Ntp105
Rp106
(dp107
g13
I00
sg14
F-3.626331533514991
sg15
g104
sbs(I6
I327
tp108
g0
(g9
g2
Ntp109
Rp110
(dp111
g13
I01
sg14
F-0.9948949445270301
sg15
g108
sbs(I327
I6
tp112
g0
(g9
g2
Ntp113
Rp114
(dp115
g13
I00
sg14
F-3.0992526108513743
sg15
g112
sbs(I8
I8
tp116
g0
(g9
g2
Ntp117
Rp118
(dp119
g13
I00
sg14
F0.21603378490938469
sg15
g116
sbs(I-4
I327
tp120
g0
(g9
g2
Ntp121
Rp122
(dp123
g13
I01
sg14
F-0.7343826278112633
sg15
g120
sbs(I-5
I329
tp124
g0
(g9
g2
Ntp125
Rp126
(dp127
g13
I01
sg14
F-1.9030524959843118
sg15
g124
sbssS'nodes'
p128
(dp129
I0
g0
(cneat.genes
DefaultNodeGene
p130
g2
Ntp131
Rp132
(dp133
S'activation'
p134
S'tanh'
p135
sS'bias'
p136
F6.87634668460325
sS'response'
p137
F1.0
sg15
I0
sS'aggregation'
p138
S'sum'
p139
sbsI1
g0
(g130
g2
Ntp140
Rp141
(dp142
g134
g135
sg136
F-17.056551753507485
sg137
F1.0
sg15
I1
sg138
g139
sbsI2
g0
(g130
g2
Ntp143
Rp144
(dp145
g134
g135
sg136
F-1.4230320802422352
sg137
F1.0
sg15
I2
sg138
g139
sbsI3
g0
(g130
g2
Ntp146
Rp147
(dp148
g134
g135
sg136
F-7.165649894656581
sg137
F1.0
sg15
I3
sg138
g139
sbsI4
g0
(g130
g2
Ntp149
Rp150
(dp151
g134
g135
sg136
F3.8093085150139454
sg137
F1.0
sg15
I4
sg138
g139
sbsI5
g0
(g130
g2
Ntp152
Rp153
(dp154
g134
g135
sg136
F2.93256451750449
sg137
F1.0
sg15
I5
sg138
g139
sbsI6
g0
(g130
g2
Ntp155
Rp156
(dp157
g134
g135
sg136
F10.569735764992133
sg137
F1.0
sg15
I6
sg138
g139
sbsI7
g0
(g130
g2
Ntp158
Rp159
(dp160
g134
g135
sg136
F-8.71445300726451
sg137
F1.0
sg15
I7
sg138
g139
sbsI8
g0
(g130
g2
Ntp161
Rp162
(dp163
g134
g135
sg136
F-1.266636203188312
sg137
F1.0
sg15
I8
sg138
g139
sbsI9
g0
(g130
g2
Ntp164
Rp165
(dp166
g134
S'relu'
p167
sg136
F19.068858030794786
sg137
F1.0
sg15
I9
sg138
g139
sbsI327
g0
(g130
g2
Ntp168
Rp169
(dp170
g134
g135
sg136
F-3.491631917467884
sg137
F1.0
sg15
I327
sg138
g139
sbsI329
g0
(g130
g2
Ntp171
Rp172
(dp173
g134
g135
sg136
F14.997187994897445
sg137
F1.0
sg15
I329
sg138
g139
sbsI549
g0
(g130
g2
Ntp174
Rp175
(dp176
g134
g167
sg136
F19.456014262475684
sg137
F1.0
sg15
I549
sg138
g139
sbssg15
I138
sS'fitness'
p177
Nsb.