ccopy_reg
_reconstructor
p0
(cneat.genome
DefaultGenome
p1
c__builtin__
object
p2
Ntp3
Rp4
(dp5
S'connections'
p6
(dp7
(I23
I4
tp8
g0
(cneat.genes
DefaultConnectionGene
p9
g2
Ntp10
Rp11
(dp12
S'enabled'
p13
I01
sS'weight'
p14
F-0.7877669400079108
sS'key'
p15
g8
sbs(I24
I8
tp16
g0
(g9
g2
Ntp17
Rp18
(dp19
g13
I00
sg14
F-0.6995730503717681
sg15
g16
sbs(I21
I737
tp20
g0
(g9
g2
Ntp21
Rp22
(dp23
g13
I01
sg14
F1.0594166329774943
sg15
g20
sbs(I23
I1
tp24
g0
(g9
g2
Ntp25
Rp26
(dp27
g13
I01
sg14
F-1.5269525245569013
sg15
g24
sbs(I-2
I23
tp28
g0
(g9
g2
Ntp29
Rp30
(dp31
g13
I00
sg14
F-0.8408418204936946
sg15
g28
sbs(I7
I7
tp32
g0
(g9
g2
Ntp33
Rp34
(dp35
g13
I01
sg14
F4.560355657699817
sg15
g32
sbs(I24
I4
tp36
g0
(g9
g2
Ntp37
Rp38
(dp39
g13
I01
sg14
F-0.46838788833512024
sg15
g36
sbs(I23
I3
tp40
g0
(g9
g2
Ntp41
Rp42
(dp43
g13
I01
sg14
F1.598482988999748
sg15
g40
sbs(I-7
I0
tp44
g0
(g9
g2
Ntp45
Rp46
(dp47
g13
I01
sg14
F0.35226468409557216
sg15
g44
sbs(I24
I0
tp48
g0
(g9
g2
Ntp49
Rp50
(dp51
g13
I00
sg14
F-3.481749163338179
sg15
g48
sbs(I23
I7
tp52
g0
(g9
g2
Ntp53
Rp54
(dp55
g13
I01
sg14
F1.0949026063966563
sg15
g52
sbs(I-10
I21
tp56
g0
(g9
g2
Ntp57
Rp58
(dp59
g13
I01
sg14
F2.0546002919723296
sg15
g56
sbs(I24
I9
tp60
g0
(g9
g2
Ntp61
Rp62
(dp63
g13
I01
sg14
F-0.21033879974050623
sg15
g60
sbs(I-5
I23
tp64
g0
(g9
g2
Ntp65
Rp66
(dp67
g13
I01
sg14
F0.6062570201848589
sg15
g64
sbs(I-6
I21
tp68
g0
(g9
g2
Ntp69
Rp70
(dp71
g13
I01
sg14
F0.7312156765210082
sg15
g68
sbs(I3
I3
tp72
g0
(g9
g2
Ntp73
Rp74
(dp75
g13
I00
sg14
F-1.4566484038535008
sg15
g72
sbs(I-5
I24
tp76
g0
(g9
g2
Ntp77
Rp78
(dp79
g13
I01
sg14
F0.6662454060197991
sg15
g76
sbs(I24
I3
tp80
g0
(g9
g2
Ntp81
Rp82
(dp83
g13
I01
sg14
F2.3427831970331674
sg15
g80
sbs(I533
I8
tp84
g0
(g9
g2
Ntp85
Rp86
(dp87
g13
I01
sg14
F1.6770543896227466
sg15
g84
sbs(I-8
I24
tp88
g0
(g9
g2
Ntp89
Rp90
(dp91
g13
I01
sg14
F0.29229351959864946
sg15
g88
sbs(I2
I2
tp92
g0
(g9
g2
Ntp93
Rp94
(dp95
g13
I00
sg14
F-2.3781415012732814
sg15
g92
sbs(I24
I1
tp96
g0
(g9
g2
Ntp97
Rp98
(dp99
g13
I01
sg14
F-1.577470078194532
sg15
g96
sbs(I-9
I24
tp100
g0
(g9
g2
Ntp101
Rp102
(dp103
g13
I00
sg14
F0.6579867332639253
sg15
g100
sbs(I-1
I21
tp104
g0
(g9
g2
Ntp105
Rp106
(dp107
g13
I01
sg14
F-1.2366377716364205
sg15
g104
sbs(I23
I9
tp108
g0
(g9
g2
Ntp109
Rp110
(dp111
g13
I00
sg14
F3.1762098242190953
sg15
g108
sbs(I21
I4
tp112
g0
(g9
g2
Ntp113
Rp114
(dp115
g13
I01
sg14
F1.5646538324400634
sg15
g112
sbs(I24
I2
tp116
g0
(g9
g2
Ntp117
Rp118
(dp119
g13
I01
sg14
F2.431970259581355
sg15
g116
sbs(I737
I7
tp120
g0
(g9
g2
Ntp121
Rp122
(dp123
g13
I01
sg14
F-1.7416273409517296
sg15
g120
sbs(I21
I0
tp124
g0
(g9
g2
Ntp125
Rp126
(dp127
g13
I00
sg14
F-0.2553143629405447
sg15
g124
sbs(I-8
I21
tp128
g0
(g9
g2
Ntp129
Rp130
(dp131
g13
I01
sg14
F-4.786667896878093
sg15
g128
sbs(I-6
I24
tp132
g0
(g9
g2
Ntp133
Rp134
(dp135
g13
I01
sg14
F0.1272971201885381
sg15
g132
sbs(I23
I5
tp136
g0
(g9
g2
Ntp137
Rp138
(dp139
g13
I01
sg14
F-0.45683173833119717
sg15
g136
sbs(I-1
I533
tp140
g0
(g9
g2
Ntp141
Rp142
(dp143
g13
I01
sg14
F0.5358493549134685
sg15
g140
sbs(I24
I7
tp144
g0
(g9
g2
Ntp145
Rp146
(dp147
g13
I01
sg14
F-0.9206156178897532
sg15
g144
sbs(I21
I9
tp148
g0
(g9
g2
Ntp149
Rp150
(dp151
g13
I01
sg14
F-1.2035500612650143
sg15
g148
sbs(I21
I3
tp152
g0
(g9
g2
Ntp153
Rp154
(dp155
g13
I00
sg14
F-0.7598971690008787
sg15
g152
sbs(I-10
I9
tp156
g0
(g9
g2
Ntp157
Rp158
(dp159
g13
I01
sg14
F1.150660008630196
sg15
g156
sbs(I8
I8
tp160
g0
(g9
g2
Ntp161
Rp162
(dp163
g13
I01
sg14
F-0.046847817184545844
sg15
g160
sbs(I21
I7
tp164
g0
(g9
g2
Ntp165
Rp166
(dp167
g13
I00
sg14
F-0.3277179663618311
sg15
g164
sbs(I-7
I23
tp168
g0
(g9
g2
Ntp169
Rp170
(dp171
g13
I00
sg14
F0.7580584904141632
sg15
g168
sbssS'nodes'
p172
(dp173
I0
g0
(cneat.genes
DefaultNodeGene
p174
g2
Ntp175
Rp176
(dp177
S'activation'
p178
S'tanh'
p179
sS'bias'
p180
F4.2557010856448905
sS'response'
p181
F1.0
sg15
I0
sS'aggregation'
p182
S'sum'
p183
sbsI1
g0
(g174
g2
Ntp184
Rp185
(dp186
g178
g179
sg180
F-15.662923095559439
sg181
F1.0
sg15
I1
sg182
g183
sbsI2
g0
(g174
g2
Ntp187
Rp188
(dp189
g178
g179
sg180
F14.513738286456846
sg181
F1.0
sg15
I2
sg182
g183
sbsI3
g0
(g174
g2
Ntp190
Rp191
(dp192
g178
g179
sg180
F14.887003577511695
sg181
F1.0
sg15
I3
sg182
g183
sbsI4
g0
(g174
g2
Ntp193
Rp194
(dp195
g178
g179
sg180
F-8.49699355369851
sg181
F1.0
sg15
I4
sg182
g183
sbsI5
g0
(g174
g2
Ntp196
Rp197
(dp198
g178
g179
sg180
F6.528852132807
sg181
F1.0
sg15
I5
sg182
g183
sbsI6
g0
(g174
g2
Ntp199
Rp200
(dp201
g178
g179
sg180
F-4.528213927095655
sg181
F1.0
sg15
I6
sg182
g183
sbsI7
g0
(g174
g2
Ntp202
Rp203
(dp204
g178
g179
sg180
F-3.218985065907427
sg181
F1.0
sg15
I7
sg182
g183
sbsI8
g0
(g174
g2
Ntp205
Rp206
(dp207
g178
g179
sg180
F4.037932491450726
sg181
F1.0
sg15
I8
sg182
g183
sbsI9
g0
(g174
g2
Ntp208
Rp209
(dp210
g178
g179
sg180
F1.891466726050227
sg181
F1.0
sg15
I9
sg182
g183
sbsI21
g0
(g174
g2
Ntp211
Rp212
(dp213
g178
g179
sg180
F-14.81635497608558
sg181
F1.0
sg15
I21
sg182
g183
sbsI23
g0
(g174
g2
Ntp214
Rp215
(dp216
g178
g179
sg180
F-5.179666054556349
sg181
F1.0
sg15
I23
sg182
g183
sbsI24
g0
(g174
g2
Ntp217
Rp218
(dp219
g178
g179
sg180
F2.5340721849411443
sg181
F1.0
sg15
I24
sg182
g183
sbsI737
g0
(g174
g2
Ntp220
Rp221
(dp222
g178
S'relu'
p223
sg180
F1.4493271659525229
sg181
F1.0
sg15
I737
sg182
g183
sbsI533
g0
(g174
g2
Ntp224
Rp225
(dp226
g178
g179
sg180
F-2.211460392496413
sg181
F1.0
sg15
I533
sg182
g183
sbssg15
I139
sS'fitness'
p227
Nsb.