ccopy_reg
_reconstructor
p0
(cneat.genome
DefaultGenome
p1
c__builtin__
object
p2
Ntp3
Rp4
(dp5
S'connections'
p6
(dp7
(I-2
I11
tp8
g0
(cneat.genes
DefaultConnectionGene
p9
g2
Ntp10
Rp11
(dp12
S'enabled'
p13
I01
sS'weight'
p14
F1.2850707884758474
sS'key'
p15
g8
sbs(I-7
I9
tp16
g0
(g9
g2
Ntp17
Rp18
(dp19
g13
I01
sg14
F1.6849369340936122
sg15
g16
sbs(I-7
I11
tp20
g0
(g9
g2
Ntp21
Rp22
(dp23
g13
I01
sg14
F0.682487755646211
sg15
g20
sbs(I11
I4
tp24
g0
(g9
g2
Ntp25
Rp26
(dp27
g13
I01
sg14
F0.762468769242774
sg15
g24
sbs(I-4
I11
tp28
g0
(g9
g2
Ntp29
Rp30
(dp31
g13
I01
sg14
F-0.3546539285238417
sg15
g28
sbs(I11
I5
tp32
g0
(g9
g2
Ntp33
Rp34
(dp35
g13
I01
sg14
F-0.7306438119791241
sg15
g32
sbs(I11
I8
tp36
g0
(g9
g2
Ntp37
Rp38
(dp39
g13
I01
sg14
F0.41566062669784576
sg15
g36
sbs(I-9
I11
tp40
g0
(g9
g2
Ntp41
Rp42
(dp43
g13
I01
sg14
F1.41516330541998
sg15
g40
sbs(I11
I2
tp44
g0
(g9
g2
Ntp45
Rp46
(dp47
g13
I01
sg14
F0.7348408229859673
sg15
g44
sbs(I11
I9
tp48
g0
(g9
g2
Ntp49
Rp50
(dp51
g13
I01
sg14
F0.47296694389671073
sg15
g48
sbs(I11
I3
tp52
g0
(g9
g2
Ntp53
Rp54
(dp55
g13
I01
sg14
F-1.5169902974737892
sg15
g52
sbs(I-3
I11
tp56
g0
(g9
g2
Ntp57
Rp58
(dp59
g13
I01
sg14
F0.5125987212373075
sg15
g56
sbs(I-1
I11
tp60
g0
(g9
g2
Ntp61
Rp62
(dp63
g13
I01
sg14
F-1.1427770793565826
sg15
g60
sbs(I11
I1
tp64
g0
(g9
g2
Ntp65
Rp66
(dp67
g13
I01
sg14
F-1.395737088996237
sg15
g64
sbs(I-6
I11
tp68
g0
(g9
g2
Ntp69
Rp70
(dp71
g13
I01
sg14
F-1.263110982963818
sg15
g68
sbs(I-5
I11
tp72
g0
(g9
g2
Ntp73
Rp74
(dp75
g13
I01
sg14
F-3.078466853798626
sg15
g72
sbs(I-10
I11
tp76
g0
(g9
g2
Ntp77
Rp78
(dp79
g13
I01
sg14
F0.05695651235757203
sg15
g76
sbs(I-8
I11
tp80
g0
(g9
g2
Ntp81
Rp82
(dp83
g13
I01
sg14
F0.3003575706614424
sg15
g80
sbs(I11
I0
tp84
g0
(g9
g2
Ntp85
Rp86
(dp87
g13
I01
sg14
F1.9759256635374847
sg15
g84
sbs(I11
I6
tp88
g0
(g9
g2
Ntp89
Rp90
(dp91
g13
I01
sg14
F1.617406518683594
sg15
g88
sbs(I11
I7
tp92
g0
(g9
g2
Ntp93
Rp94
(dp95
g13
I01
sg14
F-0.8667097515067965
sg15
g92
sbssS'nodes'
p96
(dp97
I0
g0
(cneat.genes
DefaultNodeGene
p98
g2
Ntp99
Rp100
(dp101
S'activation'
p102
S'relu'
p103
sS'bias'
p104
F7.2507662319273
sS'response'
p105
F1.0
sg15
I0
sS'aggregation'
p106
S'sum'
p107
sbsI1
g0
(g98
g2
Ntp108
Rp109
(dp110
g102
g103
sg104
F13.866606485936238
sg105
F1.0
sg15
I1
sg106
g107
sbsI2
g0
(g98
g2
Ntp111
Rp112
(dp113
g102
g103
sg104
F-16.418512261256694
sg105
F1.0
sg15
I2
sg106
g107
sbsI3
g0
(g98
g2
Ntp114
Rp115
(dp116
g102
g103
sg104
F1.0902263581157012
sg105
F1.0
sg15
I3
sg106
g107
sbsI4
g0
(g98
g2
Ntp117
Rp118
(dp119
g102
g103
sg104
F-0.08860456583142387
sg105
F1.0
sg15
I4
sg106
g107
sbsI5
g0
(g98
g2
Ntp120
Rp121
(dp122
g102
g103
sg104
F-7.479777734239226
sg105
F1.0
sg15
I5
sg106
g107
sbsI6
g0
(g98
g2
Ntp123
Rp124
(dp125
g102
g103
sg104
F-4.8120023431748065
sg105
F1.0
sg15
I6
sg106
g107
sbsI7
g0
(g98
g2
Ntp126
Rp127
(dp128
g102
g103
sg104
F-21.496762589637036
sg105
F1.0
sg15
I7
sg106
g107
sbsI8
g0
(g98
g2
Ntp129
Rp130
(dp131
g102
g103
sg104
F-0.6185578593473502
sg105
F1.0
sg15
I8
sg106
g107
sbsI9
g0
(g98
g2
Ntp132
Rp133
(dp134
g102
g103
sg104
F-9.02290455380601
sg105
F1.0
sg15
I9
sg106
g107
sbsI11
g0
(g98
g2
Ntp135
Rp136
(dp137
g102
g103
sg104
F8.128624791101402
sg105
F1.0
sg15
I11
sg106
g107
sbssg15
I139
sS'fitness'
p138
Nsb.