ccopy_reg
_reconstructor
p0
(cneat.genome
DefaultGenome
p1
c__builtin__
object
p2
Ntp3
Rp4
(dp5
S'connections'
p6
(dp7
(I-8
I327
tp8
g0
(cneat.genes
DefaultConnectionGene
p9
g2
Ntp10
Rp11
(dp12
S'enabled'
p13
I01
sS'weight'
p14
F-0.8630600027495585
sS'key'
p15
g8
sbs(I329
I3
tp16
g0
(g9
g2
Ntp17
Rp18
(dp19
g13
I01
sg14
F-1.464411753967681
sg15
g16
sbs(I328
I7
tp20
g0
(g9
g2
Ntp21
Rp22
(dp23
g13
I01
sg14
F0.3692720943663821
sg15
g20
sbs(I-5
I328
tp24
g0
(g9
g2
Ntp25
Rp26
(dp27
g13
I01
sg14
F0.19779112732798199
sg15
g24
sbs(I329
I6
tp28
g0
(g9
g2
Ntp29
Rp30
(dp31
g13
I00
sg14
F-0.1443854360883539
sg15
g28
sbs(I-7
I329
tp32
g0
(g9
g2
Ntp33
Rp34
(dp35
g13
I01
sg14
F1.318466155411803
sg15
g32
sbs(I327
I9
tp36
g0
(g9
g2
Ntp37
Rp38
(dp39
g13
I01
sg14
F-0.25712207963528
sg15
g36
sbs(I327
I4
tp40
g0
(g9
g2
Ntp41
Rp42
(dp43
g13
I01
sg14
F1.608200007793402
sg15
g40
sbs(I3
I3
tp44
g0
(g9
g2
Ntp45
Rp46
(dp47
g13
I01
sg14
F-0.4375526524338857
sg15
g44
sbs(I-3
I329
tp48
g0
(g9
g2
Ntp49
Rp50
(dp51
g13
I00
sg14
F-0.1497769399258221
sg15
g48
sbs(I4
I4
tp52
g0
(g9
g2
Ntp53
Rp54
(dp55
g13
I01
sg14
F0.3774044151497292
sg15
g52
sbs(I-9
I328
tp56
g0
(g9
g2
Ntp57
Rp58
(dp59
g13
I00
sg14
F-0.4005589964289138
sg15
g56
sbs(I329
I9
tp60
g0
(g9
g2
Ntp61
Rp62
(dp63
g13
I01
sg14
F-0.04322260305235433
sg15
g60
sbs(I-4
I3
tp64
g0
(g9
g2
Ntp65
Rp66
(dp67
g13
I01
sg14
F1.4405752106053373
sg15
g64
sbs(I3
I328
tp68
g0
(g9
g2
Ntp69
Rp70
(dp71
g13
I00
sg14
F-1.214648311931041
sg15
g68
sbs(I328
I8
tp72
g0
(g9
g2
Ntp73
Rp74
(dp75
g13
I00
sg14
F1.6516144296141357
sg15
g72
sbs(I2
I2
tp76
g0
(g9
g2
Ntp77
Rp78
(dp79
g13
I01
sg14
F1.0584170975782679
sg15
g76
sbs(I327
I8
tp80
g0
(g9
g2
Ntp81
Rp82
(dp83
g13
I01
sg14
F0.9557948554501485
sg15
g80
sbs(I1
I1
tp84
g0
(g9
g2
Ntp85
Rp86
(dp87
g13
I01
sg14
F2.1337506266495794
sg15
g84
sbs(I-8
I329
tp88
g0
(g9
g2
Ntp89
Rp90
(dp91
g13
I01
sg14
F-0.753375336730118
sg15
g88
sbs(I327
I3
tp92
g0
(g9
g2
Ntp93
Rp94
(dp95
g13
I01
sg14
F0.6353894991750721
sg15
g92
sbs(I4
I327
tp96
g0
(g9
g2
Ntp97
Rp98
(dp99
g13
I01
sg14
F-0.5406016751969502
sg15
g96
sbs(I0
I0
tp100
g0
(g9
g2
Ntp101
Rp102
(dp103
g13
I00
sg14
F-1.101614279830013
sg15
g100
sbs(I-4
I329
tp104
g0
(g9
g2
Ntp105
Rp106
(dp107
g13
I01
sg14
F0.11204891946069453
sg15
g104
sbs(I327
I7
tp108
g0
(g9
g2
Ntp109
Rp110
(dp111
g13
I01
sg14
F-0.2995656092955748
sg15
g108
sbs(I328
I9
tp112
g0
(g9
g2
Ntp113
Rp114
(dp115
g13
I01
sg14
F-1.1284565566898308
sg15
g112
sbs(I-6
I328
tp116
g0
(g9
g2
Ntp117
Rp118
(dp119
g13
I01
sg14
F0.6240512093859254
sg15
g116
sbs(I-10
I327
tp120
g0
(g9
g2
Ntp121
Rp122
(dp123
g13
I01
sg14
F1.9332108855057963
sg15
g120
sbs(I328
I5
tp124
g0
(g9
g2
Ntp125
Rp126
(dp127
g13
I01
sg14
F-0.05971095831104245
sg15
g124
sbs(I327
I2
tp128
g0
(g9
g2
Ntp129
Rp130
(dp131
g13
I01
sg14
F1.7955203192812443
sg15
g128
sbs(I329
I0
tp132
g0
(g9
g2
Ntp133
Rp134
(dp135
g13
I01
sg14
F0.8139657569383534
sg15
g132
sbs(I-3
I327
tp136
g0
(g9
g2
Ntp137
Rp138
(dp139
g13
I00
sg14
F2.056457679495892
sg15
g136
sbs(I328
I1
tp140
g0
(g9
g2
Ntp141
Rp142
(dp143
g13
I01
sg14
F0.21817022085163665
sg15
g140
sbs(I327
I6
tp144
g0
(g9
g2
Ntp145
Rp146
(dp147
g13
I00
sg14
F-0.3587087585170456
sg15
g144
sbs(I8
I8
tp148
g0
(g9
g2
Ntp149
Rp150
(dp151
g13
I00
sg14
F1.4255981563629987
sg15
g148
sbs(I-4
I327
tp152
g0
(g9
g2
Ntp153
Rp154
(dp155
g13
I01
sg14
F0.10979000855496479
sg15
g152
sbs(I-5
I329
tp156
g0
(g9
g2
Ntp157
Rp158
(dp159
g13
I01
sg14
F2.0932466410492045
sg15
g156
sbssS'nodes'
p160
(dp161
I0
g0
(cneat.genes
DefaultNodeGene
p162
g2
Ntp163
Rp164
(dp165
S'activation'
p166
S'tanh'
p167
sS'bias'
p168
F3.6805217444801843
sS'response'
p169
F1.0
sg15
I0
sS'aggregation'
p170
S'sum'
p171
sbsI1
g0
(g162
g2
Ntp172
Rp173
(dp174
g166
g167
sg168
F-16.0913983874486
sg169
F1.0
sg15
I1
sg170
g171
sbsI2
g0
(g162
g2
Ntp175
Rp176
(dp177
g166
g167
sg168
F-0.5603429811923866
sg169
F1.0
sg15
I2
sg170
g171
sbsI3
g0
(g162
g2
Ntp178
Rp179
(dp180
g166
g167
sg168
F-6.153060239267251
sg169
F1.0
sg15
I3
sg170
g171
sbsI4
g0
(g162
g2
Ntp181
Rp182
(dp183
g166
g167
sg168
F3.590133443285554
sg169
F1.0
sg15
I4
sg170
g171
sbsI5
g0
(g162
g2
Ntp184
Rp185
(dp186
g166
g167
sg168
F1.0896673283261997
sg169
F1.0
sg15
I5
sg170
g171
sbsI6
g0
(g162
g2
Ntp187
Rp188
(dp189
g166
g167
sg168
F11.173002468250457
sg169
F1.0
sg15
I6
sg170
g171
sbsI7
g0
(g162
g2
Ntp190
Rp191
(dp192
g166
g167
sg168
F-9.799181010003625
sg169
F1.0
sg15
I7
sg170
g171
sbsI8
g0
(g162
g2
Ntp193
Rp194
(dp195
g166
g167
sg168
F27.45277690259311
sg169
F1.0
sg15
I8
sg170
g171
sbsI9
g0
(g162
g2
Ntp196
Rp197
(dp198
g166
S'relu'
p199
sg168
F18.965030256860818
sg169
F1.0
sg15
I9
sg170
g171
sbsI327
g0
(g162
g2
Ntp200
Rp201
(dp202
g166
g167
sg168
F-4.511207840692586
sg169
F1.0
sg15
I327
sg170
g171
sbsI328
g0
(g162
g2
Ntp203
Rp204
(dp205
g166
g167
sg168
F-4.810929952067673
sg169
F1.0
sg15
I328
sg170
g171
sbsI329
g0
(g162
g2
Ntp206
Rp207
(dp208
g166
g167
sg168
F16.631510995697983
sg169
F1.0
sg15
I329
sg170
g171
sbssg15
I139
sS'fitness'
p209
F-0.0023505763823494785
sb.