ccopy_reg
_reconstructor
p0
(cneat.genome
DefaultGenome
p1
c__builtin__
object
p2
Ntp3
Rp4
(dp5
S'connections'
p6
(dp7
(I-14
I23
tp8
g0
(cneat.genes
DefaultConnectionGene
p9
g2
Ntp10
Rp11
(dp12
S'enabled'
p13
I01
sS'weight'
p14
F-0.37422178305046144
sS'key'
p15
g8
sbs(I23
I4
tp16
g0
(g9
g2
Ntp17
Rp18
(dp19
g13
I01
sg14
F-1.0599259930171803
sg15
g16
sbs(I-17
I23
tp20
g0
(g9
g2
Ntp21
Rp22
(dp23
g13
I01
sg14
F0.6266888893643682
sg15
g20
sbs(I-4
I23
tp24
g0
(g9
g2
Ntp25
Rp26
(dp27
g13
I01
sg14
F-2.433917645859105
sg15
g24
sbs(I-1
I23
tp28
g0
(g9
g2
Ntp29
Rp30
(dp31
g13
I01
sg14
F-0.7983560497491162
sg15
g28
sbs(I23
I3
tp32
g0
(g9
g2
Ntp33
Rp34
(dp35
g13
I01
sg14
F-2.8482703759287396
sg15
g32
sbs(I23
I2
tp36
g0
(g9
g2
Ntp37
Rp38
(dp39
g13
I01
sg14
F-1.0892174292637264
sg15
g36
sbs(I-8
I23
tp40
g0
(g9
g2
Ntp41
Rp42
(dp43
g13
I01
sg14
F-1.0246111429399438
sg15
g40
sbs(I-15
I23
tp44
g0
(g9
g2
Ntp45
Rp46
(dp47
g13
I01
sg14
F-0.5001293752347454
sg15
g44
sbs(I-18
I23
tp48
g0
(g9
g2
Ntp49
Rp50
(dp51
g13
I01
sg14
F1.0331770549228436
sg15
g48
sbs(I23
I7
tp52
g0
(g9
g2
Ntp53
Rp54
(dp55
g13
I01
sg14
F-0.7160651814551244
sg15
g52
sbs(I-5
I23
tp56
g0
(g9
g2
Ntp57
Rp58
(dp59
g13
I01
sg14
F0.530975062216064
sg15
g56
sbs(I-11
I23
tp60
g0
(g9
g2
Ntp61
Rp62
(dp63
g13
I01
sg14
F-0.8527270015889508
sg15
g60
sbs(I-16
I23
tp64
g0
(g9
g2
Ntp65
Rp66
(dp67
g13
I01
sg14
F-2.4585584051763423
sg15
g64
sbs(I23
I6
tp68
g0
(g9
g2
Ntp69
Rp70
(dp71
g13
I01
sg14
F-0.684164869974621
sg15
g68
sbs(I-12
I23
tp72
g0
(g9
g2
Ntp73
Rp74
(dp75
g13
I01
sg14
F-0.8316616958870489
sg15
g72
sbs(I-19
I23
tp76
g0
(g9
g2
Ntp77
Rp78
(dp79
g13
I01
sg14
F-1.5244981146756387
sg15
g76
sbs(I-2
I23
tp80
g0
(g9
g2
Ntp81
Rp82
(dp83
g13
I01
sg14
F0.6023730320484445
sg15
g80
sbs(I-9
I23
tp84
g0
(g9
g2
Ntp85
Rp86
(dp87
g13
I01
sg14
F1.2889887210818598
sg15
g84
sbs(I23
I8
tp88
g0
(g9
g2
Ntp89
Rp90
(dp91
g13
I01
sg14
F0.7751789622084942
sg15
g88
sbs(I23
I1
tp92
g0
(g9
g2
Ntp93
Rp94
(dp95
g13
I01
sg14
F-2.11659518749207
sg15
g92
sbs(I-13
I23
tp96
g0
(g9
g2
Ntp97
Rp98
(dp99
g13
I01
sg14
F-0.8043859500874289
sg15
g96
sbs(I-20
I23
tp100
g0
(g9
g2
Ntp101
Rp102
(dp103
g13
I01
sg14
F0.4334998584613961
sg15
g100
sbs(I23
I5
tp104
g0
(g9
g2
Ntp105
Rp106
(dp107
g13
I01
sg14
F-0.35215478122237515
sg15
g104
sbs(I-10
I23
tp108
g0
(g9
g2
Ntp109
Rp110
(dp111
g13
I01
sg14
F-0.6194303236106483
sg15
g108
sbs(I-6
I23
tp112
g0
(g9
g2
Ntp113
Rp114
(dp115
g13
I01
sg14
F-0.881735724586496
sg15
g112
sbs(I23
I9
tp116
g0
(g9
g2
Ntp117
Rp118
(dp119
g13
I01
sg14
F2.10639723166414
sg15
g116
sbs(I-3
I23
tp120
g0
(g9
g2
Ntp121
Rp122
(dp123
g13
I01
sg14
F-0.8284153969823236
sg15
g120
sbs(I23
I0
tp124
g0
(g9
g2
Ntp125
Rp126
(dp127
g13
I01
sg14
F-3.0647561332231197
sg15
g124
sbs(I-7
I23
tp128
g0
(g9
g2
Ntp129
Rp130
(dp131
g13
I01
sg14
F-0.8974644256029355
sg15
g128
sbssS'nodes'
p132
(dp133
I0
g0
(cneat.genes
DefaultNodeGene
p134
g2
Ntp135
Rp136
(dp137
S'activation'
p138
S'relu'
p139
sS'bias'
p140
F-8.88262903848377
sS'response'
p141
F1.0
sg15
I0
sS'aggregation'
p142
S'sum'
p143
sbsI1
g0
(g134
g2
Ntp144
Rp145
(dp146
g138
g139
sg140
F-14.135570414025826
sg141
F1.0
sg15
I1
sg142
g143
sbsI2
g0
(g134
g2
Ntp147
Rp148
(dp149
g138
g139
sg140
F10.612422957187729
sg141
F1.0
sg15
I2
sg142
g143
sbsI3
g0
(g134
g2
Ntp150
Rp151
(dp152
g138
g139
sg140
F-10.51494883254173
sg141
F1.0
sg15
I3
sg142
g143
sbsI4
g0
(g134
g2
Ntp153
Rp154
(dp155
g138
g139
sg140
F24.016366796865256
sg141
F1.0
sg15
I4
sg142
g143
sbsI5
g0
(g134
g2
Ntp156
Rp157
(dp158
g138
g139
sg140
F-0.6274259125926749
sg141
F1.0
sg15
I5
sg142
g143
sbsI6
g0
(g134
g2
Ntp159
Rp160
(dp161
g138
g139
sg140
F3.759808890124578
sg141
F1.0
sg15
I6
sg142
g143
sbsI7
g0
(g134
g2
Ntp162
Rp163
(dp164
g138
g139
sg140
F-3.0346443557937337
sg141
F1.0
sg15
I7
sg142
g143
sbsI8
g0
(g134
g2
Ntp165
Rp166
(dp167
g138
g139
sg140
F-3.8089111139002507
sg141
F1.0
sg15
I8
sg142
g143
sbsI9
g0
(g134
g2
Ntp168
Rp169
(dp170
g138
g139
sg140
F7.470900628695682
sg141
F1.0
sg15
I9
sg142
g143
sbsI23
g0
(g134
g2
Ntp171
Rp172
(dp173
g138
g139
sg140
F8.370042006302791
sg141
F1.0
sg15
I23
sg142
g143
sbssg15
I14
sS'fitness'
p174
Nsb.