ccopy_reg
_reconstructor
p0
(cneat.genome
DefaultGenome
p1
c__builtin__
object
p2
Ntp3
Rp4
(dp5
S'connections'
p6
(dp7
(I-9
I339
tp8
g0
(cneat.genes
DefaultConnectionGene
p9
g2
Ntp10
Rp11
(dp12
S'enabled'
p13
I01
sS'weight'
p14
F-0.1470581722850655
sS'key'
p15
g8
sbs(I336
I336
tp16
g0
(g9
g2
Ntp17
Rp18
(dp19
g13
I01
sg14
F0.6663726371744887
sg15
g16
sbs(I-4
I337
tp20
g0
(g9
g2
Ntp21
Rp22
(dp23
g13
I01
sg14
F1.6962248520879102
sg15
g20
sbs(I-7
I337
tp24
g0
(g9
g2
Ntp25
Rp26
(dp27
g13
I01
sg14
F1.0110967668962552
sg15
g24
sbs(I339
I6
tp28
g0
(g9
g2
Ntp29
Rp30
(dp31
g13
I01
sg14
F1.3799928532309336
sg15
g28
sbs(I336
I4
tp32
g0
(g9
g2
Ntp33
Rp34
(dp35
g13
I01
sg14
F-1.643790706050619
sg15
g32
sbs(I335
I3
tp36
g0
(g9
g2
Ntp37
Rp38
(dp39
g13
I01
sg14
F-1.4698665932950408
sg15
g36
sbs(I-8
I336
tp40
g0
(g9
g2
Ntp41
Rp42
(dp43
g13
I01
sg14
F1.0475276534328857
sg15
g40
sbs(I9
I9
tp44
g0
(g9
g2
Ntp45
Rp46
(dp47
g13
I01
sg14
F-0.3116235808148662
sg15
g44
sbs(I-2
I337
tp48
g0
(g9
g2
Ntp49
Rp50
(dp51
g13
I01
sg14
F-0.29197164335304293
sg15
g48
sbs(I336
I0
tp52
g0
(g9
g2
Ntp53
Rp54
(dp55
g13
I00
sg14
F-1.972546354625357
sg15
g52
sbs(I-1
I335
tp56
g0
(g9
g2
Ntp57
Rp58
(dp59
g13
I01
sg14
F-1.7956981798019758
sg15
g56
sbs(I-4
I338
tp60
g0
(g9
g2
Ntp61
Rp62
(dp63
g13
I01
sg14
F0.7409205864942519
sg15
g60
sbs(I-7
I336
tp64
g0
(g9
g2
Ntp65
Rp66
(dp67
g13
I01
sg14
F-1.540451400146118
sg15
g64
sbs(I336
I5
tp68
g0
(g9
g2
Ntp69
Rp70
(dp71
g13
I00
sg14
F-1.018865000418977
sg15
g68
sbs(I337
I9
tp72
g0
(g9
g2
Ntp73
Rp74
(dp75
g13
I01
sg14
F1.1635713832763444
sg15
g72
sbs(I335
I2
tp76
g0
(g9
g2
Ntp77
Rp78
(dp79
g13
I01
sg14
F-0.6645067373595351
sg15
g76
sbs(I-3
I339
tp80
g0
(g9
g2
Ntp81
Rp82
(dp83
g13
I01
sg14
F1.2968787042910344
sg15
g80
sbs(I-8
I337
tp84
g0
(g9
g2
Ntp85
Rp86
(dp87
g13
I01
sg14
F-0.6063704440691406
sg15
g84
sbs(I-5
I335
tp88
g0
(g9
g2
Ntp89
Rp90
(dp91
g13
I01
sg14
F1.9167774523745087
sg15
g88
sbs(I4
I4
tp92
g0
(g9
g2
Ntp93
Rp94
(dp95
g13
I01
sg14
F0.00039299079201665643
sg15
g92
sbs(I338
I7
tp96
g0
(g9
g2
Ntp97
Rp98
(dp99
g13
I01
sg14
F1.1734292258841106
sg15
g96
sbs(I335
I6
tp100
g0
(g9
g2
Ntp101
Rp102
(dp103
g13
I01
sg14
F0.19417926134720426
sg15
g100
sbs(I336
I7
tp104
g0
(g9
g2
Ntp105
Rp106
(dp107
g13
I01
sg14
F0.23990561377176473
sg15
g104
sbs(I2
I2
tp108
g0
(g9
g2
Ntp109
Rp110
(dp111
g13
I00
sg14
F0.42292869558191926
sg15
g108
sbs(I-6
I336
tp112
g0
(g9
g2
Ntp113
Rp114
(dp115
g13
I00
sg14
F-0.8098965135403491
sg15
g112
sbs(I339
I2
tp116
g0
(g9
g2
Ntp117
Rp118
(dp119
g13
I01
sg14
F-1.2030968857842808
sg15
g116
sbs(I-2
I338
tp120
g0
(g9
g2
Ntp121
Rp122
(dp123
g13
I00
sg14
F-1.7831458578101334
sg15
g120
sbs(I-2
I336
tp124
g0
(g9
g2
Ntp125
Rp126
(dp127
g13
I01
sg14
F-0.8707282028434352
sg15
g124
sbs(I-6
I335
tp128
g0
(g9
g2
Ntp129
Rp130
(dp131
g13
I00
sg14
F0.9655238337508206
sg15
g128
sbs(I336
I6
tp132
g0
(g9
g2
Ntp133
Rp134
(dp135
g13
I01
sg14
F-0.6681116291530393
sg15
g132
sbs(I337
I8
tp136
g0
(g9
g2
Ntp137
Rp138
(dp139
g13
I01
sg14
F1.4205500834183817
sg15
g136
sbs(I6
I6
tp140
g0
(g9
g2
Ntp141
Rp142
(dp143
g13
I01
sg14
F0.4669808068634027
sg15
g140
sbs(I337
I7
tp144
g0
(g9
g2
Ntp145
Rp146
(dp147
g13
I01
sg14
F-0.9332337904670369
sg15
g144
sbs(I339
I4
tp148
g0
(g9
g2
Ntp149
Rp150
(dp151
g13
I01
sg14
F-0.028312063109144178
sg15
g148
sbs(I335
I9
tp152
g0
(g9
g2
Ntp153
Rp154
(dp155
g13
I01
sg14
F1.196315796146766
sg15
g152
sbs(I338
I2
tp156
g0
(g9
g2
Ntp157
Rp158
(dp159
g13
I01
sg14
F-0.9078532916283091
sg15
g156
sbs(I335
I1
tp160
g0
(g9
g2
Ntp161
Rp162
(dp163
g13
I01
sg14
F-0.44729863584989626
sg15
g160
sbs(I336
I431
tp164
g0
(g9
g2
Ntp165
Rp166
(dp167
g13
I01
sg14
F0.5808636173716353
sg15
g164
sbs(I-7
I335
tp168
g0
(g9
g2
Ntp169
Rp170
(dp171
g13
I01
sg14
F0.01620046180911222
sg15
g168
sbs(I337
I5
tp172
g0
(g9
g2
Ntp173
Rp174
(dp175
g13
I01
sg14
F0.9837081326644088
sg15
g172
sbs(I338
I8
tp176
g0
(g9
g2
Ntp177
Rp178
(dp179
g13
I01
sg14
F-0.8335834417607599
sg15
g176
sbs(I335
I5
tp180
g0
(g9
g2
Ntp181
Rp182
(dp183
g13
I01
sg14
F0.1691403893110212
sg15
g180
sbs(I-9
I336
tp184
g0
(g9
g2
Ntp185
Rp186
(dp187
g13
I01
sg14
F2.7041334943423907
sg15
g184
sbs(I338
I1
tp188
g0
(g9
g2
Ntp189
Rp190
(dp191
g13
I01
sg14
F3.100182316329886
sg15
g188
sbs(I338
I0
tp192
g0
(g9
g2
Ntp193
Rp194
(dp195
g13
I01
sg14
F-1.2053087404610632
sg15
g192
sbs(I431
I5
tp196
g0
(g9
g2
Ntp197
Rp198
(dp199
g13
I01
sg14
F-0.8055946545367956
sg15
g196
sbs(I339
I8
tp200
g0
(g9
g2
Ntp201
Rp202
(dp203
g13
I01
sg14
F-0.20127760872483455
sg15
g200
sbs(I0
I335
tp204
g0
(g9
g2
Ntp205
Rp206
(dp207
g13
I01
sg14
F0.5833325457329233
sg15
g204
sbs(I-4
I336
tp208
g0
(g9
g2
Ntp209
Rp210
(dp211
g13
I01
sg14
F-1.3864041280851147
sg15
g208
sbs(I-7
I338
tp212
g0
(g9
g2
Ntp213
Rp214
(dp215
g13
I01
sg14
F1.8227921077341283
sg15
g212
sbs(I339
I7
tp216
g0
(g9
g2
Ntp217
Rp218
(dp219
g13
I01
sg14
F0.41199762485143265
sg15
g216
sbs(I335
I0
tp220
g0
(g9
g2
Ntp221
Rp222
(dp223
g13
I01
sg14
F0.10460627632871111
sg15
g220
sbs(I-4
I335
tp224
g0
(g9
g2
Ntp225
Rp226
(dp227
g13
I01
sg14
F2.1491727620667502
sg15
g224
sbs(I337
I2
tp228
g0
(g9
g2
Ntp229
Rp230
(dp231
g13
I01
sg14
F1.3599521715392298
sg15
g228
sbs(I8
I8
tp232
g0
(g9
g2
Ntp233
Rp234
(dp235
g13
I01
sg14
F-0.857086338087034
sg15
g232
sbs(I339
I3
tp236
g0
(g9
g2
Ntp237
Rp238
(dp239
g13
I01
sg14
F-0.8764484093528053
sg15
g236
sbs(I-10
I339
tp240
g0
(g9
g2
Ntp241
Rp242
(dp243
g13
I01
sg14
F0.9701250546333386
sg15
g240
sbs(I-3
I335
tp244
g0
(g9
g2
Ntp245
Rp246
(dp247
g13
I01
sg14
F0.7453810129445764
sg15
g244
sbs(I337
I337
tp248
g0
(g9
g2
Ntp249
Rp250
(dp251
g13
I01
sg14
F-0.4899393508460373
sg15
g248
sbssS'nodes'
p252
(dp253
I0
g0
(cneat.genes
DefaultNodeGene
p254
g2
Ntp255
Rp256
(dp257
S'activation'
p258
S'tanh'
p259
sS'bias'
p260
F6.7003350818712395
sS'response'
p261
F1.0
sg15
I0
sS'aggregation'
p262
S'sum'
p263
sbsI1
g0
(g254
g2
Ntp264
Rp265
(dp266
g258
g259
sg260
F-11.490777500892422
sg261
F1.0
sg15
I1
sg262
g263
sbsI2
g0
(g254
g2
Ntp267
Rp268
(dp269
g258
g259
sg260
F8.013055240921123
sg261
F1.0
sg15
I2
sg262
g263
sbsI3
g0
(g254
g2
Ntp270
Rp271
(dp272
g258
S'relu'
p273
sg260
F-7.380688803759667
sg261
F1.0
sg15
I3
sg262
g263
sbsI4
g0
(g254
g2
Ntp274
Rp275
(dp276
g258
g273
sg260
F16.70348523126178
sg261
F1.0
sg15
I4
sg262
g263
sbsI5
g0
(g254
g2
Ntp277
Rp278
(dp279
g258
g259
sg260
F2.923110747719707
sg261
F1.0
sg15
I5
sg262
g263
sbsI6
g0
(g254
g2
Ntp280
Rp281
(dp282
g258
g273
sg260
F-4.7630929827928075
sg261
F1.0
sg15
I6
sg262
g263
sbsI7
g0
(g254
g2
Ntp283
Rp284
(dp285
g258
g259
sg260
F-13.8628526129405
sg261
F1.0
sg15
I7
sg262
g263
sbsI8
g0
(g254
g2
Ntp286
Rp287
(dp288
g258
g273
sg260
F3.6616283921307757
sg261
F1.0
sg15
I8
sg262
g263
sbsI9
g0
(g254
g2
Ntp289
Rp290
(dp291
g258
g259
sg260
F16.884062186566318
sg261
F1.0
sg15
I9
sg262
g263
sbsI335
g0
(g254
g2
Ntp292
Rp293
(dp294
g258
g259
sg260
F-17.478900949469875
sg261
F1.0
sg15
I335
sg262
g263
sbsI336
g0
(g254
g2
Ntp295
Rp296
(dp297
g258
g259
sg260
F8.755157458877052
sg261
F1.0
sg15
I336
sg262
g263
sbsI337
g0
(g254
g2
Ntp298
Rp299
(dp300
g258
g273
sg260
F3.53013960501852
sg261
F1.0
sg15
I337
sg262
g263
sbsI338
g0
(g254
g2
Ntp301
Rp302
(dp303
g258
g273
sg260
F-26.74638211630444
sg261
F1.0
sg15
I338
sg262
g263
sbsI339
g0
(g254
g2
Ntp304
Rp305
(dp306
g258
g259
sg260
F-2.3094780986974475
sg261
F1.0
sg15
I339
sg262
g263
sbsI431
g0
(g254
g2
Ntp307
Rp308
(dp309
g258
g259
sg260
F-17.069001779124036
sg261
F1.0
sg15
I431
sg262
g263
sbssg15
I14
sS'fitness'
p310
Nsb.