ccopy_reg
_reconstructor
p0
(cneat.genome
DefaultGenome
p1
c__builtin__
object
p2
Ntp3
Rp4
(dp5
S'connections'
p6
(dp7
(I23
I4
tp8
g0
(cneat.genes
DefaultConnectionGene
p9
g2
Ntp10
Rp11
(dp12
S'enabled'
p13
I01
sS'weight'
p14
F0.2551366716708556
sS'key'
p15
g8
sbs(I-2
I23
tp16
g0
(g9
g2
Ntp17
Rp18
(dp19
g13
I01
sg14
F2.928374076944568
sg15
g16
sbs(I7
I7
tp20
g0
(g9
g2
Ntp21
Rp22
(dp23
g13
I01
sg14
F-0.6082162851719166
sg15
g20
sbs(I9
I9
tp24
g0
(g9
g2
Ntp25
Rp26
(dp27
g13
I01
sg14
F0.6841847952397216
sg15
g24
sbs(I23
I3
tp28
g0
(g9
g2
Ntp29
Rp30
(dp31
g13
I01
sg14
F0.5088384644518242
sg15
g28
sbs(I22
I9
tp32
g0
(g9
g2
Ntp33
Rp34
(dp35
g13
I01
sg14
F0.6513327000393931
sg15
g32
sbs(I-1
I22
tp36
g0
(g9
g2
Ntp37
Rp38
(dp39
g13
I00
sg14
F0.12369328454186185
sg15
g36
sbs(I-3
I3
tp40
g0
(g9
g2
Ntp41
Rp42
(dp43
g13
I01
sg14
F-1.1308803436032742
sg15
g40
sbs(I-2
I22
tp44
g0
(g9
g2
Ntp45
Rp46
(dp47
g13
I01
sg14
F1.8104652403022397
sg15
g44
sbs(I-7
I22
tp48
g0
(g9
g2
Ntp49
Rp50
(dp51
g13
I01
sg14
F0.3906127445250984
sg15
g48
sbs(I23
I7
tp52
g0
(g9
g2
Ntp53
Rp54
(dp55
g13
I01
sg14
F-1.5530234418181181
sg15
g52
sbs(I-10
I21
tp56
g0
(g9
g2
Ntp57
Rp58
(dp59
g13
I01
sg14
F0.4255558211653858
sg15
g56
sbs(I-5
I23
tp60
g0
(g9
g2
Ntp61
Rp62
(dp63
g13
I00
sg14
F1.5344025617956993
sg15
g60
sbs(I-6
I21
tp64
g0
(g9
g2
Ntp65
Rp66
(dp67
g13
I01
sg14
F1.2326422451534025
sg15
g64
sbs(I21
I0
tp68
g0
(g9
g2
Ntp69
Rp70
(dp71
g13
I01
sg14
F-1.833437745922084
sg15
g68
sbs(I22
I7
tp72
g0
(g9
g2
Ntp73
Rp74
(dp75
g13
I01
sg14
F-0.22476705835384164
sg15
g72
sbs(I-6
I4
tp76
g0
(g9
g2
Ntp77
Rp78
(dp79
g13
I01
sg14
F0.8158616390409317
sg15
g76
sbs(I2
I2
tp80
g0
(g9
g2
Ntp81
Rp82
(dp83
g13
I00
sg14
F-1.9895921184746266
sg15
g80
sbs(I-7
I21
tp84
g0
(g9
g2
Ntp85
Rp86
(dp87
g13
I01
sg14
F1.344476673956371
sg15
g84
sbs(I-5
I22
tp88
g0
(g9
g2
Ntp89
Rp90
(dp91
g13
I01
sg14
F1.2660142966761496
sg15
g88
sbs(I-2
I21
tp92
g0
(g9
g2
Ntp93
Rp94
(dp95
g13
I01
sg14
F1.1874866888891524
sg15
g92
sbs(I-6
I22
tp96
g0
(g9
g2
Ntp97
Rp98
(dp99
g13
I01
sg14
F1.8108641446504772
sg15
g96
sbs(I22
I4
tp100
g0
(g9
g2
Ntp101
Rp102
(dp103
g13
I01
sg14
F-0.11355525927328727
sg15
g100
sbs(I21
I4
tp104
g0
(g9
g2
Ntp105
Rp106
(dp107
g13
I01
sg14
F0.09971968647082352
sg15
g104
sbs(I23
I1
tp108
g0
(g9
g2
Ntp109
Rp110
(dp111
g13
I01
sg14
F-1.3037087949026955
sg15
g108
sbs(I-8
I21
tp112
g0
(g9
g2
Ntp113
Rp114
(dp115
g13
I01
sg14
F1.2803606328768855
sg15
g112
sbs(I22
I0
tp116
g0
(g9
g2
Ntp117
Rp118
(dp119
g13
I00
sg14
F-1.6072535632553293
sg15
g116
sbs(I23
I5
tp120
g0
(g9
g2
Ntp121
Rp122
(dp123
g13
I01
sg14
F-1.1262356886567138
sg15
g120
sbs(I-10
I23
tp124
g0
(g9
g2
Ntp125
Rp126
(dp127
g13
I01
sg14
F1.9278013764050386
sg15
g124
sbs(I21
I9
tp128
g0
(g9
g2
Ntp129
Rp130
(dp131
g13
I01
sg14
F1.2306910394966613
sg15
g128
sbs(I-1
I21
tp132
g0
(g9
g2
Ntp133
Rp134
(dp135
g13
I00
sg14
F0.4167928821118223
sg15
g132
sbs(I-4
I22
tp136
g0
(g9
g2
Ntp137
Rp138
(dp139
g13
I01
sg14
F-3.2842696979714505
sg15
g136
sbs(I23
I9
tp140
g0
(g9
g2
Ntp141
Rp142
(dp143
g13
I01
sg14
F1.5973544024398434
sg15
g140
sbs(I8
I8
tp144
g0
(g9
g2
Ntp145
Rp146
(dp147
g13
I01
sg14
F0.9059851759675581
sg15
g144
sbs(I22
I8
tp148
g0
(g9
g2
Ntp149
Rp150
(dp151
g13
I00
sg14
F-1.595048707197178
sg15
g148
sbs(I21
I7
tp152
g0
(g9
g2
Ntp153
Rp154
(dp155
g13
I01
sg14
F-3.452527855009359
sg15
g152
sbs(I-7
I23
tp156
g0
(g9
g2
Ntp157
Rp158
(dp159
g13
I01
sg14
F0.06928225943975652
sg15
g156
sbssS'nodes'
p160
(dp161
I0
g0
(cneat.genes
DefaultNodeGene
p162
g2
Ntp163
Rp164
(dp165
S'activation'
p166
S'tanh'
p167
sS'bias'
p168
F2.5285050792484265
sS'response'
p169
F1.0
sg15
I0
sS'aggregation'
p170
S'sum'
p171
sbsI1
g0
(g162
g2
Ntp172
Rp173
(dp174
g166
g167
sg168
F5.769237358675326
sg169
F1.0
sg15
I1
sg170
g171
sbsI2
g0
(g162
g2
Ntp175
Rp176
(dp177
g166
g167
sg168
F0.40377097913077353
sg169
F1.0
sg15
I2
sg170
g171
sbsI3
g0
(g162
g2
Ntp178
Rp179
(dp180
g166
g167
sg168
F-20.51768790530944
sg169
F1.0
sg15
I3
sg170
g171
sbsI4
g0
(g162
g2
Ntp181
Rp182
(dp183
g166
S'relu'
p184
sg168
F24.539717729289638
sg169
F1.0
sg15
I4
sg170
g171
sbsI5
g0
(g162
g2
Ntp185
Rp186
(dp187
g166
g167
sg168
F-1.084158723103729
sg169
F1.0
sg15
I5
sg170
g171
sbsI6
g0
(g162
g2
Ntp188
Rp189
(dp190
g166
g167
sg168
F-0.9406681298668655
sg169
F1.0
sg15
I6
sg170
g171
sbsI7
g0
(g162
g2
Ntp191
Rp192
(dp193
g166
g167
sg168
F5.774667291870734
sg169
F1.0
sg15
I7
sg170
g171
sbsI8
g0
(g162
g2
Ntp194
Rp195
(dp196
g166
g167
sg168
F-5.779611183777565
sg169
F1.0
sg15
I8
sg170
g171
sbsI9
g0
(g162
g2
Ntp197
Rp198
(dp199
g166
g167
sg168
F13.21282696880814
sg169
F1.0
sg15
I9
sg170
g171
sbsI21
g0
(g162
g2
Ntp200
Rp201
(dp202
g166
g167
sg168
F21.55083975344003
sg169
F1.0
sg15
I21
sg170
g171
sbsI22
g0
(g162
g2
Ntp203
Rp204
(dp205
g166
g167
sg168
F11.774460218403245
sg169
F1.0
sg15
I22
sg170
g171
sbsI23
g0
(g162
g2
Ntp206
Rp207
(dp208
g166
g167
sg168
F-1.913833270945212
sg169
F1.0
sg15
I23
sg170
g171
sbssg15
I141
sS'fitness'
p209
Nsb.