ccopy_reg
_reconstructor
p0
(cneat.genome
DefaultGenome
p1
c__builtin__
object
p2
Ntp3
Rp4
(dp5
S'connections'
p6
(dp7
(I23
I4
tp8
g0
(cneat.genes
DefaultConnectionGene
p9
g2
Ntp10
Rp11
(dp12
S'enabled'
p13
I01
sS'weight'
p14
F-0.06427331590617058
sS'key'
p15
g8
sbs(I-2
I521
tp16
g0
(g9
g2
Ntp17
Rp18
(dp19
g13
I01
sg14
F0.861366070972394
sg15
g16
sbs(I-5
I5
tp20
g0
(g9
g2
Ntp21
Rp22
(dp23
g13
I01
sg14
F0.6454495922553831
sg15
g20
sbs(I-2
I23
tp24
g0
(g9
g2
Ntp25
Rp26
(dp27
g13
I01
sg14
F2.346645230410921
sg15
g24
sbs(I7
I7
tp28
g0
(g9
g2
Ntp29
Rp30
(dp31
g13
I01
sg14
F1.9831644894759073
sg15
g28
sbs(I-4
I22
tp32
g0
(g9
g2
Ntp33
Rp34
(dp35
g13
I01
sg14
F-3.620173359904238
sg15
g32
sbs(I23
I3
tp36
g0
(g9
g2
Ntp37
Rp38
(dp39
g13
I01
sg14
F1.2961875884146359
sg15
g36
sbs(I-3
I3
tp40
g0
(g9
g2
Ntp41
Rp42
(dp43
g13
I01
sg14
F0.5292454201312404
sg15
g40
sbs(I-1
I22
tp44
g0
(g9
g2
Ntp45
Rp46
(dp47
g13
I00
sg14
F-0.43804130922305434
sg15
g44
sbs(I-7
I22
tp48
g0
(g9
g2
Ntp49
Rp50
(dp51
g13
I01
sg14
F0.35077979738562204
sg15
g48
sbs(I23
I7
tp52
g0
(g9
g2
Ntp53
Rp54
(dp55
g13
I01
sg14
F-0.07376666694103087
sg15
g52
sbs(I-5
I23
tp56
g0
(g9
g2
Ntp57
Rp58
(dp59
g13
I00
sg14
F-2.1321351250922413
sg15
g56
sbs(I22
I7
tp60
g0
(g9
g2
Ntp61
Rp62
(dp63
g13
I00
sg14
F-0.022654751099814796
sg15
g60
sbs(I23
I9
tp64
g0
(g9
g2
Ntp65
Rp66
(dp67
g13
I00
sg14
F0.18086230948891835
sg15
g64
sbs(I2
I2
tp68
g0
(g9
g2
Ntp69
Rp70
(dp71
g13
I00
sg14
F-1.4940871583356248
sg15
g68
sbs(I-5
I22
tp72
g0
(g9
g2
Ntp73
Rp74
(dp75
g13
I01
sg14
F-0.10899026363987063
sg15
g72
sbs(I-6
I22
tp76
g0
(g9
g2
Ntp77
Rp78
(dp79
g13
I01
sg14
F-0.27497160642849294
sg15
g76
sbs(I23
I1
tp80
g0
(g9
g2
Ntp81
Rp82
(dp83
g13
I01
sg14
F-0.16662796769952626
sg15
g80
sbs(I22
I0
tp84
g0
(g9
g2
Ntp85
Rp86
(dp87
g13
I00
sg14
F-0.6323461123600224
sg15
g84
sbs(I23
I5
tp88
g0
(g9
g2
Ntp89
Rp90
(dp91
g13
I01
sg14
F1.323007277893193
sg15
g88
sbs(I-10
I23
tp92
g0
(g9
g2
Ntp93
Rp94
(dp95
g13
I01
sg14
F0.5401036307556099
sg15
g92
sbs(I9
I9
tp96
g0
(g9
g2
Ntp97
Rp98
(dp99
g13
I01
sg14
F-0.9927085944204717
sg15
g96
sbs(I-2
I22
tp100
g0
(g9
g2
Ntp101
Rp102
(dp103
g13
I01
sg14
F0.0603639104753001
sg15
g100
sbs(I8
I8
tp104
g0
(g9
g2
Ntp105
Rp106
(dp107
g13
I01
sg14
F-1.5438840160755027
sg15
g104
sbs(I22
I8
tp108
g0
(g9
g2
Ntp109
Rp110
(dp111
g13
I01
sg14
F-1.5369483534422188
sg15
g108
sbs(I-7
I23
tp112
g0
(g9
g2
Ntp113
Rp114
(dp115
g13
I01
sg14
F-1.6051060158697612
sg15
g112
sbssS'nodes'
p116
(dp117
I0
g0
(cneat.genes
DefaultNodeGene
p118
g2
Ntp119
Rp120
(dp121
S'activation'
p122
S'tanh'
p123
sS'bias'
p124
F4.058451941382026
sS'response'
p125
F1.0
sg15
I0
sS'aggregation'
p126
S'sum'
p127
sbsI1
g0
(g118
g2
Ntp128
Rp129
(dp130
g122
g123
sg124
F12.441114770690369
sg125
F1.0
sg15
I1
sg126
g127
sbsI2
g0
(g118
g2
Ntp131
Rp132
(dp133
g122
g123
sg124
F-0.13744245629251162
sg125
F1.0
sg15
I2
sg126
g127
sbsI3
g0
(g118
g2
Ntp134
Rp135
(dp136
g122
g123
sg124
F-20.660164680749535
sg125
F1.0
sg15
I3
sg126
g127
sbsI4
g0
(g118
g2
Ntp137
Rp138
(dp139
g122
S'relu'
p140
sg124
F23.28366842294606
sg125
F1.0
sg15
I4
sg126
g127
sbsI5
g0
(g118
g2
Ntp141
Rp142
(dp143
g122
g123
sg124
F8.57814393856605
sg125
F1.0
sg15
I5
sg126
g127
sbsI6
g0
(g118
g2
Ntp144
Rp145
(dp146
g122
g123
sg124
F-3.2704921274117593
sg125
F1.0
sg15
I6
sg126
g127
sbsI7
g0
(g118
g2
Ntp147
Rp148
(dp149
g122
g123
sg124
F6.04948591203403
sg125
F1.0
sg15
I7
sg126
g127
sbsI8
g0
(g118
g2
Ntp150
Rp151
(dp152
g122
g123
sg124
F-6.481671444922722
sg125
F1.0
sg15
I8
sg126
g127
sbsI9
g0
(g118
g2
Ntp153
Rp154
(dp155
g122
g140
sg124
F0.8440998748999746
sg125
F1.0
sg15
I9
sg126
g127
sbsI521
g0
(g118
g2
Ntp156
Rp157
(dp158
g122
g123
sg124
F13.292472192503245
sg125
F1.0
sg15
I521
sg126
g127
sbsI22
g0
(g118
g2
Ntp159
Rp160
(dp161
g122
g123
sg124
F11.260870801242126
sg125
F1.0
sg15
I22
sg126
g127
sbsI23
g0
(g118
g2
Ntp162
Rp163
(dp164
g122
g123
sg124
F-1.3284605827219937
sg125
F1.0
sg15
I23
sg126
g127
sbssg15
I142
sS'fitness'
p165
Nsb.