ccopy_reg
_reconstructor
p0
(cneat.genome
DefaultGenome
p1
c__builtin__
object
p2
Ntp3
Rp4
(dp5
S'connections'
p6
(dp7
(I-3
I38
tp8
g0
(cneat.genes
DefaultConnectionGene
p9
g2
Ntp10
Rp11
(dp12
S'enabled'
p13
I01
sS'weight'
p14
F-0.30000566571284304
sS'key'
p15
g8
sbs(I38
I4
tp16
g0
(g9
g2
Ntp17
Rp18
(dp19
g13
I00
sg14
F-0.5289102272432097
sg15
g16
sbs(I38
I9
tp20
g0
(g9
g2
Ntp21
Rp22
(dp23
g13
I01
sg14
F0.665964160676872
sg15
g20
sbs(I38
I7
tp24
g0
(g9
g2
Ntp25
Rp26
(dp27
g13
I01
sg14
F2.407155815831418
sg15
g24
sbs(I38
I8
tp28
g0
(g9
g2
Ntp29
Rp30
(dp31
g13
I01
sg14
F0.5087702878063323
sg15
g28
sbs(I38
I6
tp32
g0
(g9
g2
Ntp33
Rp34
(dp35
g13
I01
sg14
F-0.22256359846324414
sg15
g32
sbs(I-8
I38
tp36
g0
(g9
g2
Ntp37
Rp38
(dp39
g13
I01
sg14
F2.1074725950390127
sg15
g36
sbs(I38
I1
tp40
g0
(g9
g2
Ntp41
Rp42
(dp43
g13
I01
sg14
F-1.606715196233917
sg15
g40
sbs(I-7
I38
tp44
g0
(g9
g2
Ntp45
Rp46
(dp47
g13
I01
sg14
F-0.523657679363705
sg15
g44
sbs(I38
I0
tp48
g0
(g9
g2
Ntp49
Rp50
(dp51
g13
I01
sg14
F-0.09824472702349774
sg15
g48
sbs(I-5
I38
tp52
g0
(g9
g2
Ntp53
Rp54
(dp55
g13
I01
sg14
F1.5679379879322584
sg15
g52
sbs(I38
I3
tp56
g0
(g9
g2
Ntp57
Rp58
(dp59
g13
I01
sg14
F-1.9328963583531658
sg15
g56
sbs(I38
I2
tp60
g0
(g9
g2
Ntp61
Rp62
(dp63
g13
I01
sg14
F0.44322608827473653
sg15
g60
sbs(I-10
I38
tp64
g0
(g9
g2
Ntp65
Rp66
(dp67
g13
I01
sg14
F0.2468805061957275
sg15
g64
sbs(I-9
I38
tp68
g0
(g9
g2
Ntp69
Rp70
(dp71
g13
I01
sg14
F0.38552237034712183
sg15
g68
sbs(I-6
I38
tp72
g0
(g9
g2
Ntp73
Rp74
(dp75
g13
I01
sg14
F0.8652353031110036
sg15
g72
sbs(I-4
I38
tp76
g0
(g9
g2
Ntp77
Rp78
(dp79
g13
I01
sg14
F-0.003409846753729573
sg15
g76
sbs(I-1
I38
tp80
g0
(g9
g2
Ntp81
Rp82
(dp83
g13
I01
sg14
F-2.7075128953759497
sg15
g80
sbs(I-2
I38
tp84
g0
(g9
g2
Ntp85
Rp86
(dp87
g13
I01
sg14
F1.0468454217363115
sg15
g84
sbssS'nodes'
p88
(dp89
I0
g0
(cneat.genes
DefaultNodeGene
p90
g2
Ntp91
Rp92
(dp93
S'activation'
p94
S'tanh'
p95
sS'bias'
p96
F3.216348024345245
sS'response'
p97
F1.0
sg15
I0
sS'aggregation'
p98
S'sum'
p99
sbsI1
g0
(g90
g2
Ntp100
Rp101
(dp102
g94
S'relu'
p103
sg96
F3.353514663309833
sg97
F1.0
sg15
I1
sg98
g99
sbsI2
g0
(g90
g2
Ntp104
Rp105
(dp106
g94
g103
sg96
F5.727852493808295
sg97
F1.0
sg15
I2
sg98
g99
sbsI3
g0
(g90
g2
Ntp107
Rp108
(dp109
g94
g103
sg96
F0.33769358362194835
sg97
F1.0
sg15
I3
sg98
g99
sbsI4
g0
(g90
g2
Ntp110
Rp111
(dp112
g94
g103
sg96
F1.4871296920868042
sg97
F1.0
sg15
I4
sg98
g99
sbsI5
g0
(g90
g2
Ntp113
Rp114
(dp115
g94
g103
sg96
F-2.3050970637947565
sg97
F1.0
sg15
I5
sg98
g99
sbsI6
g0
(g90
g2
Ntp116
Rp117
(dp118
g94
g103
sg96
F-2.6948649838932686
sg97
F1.0
sg15
I6
sg98
g99
sbsI7
g0
(g90
g2
Ntp119
Rp120
(dp121
g94
g103
sg96
F9.558359913503217
sg97
F1.0
sg15
I7
sg98
g99
sbsI8
g0
(g90
g2
Ntp122
Rp123
(dp124
g94
g103
sg96
F-9.985480900619551
sg97
F1.0
sg15
I8
sg98
g99
sbsI9
g0
(g90
g2
Ntp125
Rp126
(dp127
g94
g103
sg96
F10.901458965214918
sg97
F1.0
sg15
I9
sg98
g99
sbsI38
g0
(g90
g2
Ntp128
Rp129
(dp130
g94
g103
sg96
F12.624874423773427
sg97
F1.0
sg15
I38
sg98
g99
sbssg15
I142
sS'fitness'
p131
Nsb.