ccopy_reg
_reconstructor
p0
(cneat.genome
DefaultGenome
p1
c__builtin__
object
p2
Ntp3
Rp4
(dp5
S'connections'
p6
(dp7
(I-6
I46
tp8
g0
(cneat.genes
DefaultConnectionGene
p9
g2
Ntp10
Rp11
(dp12
S'enabled'
p13
I01
sS'weight'
p14
F-2.5513135549503714
sS'key'
p15
g8
sbs(I46
I5
tp16
g0
(g9
g2
Ntp17
Rp18
(dp19
g13
I01
sg14
F-0.9881309500309299
sg15
g16
sbs(I-5
I46
tp20
g0
(g9
g2
Ntp21
Rp22
(dp23
g13
I01
sg14
F-0.6009453689790191
sg15
g20
sbs(I-1
I46
tp24
g0
(g9
g2
Ntp25
Rp26
(dp27
g13
I01
sg14
F-0.28917390297251216
sg15
g24
sbs(I46
I4
tp28
g0
(g9
g2
Ntp29
Rp30
(dp31
g13
I01
sg14
F0.5053343750799987
sg15
g28
sbs(I-2
I46
tp32
g0
(g9
g2
Ntp33
Rp34
(dp35
g13
I01
sg14
F2.128037789046193
sg15
g32
sbs(I46
I7
tp36
g0
(g9
g2
Ntp37
Rp38
(dp39
g13
I01
sg14
F0.8239957825290241
sg15
g36
sbs(I-9
I46
tp40
g0
(g9
g2
Ntp41
Rp42
(dp43
g13
I01
sg14
F0.6437341206652908
sg15
g40
sbs(I-10
I46
tp44
g0
(g9
g2
Ntp45
Rp46
(dp47
g13
I01
sg14
F1.7742609671455105
sg15
g44
sbs(I-8
I46
tp48
g0
(g9
g2
Ntp49
Rp50
(dp51
g13
I01
sg14
F0.4771493527296977
sg15
g48
sbs(I46
I1
tp52
g0
(g9
g2
Ntp53
Rp54
(dp55
g13
I01
sg14
F0.3312468065361615
sg15
g52
sbs(I-7
I46
tp56
g0
(g9
g2
Ntp57
Rp58
(dp59
g13
I01
sg14
F-1.0893701601503245
sg15
g56
sbs(I-4
I46
tp60
g0
(g9
g2
Ntp61
Rp62
(dp63
g13
I01
sg14
F-1.8302050848669573
sg15
g60
sbs(I46
I2
tp64
g0
(g9
g2
Ntp65
Rp66
(dp67
g13
I01
sg14
F-0.6564815785811479
sg15
g64
sbs(I-3
I46
tp68
g0
(g9
g2
Ntp69
Rp70
(dp71
g13
I01
sg14
F-1.819500276677642
sg15
g68
sbs(I46
I3
tp72
g0
(g9
g2
Ntp73
Rp74
(dp75
g13
I01
sg14
F1.290204542636072
sg15
g72
sbs(I46
I9
tp76
g0
(g9
g2
Ntp77
Rp78
(dp79
g13
I01
sg14
F0.9636732797392092
sg15
g76
sbs(I46
I6
tp80
g0
(g9
g2
Ntp81
Rp82
(dp83
g13
I01
sg14
F-0.5044322202491849
sg15
g80
sbs(I46
I8
tp84
g0
(g9
g2
Ntp85
Rp86
(dp87
g13
I00
sg14
F-1.676103916468084
sg15
g84
sbs(I46
I0
tp88
g0
(g9
g2
Ntp89
Rp90
(dp91
g13
I01
sg14
F1.0380542166823796
sg15
g88
sbssS'nodes'
p92
(dp93
I0
g0
(cneat.genes
DefaultNodeGene
p94
g2
Ntp95
Rp96
(dp97
S'activation'
p98
S'relu'
p99
sS'bias'
p100
F9.627582489206388
sS'response'
p101
F1.0
sg15
I0
sS'aggregation'
p102
S'sum'
p103
sbsI1
g0
(g94
g2
Ntp104
Rp105
(dp106
g98
g99
sg100
F4.64782822583075
sg101
F1.0
sg15
I1
sg102
g103
sbsI2
g0
(g94
g2
Ntp107
Rp108
(dp109
g98
g99
sg100
F-3.8512751128861162
sg101
F1.0
sg15
I2
sg102
g103
sbsI3
g0
(g94
g2
Ntp110
Rp111
(dp112
g98
g99
sg100
F5.807793231691897
sg101
F1.0
sg15
I3
sg102
g103
sbsI4
g0
(g94
g2
Ntp113
Rp114
(dp115
g98
g99
sg100
F-0.26947644992761083
sg101
F1.0
sg15
I4
sg102
g103
sbsI5
g0
(g94
g2
Ntp116
Rp117
(dp118
g98
g99
sg100
F-4.249671346431633
sg101
F1.0
sg15
I5
sg102
g103
sbsI6
g0
(g94
g2
Ntp119
Rp120
(dp121
g98
g99
sg100
F11.891490757811825
sg101
F1.0
sg15
I6
sg102
g103
sbsI7
g0
(g94
g2
Ntp122
Rp123
(dp124
g98
g99
sg100
F-9.185492964975793
sg101
F1.0
sg15
I7
sg102
g103
sbsI8
g0
(g94
g2
Ntp125
Rp126
(dp127
g98
g99
sg100
F7.125618058532621
sg101
F1.0
sg15
I8
sg102
g103
sbsI9
g0
(g94
g2
Ntp128
Rp129
(dp130
g98
g99
sg100
F-7.533817544303279
sg101
F1.0
sg15
I9
sg102
g103
sbsI46
g0
(g94
g2
Ntp131
Rp132
(dp133
g98
g99
sg100
F15.850029478044803
sg101
F1.0
sg15
I46
sg102
g103
sbssg15
I143
sS'fitness'
p134
Nsb.