ccopy_reg
_reconstructor
p0
(cneat.genome
DefaultGenome
p1
c__builtin__
object
p2
Ntp3
Rp4
(dp5
S'connections'
p6
(dp7
(I23
I4
tp8
g0
(cneat.genes
DefaultConnectionGene
p9
g2
Ntp10
Rp11
(dp12
S'enabled'
p13
I01
sS'weight'
p14
F-1.2239311314479324
sS'key'
p15
g8
sbs(I-2
I521
tp16
g0
(g9
g2
Ntp17
Rp18
(dp19
g13
I01
sg14
F-2.0417242597083862
sg15
g16
sbs(I-2
I23
tp20
g0
(g9
g2
Ntp21
Rp22
(dp23
g13
I01
sg14
F-0.18265788030858643
sg15
g20
sbs(I7
I7
tp24
g0
(g9
g2
Ntp25
Rp26
(dp27
g13
I01
sg14
F0.5425653308236944
sg15
g24
sbs(I-4
I22
tp28
g0
(g9
g2
Ntp29
Rp30
(dp31
g13
I01
sg14
F-4.158538882536118
sg15
g28
sbs(I23
I3
tp32
g0
(g9
g2
Ntp33
Rp34
(dp35
g13
I01
sg14
F-0.05958776269396571
sg15
g32
sbs(I-3
I3
tp36
g0
(g9
g2
Ntp37
Rp38
(dp39
g13
I01
sg14
F-1.38306902103927
sg15
g36
sbs(I-1
I22
tp40
g0
(g9
g2
Ntp41
Rp42
(dp43
g13
I00
sg14
F1.0822485048060884
sg15
g40
sbs(I-7
I22
tp44
g0
(g9
g2
Ntp45
Rp46
(dp47
g13
I01
sg14
F-0.22310908255068673
sg15
g44
sbs(I23
I7
tp48
g0
(g9
g2
Ntp49
Rp50
(dp51
g13
I01
sg14
F0.05098118117120089
sg15
g48
sbs(I-10
I21
tp52
g0
(g9
g2
Ntp53
Rp54
(dp55
g13
I01
sg14
F2.3726653856201727
sg15
g52
sbs(I-5
I23
tp56
g0
(g9
g2
Ntp57
Rp58
(dp59
g13
I00
sg14
F-2.850636405017783
sg15
g56
sbs(I-6
I21
tp60
g0
(g9
g2
Ntp61
Rp62
(dp63
g13
I01
sg14
F1.2533694133107873
sg15
g60
sbs(I2
I550
tp64
g0
(g9
g2
Ntp65
Rp66
(dp67
g13
I01
sg14
F-0.20554316945246165
sg15
g64
sbs(I-2
I21
tp68
g0
(g9
g2
Ntp69
Rp70
(dp71
g13
I01
sg14
F0.10646429488608294
sg15
g68
sbs(I521
I21
tp72
g0
(g9
g2
Ntp73
Rp74
(dp75
g13
I01
sg14
F-0.21163218215503932
sg15
g72
sbs(I550
I2
tp76
g0
(g9
g2
Ntp77
Rp78
(dp79
g13
I01
sg14
F-1.9586946194271428
sg15
g76
sbs(I22
I7
tp80
g0
(g9
g2
Ntp81
Rp82
(dp83
g13
I01
sg14
F-0.5323612061892034
sg15
g80
sbs(I23
I9
tp84
g0
(g9
g2
Ntp85
Rp86
(dp87
g13
I01
sg14
F0.48023978466132244
sg15
g84
sbs(I2
I2
tp88
g0
(g9
g2
Ntp89
Rp90
(dp91
g13
I00
sg14
F-0.5377341434828115
sg15
g88
sbs(I-7
I21
tp92
g0
(g9
g2
Ntp93
Rp94
(dp95
g13
I01
sg14
F1.056799723721393
sg15
g92
sbs(I-5
I22
tp96
g0
(g9
g2
Ntp97
Rp98
(dp99
g13
I00
sg14
F0.7324024185834603
sg15
g96
sbs(I21
I0
tp100
g0
(g9
g2
Ntp101
Rp102
(dp103
g13
I01
sg14
F-1.3830660431186383
sg15
g100
sbs(I-6
I22
tp104
g0
(g9
g2
Ntp105
Rp106
(dp107
g13
I01
sg14
F1.694830417463513
sg15
g104
sbs(I22
I4
tp108
g0
(g9
g2
Ntp109
Rp110
(dp111
g13
I01
sg14
F-0.13742934492966627
sg15
g108
sbs(I21
I4
tp112
g0
(g9
g2
Ntp113
Rp114
(dp115
g13
I01
sg14
F-1.2175176469051008
sg15
g112
sbs(I23
I1
tp116
g0
(g9
g2
Ntp117
Rp118
(dp119
g13
I00
sg14
F0.5604973444694471
sg15
g116
sbs(I-8
I21
tp120
g0
(g9
g2
Ntp121
Rp122
(dp123
g13
I01
sg14
F0.22533620571983165
sg15
g120
sbs(I22
I0
tp124
g0
(g9
g2
Ntp125
Rp126
(dp127
g13
I00
sg14
F-0.9996032878772145
sg15
g124
sbs(I23
I5
tp128
g0
(g9
g2
Ntp129
Rp130
(dp131
g13
I01
sg14
F0.34602996850728995
sg15
g128
sbs(I-10
I23
tp132
g0
(g9
g2
Ntp133
Rp134
(dp135
g13
I01
sg14
F1.6382072861909505
sg15
g132
sbs(I21
I9
tp136
g0
(g9
g2
Ntp137
Rp138
(dp139
g13
I00
sg14
F1.9887766901046122
sg15
g136
sbs(I-1
I21
tp140
g0
(g9
g2
Ntp141
Rp142
(dp143
g13
I00
sg14
F0.22128500535356732
sg15
g140
sbs(I9
I9
tp144
g0
(g9
g2
Ntp145
Rp146
(dp147
g13
I01
sg14
F-0.052147371171269746
sg15
g144
sbs(I-2
I22
tp148
g0
(g9
g2
Ntp149
Rp150
(dp151
g13
I01
sg14
F1.415676444553909
sg15
g148
sbs(I8
I8
tp152
g0
(g9
g2
Ntp153
Rp154
(dp155
g13
I01
sg14
F0.6117111979257697
sg15
g152
sbs(I22
I8
tp156
g0
(g9
g2
Ntp157
Rp158
(dp159
g13
I01
sg14
F-1.4810560900577814
sg15
g156
sbs(I-7
I23
tp160
g0
(g9
g2
Ntp161
Rp162
(dp163
g13
I01
sg14
F-0.022094403724674194
sg15
g160
sbssS'nodes'
p164
(dp165
I0
g0
(cneat.genes
DefaultNodeGene
p166
g2
Ntp167
Rp168
(dp169
S'activation'
p170
S'tanh'
p171
sS'bias'
p172
F3.0225432814465276
sS'response'
p173
F1.0
sg15
I0
sS'aggregation'
p174
S'sum'
p175
sbsI1
g0
(g166
g2
Ntp176
Rp177
(dp178
g170
g171
sg172
F0.7278929059740114
sg173
F1.0
sg15
I1
sg174
g175
sbsI2
g0
(g166
g2
Ntp179
Rp180
(dp181
g170
g171
sg172
F0.3804429818688475
sg173
F1.0
sg15
I2
sg174
g175
sbsI3
g0
(g166
g2
Ntp182
Rp183
(dp184
g170
g171
sg172
F-19.91436870912816
sg173
F1.0
sg15
I3
sg174
g175
sbsI4
g0
(g166
g2
Ntp185
Rp186
(dp187
g170
g171
sg172
F23.902756843290362
sg173
F1.0
sg15
I4
sg174
g175
sbsI5
g0
(g166
g2
Ntp188
Rp189
(dp190
g170
g171
sg172
F8.922559278935644
sg173
F1.0
sg15
I5
sg174
g175
sbsI6
g0
(g166
g2
Ntp191
Rp192
(dp193
g170
g171
sg172
F-2.5998557472147414
sg173
F1.0
sg15
I6
sg174
g175
sbsI7
g0
(g166
g2
Ntp194
Rp195
(dp196
g170
g171
sg172
F-10.752116028588375
sg173
F1.0
sg15
I7
sg174
g175
sbsI8
g0
(g166
g2
Ntp197
Rp198
(dp199
g170
g171
sg172
F-7.710555606403592
sg173
F1.0
sg15
I8
sg174
g175
sbsI9
g0
(g166
g2
Ntp200
Rp201
(dp202
g170
g171
sg172
F1.3338178930679174
sg173
F1.0
sg15
I9
sg174
g175
sbsI521
g0
(g166
g2
Ntp203
Rp204
(dp205
g170
g171
sg172
F12.943028231549505
sg173
F1.0
sg15
I521
sg174
g175
sbsI550
g0
(g166
g2
Ntp206
Rp207
(dp208
g170
S'relu'
p209
sg172
F9.275253862162542
sg173
F1.0
sg15
I550
sg174
g175
sbsI21
g0
(g166
g2
Ntp210
Rp211
(dp212
g170
g171
sg172
F20.29997557995751
sg173
F1.0
sg15
I21
sg174
g175
sbsI22
g0
(g166
g2
Ntp213
Rp214
(dp215
g170
g171
sg172
F-13.310721383117068
sg173
F1.0
sg15
I22
sg174
g175
sbsI23
g0
(g166
g2
Ntp216
Rp217
(dp218
g170
g171
sg172
F-1.5950562641255304
sg173
F1.0
sg15
I23
sg174
g175
sbssg15
I143
sS'fitness'
p219
Nsb.