ccopy_reg
_reconstructor
p0
(cneat.genome
DefaultGenome
p1
c__builtin__
object
p2
Ntp3
Rp4
(dp5
S'connections'
p6
(dp7
(I23
I4
tp8
g0
(cneat.genes
DefaultConnectionGene
p9
g2
Ntp10
Rp11
(dp12
S'enabled'
p13
I01
sS'weight'
p14
F-2.050170943230003
sS'key'
p15
g8
sbs(I-2
I521
tp16
g0
(g9
g2
Ntp17
Rp18
(dp19
g13
I01
sg14
F2.1589874727555385
sg15
g16
sbs(I-2
I23
tp20
g0
(g9
g2
Ntp21
Rp22
(dp23
g13
I01
sg14
F0.6106280906439266
sg15
g20
sbs(I7
I7
tp24
g0
(g9
g2
Ntp25
Rp26
(dp27
g13
I01
sg14
F0.6392566584266561
sg15
g24
sbs(I9
I9
tp28
g0
(g9
g2
Ntp29
Rp30
(dp31
g13
I01
sg14
F-0.09394747181212341
sg15
g28
sbs(I23
I3
tp32
g0
(g9
g2
Ntp33
Rp34
(dp35
g13
I01
sg14
F0.6566694117924265
sg15
g32
sbs(I-1
I22
tp36
g0
(g9
g2
Ntp37
Rp38
(dp39
g13
I00
sg14
F0.17103108580744553
sg15
g36
sbs(I-3
I3
tp40
g0
(g9
g2
Ntp41
Rp42
(dp43
g13
I01
sg14
F-0.07914597491609543
sg15
g40
sbs(I-2
I22
tp44
g0
(g9
g2
Ntp45
Rp46
(dp47
g13
I01
sg14
F1.0455161908560477
sg15
g44
sbs(I-7
I22
tp48
g0
(g9
g2
Ntp49
Rp50
(dp51
g13
I00
sg14
F-0.0985652391034075
sg15
g48
sbs(I23
I7
tp52
g0
(g9
g2
Ntp53
Rp54
(dp55
g13
I01
sg14
F-0.21545344108034592
sg15
g52
sbs(I-10
I21
tp56
g0
(g9
g2
Ntp57
Rp58
(dp59
g13
I01
sg14
F0.6434001748077605
sg15
g56
sbs(I-5
I23
tp60
g0
(g9
g2
Ntp61
Rp62
(dp63
g13
I00
sg14
F1.7477371409140985
sg15
g60
sbs(I-6
I21
tp64
g0
(g9
g2
Ntp65
Rp66
(dp67
g13
I01
sg14
F0.9374911840099032
sg15
g64
sbs(I21
I0
tp68
g0
(g9
g2
Ntp69
Rp70
(dp71
g13
I00
sg14
F-0.8324356419740946
sg15
g68
sbs(I521
I21
tp72
g0
(g9
g2
Ntp73
Rp74
(dp75
g13
I01
sg14
F-0.03267303468525737
sg15
g72
sbs(I22
I7
tp76
g0
(g9
g2
Ntp77
Rp78
(dp79
g13
I01
sg14
F-1.6899403410042675
sg15
g76
sbs(I2
I2
tp80
g0
(g9
g2
Ntp81
Rp82
(dp83
g13
I00
sg14
F-1.3167711680486485
sg15
g80
sbs(I-7
I21
tp84
g0
(g9
g2
Ntp85
Rp86
(dp87
g13
I01
sg14
F0.5431298685965686
sg15
g84
sbs(I-5
I22
tp88
g0
(g9
g2
Ntp89
Rp90
(dp91
g13
I01
sg14
F0.6557219135632691
sg15
g88
sbs(I-2
I21
tp92
g0
(g9
g2
Ntp93
Rp94
(dp95
g13
I01
sg14
F-0.1268625137055732
sg15
g92
sbs(I-6
I22
tp96
g0
(g9
g2
Ntp97
Rp98
(dp99
g13
I01
sg14
F1.3529041011347402
sg15
g96
sbs(I22
I4
tp100
g0
(g9
g2
Ntp101
Rp102
(dp103
g13
I01
sg14
F0.9107036008990318
sg15
g100
sbs(I21
I4
tp104
g0
(g9
g2
Ntp105
Rp106
(dp107
g13
I01
sg14
F-0.6938815662967724
sg15
g104
sbs(I23
I1
tp108
g0
(g9
g2
Ntp109
Rp110
(dp111
g13
I01
sg14
F-2.0739102890083356
sg15
g108
sbs(I-8
I21
tp112
g0
(g9
g2
Ntp113
Rp114
(dp115
g13
I01
sg14
F-0.19801538465808524
sg15
g112
sbs(I22
I0
tp116
g0
(g9
g2
Ntp117
Rp118
(dp119
g13
I00
sg14
F-0.9678021166775812
sg15
g116
sbs(I23
I5
tp120
g0
(g9
g2
Ntp121
Rp122
(dp123
g13
I01
sg14
F0.9779385044111621
sg15
g120
sbs(I-10
I23
tp124
g0
(g9
g2
Ntp125
Rp126
(dp127
g13
I01
sg14
F0.6880461528866096
sg15
g124
sbs(I21
I9
tp128
g0
(g9
g2
Ntp129
Rp130
(dp131
g13
I00
sg14
F1.4343426961484624
sg15
g128
sbs(I-1
I21
tp132
g0
(g9
g2
Ntp133
Rp134
(dp135
g13
I00
sg14
F0.07799886057078187
sg15
g132
sbs(I-4
I22
tp136
g0
(g9
g2
Ntp137
Rp138
(dp139
g13
I01
sg14
F-3.185658601254956
sg15
g136
sbs(I23
I9
tp140
g0
(g9
g2
Ntp141
Rp142
(dp143
g13
I00
sg14
F2.4081713880864473
sg15
g140
sbs(I8
I8
tp144
g0
(g9
g2
Ntp145
Rp146
(dp147
g13
I01
sg14
F-1.1749146914286455
sg15
g144
sbs(I22
I8
tp148
g0
(g9
g2
Ntp149
Rp150
(dp151
g13
I01
sg14
F-1.2331493843342929
sg15
g148
sbs(I-7
I23
tp152
g0
(g9
g2
Ntp153
Rp154
(dp155
g13
I01
sg14
F-2.0891041725296224
sg15
g152
sbssS'nodes'
p156
(dp157
I0
g0
(cneat.genes
DefaultNodeGene
p158
g2
Ntp159
Rp160
(dp161
S'activation'
p162
S'tanh'
p163
sS'bias'
p164
F3.4355112058527433
sS'response'
p165
F1.0
sg15
I0
sS'aggregation'
p166
S'sum'
p167
sbsI1
g0
(g158
g2
Ntp168
Rp169
(dp170
g162
g163
sg164
F-15.514291153049887
sg165
F1.0
sg15
I1
sg166
g167
sbsI2
g0
(g158
g2
Ntp171
Rp172
(dp173
g162
g163
sg164
F0.9773973938104465
sg165
F1.0
sg15
I2
sg166
g167
sbsI3
g0
(g158
g2
Ntp174
Rp175
(dp176
g162
g163
sg164
F-20.188395836892965
sg165
F1.0
sg15
I3
sg166
g167
sbsI4
g0
(g158
g2
Ntp177
Rp178
(dp179
g162
S'relu'
p180
sg164
F24.18807866078794
sg165
F1.0
sg15
I4
sg166
g167
sbsI5
g0
(g158
g2
Ntp181
Rp182
(dp183
g162
g163
sg164
F8.764864492395496
sg165
F1.0
sg15
I5
sg166
g167
sbsI6
g0
(g158
g2
Ntp184
Rp185
(dp186
g162
g163
sg164
F18.050460622979866
sg165
F1.0
sg15
I6
sg166
g167
sbsI7
g0
(g158
g2
Ntp187
Rp188
(dp189
g162
g163
sg164
F5.587953477976356
sg165
F1.0
sg15
I7
sg166
g167
sbsI8
g0
(g158
g2
Ntp190
Rp191
(dp192
g162
g163
sg164
F-6.75531526283472
sg165
F1.0
sg15
I8
sg166
g167
sbsI9
g0
(g158
g2
Ntp193
Rp194
(dp195
g162
g180
sg164
F1.6650375902104098
sg165
F1.0
sg15
I9
sg166
g167
sbsI23
g0
(g158
g2
Ntp196
Rp197
(dp198
g162
g163
sg164
F-1.1458271880579867
sg165
F1.0
sg15
I23
sg166
g167
sbsI21
g0
(g158
g2
Ntp199
Rp200
(dp201
g162
g163
sg164
F21.09423568959989
sg165
F1.0
sg15
I21
sg166
g167
sbsI22
g0
(g158
g2
Ntp202
Rp203
(dp204
g162
g163
sg164
F-14.473705297028815
sg165
F1.0
sg15
I22
sg166
g167
sbsI521
g0
(g158
g2
Ntp205
Rp206
(dp207
g162
g163
sg164
F12.9556180408686
sg165
F1.0
sg15
I521
sg166
g167
sbssg15
I145
sS'fitness'
p208
Nsb.