ccopy_reg
_reconstructor
p0
(cneat.genome
DefaultGenome
p1
c__builtin__
object
p2
Ntp3
Rp4
(dp5
S'connections'
p6
(dp7
(I-4
I5
tp8
g0
(cneat.genes
DefaultConnectionGene
p9
g2
Ntp10
Rp11
(dp12
S'enabled'
p13
I01
sS'weight'
p14
F-1.0995096025104616
sS'key'
p15
g8
sbs(I257
I3
tp16
g0
(g9
g2
Ntp17
Rp18
(dp19
g13
I00
sg14
F0.07322751612904121
sg15
g16
sbs(I255
I8
tp20
g0
(g9
g2
Ntp21
Rp22
(dp23
g13
I01
sg14
F1.40217144917711
sg15
g20
sbs(I-9
I255
tp24
g0
(g9
g2
Ntp25
Rp26
(dp27
g13
I01
sg14
F0.3030781762047354
sg15
g24
sbs(I6
I6
tp28
g0
(g9
g2
Ntp29
Rp30
(dp31
g13
I01
sg14
F-1.2340908354369005
sg15
g28
sbs(I257
I717
tp32
g0
(g9
g2
Ntp33
Rp34
(dp35
g13
I01
sg14
F1.345077993508197
sg15
g32
sbs(I257
I6
tp36
g0
(g9
g2
Ntp37
Rp38
(dp39
g13
I00
sg14
F-0.05571100908838933
sg15
g36
sbs(I-5
I255
tp40
g0
(g9
g2
Ntp41
Rp42
(dp43
g13
I01
sg14
F-2.286264960226155
sg15
g40
sbs(I-10
I255
tp44
g0
(g9
g2
Ntp45
Rp46
(dp47
g13
I01
sg14
F2.8985072175034023
sg15
g44
sbs(I257
I2
tp48
g0
(g9
g2
Ntp49
Rp50
(dp51
g13
I01
sg14
F0.24422166597712602
sg15
g48
sbs(I-5
I257
tp52
g0
(g9
g2
Ntp53
Rp54
(dp55
g13
I01
sg14
F0.39573113441991314
sg15
g52
sbs(I3
I3
tp56
g0
(g9
g2
Ntp57
Rp58
(dp59
g13
I00
sg14
F2.4046006148769368
sg15
g56
sbs(I255
I4
tp60
g0
(g9
g2
Ntp61
Rp62
(dp63
g13
I00
sg14
F-0.936284552938428
sg15
g60
sbs(I255
I0
tp64
g0
(g9
g2
Ntp65
Rp66
(dp67
g13
I00
sg14
F-0.26788272800121726
sg15
g64
sbs(I257
I5
tp68
g0
(g9
g2
Ntp69
Rp70
(dp71
g13
I00
sg14
F2.428400031957525
sg15
g68
sbs(I2
I2
tp72
g0
(g9
g2
Ntp73
Rp74
(dp75
g13
I01
sg14
F-3.1189759296183484
sg15
g72
sbs(I255
I3
tp76
g0
(g9
g2
Ntp77
Rp78
(dp79
g13
I01
sg14
F1.7068609133140678
sg15
g76
sbs(I-3
I255
tp80
g0
(g9
g2
Ntp81
Rp82
(dp83
g13
I01
sg14
F1.725147740400801
sg15
g80
sbs(I255
I255
tp84
g0
(g9
g2
Ntp85
Rp86
(dp87
g13
I01
sg14
F-0.44329501703274854
sg15
g84
sbs(I717
I4
tp88
g0
(g9
g2
Ntp89
Rp90
(dp91
g13
I01
sg14
F-0.4247785708034712
sg15
g88
sbs(I-7
I255
tp92
g0
(g9
g2
Ntp93
Rp94
(dp95
g13
I01
sg14
F1.4361724644162157
sg15
g92
sbs(I740
I1
tp96
g0
(g9
g2
Ntp97
Rp98
(dp99
g13
I01
sg14
F-0.42731563446544635
sg15
g96
sbs(I257
I4
tp100
g0
(g9
g2
Ntp101
Rp102
(dp103
g13
I00
sg14
F0.5268533222857515
sg15
g100
sbs(I-2
I255
tp104
g0
(g9
g2
Ntp105
Rp106
(dp107
g13
I00
sg14
F0.1585601826516554
sg15
g104
sbs(I257
I9
tp108
g0
(g9
g2
Ntp109
Rp110
(dp111
g13
I01
sg14
F-1.3051875721793336
sg15
g108
sbs(I257
I411
tp112
g0
(g9
g2
Ntp113
Rp114
(dp115
g13
I01
sg14
F2.1411241310204803
sg15
g112
sbs(I257
I257
tp116
g0
(g9
g2
Ntp117
Rp118
(dp119
g13
I01
sg14
F-2.1596583595151455
sg15
g116
sbs(I257
I740
tp120
g0
(g9
g2
Ntp121
Rp122
(dp123
g13
I01
sg14
F0.6054045318897456
sg15
g120
sbs(I257
I1
tp124
g0
(g9
g2
Ntp125
Rp126
(dp127
g13
I00
sg14
F-0.19432050680647428
sg15
g124
sbs(I-3
I4
tp128
g0
(g9
g2
Ntp129
Rp130
(dp131
g13
I01
sg14
F-0.10782139191017802
sg15
g128
sbs(I411
I3
tp132
g0
(g9
g2
Ntp133
Rp134
(dp135
g13
I00
sg14
F1.9344210226049994
sg15
g132
sbs(I255
I1
tp136
g0
(g9
g2
Ntp137
Rp138
(dp139
g13
I01
sg14
F0.687537926414816
sg15
g136
sbssS'nodes'
p140
(dp141
I0
g0
(cneat.genes
DefaultNodeGene
p142
g2
Ntp143
Rp144
(dp145
S'activation'
p146
S'tanh'
p147
sS'bias'
p148
F2.563998491695756
sS'response'
p149
F1.0
sg15
I0
sS'aggregation'
p150
S'sum'
p151
sbsI1
g0
(g142
g2
Ntp152
Rp153
(dp154
g146
g147
sg148
F0.44135674958401183
sg149
F1.0
sg15
I1
sg150
g151
sbsI2
g0
(g142
g2
Ntp155
Rp156
(dp157
g146
g147
sg148
F-9.13242969676778
sg149
F1.0
sg15
I2
sg150
g151
sbsI3
g0
(g142
g2
Ntp158
Rp159
(dp160
g146
g147
sg148
F6.830018045742622
sg149
F1.0
sg15
I3
sg150
g151
sbsI4
g0
(g142
g2
Ntp161
Rp162
(dp163
g146
g147
sg148
F-9.423314275293405
sg149
F1.0
sg15
I4
sg150
g151
sbsI5
g0
(g142
g2
Ntp164
Rp165
(dp166
g146
g147
sg148
F20.969281606637587
sg149
F1.0
sg15
I5
sg150
g151
sbsI6
g0
(g142
g2
Ntp167
Rp168
(dp169
g146
g147
sg148
F20.35304761091832
sg149
F1.0
sg15
I6
sg150
g151
sbsI7
g0
(g142
g2
Ntp170
Rp171
(dp172
g146
g147
sg148
F-10.374833580671801
sg149
F1.0
sg15
I7
sg150
g151
sbsI8
g0
(g142
g2
Ntp173
Rp174
(dp175
g146
g147
sg148
F-14.003813608549335
sg149
F1.0
sg15
I8
sg150
g151
sbsI9
g0
(g142
g2
Ntp176
Rp177
(dp178
g146
g147
sg148
F0.4788370236980023
sg149
F1.0
sg15
I9
sg150
g151
sbsI257
g0
(g142
g2
Ntp179
Rp180
(dp181
g146
g147
sg148
F-15.556124922785177
sg149
F1.0
sg15
I257
sg150
g151
sbsI717
g0
(g142
g2
Ntp182
Rp183
(dp184
g146
S'relu'
p185
sg148
F1.3461008384791082
sg149
F1.0
sg15
I717
sg150
g151
sbsI740
g0
(g142
g2
Ntp186
Rp187
(dp188
g146
g185
sg148
F8.337271454318078
sg149
F1.0
sg15
I740
sg150
g151
sbsI411
g0
(g142
g2
Ntp189
Rp190
(dp191
g146
g147
sg148
F4.277609934622355
sg149
F1.0
sg15
I411
sg150
g151
sbsI255
g0
(g142
g2
Ntp192
Rp193
(dp194
g146
g147
sg148
F3.2408604499029967
sg149
F1.0
sg15
I255
sg150
g151
sbssg15
I145
sS'fitness'
p195
F-0.025871616687050736
sb.