ccopy_reg
_reconstructor
p0
(cneat.genome
DefaultGenome
p1
c__builtin__
object
p2
Ntp3
Rp4
(dp5
S'connections'
p6
(dp7
(I12
I1
tp8
g0
(cneat.genes
DefaultConnectionGene
p9
g2
Ntp10
Rp11
(dp12
S'enabled'
p13
I00
sS'weight'
p14
F-0.06718534160034458
sS'key'
p15
g8
sbs(I12
I5
tp16
g0
(g9
g2
Ntp17
Rp18
(dp19
g13
I01
sg14
F0.5247649810078965
sg15
g16
sbs(I-3
I12
tp20
g0
(g9
g2
Ntp21
Rp22
(dp23
g13
I01
sg14
F-0.15167643284124052
sg15
g20
sbs(I12
I9
tp24
g0
(g9
g2
Ntp25
Rp26
(dp27
g13
I01
sg14
F-0.801475293951943
sg15
g24
sbs(I-6
I12
tp28
g0
(g9
g2
Ntp29
Rp30
(dp31
g13
I01
sg14
F0.8070925059377492
sg15
g28
sbs(I12
I2
tp32
g0
(g9
g2
Ntp33
Rp34
(dp35
g13
I00
sg14
F-0.391422442189741
sg15
g32
sbs(I94
I2
tp36
g0
(g9
g2
Ntp37
Rp38
(dp39
g13
I01
sg14
F-0.8943550861076861
sg15
g36
sbs(I12
I6
tp40
g0
(g9
g2
Ntp41
Rp42
(dp43
g13
I01
sg14
F1.0699504945249465
sg15
g40
sbs(I12
I94
tp44
g0
(g9
g2
Ntp45
Rp46
(dp47
g13
I01
sg14
F0.6472841581900171
sg15
g44
sbs(I12
I3
tp48
g0
(g9
g2
Ntp49
Rp50
(dp51
g13
I01
sg14
F0.4484888901076409
sg15
g48
sbs(I-2
I12
tp52
g0
(g9
g2
Ntp53
Rp54
(dp55
g13
I01
sg14
F-0.6465728920391841
sg15
g52
sbs(I12
I7
tp56
g0
(g9
g2
Ntp57
Rp58
(dp59
g13
I01
sg14
F-0.5586588482044887
sg15
g56
sbs(I-5
I12
tp60
g0
(g9
g2
Ntp61
Rp62
(dp63
g13
I01
sg14
F1.3331714190691648
sg15
g60
sbs(I-8
I12
tp64
g0
(g9
g2
Ntp65
Rp66
(dp67
g13
I01
sg14
F0.844519428296536
sg15
g64
sbs(I-1
I12
tp68
g0
(g9
g2
Ntp69
Rp70
(dp71
g13
I01
sg14
F-0.3502511380561189
sg15
g68
sbs(I12
I0
tp72
g0
(g9
g2
Ntp73
Rp74
(dp75
g13
I01
sg14
F0.6710006667663253
sg15
g72
sbs(I-7
I12
tp76
g0
(g9
g2
Ntp77
Rp78
(dp79
g13
I01
sg14
F-0.862648154952119
sg15
g76
sbs(I12
I4
tp80
g0
(g9
g2
Ntp81
Rp82
(dp83
g13
I01
sg14
F0.77357144418718
sg15
g80
sbs(I-9
I12
tp84
g0
(g9
g2
Ntp85
Rp86
(dp87
g13
I01
sg14
F-0.1505190315632332
sg15
g84
sbs(I-4
I12
tp88
g0
(g9
g2
Ntp89
Rp90
(dp91
g13
I01
sg14
F0.30373590976818154
sg15
g88
sbs(I12
I8
tp92
g0
(g9
g2
Ntp93
Rp94
(dp95
g13
I01
sg14
F-1.3966014230509316
sg15
g92
sbssS'nodes'
p96
(dp97
I0
g0
(cneat.genes
DefaultNodeGene
p98
g2
Ntp99
Rp100
(dp101
S'activation'
p102
S'relu'
p103
sS'bias'
p104
F-1.736751011474815
sS'response'
p105
F1.0
sg15
I0
sS'aggregation'
p106
S'sum'
p107
sbsI1
g0
(g98
g2
Ntp108
Rp109
(dp110
g102
g103
sg104
F-11.954304794742907
sg105
F1.0
sg15
I1
sg106
g107
sbsI2
g0
(g98
g2
Ntp111
Rp112
(dp113
g102
g103
sg104
F1.2075189649336058
sg105
F1.0
sg15
I2
sg106
g107
sbsI3
g0
(g98
g2
Ntp114
Rp115
(dp116
g102
g103
sg104
F3.785159102534963
sg105
F1.0
sg15
I3
sg106
g107
sbsI4
g0
(g98
g2
Ntp117
Rp118
(dp119
g102
g103
sg104
F-4.75268886954237
sg105
F1.0
sg15
I4
sg106
g107
sbsI5
g0
(g98
g2
Ntp120
Rp121
(dp122
g102
g103
sg104
F-1.8811436240757613
sg105
F1.0
sg15
I5
sg106
g107
sbsI6
g0
(g98
g2
Ntp123
Rp124
(dp125
g102
g103
sg104
F-14.40201407150294
sg105
F1.0
sg15
I6
sg106
g107
sbsI7
g0
(g98
g2
Ntp126
Rp127
(dp128
g102
g103
sg104
F-6.100237012634473
sg105
F1.0
sg15
I7
sg106
g107
sbsI8
g0
(g98
g2
Ntp129
Rp130
(dp131
g102
g103
sg104
F2.5953179527056003
sg105
F1.0
sg15
I8
sg106
g107
sbsI9
g0
(g98
g2
Ntp132
Rp133
(dp134
g102
g103
sg104
F5.619606594652062
sg105
F1.0
sg15
I9
sg106
g107
sbsI12
g0
(g98
g2
Ntp135
Rp136
(dp137
g102
g103
sg104
F2.912984936758697
sg105
F1.0
sg15
I12
sg106
g107
sbsI94
g0
(g98
g2
Ntp138
Rp139
(dp140
g102
g103
sg104
F3.750771328035472
sg105
F1.0
sg15
I94
sg106
g107
sbssg15
I145
sS'fitness'
p141
Nsb.