ccopy_reg
_reconstructor
p0
(cneat.genome
DefaultGenome
p1
c__builtin__
object
p2
Ntp3
Rp4
(dp5
S'connections'
p6
(dp7
(I-1
I27
tp8
g0
(cneat.genes
DefaultConnectionGene
p9
g2
Ntp10
Rp11
(dp12
S'enabled'
p13
I01
sS'weight'
p14
F0.5773927786296524
sS'key'
p15
g8
sbs(I-2
I27
tp16
g0
(g9
g2
Ntp17
Rp18
(dp19
g13
I01
sg14
F1.7267473958882449
sg15
g16
sbs(I27
I1
tp20
g0
(g9
g2
Ntp21
Rp22
(dp23
g13
I01
sg14
F-0.6635659338022708
sg15
g20
sbs(I-6
I27
tp24
g0
(g9
g2
Ntp25
Rp26
(dp27
g13
I01
sg14
F1.0921718628339196
sg15
g24
sbs(I-5
I27
tp28
g0
(g9
g2
Ntp29
Rp30
(dp31
g13
I01
sg14
F-0.8281177150938892
sg15
g28
sbs(I-10
I27
tp32
g0
(g9
g2
Ntp33
Rp34
(dp35
g13
I01
sg14
F-0.10426841994837788
sg15
g32
sbs(I-8
I27
tp36
g0
(g9
g2
Ntp37
Rp38
(dp39
g13
I01
sg14
F1.5064081189705572
sg15
g36
sbs(I27
I0
tp40
g0
(g9
g2
Ntp41
Rp42
(dp43
g13
I01
sg14
F0.5788755431803875
sg15
g40
sbs(I27
I6
tp44
g0
(g9
g2
Ntp45
Rp46
(dp47
g13
I01
sg14
F0.4261125613877306
sg15
g44
sbs(I27
I7
tp48
g0
(g9
g2
Ntp49
Rp50
(dp51
g13
I01
sg14
F-0.860977616974753
sg15
g48
sbs(I-7
I27
tp52
g0
(g9
g2
Ntp53
Rp54
(dp55
g13
I01
sg14
F1.3550254753353697
sg15
g52
sbs(I27
I4
tp56
g0
(g9
g2
Ntp57
Rp58
(dp59
g13
I01
sg14
F0.9146501632896873
sg15
g56
sbs(I-4
I27
tp60
g0
(g9
g2
Ntp61
Rp62
(dp63
g13
I01
sg14
F0.45891092358881247
sg15
g60
sbs(I27
I5
tp64
g0
(g9
g2
Ntp65
Rp66
(dp67
g13
I01
sg14
F0.5301689195186714
sg15
g64
sbs(I27
I8
tp68
g0
(g9
g2
Ntp69
Rp70
(dp71
g13
I01
sg14
F-0.4172588927303302
sg15
g68
sbs(I-9
I27
tp72
g0
(g9
g2
Ntp73
Rp74
(dp75
g13
I01
sg14
F-1.7016317477759084
sg15
g72
sbs(I27
I2
tp76
g0
(g9
g2
Ntp77
Rp78
(dp79
g13
I01
sg14
F1.6503264749333144
sg15
g76
sbs(I27
I9
tp80
g0
(g9
g2
Ntp81
Rp82
(dp83
g13
I01
sg14
F1.3200886439675281
sg15
g80
sbs(I27
I3
tp84
g0
(g9
g2
Ntp85
Rp86
(dp87
g13
I01
sg14
F-2.029319741804342
sg15
g84
sbs(I-3
I27
tp88
g0
(g9
g2
Ntp89
Rp90
(dp91
g13
I01
sg14
F0.5918196563784035
sg15
g88
sbssS'nodes'
p92
(dp93
I0
g0
(cneat.genes
DefaultNodeGene
p94
g2
Ntp95
Rp96
(dp97
S'activation'
p98
S'relu'
p99
sS'bias'
p100
F9.623295394338275
sS'response'
p101
F1.0
sg15
I0
sS'aggregation'
p102
S'sum'
p103
sbsI1
g0
(g94
g2
Ntp104
Rp105
(dp106
g98
g99
sg100
F21.949635842212054
sg101
F1.0
sg15
I1
sg102
g103
sbsI2
g0
(g94
g2
Ntp107
Rp108
(dp109
g98
g99
sg100
F-22.281663379462547
sg101
F1.0
sg15
I2
sg102
g103
sbsI3
g0
(g94
g2
Ntp110
Rp111
(dp112
g98
g99
sg100
F-5.084897123729751
sg101
F1.0
sg15
I3
sg102
g103
sbsI4
g0
(g94
g2
Ntp113
Rp114
(dp115
g98
g99
sg100
F-14.454314776128623
sg101
F1.0
sg15
I4
sg102
g103
sbsI5
g0
(g94
g2
Ntp116
Rp117
(dp118
g98
g99
sg100
F2.621933479105354
sg101
F1.0
sg15
I5
sg102
g103
sbsI6
g0
(g94
g2
Ntp119
Rp120
(dp121
g98
g99
sg100
F-4.2457497013349785
sg101
F1.0
sg15
I6
sg102
g103
sbsI7
g0
(g94
g2
Ntp122
Rp123
(dp124
g98
g99
sg100
F-4.432962679233979
sg101
F1.0
sg15
I7
sg102
g103
sbsI8
g0
(g94
g2
Ntp125
Rp126
(dp127
g98
g99
sg100
F-15.150295041060579
sg101
F1.0
sg15
I8
sg102
g103
sbsI9
g0
(g94
g2
Ntp128
Rp129
(dp130
g98
g99
sg100
F-8.680615446944664
sg101
F1.0
sg15
I9
sg102
g103
sbsI27
g0
(g94
g2
Ntp131
Rp132
(dp133
g98
g99
sg100
F1.6666629887961626
sg101
F1.0
sg15
I27
sg102
g103
sbssg15
I146
sS'fitness'
p134
Nsb.