ccopy_reg
_reconstructor
p0
(cneat.genome
DefaultGenome
p1
c__builtin__
object
p2
Ntp3
Rp4
(dp5
S'connections'
p6
(dp7
(I124
I5
tp8
g0
(cneat.genes
DefaultConnectionGene
p9
g2
Ntp10
Rp11
(dp12
S'enabled'
p13
I01
sS'weight'
p14
F1.469666198155633
sS'key'
p15
g8
sbs(I-1
I0
tp16
g0
(g9
g2
Ntp17
Rp18
(dp19
g13
I01
sg14
F3.9423098440733804
sg15
g16
sbs(I-6
I122
tp20
g0
(g9
g2
Ntp21
Rp22
(dp23
g13
I01
sg14
F1.0847843384890759
sg15
g20
sbs(I-10
I122
tp24
g0
(g9
g2
Ntp25
Rp26
(dp27
g13
I00
sg14
F-1.2189165223699476
sg15
g24
sbs(I124
I9
tp28
g0
(g9
g2
Ntp29
Rp30
(dp31
g13
I01
sg14
F0.7336818201004558
sg15
g28
sbs(I7
I7
tp32
g0
(g9
g2
Ntp33
Rp34
(dp35
g13
I01
sg14
F3.293675193897858
sg15
g32
sbs(I-9
I2
tp36
g0
(g9
g2
Ntp37
Rp38
(dp39
g13
I01
sg14
F1.250714746428082
sg15
g36
sbs(I122
I9
tp40
g0
(g9
g2
Ntp41
Rp42
(dp43
g13
I00
sg14
F0.6835707657241425
sg15
g40
sbs(I6
I566
tp44
g0
(g9
g2
Ntp45
Rp46
(dp47
g13
I01
sg14
F1.6671044137628057
sg15
g44
sbs(I-8
I566
tp48
g0
(g9
g2
Ntp49
Rp50
(dp51
g13
I01
sg14
F0.24903753896765285
sg15
g48
sbs(I-5
I123
tp52
g0
(g9
g2
Ntp53
Rp54
(dp55
g13
I01
sg14
F-0.543178198785752
sg15
g52
sbs(I-1
I124
tp56
g0
(g9
g2
Ntp57
Rp58
(dp59
g13
I01
sg14
F-0.6931291711381404
sg15
g56
sbs(I122
I0
tp60
g0
(g9
g2
Ntp61
Rp62
(dp63
g13
I00
sg14
F-0.8576051038406741
sg15
g60
sbs(I-8
I124
tp64
g0
(g9
g2
Ntp65
Rp66
(dp67
g13
I01
sg14
F-1.3244009642635437
sg15
g64
sbs(I124
I3
tp68
g0
(g9
g2
Ntp69
Rp70
(dp71
g13
I01
sg14
F1.3012359638852031
sg15
g68
sbs(I122
I4
tp72
g0
(g9
g2
Ntp73
Rp74
(dp75
g13
I01
sg14
F0.8679192151064867
sg15
g72
sbs(I566
I6
tp76
g0
(g9
g2
Ntp77
Rp78
(dp79
g13
I01
sg14
F1.7372127247632045
sg15
g76
sbs(I124
I7
tp80
g0
(g9
g2
Ntp81
Rp82
(dp83
g13
I01
sg14
F-1.9536346972574696
sg15
g80
sbs(I-2
I123
tp84
g0
(g9
g2
Ntp85
Rp86
(dp87
g13
I01
sg14
F-0.41287098076649636
sg15
g84
sbs(I-2
I122
tp88
g0
(g9
g2
Ntp89
Rp90
(dp91
g13
I01
sg14
F0.24737909558680637
sg15
g88
sbs(I-6
I124
tp92
g0
(g9
g2
Ntp93
Rp94
(dp95
g13
I01
sg14
F-0.5974569838270953
sg15
g92
sbs(I122
I5
tp96
g0
(g9
g2
Ntp97
Rp98
(dp99
g13
I00
sg14
F-0.1659900172386253
sg15
g96
sbs(I124
I0
tp100
g0
(g9
g2
Ntp101
Rp102
(dp103
g13
I01
sg14
F0.4899447421137343
sg15
g100
sbs(I123
I8
tp104
g0
(g9
g2
Ntp105
Rp106
(dp107
g13
I00
sg14
F-0.7821133035875037
sg15
g104
sbs(I123
I3
tp108
g0
(g9
g2
Ntp109
Rp110
(dp111
g13
I00
sg14
F-1.0546573163107227
sg15
g108
sbs(I3
I3
tp112
g0
(g9
g2
Ntp113
Rp114
(dp115
g13
I01
sg14
F-2.2935344800475295
sg15
g112
sbs(I-1
I123
tp116
g0
(g9
g2
Ntp117
Rp118
(dp119
g13
I01
sg14
F-1.1484670150688467
sg15
g116
sbs(I124
I4
tp120
g0
(g9
g2
Ntp121
Rp122
(dp123
g13
I01
sg14
F2.2361915321787236
sg15
g120
sbs(I-9
I124
tp124
g0
(g9
g2
Ntp125
Rp126
(dp127
g13
I01
sg14
F-2.691015700143167
sg15
g124
sbs(I-5
I124
tp128
g0
(g9
g2
Ntp129
Rp130
(dp131
g13
I01
sg14
F-3.010421070250156
sg15
g128
sbs(I-6
I5
tp132
g0
(g9
g2
Ntp133
Rp134
(dp135
g13
I01
sg14
F-0.8694785800735466
sg15
g132
sbs(I122
I2
tp136
g0
(g9
g2
Ntp137
Rp138
(dp139
g13
I01
sg14
F1.1828545923311629
sg15
g136
sbs(I-7
I122
tp140
g0
(g9
g2
Ntp141
Rp142
(dp143
g13
I01
sg14
F0.547615549081413
sg15
g140
sbs(I-2
I124
tp144
g0
(g9
g2
Ntp145
Rp146
(dp147
g13
I01
sg14
F1.6934280942842286
sg15
g144
sbs(I8
I8
tp148
g0
(g9
g2
Ntp149
Rp150
(dp151
g13
I01
sg14
F0.17053102439707069
sg15
g148
sbs(I124
I1
tp152
g0
(g9
g2
Ntp153
Rp154
(dp155
g13
I01
sg14
F-2.7381920938198485
sg15
g152
sbs(I122
I6
tp156
g0
(g9
g2
Ntp157
Rp158
(dp159
g13
I01
sg14
F-0.035963944275775955
sg15
g156
sbs(I-3
I122
tp160
g0
(g9
g2
Ntp161
Rp162
(dp163
g13
I01
sg14
F-0.3619570714164341
sg15
g160
sbssS'nodes'
p164
(dp165
I0
g0
(cneat.genes
DefaultNodeGene
p166
g2
Ntp167
Rp168
(dp169
S'activation'
p170
S'tanh'
p171
sS'bias'
p172
F-23.79662073858386
sS'response'
p173
F1.0
sg15
I0
sS'aggregation'
p174
S'sum'
p175
sbsI1
g0
(g166
g2
Ntp176
Rp177
(dp178
g170
g171
sg172
F-19.866724909614696
sg173
F1.0
sg15
I1
sg174
g175
sbsI2
g0
(g166
g2
Ntp179
Rp180
(dp181
g170
g171
sg172
F-6.331467547774285
sg173
F1.0
sg15
I2
sg174
g175
sbsI3
g0
(g166
g2
Ntp182
Rp183
(dp184
g170
g171
sg172
F3.11830315341423
sg173
F1.0
sg15
I3
sg174
g175
sbsI4
g0
(g166
g2
Ntp185
Rp186
(dp187
g170
g171
sg172
F13.207272293144676
sg173
F1.0
sg15
I4
sg174
g175
sbsI5
g0
(g166
g2
Ntp188
Rp189
(dp190
g170
g171
sg172
F6.02875767439885
sg173
F1.0
sg15
I5
sg174
g175
sbsI6
g0
(g166
g2
Ntp191
Rp192
(dp193
g170
g171
sg172
F-0.9895922041021359
sg173
F1.0
sg15
I6
sg174
g175
sbsI7
g0
(g166
g2
Ntp194
Rp195
(dp196
g170
g171
sg172
F-14.503486543429988
sg173
F1.0
sg15
I7
sg174
g175
sbsI8
g0
(g166
g2
Ntp197
Rp198
(dp199
g170
g171
sg172
F-6.318811547137213
sg173
F1.0
sg15
I8
sg174
g175
sbsI9
g0
(g166
g2
Ntp200
Rp201
(dp202
g170
g171
sg172
F-1.1590298633478173
sg173
F1.0
sg15
I9
sg174
g175
sbsI566
g0
(g166
g2
Ntp203
Rp204
(dp205
g170
g171
sg172
F13.126052902481089
sg173
F1.0
sg15
I566
sg174
g175
sbsI122
g0
(g166
g2
Ntp206
Rp207
(dp208
g170
g171
sg172
F11.595918484035096
sg173
F1.0
sg15
I122
sg174
g175
sbsI123
g0
(g166
g2
Ntp209
Rp210
(dp211
g170
g171
sg172
F-3.1343320800886296
sg173
F1.0
sg15
I123
sg174
g175
sbsI124
g0
(g166
g2
Ntp212
Rp213
(dp214
g170
g171
sg172
F11.433302404865389
sg173
F1.0
sg15
I124
sg174
g175
sbssg15
I147
sS'fitness'
p215
F-0.0058147950707836404
sb.