ccopy_reg
_reconstructor
p0
(cneat.genome
DefaultGenome
p1
c__builtin__
object
p2
Ntp3
Rp4
(dp5
S'connections'
p6
(dp7
(I-5
I64
tp8
g0
(cneat.genes
DefaultConnectionGene
p9
g2
Ntp10
Rp11
(dp12
S'enabled'
p13
I01
sS'weight'
p14
F0.5023653009577836
sS'key'
p15
g8
sbs(I64
I1
tp16
g0
(g9
g2
Ntp17
Rp18
(dp19
g13
I01
sg14
F2.630598032668494
sg15
g16
sbs(I64
I0
tp20
g0
(g9
g2
Ntp21
Rp22
(dp23
g13
I01
sg14
F-1.0673900745698013
sg15
g20
sbs(I-1
I64
tp24
g0
(g9
g2
Ntp25
Rp26
(dp27
g13
I01
sg14
F-0.37594803429262125
sg15
g24
sbs(I-6
I64
tp28
g0
(g9
g2
Ntp29
Rp30
(dp31
g13
I01
sg14
F1.6357518991186506
sg15
g28
sbs(I-4
I64
tp32
g0
(g9
g2
Ntp33
Rp34
(dp35
g13
I01
sg14
F0.26492193787413726
sg15
g32
sbs(I-3
I64
tp36
g0
(g9
g2
Ntp37
Rp38
(dp39
g13
I01
sg14
F0.8084268201527579
sg15
g36
sbs(I-10
I64
tp40
g0
(g9
g2
Ntp41
Rp42
(dp43
g13
I01
sg14
F1.5058008065677997
sg15
g40
sbs(I-8
I64
tp44
g0
(g9
g2
Ntp45
Rp46
(dp47
g13
I01
sg14
F-0.3517706153432615
sg15
g44
sbs(I64
I6
tp48
g0
(g9
g2
Ntp49
Rp50
(dp51
g13
I01
sg14
F0.5562105152345246
sg15
g48
sbs(I-7
I64
tp52
g0
(g9
g2
Ntp53
Rp54
(dp55
g13
I01
sg14
F0.47976931046999255
sg15
g52
sbs(I-9
I64
tp56
g0
(g9
g2
Ntp57
Rp58
(dp59
g13
I01
sg14
F0.37021694265345406
sg15
g56
sbs(I64
I7
tp60
g0
(g9
g2
Ntp61
Rp62
(dp63
g13
I01
sg14
F0.5620786165431528
sg15
g60
sbs(I64
I4
tp64
g0
(g9
g2
Ntp65
Rp66
(dp67
g13
I01
sg14
F-0.017982715961101015
sg15
g64
sbs(I64
I9
tp68
g0
(g9
g2
Ntp69
Rp70
(dp71
g13
I01
sg14
F-0.13222283105575655
sg15
g68
sbs(I64
I5
tp72
g0
(g9
g2
Ntp73
Rp74
(dp75
g13
I01
sg14
F-2.4314955988078917
sg15
g72
sbs(I64
I3
tp76
g0
(g9
g2
Ntp77
Rp78
(dp79
g13
I01
sg14
F0.4530481212648588
sg15
g76
sbs(I64
I8
tp80
g0
(g9
g2
Ntp81
Rp82
(dp83
g13
I01
sg14
F2.638222888835015
sg15
g80
sbs(I64
I2
tp84
g0
(g9
g2
Ntp85
Rp86
(dp87
g13
I01
sg14
F-2.4930419012481386
sg15
g84
sbs(I-2
I64
tp88
g0
(g9
g2
Ntp89
Rp90
(dp91
g13
I01
sg14
F0.18173609245496647
sg15
g88
sbssS'nodes'
p92
(dp93
I0
g0
(cneat.genes
DefaultNodeGene
p94
g2
Ntp95
Rp96
(dp97
S'activation'
p98
S'relu'
p99
sS'bias'
p100
F-1.3333848442514111
sS'response'
p101
F1.0
sg15
I0
sS'aggregation'
p102
S'sum'
p103
sbsI1
g0
(g94
g2
Ntp104
Rp105
(dp106
g98
g99
sg100
F3.0015780354586936
sg101
F1.0
sg15
I1
sg102
g103
sbsI2
g0
(g94
g2
Ntp107
Rp108
(dp109
g98
g99
sg100
F-8.544683306758538
sg101
F1.0
sg15
I2
sg102
g103
sbsI3
g0
(g94
g2
Ntp110
Rp111
(dp112
g98
g99
sg100
F-13.734184971846934
sg101
F1.0
sg15
I3
sg102
g103
sbsI4
g0
(g94
g2
Ntp113
Rp114
(dp115
g98
g99
sg100
F-0.4321881349628098
sg101
F1.0
sg15
I4
sg102
g103
sbsI5
g0
(g94
g2
Ntp116
Rp117
(dp118
g98
S'tanh'
p119
sg100
F2.2140196101801592
sg101
F1.0
sg15
I5
sg102
g103
sbsI6
g0
(g94
g2
Ntp120
Rp121
(dp122
g98
g99
sg100
F-11.43410683333861
sg101
F1.0
sg15
I6
sg102
g103
sbsI7
g0
(g94
g2
Ntp123
Rp124
(dp125
g98
g99
sg100
F13.396528998708803
sg101
F1.0
sg15
I7
sg102
g103
sbsI8
g0
(g94
g2
Ntp126
Rp127
(dp128
g98
g99
sg100
F15.270916829617214
sg101
F1.0
sg15
I8
sg102
g103
sbsI9
g0
(g94
g2
Ntp129
Rp130
(dp131
g98
g99
sg100
F-5.166999000670811
sg101
F1.0
sg15
I9
sg102
g103
sbsI64
g0
(g94
g2
Ntp132
Rp133
(dp134
g98
g99
sg100
F15.671057215127522
sg101
F1.0
sg15
I64
sg102
g103
sbssg15
I149
sS'fitness'
p135
Nsb.