ccopy_reg
_reconstructor
p0
(cneat.genome
DefaultGenome
p1
c__builtin__
object
p2
Ntp3
Rp4
(dp5
S'connections'
p6
(dp7
(I-5
I186
tp8
g0
(cneat.genes
DefaultConnectionGene
p9
g2
Ntp10
Rp11
(dp12
S'enabled'
p13
I00
sS'weight'
p14
F-1.8003322556337877
sS'key'
p15
g8
sbs(I-2
I186
tp16
g0
(g9
g2
Ntp17
Rp18
(dp19
g13
I01
sg14
F-0.20467361429785602
sg15
g16
sbs(I186
I1
tp20
g0
(g9
g2
Ntp21
Rp22
(dp23
g13
I00
sg14
F0.5751948708140018
sg15
g20
sbs(I6
I6
tp24
g0
(g9
g2
Ntp25
Rp26
(dp27
g13
I01
sg14
F1.1887882000815895
sg15
g24
sbs(I-3
I188
tp28
g0
(g9
g2
Ntp29
Rp30
(dp31
g13
I01
sg14
F1.3468437411676626
sg15
g28
sbs(I186
I5
tp32
g0
(g9
g2
Ntp33
Rp34
(dp35
g13
I00
sg14
F-0.8461894735344255
sg15
g32
sbs(I-7
I437
tp36
g0
(g9
g2
Ntp37
Rp38
(dp39
g13
I01
sg14
F-0.7312342924920223
sg15
g36
sbs(I-4
I186
tp40
g0
(g9
g2
Ntp41
Rp42
(dp43
g13
I01
sg14
F-1.5112641593652092
sg15
g40
sbs(I188
I4
tp44
g0
(g9
g2
Ntp45
Rp46
(dp47
g13
I00
sg14
F-1.6175187349027642
sg15
g44
sbs(I3
I3
tp48
g0
(g9
g2
Ntp49
Rp50
(dp51
g13
I01
sg14
F-2.9168650227333845
sg15
g48
sbs(I4
I4
tp52
g0
(g9
g2
Ntp53
Rp54
(dp55
g13
I01
sg14
F-0.6735055699773331
sg15
g52
sbs(I546
I1
tp56
g0
(g9
g2
Ntp57
Rp58
(dp59
g13
I01
sg14
F1.1833924419853532
sg15
g56
sbs(I-7
I186
tp60
g0
(g9
g2
Ntp61
Rp62
(dp63
g13
I01
sg14
F-0.9403967862118261
sg15
g60
sbs(I188
I1
tp64
g0
(g9
g2
Ntp65
Rp66
(dp67
g13
I01
sg14
F-0.021771734955563834
sg15
g64
sbs(I186
I6
tp68
g0
(g9
g2
Ntp69
Rp70
(dp71
g13
I01
sg14
F2.526922799885491
sg15
g68
sbs(I-3
I186
tp72
g0
(g9
g2
Ntp73
Rp74
(dp75
g13
I01
sg14
F-0.7413851937900034
sg15
g72
sbs(I188
I5
tp76
g0
(g9
g2
Ntp77
Rp78
(dp79
g13
I01
sg14
F0.40656232636325795
sg15
g76
sbs(I0
I0
tp80
g0
(g9
g2
Ntp81
Rp82
(dp83
g13
I00
sg14
F1.5347305600291978
sg15
g80
sbs(I-6
I186
tp84
g0
(g9
g2
Ntp85
Rp86
(dp87
g13
I01
sg14
F-0.12588688273706944
sg15
g84
sbs(I-10
I186
tp88
g0
(g9
g2
Ntp89
Rp90
(dp91
g13
I00
sg14
F0.4782673432939345
sg15
g88
sbs(I186
I546
tp92
g0
(g9
g2
Ntp93
Rp94
(dp95
g13
I01
sg14
F0.47605777404270383
sg15
g92
sbs(I186
I8
tp96
g0
(g9
g2
Ntp97
Rp98
(dp99
g13
I01
sg14
F1.1842695777171208
sg15
g96
sbs(I188
I188
tp100
g0
(g9
g2
Ntp101
Rp102
(dp103
g13
I01
sg14
F2.1165031844205906
sg15
g100
sbs(I-5
I188
tp104
g0
(g9
g2
Ntp105
Rp106
(dp107
g13
I00
sg14
F0.03802083757264063
sg15
g104
sbs(I-4
I188
tp108
g0
(g9
g2
Ntp109
Rp110
(dp111
g13
I01
sg14
F-0.1114165634273015
sg15
g108
sbs(I8
I8
tp112
g0
(g9
g2
Ntp113
Rp114
(dp115
g13
I01
sg14
F-0.2852314410004171
sg15
g112
sbs(I186
I4
tp116
g0
(g9
g2
Ntp117
Rp118
(dp119
g13
I01
sg14
F1.477949197646984
sg15
g116
sbs(I186
I0
tp120
g0
(g9
g2
Ntp121
Rp122
(dp123
g13
I01
sg14
F-1.6428684104875129
sg15
g120
sbs(I-10
I188
tp124
g0
(g9
g2
Ntp125
Rp126
(dp127
g13
I01
sg14
F-1.732472970755526
sg15
g124
sbssS'nodes'
p128
(dp129
I0
g0
(cneat.genes
DefaultNodeGene
p130
g2
Ntp131
Rp132
(dp133
S'activation'
p134
S'relu'
p135
sS'bias'
p136
F-8.100460127376294
sS'response'
p137
F1.0
sg15
I0
sS'aggregation'
p138
S'sum'
p139
sbsI1
g0
(g130
g2
Ntp140
Rp141
(dp142
g134
S'tanh'
p143
sg136
F5.73927163644368
sg137
F1.0
sg15
I1
sg138
g139
sbsI2
g0
(g130
g2
Ntp144
Rp145
(dp146
g134
g143
sg136
F12.144160683638566
sg137
F1.0
sg15
I2
sg138
g139
sbsI3
g0
(g130
g2
Ntp147
Rp148
(dp149
g134
g143
sg136
F17.10340116393141
sg137
F1.0
sg15
I3
sg138
g139
sbsI4
g0
(g130
g2
Ntp150
Rp151
(dp152
g134
g143
sg136
F0.005173766780454518
sg137
F1.0
sg15
I4
sg138
g139
sbsI5
g0
(g130
g2
Ntp153
Rp154
(dp155
g134
g143
sg136
F-7.132103374645783
sg137
F1.0
sg15
I5
sg138
g139
sbsI6
g0
(g130
g2
Ntp156
Rp157
(dp158
g134
g143
sg136
F4.585164461595706
sg137
F1.0
sg15
I6
sg138
g139
sbsI7
g0
(g130
g2
Ntp159
Rp160
(dp161
g134
g143
sg136
F-1.7425600782622006
sg137
F1.0
sg15
I7
sg138
g139
sbsI8
g0
(g130
g2
Ntp162
Rp163
(dp164
g134
g143
sg136
F-22.218330254739833
sg137
F1.0
sg15
I8
sg138
g139
sbsI9
g0
(g130
g2
Ntp165
Rp166
(dp167
g134
g143
sg136
F7.718541600396294
sg137
F1.0
sg15
I9
sg138
g139
sbsI546
g0
(g130
g2
Ntp168
Rp169
(dp170
g134
g143
sg136
F16.611543416109992
sg137
F1.0
sg15
I546
sg138
g139
sbsI437
g0
(g130
g2
Ntp171
Rp172
(dp173
g134
g143
sg136
F1.3577974632894627
sg137
F1.0
sg15
I437
sg138
g139
sbsI186
g0
(g130
g2
Ntp174
Rp175
(dp176
g134
g143
sg136
F-6.271865258606312
sg137
F1.0
sg15
I186
sg138
g139
sbsI188
g0
(g130
g2
Ntp177
Rp178
(dp179
g134
g143
sg136
F-9.849842953030437
sg137
F1.0
sg15
I188
sg138
g139
sbssg15
I15
sS'fitness'
p180
Nsb.