ccopy_reg
_reconstructor
p0
(cneat.genome
DefaultGenome
p1
c__builtin__
object
p2
Ntp3
Rp4
(dp5
S'connections'
p6
(dp7
(I23
I4
tp8
g0
(cneat.genes
DefaultConnectionGene
p9
g2
Ntp10
Rp11
(dp12
S'enabled'
p13
I01
sS'weight'
p14
F1.0943130942438
sS'key'
p15
g8
sbs(I24
I8
tp16
g0
(g9
g2
Ntp17
Rp18
(dp19
g13
I00
sg14
F-1.28684577808557
sg15
g16
sbs(I-9
I618
tp20
g0
(g9
g2
Ntp21
Rp22
(dp23
g13
I01
sg14
F0.6571711049695932
sg15
g20
sbs(I-2
I23
tp24
g0
(g9
g2
Ntp25
Rp26
(dp27
g13
I01
sg14
F3.5485767997671473
sg15
g24
sbs(I7
I7
tp28
g0
(g9
g2
Ntp29
Rp30
(dp31
g13
I01
sg14
F2.5317653998138345
sg15
g28
sbs(I24
I4
tp32
g0
(g9
g2
Ntp33
Rp34
(dp35
g13
I01
sg14
F0.5589638606704375
sg15
g32
sbs(I23
I3
tp36
g0
(g9
g2
Ntp37
Rp38
(dp39
g13
I01
sg14
F0.6497536087973458
sg15
g36
sbs(I22
I9
tp40
g0
(g9
g2
Ntp41
Rp42
(dp43
g13
I00
sg14
F1.0432166362904023
sg15
g40
sbs(I-1
I22
tp44
g0
(g9
g2
Ntp45
Rp46
(dp47
g13
I01
sg14
F0.8808696912826667
sg15
g44
sbs(I20
I8
tp48
g0
(g9
g2
Ntp49
Rp50
(dp51
g13
I01
sg14
F-0.3990603684545563
sg15
g48
sbs(I24
I0
tp52
g0
(g9
g2
Ntp53
Rp54
(dp55
g13
I00
sg14
F0.11535169120234257
sg15
g52
sbs(I-7
I22
tp56
g0
(g9
g2
Ntp57
Rp58
(dp59
g13
I01
sg14
F-0.46440767603165456
sg15
g56
sbs(I23
I7
tp60
g0
(g9
g2
Ntp61
Rp62
(dp63
g13
I00
sg14
F1.1992333254481395
sg15
g60
sbs(I-10
I21
tp64
g0
(g9
g2
Ntp65
Rp66
(dp67
g13
I01
sg14
F2.9275583379086716
sg15
g64
sbs(I24
I9
tp68
g0
(g9
g2
Ntp69
Rp70
(dp71
g13
I01
sg14
F0.9902606065118958
sg15
g68
sbs(I-5
I23
tp72
g0
(g9
g2
Ntp73
Rp74
(dp75
g13
I01
sg14
F1.3016922764053642
sg15
g72
sbs(I-6
I21
tp76
g0
(g9
g2
Ntp77
Rp78
(dp79
g13
I01
sg14
F0.03945433701711863
sg15
g76
sbs(I3
I3
tp80
g0
(g9
g2
Ntp81
Rp82
(dp83
g13
I00
sg14
F0.9805873377868438
sg15
g80
sbs(I-5
I24
tp84
g0
(g9
g2
Ntp85
Rp86
(dp87
g13
I01
sg14
F0.14002582638286756
sg15
g84
sbs(I-1
I20
tp88
g0
(g9
g2
Ntp89
Rp90
(dp91
g13
I01
sg14
F1.6064119657595632
sg15
g88
sbs(I24
I3
tp92
g0
(g9
g2
Ntp93
Rp94
(dp95
g13
I01
sg14
F0.42622674537742955
sg15
g92
sbs(I533
I8
tp96
g0
(g9
g2
Ntp97
Rp98
(dp99
g13
I01
sg14
F0.3890061405817176
sg15
g96
sbs(I22
I0
tp100
g0
(g9
g2
Ntp101
Rp102
(dp103
g13
I01
sg14
F-0.036622421692307394
sg15
g100
sbs(I-9
I20
tp104
g0
(g9
g2
Ntp105
Rp106
(dp107
g13
I00
sg14
F1.2078456781863307
sg15
g104
sbs(I-8
I24
tp108
g0
(g9
g2
Ntp109
Rp110
(dp111
g13
I01
sg14
F0.7420350119446937
sg15
g108
sbs(I20
I9
tp112
g0
(g9
g2
Ntp113
Rp114
(dp115
g13
I01
sg14
F-0.2880476846870303
sg15
g112
sbs(I23
I9
tp116
g0
(g9
g2
Ntp117
Rp118
(dp119
g13
I01
sg14
F1.8862138683051208
sg15
g116
sbs(I21
I3
tp120
g0
(g9
g2
Ntp121
Rp122
(dp123
g13
I01
sg14
F-0.8518550869055369
sg15
g120
sbs(I24
I1
tp124
g0
(g9
g2
Ntp125
Rp126
(dp127
g13
I01
sg14
F-1.5650751939988232
sg15
g124
sbs(I22
I7
tp128
g0
(g9
g2
Ntp129
Rp130
(dp131
g13
I01
sg14
F0.49187544212975765
sg15
g128
sbs(I-9
I24
tp132
g0
(g9
g2
Ntp133
Rp134
(dp135
g13
I00
sg14
F1.1982327972172366
sg15
g132
sbs(I-5
I22
tp136
g0
(g9
g2
Ntp137
Rp138
(dp139
g13
I00
sg14
F0.49623404484507433
sg15
g136
sbs(I618
I5
tp140
g0
(g9
g2
Ntp141
Rp142
(dp143
g13
I00
sg14
F0.2195320890093544
sg15
g140
sbs(I21
I0
tp144
g0
(g9
g2
Ntp145
Rp146
(dp147
g13
I00
sg14
F-0.4950121982067779
sg15
g144
sbs(I-10
I22
tp148
g0
(g9
g2
Ntp149
Rp150
(dp151
g13
I01
sg14
F-0.8637789146859468
sg15
g148
sbs(I2
I2
tp152
g0
(g9
g2
Ntp153
Rp154
(dp155
g13
I00
sg14
F-2.2368794322240406
sg15
g152
sbs(I-3
I20
tp156
g0
(g9
g2
Ntp157
Rp158
(dp159
g13
I00
sg14
F0.11951744922994284
sg15
g156
sbs(I-6
I22
tp160
g0
(g9
g2
Ntp161
Rp162
(dp163
g13
I01
sg14
F-0.5814236562006081
sg15
g160
sbs(I22
I4
tp164
g0
(g9
g2
Ntp165
Rp166
(dp167
g13
I01
sg14
F-2.0132012298627036
sg15
g164
sbs(I21
I4
tp168
g0
(g9
g2
Ntp169
Rp170
(dp171
g13
I01
sg14
F-0.6779260678800538
sg15
g168
sbs(I23
I5
tp172
g0
(g9
g2
Ntp173
Rp174
(dp175
g13
I01
sg14
F0.7313623842407911
sg15
g172
sbs(I24
I2
tp176
g0
(g9
g2
Ntp177
Rp178
(dp179
g13
I01
sg14
F-0.15821408944819176
sg15
g176
sbs(I-7
I20
tp180
g0
(g9
g2
Ntp181
Rp182
(dp183
g13
I01
sg14
F-0.048155516756112
sg15
g180
sbs(I23
I1
tp184
g0
(g9
g2
Ntp185
Rp186
(dp187
g13
I01
sg14
F-3.4115881406025124
sg15
g184
sbs(I20
I5
tp188
g0
(g9
g2
Ntp189
Rp190
(dp191
g13
I01
sg14
F1.0950988965237411
sg15
g188
sbs(I-8
I21
tp192
g0
(g9
g2
Ntp193
Rp194
(dp195
g13
I01
sg14
F-1.50475244491325
sg15
g192
sbs(I22
I20
tp196
g0
(g9
g2
Ntp197
Rp198
(dp199
g13
I01
sg14
F-1.2034107641982026
sg15
g196
sbs(I618
I20
tp200
g0
(g9
g2
Ntp201
Rp202
(dp203
g13
I01
sg14
F0.20264307393199832
sg15
g200
sbs(I-6
I24
tp204
g0
(g9
g2
Ntp205
Rp206
(dp207
g13
I01
sg14
F-0.45609005713320594
sg15
g204
sbs(I504
I8
tp208
g0
(g9
g2
Ntp209
Rp210
(dp211
g13
I01
sg14
F0.7980635290474634
sg15
g208
sbs(I-10
I23
tp212
g0
(g9
g2
Ntp213
Rp214
(dp215
g13
I01
sg14
F-0.7591011923601263
sg15
g212
sbs(I24
I7
tp216
g0
(g9
g2
Ntp217
Rp218
(dp219
g13
I01
sg14
F0.05486117758263623
sg15
g216
sbs(I21
I9
tp220
g0
(g9
g2
Ntp221
Rp222
(dp223
g13
I01
sg14
F-0.22223650315852161
sg15
g220
sbs(I20
I2
tp224
g0
(g9
g2
Ntp225
Rp226
(dp227
g13
I01
sg14
F-0.10124025385689778
sg15
g224
sbs(I-1
I21
tp228
g0
(g9
g2
Ntp229
Rp230
(dp231
g13
I01
sg14
F-0.15542643119330143
sg15
g228
sbs(I-7
I0
tp232
g0
(g9
g2
Ntp233
Rp234
(dp235
g13
I01
sg14
F-1.1208382833802542
sg15
g232
sbs(I-2
I22
tp236
g0
(g9
g2
Ntp237
Rp238
(dp239
g13
I01
sg14
F-1.7080983440568065
sg15
g236
sbs(I-10
I9
tp240
g0
(g9
g2
Ntp241
Rp242
(dp243
g13
I00
sg14
F-0.08510836278491277
sg15
g240
sbs(I8
I8
tp244
g0
(g9
g2
Ntp245
Rp246
(dp247
g13
I01
sg14
F-0.7127704205237569
sg15
g244
sbs(I24
I504
tp248
g0
(g9
g2
Ntp249
Rp250
(dp251
g13
I01
sg14
F-1.068747646113747
sg15
g248
sbs(I22
I8
tp252
g0
(g9
g2
Ntp253
Rp254
(dp255
g13
I01
sg14
F0.987391099966012
sg15
g252
sbs(I-4
I22
tp256
g0
(g9
g2
Ntp257
Rp258
(dp259
g13
I00
sg14
F-0.576392113804922
sg15
g256
sbs(I21
I7
tp260
g0
(g9
g2
Ntp261
Rp262
(dp263
g13
I01
sg14
F0.28712445463311165
sg15
g260
sbs(I-7
I23
tp264
g0
(g9
g2
Ntp265
Rp266
(dp267
g13
I00
sg14
F-0.5161567738879597
sg15
g264
sbssS'nodes'
p268
(dp269
I0
g0
(cneat.genes
DefaultNodeGene
p270
g2
Ntp271
Rp272
(dp273
S'activation'
p274
S'tanh'
p275
sS'bias'
p276
F3.26006085681565
sS'response'
p277
F1.0
sg15
I0
sS'aggregation'
p278
S'sum'
p279
sbsI1
g0
(g270
g2
Ntp280
Rp281
(dp282
g274
g275
sg276
F-16.430606139517714
sg277
F1.0
sg15
I1
sg278
g279
sbsI2
g0
(g270
g2
Ntp283
Rp284
(dp285
g274
g275
sg276
F-12.913314273924078
sg277
F1.0
sg15
I2
sg278
g279
sbsI3
g0
(g270
g2
Ntp286
Rp287
(dp288
g274
S'relu'
p289
sg276
F14.091705160535524
sg277
F1.0
sg15
I3
sg278
g279
sbsI4
g0
(g270
g2
Ntp290
Rp291
(dp292
g274
g275
sg276
F-8.974619124551301
sg277
F1.0
sg15
I4
sg278
g279
sbsI5
g0
(g270
g2
Ntp293
Rp294
(dp295
g274
g275
sg276
F7.252714186120624
sg277
F1.0
sg15
I5
sg278
g279
sbsI6
g0
(g270
g2
Ntp296
Rp297
(dp298
g274
g275
sg276
F-2.641078213915875
sg277
F1.0
sg15
I6
sg278
g279
sbsI7
g0
(g270
g2
Ntp299
Rp300
(dp301
g274
g275
sg276
F9.883406974155026
sg277
F1.0
sg15
I7
sg278
g279
sbsI8
g0
(g270
g2
Ntp302
Rp303
(dp304
g274
g275
sg276
F5.04134892199583
sg277
F1.0
sg15
I8
sg278
g279
sbsI9
g0
(g270
g2
Ntp305
Rp306
(dp307
g274
g275
sg276
F1.850670686617593
sg277
F1.0
sg15
I9
sg278
g279
sbsI618
g0
(g270
g2
Ntp308
Rp309
(dp310
g274
g289
sg276
F-19.881072479618844
sg277
F1.0
sg15
I618
sg278
g279
sbsI24
g0
(g270
g2
Ntp311
Rp312
(dp313
g274
g275
sg276
F8.573003266903
sg277
F1.0
sg15
I24
sg278
g279
sbsI20
g0
(g270
g2
Ntp314
Rp315
(dp316
g274
g275
sg276
F20.046891572985594
sg277
F1.0
sg15
I20
sg278
g279
sbsI21
g0
(g270
g2
Ntp317
Rp318
(dp319
g274
g275
sg276
F-5.097743085815921
sg277
F1.0
sg15
I21
sg278
g279
sbsI22
g0
(g270
g2
Ntp320
Rp321
(dp322
g274
g275
sg276
F-13.308071196256464
sg277
F1.0
sg15
I22
sg278
g279
sbsI23
g0
(g270
g2
Ntp323
Rp324
(dp325
g274
g275
sg276
F-5.785835824759492
sg277
F1.0
sg15
I23
sg278
g279
sbsI504
g0
(g270
g2
Ntp326
Rp327
(dp328
g274
g275
sg276
F19.786874206355066
sg277
F1.0
sg15
I504
sg278
g279
sbsI533
g0
(g270
g2
Ntp329
Rp330
(dp331
g274
g275
sg276
F-5.9668272843840535
sg277
F1.0
sg15
I533
sg278
g279
sbssg15
I15
sS'fitness'
p332
Nsb.