ccopy_reg
_reconstructor
p0
(cneat.genome
DefaultGenome
p1
c__builtin__
object
p2
Ntp3
Rp4
(dp5
S'connections'
p6
(dp7
(I24
I9
tp8
g0
(cneat.genes
DefaultConnectionGene
p9
g2
Ntp10
Rp11
(dp12
S'enabled'
p13
I01
sS'weight'
p14
F-1.0810743372405653
sS'key'
p15
g8
sbs(I-6
I24
tp16
g0
(g9
g2
Ntp17
Rp18
(dp19
g13
I01
sg14
F-2.1578050355770713
sg15
g16
sbs(I24
I8
tp20
g0
(g9
g2
Ntp21
Rp22
(dp23
g13
I01
sg14
F0.6748630072776818
sg15
g20
sbs(I-10
I24
tp24
g0
(g9
g2
Ntp25
Rp26
(dp27
g13
I01
sg14
F-1.474163738380653
sg15
g24
sbs(I24
I4
tp28
g0
(g9
g2
Ntp29
Rp30
(dp31
g13
I01
sg14
F-1.453894270002107
sg15
g28
sbs(I-5
I24
tp32
g0
(g9
g2
Ntp33
Rp34
(dp35
g13
I01
sg14
F1.3978971226434587
sg15
g32
sbs(I24
I6
tp36
g0
(g9
g2
Ntp37
Rp38
(dp39
g13
I01
sg14
F1.238793608280813
sg15
g36
sbs(I-7
I24
tp40
g0
(g9
g2
Ntp41
Rp42
(dp43
g13
I01
sg14
F-0.40858819935141966
sg15
g40
sbs(I24
I5
tp44
g0
(g9
g2
Ntp45
Rp46
(dp47
g13
I01
sg14
F-1.2440782416399125
sg15
g44
sbs(I-2
I24
tp48
g0
(g9
g2
Ntp49
Rp50
(dp51
g13
I01
sg14
F0.4956582825659412
sg15
g48
sbs(I24
I3
tp52
g0
(g9
g2
Ntp53
Rp54
(dp55
g13
I01
sg14
F-0.29828904854343874
sg15
g52
sbs(I-8
I24
tp56
g0
(g9
g2
Ntp57
Rp58
(dp59
g13
I01
sg14
F0.8199704973246073
sg15
g56
sbs(I24
I2
tp60
g0
(g9
g2
Ntp61
Rp62
(dp63
g13
I01
sg14
F0.33442208705362875
sg15
g60
sbs(I-3
I24
tp64
g0
(g9
g2
Ntp65
Rp66
(dp67
g13
I01
sg14
F-0.6605942862047974
sg15
g64
sbs(I24
I1
tp68
g0
(g9
g2
Ntp69
Rp70
(dp71
g13
I01
sg14
F-0.6832986726933236
sg15
g68
sbs(I24
I7
tp72
g0
(g9
g2
Ntp73
Rp74
(dp75
g13
I01
sg14
F-0.2443877024589707
sg15
g72
sbs(I24
I0
tp76
g0
(g9
g2
Ntp77
Rp78
(dp79
g13
I01
sg14
F-0.3087817546395034
sg15
g76
sbs(I-9
I24
tp80
g0
(g9
g2
Ntp81
Rp82
(dp83
g13
I01
sg14
F-0.05958508613595897
sg15
g80
sbs(I-1
I24
tp84
g0
(g9
g2
Ntp85
Rp86
(dp87
g13
I01
sg14
F-0.13485925047437097
sg15
g84
sbs(I-4
I24
tp88
g0
(g9
g2
Ntp89
Rp90
(dp91
g13
I01
sg14
F-0.38726395887992315
sg15
g88
sbssS'nodes'
p92
(dp93
I0
g0
(cneat.genes
DefaultNodeGene
p94
g2
Ntp95
Rp96
(dp97
S'activation'
p98
S'relu'
p99
sS'bias'
p100
F-6.685086243572247
sS'response'
p101
F1.0
sg15
I0
sS'aggregation'
p102
S'sum'
p103
sbsI1
g0
(g94
g2
Ntp104
Rp105
(dp106
g98
g99
sg100
F-6.088115147654262
sg101
F1.0
sg15
I1
sg102
g103
sbsI2
g0
(g94
g2
Ntp107
Rp108
(dp109
g98
g99
sg100
F-8.319716343329516
sg101
F1.0
sg15
I2
sg102
g103
sbsI3
g0
(g94
g2
Ntp110
Rp111
(dp112
g98
g99
sg100
F-4.829377945821797
sg101
F1.0
sg15
I3
sg102
g103
sbsI4
g0
(g94
g2
Ntp113
Rp114
(dp115
g98
g99
sg100
F-3.7670291592435468
sg101
F1.0
sg15
I4
sg102
g103
sbsI5
g0
(g94
g2
Ntp116
Rp117
(dp118
g98
g99
sg100
F22.20819068558495
sg101
F1.0
sg15
I5
sg102
g103
sbsI6
g0
(g94
g2
Ntp119
Rp120
(dp121
g98
g99
sg100
F8.494636433515598
sg101
F1.0
sg15
I6
sg102
g103
sbsI7
g0
(g94
g2
Ntp122
Rp123
(dp124
g98
g99
sg100
F-0.3135039297732956
sg101
F1.0
sg15
I7
sg102
g103
sbsI8
g0
(g94
g2
Ntp125
Rp126
(dp127
g98
g99
sg100
F6.944324965388797
sg101
F1.0
sg15
I8
sg102
g103
sbsI9
g0
(g94
g2
Ntp128
Rp129
(dp130
g98
g99
sg100
F14.206394117166653
sg101
F1.0
sg15
I9
sg102
g103
sbsI24
g0
(g94
g2
Ntp131
Rp132
(dp133
g98
g99
sg100
F5.8336507292304605
sg101
F1.0
sg15
I24
sg102
g103
sbssg15
I15
sS'fitness'
p134
F-0.2438584240684032
sb.