ccopy_reg
_reconstructor
p0
(cneat.genome
DefaultGenome
p1
c__builtin__
object
p2
Ntp3
Rp4
(dp5
S'connections'
p6
(dp7
(I-19
I25
tp8
g0
(cneat.genes
DefaultConnectionGene
p9
g2
Ntp10
Rp11
(dp12
S'enabled'
p13
I01
sS'weight'
p14
F1.0051759332008718
sS'key'
p15
g8
sbs(I-5
I25
tp16
g0
(g9
g2
Ntp17
Rp18
(dp19
g13
I01
sg14
F-0.31199158131128063
sg15
g16
sbs(I-13
I25
tp20
g0
(g9
g2
Ntp21
Rp22
(dp23
g13
I01
sg14
F0.6322563661826125
sg15
g20
sbs(I25
I1
tp24
g0
(g9
g2
Ntp25
Rp26
(dp27
g13
I01
sg14
F0.5636919746343818
sg15
g24
sbs(I-16
I25
tp28
g0
(g9
g2
Ntp29
Rp30
(dp31
g13
I01
sg14
F1.1715364287980283
sg15
g28
sbs(I25
I8
tp32
g0
(g9
g2
Ntp33
Rp34
(dp35
g13
I01
sg14
F-1.3996176617030254
sg15
g32
sbs(I-9
I25
tp36
g0
(g9
g2
Ntp37
Rp38
(dp39
g13
I01
sg14
F0.6187235524450188
sg15
g36
sbs(I25
I4
tp40
g0
(g9
g2
Ntp41
Rp42
(dp43
g13
I01
sg14
F-0.6137254529128993
sg15
g40
sbs(I-17
I25
tp44
g0
(g9
g2
Ntp45
Rp46
(dp47
g13
I01
sg14
F0.6338269232802809
sg15
g44
sbs(I-20
I25
tp48
g0
(g9
g2
Ntp49
Rp50
(dp51
g13
I01
sg14
F-0.8427795787879098
sg15
g48
sbs(I-7
I25
tp52
g0
(g9
g2
Ntp53
Rp54
(dp55
g13
I01
sg14
F0.16813601075940665
sg15
g52
sbs(I25
I0
tp56
g0
(g9
g2
Ntp57
Rp58
(dp59
g13
I01
sg14
F-0.2124848916214918
sg15
g56
sbs(I25
I5
tp60
g0
(g9
g2
Ntp61
Rp62
(dp63
g13
I01
sg14
F0.23327871763910818
sg15
g60
sbs(I-3
I25
tp64
g0
(g9
g2
Ntp65
Rp66
(dp67
g13
I01
sg14
F-0.7386551349492949
sg15
g64
sbs(I-1
I25
tp68
g0
(g9
g2
Ntp69
Rp70
(dp71
g13
I01
sg14
F-0.06602454627335325
sg15
g68
sbs(I-11
I25
tp72
g0
(g9
g2
Ntp73
Rp74
(dp75
g13
I01
sg14
F1.326365312370387
sg15
g72
sbs(I-10
I25
tp76
g0
(g9
g2
Ntp77
Rp78
(dp79
g13
I01
sg14
F0.6027442523692393
sg15
g76
sbs(I-14
I25
tp80
g0
(g9
g2
Ntp81
Rp82
(dp83
g13
I01
sg14
F-0.14022415444099426
sg15
g80
sbs(I-18
I25
tp84
g0
(g9
g2
Ntp85
Rp86
(dp87
g13
I01
sg14
F-0.2688336106135949
sg15
g84
sbs(I25
I7
tp88
g0
(g9
g2
Ntp89
Rp90
(dp91
g13
I01
sg14
F0.5248499466336033
sg15
g88
sbs(I-8
I25
tp92
g0
(g9
g2
Ntp93
Rp94
(dp95
g13
I01
sg14
F-1.0252999822042732
sg15
g92
sbs(I25
I3
tp96
g0
(g9
g2
Ntp97
Rp98
(dp99
g13
I01
sg14
F-0.804685673538784
sg15
g96
sbs(I-4
I25
tp100
g0
(g9
g2
Ntp101
Rp102
(dp103
g13
I01
sg14
F-0.9252403753205576
sg15
g100
sbs(I-2
I25
tp104
g0
(g9
g2
Ntp105
Rp106
(dp107
g13
I01
sg14
F-0.6417449897332436
sg15
g104
sbs(I-12
I25
tp108
g0
(g9
g2
Ntp109
Rp110
(dp111
g13
I01
sg14
F0.9636957944568116
sg15
g108
sbs(I25
I6
tp112
g0
(g9
g2
Ntp113
Rp114
(dp115
g13
I01
sg14
F-0.921683313260058
sg15
g112
sbs(I-15
I25
tp116
g0
(g9
g2
Ntp117
Rp118
(dp119
g13
I01
sg14
F0.607851535096376
sg15
g116
sbs(I25
I2
tp120
g0
(g9
g2
Ntp121
Rp122
(dp123
g13
I01
sg14
F-0.1806883878544432
sg15
g120
sbs(I25
I9
tp124
g0
(g9
g2
Ntp125
Rp126
(dp127
g13
I01
sg14
F1.8420866084441048
sg15
g124
sbs(I-6
I25
tp128
g0
(g9
g2
Ntp129
Rp130
(dp131
g13
I01
sg14
F-0.850787371290931
sg15
g128
sbssS'nodes'
p132
(dp133
I0
g0
(cneat.genes
DefaultNodeGene
p134
g2
Ntp135
Rp136
(dp137
S'activation'
p138
S'relu'
p139
sS'bias'
p140
F6.895131588292777
sS'response'
p141
F1.0
sg15
I0
sS'aggregation'
p142
S'sum'
p143
sbsI1
g0
(g134
g2
Ntp144
Rp145
(dp146
g138
g139
sg140
F-9.803151944102893
sg141
F1.0
sg15
I1
sg142
g143
sbsI2
g0
(g134
g2
Ntp147
Rp148
(dp149
g138
g139
sg140
F-1.291889418192476
sg141
F1.0
sg15
I2
sg142
g143
sbsI3
g0
(g134
g2
Ntp150
Rp151
(dp152
g138
g139
sg140
F-8.626645983841131
sg141
F1.0
sg15
I3
sg142
g143
sbsI4
g0
(g134
g2
Ntp153
Rp154
(dp155
g138
g139
sg140
F5.774674477854441
sg141
F1.0
sg15
I4
sg142
g143
sbsI5
g0
(g134
g2
Ntp156
Rp157
(dp158
g138
g139
sg140
F1.0683741331648937
sg141
F1.0
sg15
I5
sg142
g143
sbsI6
g0
(g134
g2
Ntp159
Rp160
(dp161
g138
g139
sg140
F1.5698134381199667
sg141
F1.0
sg15
I6
sg142
g143
sbsI7
g0
(g134
g2
Ntp162
Rp163
(dp164
g138
g139
sg140
F-2.227700879945319
sg141
F1.0
sg15
I7
sg142
g143
sbsI8
g0
(g134
g2
Ntp165
Rp166
(dp167
g138
g139
sg140
F-2.87926467219848
sg141
F1.0
sg15
I8
sg142
g143
sbsI9
g0
(g134
g2
Ntp168
Rp169
(dp170
g138
g139
sg140
F1.1634471294488016
sg141
F1.0
sg15
I9
sg142
g143
sbsI25
g0
(g134
g2
Ntp171
Rp172
(dp173
g138
g139
sg140
F8.612558963646553
sg141
F1.0
sg15
I25
sg142
g143
sbssg15
I16
sS'fitness'
p174
F0.043248822224921414
sb.