ccopy_reg
_reconstructor
p0
(cneat.genome
DefaultGenome
p1
c__builtin__
object
p2
Ntp3
Rp4
(dp5
S'connections'
p6
(dp7
(I32
I1
tp8
g0
(cneat.genes
DefaultConnectionGene
p9
g2
Ntp10
Rp11
(dp12
S'enabled'
p13
I00
sS'weight'
p14
F0.0456827844795428
sS'key'
p15
g8
sbs(I-7
I30
tp16
g0
(g9
g2
Ntp17
Rp18
(dp19
g13
I01
sg14
F0.8475398417402386
sg15
g16
sbs(I-4
I30
tp20
g0
(g9
g2
Ntp21
Rp22
(dp23
g13
I01
sg14
F0.7218956385874443
sg15
g20
sbs(I31
I9
tp24
g0
(g9
g2
Ntp25
Rp26
(dp27
g13
I01
sg14
F0.7592973899389093
sg15
g24
sbs(I-3
I31
tp28
g0
(g9
g2
Ntp29
Rp30
(dp31
g13
I01
sg14
F-2.3814953142649884
sg15
g28
sbs(I30
I8
tp32
g0
(g9
g2
Ntp33
Rp34
(dp35
g13
I01
sg14
F0.7885405361277065
sg15
g32
sbs(I32
I6
tp36
g0
(g9
g2
Ntp37
Rp38
(dp39
g13
I00
sg14
F0.22465982205524582
sg15
g36
sbs(I-4
I3
tp40
g0
(g9
g2
Ntp41
Rp42
(dp43
g13
I01
sg14
F1.074861033222625
sg15
g40
sbs(I32
I9
tp44
g0
(g9
g2
Ntp45
Rp46
(dp47
g13
I01
sg14
F-1.1498750854472464
sg15
g44
sbs(I-8
I32
tp48
g0
(g9
g2
Ntp49
Rp50
(dp51
g13
I01
sg14
F-2.701806592589378
sg15
g48
sbs(I30
I0
tp52
g0
(g9
g2
Ntp53
Rp54
(dp55
g13
I01
sg14
F-0.9299569321912542
sg15
g52
sbs(I30
I9
tp56
g0
(g9
g2
Ntp57
Rp58
(dp59
g13
I01
sg14
F2.3082575097607183
sg15
g56
sbs(I4
I4
tp60
g0
(g9
g2
Ntp61
Rp62
(dp63
g13
I01
sg14
F0.17725889018342583
sg15
g60
sbs(I32
I7
tp64
g0
(g9
g2
Ntp65
Rp66
(dp67
g13
I00
sg14
F1.5615792706358596
sg15
g64
sbs(I-6
I30
tp68
g0
(g9
g2
Ntp69
Rp70
(dp71
g13
I01
sg14
F1.2265786312248195
sg15
g68
sbs(I30
I5
tp72
g0
(g9
g2
Ntp73
Rp74
(dp75
g13
I01
sg14
F1.831778652398619
sg15
g72
sbs(I-2
I31
tp76
g0
(g9
g2
Ntp77
Rp78
(dp79
g13
I00
sg14
F-0.45858400024811863
sg15
g76
sbs(I-10
I30
tp80
g0
(g9
g2
Ntp81
Rp82
(dp83
g13
I01
sg14
F-3.2364644151287987
sg15
g80
sbs(I31
I0
tp84
g0
(g9
g2
Ntp85
Rp86
(dp87
g13
I01
sg14
F1.1417662203210899
sg15
g84
sbs(I1
I1
tp88
g0
(g9
g2
Ntp89
Rp90
(dp91
g13
I00
sg14
F0.9958938732974741
sg15
g88
sbs(I6
I6
tp92
g0
(g9
g2
Ntp93
Rp94
(dp95
g13
I01
sg14
F-0.000959496015406125
sg15
g92
sbs(I31
I4
tp96
g0
(g9
g2
Ntp97
Rp98
(dp99
g13
I01
sg14
F-0.3891316618049876
sg15
g96
sbs(I7
I7
tp100
g0
(g9
g2
Ntp101
Rp102
(dp103
g13
I01
sg14
F-0.1475352196934784
sg15
g100
sbs(I-6
I31
tp104
g0
(g9
g2
Ntp105
Rp106
(dp107
g13
I01
sg14
F0.31003650116048076
sg15
g104
sbs(I-5
I30
tp108
g0
(g9
g2
Ntp109
Rp110
(dp111
g13
I01
sg14
F-0.4277993792388996
sg15
g108
sbs(I31
I3
tp112
g0
(g9
g2
Ntp113
Rp114
(dp115
g13
I01
sg14
F-0.9912849308627203
sg15
g112
sbs(I32
I3
tp116
g0
(g9
g2
Ntp117
Rp118
(dp119
g13
I01
sg14
F0.24946025131239424
sg15
g116
sbs(I5
I5
tp120
g0
(g9
g2
Ntp121
Rp122
(dp123
g13
I00
sg14
F-1.253020915719528
sg15
g120
sbs(I-9
I31
tp124
g0
(g9
g2
Ntp125
Rp126
(dp127
g13
I01
sg14
F-2.5410022202485445
sg15
g124
sbs(I8
I8
tp128
g0
(g9
g2
Ntp129
Rp130
(dp131
g13
I01
sg14
F-1.2929313054797986
sg15
g128
sbs(I-1
I31
tp132
g0
(g9
g2
Ntp133
Rp134
(dp135
g13
I01
sg14
F2.4664169722878784
sg15
g132
sbs(I31
I2
tp136
g0
(g9
g2
Ntp137
Rp138
(dp139
g13
I01
sg14
F-0.6965457781305169
sg15
g136
sbs(I-4
I32
tp140
g0
(g9
g2
Ntp141
Rp142
(dp143
g13
I01
sg14
F-0.6501090665857858
sg15
g140
sbs(I32
I8
tp144
g0
(g9
g2
Ntp145
Rp146
(dp147
g13
I00
sg14
F-1.7842189926330745
sg15
g144
sbs(I-10
I31
tp148
g0
(g9
g2
Ntp149
Rp150
(dp151
g13
I00
sg14
F2.561134106958818
sg15
g148
sbs(I-8
I31
tp152
g0
(g9
g2
Ntp153
Rp154
(dp155
g13
I00
sg14
F-1.0639653064084076
sg15
g152
sbssS'nodes'
p156
(dp157
I0
g0
(cneat.genes
DefaultNodeGene
p158
g2
Ntp159
Rp160
(dp161
S'activation'
p162
S'tanh'
p163
sS'bias'
p164
F2.722698462482525
sS'response'
p165
F1.0
sg15
I0
sS'aggregation'
p166
S'sum'
p167
sbsI1
g0
(g158
g2
Ntp168
Rp169
(dp170
g162
g163
sg164
F7.405359334359242
sg165
F1.0
sg15
I1
sg166
g167
sbsI2
g0
(g158
g2
Ntp171
Rp172
(dp173
g162
g163
sg164
F2.365523702186707
sg165
F1.0
sg15
I2
sg166
g167
sbsI3
g0
(g158
g2
Ntp174
Rp175
(dp176
g162
S'relu'
p177
sg164
F10.130452707243588
sg165
F1.0
sg15
I3
sg166
g167
sbsI4
g0
(g158
g2
Ntp178
Rp179
(dp180
g162
g163
sg164
F-15.565401716109989
sg165
F1.0
sg15
I4
sg166
g167
sbsI5
g0
(g158
g2
Ntp181
Rp182
(dp183
g162
g177
sg164
F14.578296919032635
sg165
F1.0
sg15
I5
sg166
g167
sbsI6
g0
(g158
g2
Ntp184
Rp185
(dp186
g162
g163
sg164
F-14.883634525123641
sg165
F1.0
sg15
I6
sg166
g167
sbsI7
g0
(g158
g2
Ntp187
Rp188
(dp189
g162
g163
sg164
F-6.630228554130661
sg165
F1.0
sg15
I7
sg166
g167
sbsI8
g0
(g158
g2
Ntp190
Rp191
(dp192
g162
g163
sg164
F21.927836106700152
sg165
F1.0
sg15
I8
sg166
g167
sbsI9
g0
(g158
g2
Ntp193
Rp194
(dp195
g162
g163
sg164
F16.53236301627208
sg165
F1.0
sg15
I9
sg166
g167
sbsI32
g0
(g158
g2
Ntp196
Rp197
(dp198
g162
g163
sg164
F-21.301611696040055
sg165
F1.0
sg15
I32
sg166
g167
sbsI30
g0
(g158
g2
Ntp199
Rp200
(dp201
g162
g163
sg164
F9.236412173774639
sg165
F1.0
sg15
I30
sg166
g167
sbsI31
g0
(g158
g2
Ntp202
Rp203
(dp204
g162
g163
sg164
F-3.905582758807171
sg165
F1.0
sg15
I31
sg166
g167
sbssg15
I17
sS'fitness'
p205
Nsb.