ccopy_reg
_reconstructor
p0
(cneat.genome
DefaultGenome
p1
c__builtin__
object
p2
Ntp3
Rp4
(dp5
S'connections'
p6
(dp7
(I-12
I26
tp8
g0
(cneat.genes
DefaultConnectionGene
p9
g2
Ntp10
Rp11
(dp12
S'enabled'
p13
I01
sS'weight'
p14
F-0.5121905013186253
sS'key'
p15
g8
sbs(I26
I2
tp16
g0
(g9
g2
Ntp17
Rp18
(dp19
g13
I01
sg14
F1.845186784539004
sg15
g16
sbs(I-7
I26
tp20
g0
(g9
g2
Ntp21
Rp22
(dp23
g13
I01
sg14
F1.3272238545407957
sg15
g20
sbs(I26
I6
tp24
g0
(g9
g2
Ntp25
Rp26
(dp27
g13
I01
sg14
F-0.5178023329137159
sg15
g24
sbs(I-3
I26
tp28
g0
(g9
g2
Ntp29
Rp30
(dp31
g13
I01
sg14
F0.8086287478723427
sg15
g28
sbs(I-11
I26
tp32
g0
(g9
g2
Ntp33
Rp34
(dp35
g13
I01
sg14
F-0.322408981559792
sg15
g32
sbs(I-6
I26
tp36
g0
(g9
g2
Ntp37
Rp38
(dp39
g13
I01
sg14
F0.9331006362305587
sg15
g36
sbs(I26
I3
tp40
g0
(g9
g2
Ntp41
Rp42
(dp43
g13
I01
sg14
F-0.959223364070766
sg15
g40
sbs(I26
I8
tp44
g0
(g9
g2
Ntp45
Rp46
(dp47
g13
I01
sg14
F0.483992474780602
sg15
g44
sbs(I-16
I26
tp48
g0
(g9
g2
Ntp49
Rp50
(dp51
g13
I01
sg14
F-1.0285073865229089
sg15
g48
sbs(I26
I0
tp52
g0
(g9
g2
Ntp53
Rp54
(dp55
g13
I01
sg14
F0.30752573322863547
sg15
g52
sbs(I26
I7
tp56
g0
(g9
g2
Ntp57
Rp58
(dp59
g13
I01
sg14
F-0.0477677038541179
sg15
g56
sbs(I-20
I26
tp60
g0
(g9
g2
Ntp61
Rp62
(dp63
g13
I01
sg14
F-1.354138001416006
sg15
g60
sbs(I26
I9
tp64
g0
(g9
g2
Ntp65
Rp66
(dp67
g13
I01
sg14
F-0.6869806452406841
sg15
g64
sbs(I-2
I26
tp68
g0
(g9
g2
Ntp69
Rp70
(dp71
g13
I01
sg14
F-2.042341666502932
sg15
g68
sbs(I26
I4
tp72
g0
(g9
g2
Ntp73
Rp74
(dp75
g13
I01
sg14
F-0.2766421241471483
sg15
g72
sbs(I-15
I26
tp76
g0
(g9
g2
Ntp77
Rp78
(dp79
g13
I01
sg14
F0.8285807272816461
sg15
g76
sbs(I-5
I26
tp80
g0
(g9
g2
Ntp81
Rp82
(dp83
g13
I01
sg14
F0.15382523362028222
sg15
g80
sbs(I-1
I26
tp84
g0
(g9
g2
Ntp85
Rp86
(dp87
g13
I01
sg14
F-0.6999412542672161
sg15
g84
sbs(I26
I1
tp88
g0
(g9
g2
Ntp89
Rp90
(dp91
g13
I01
sg14
F1.2594302394797665
sg15
g88
sbs(I-13
I26
tp92
g0
(g9
g2
Ntp93
Rp94
(dp95
g13
I01
sg14
F-1.5539839241416322
sg15
g92
sbs(I-10
I26
tp96
g0
(g9
g2
Ntp97
Rp98
(dp99
g13
I01
sg14
F0.13390469232055388
sg15
g96
sbs(I-19
I26
tp100
g0
(g9
g2
Ntp101
Rp102
(dp103
g13
I01
sg14
F0.911808912872393
sg15
g100
sbs(I-8
I26
tp104
g0
(g9
g2
Ntp105
Rp106
(dp107
g13
I01
sg14
F1.3328462351781185
sg15
g104
sbs(I-14
I26
tp108
g0
(g9
g2
Ntp109
Rp110
(dp111
g13
I01
sg14
F-0.6780914069312511
sg15
g108
sbs(I26
I5
tp112
g0
(g9
g2
Ntp113
Rp114
(dp115
g13
I01
sg14
F0.5680952755840266
sg15
g112
sbs(I-18
I26
tp116
g0
(g9
g2
Ntp117
Rp118
(dp119
g13
I01
sg14
F1.1236386258706197
sg15
g116
sbs(I-9
I26
tp120
g0
(g9
g2
Ntp121
Rp122
(dp123
g13
I01
sg14
F-1.2544771473167249
sg15
g120
sbs(I-4
I26
tp124
g0
(g9
g2
Ntp125
Rp126
(dp127
g13
I01
sg14
F-1.2743581467585758
sg15
g124
sbs(I-17
I26
tp128
g0
(g9
g2
Ntp129
Rp130
(dp131
g13
I01
sg14
F0.7741911068613632
sg15
g128
sbssS'nodes'
p132
(dp133
I0
g0
(cneat.genes
DefaultNodeGene
p134
g2
Ntp135
Rp136
(dp137
S'activation'
p138
S'relu'
p139
sS'bias'
p140
F-0.16720911662053078
sS'response'
p141
F1.0
sg15
I0
sS'aggregation'
p142
S'sum'
p143
sbsI1
g0
(g134
g2
Ntp144
Rp145
(dp146
g138
g139
sg140
F-4.497645118709685
sg141
F1.0
sg15
I1
sg142
g143
sbsI2
g0
(g134
g2
Ntp147
Rp148
(dp149
g138
g139
sg140
F-24.47805727893046
sg141
F1.0
sg15
I2
sg142
g143
sbsI3
g0
(g134
g2
Ntp150
Rp151
(dp152
g138
g139
sg140
F6.541354066834612
sg141
F1.0
sg15
I3
sg142
g143
sbsI4
g0
(g134
g2
Ntp153
Rp154
(dp155
g138
g139
sg140
F-2.9478287389092306
sg141
F1.0
sg15
I4
sg142
g143
sbsI5
g0
(g134
g2
Ntp156
Rp157
(dp158
g138
g139
sg140
F-12.85957320395
sg141
F1.0
sg15
I5
sg142
g143
sbsI6
g0
(g134
g2
Ntp159
Rp160
(dp161
g138
g139
sg140
F-5.894353875177236
sg141
F1.0
sg15
I6
sg142
g143
sbsI7
g0
(g134
g2
Ntp162
Rp163
(dp164
g138
g139
sg140
F9.165148047262972
sg141
F1.0
sg15
I7
sg142
g143
sbsI8
g0
(g134
g2
Ntp165
Rp166
(dp167
g138
g139
sg140
F-4.3169023849132735
sg141
F1.0
sg15
I8
sg142
g143
sbsI9
g0
(g134
g2
Ntp168
Rp169
(dp170
g138
g139
sg140
F-4.866865080466191
sg141
F1.0
sg15
I9
sg142
g143
sbsI26
g0
(g134
g2
Ntp171
Rp172
(dp173
g138
g139
sg140
F-3.96426450552869
sg141
F1.0
sg15
I26
sg142
g143
sbssg15
I17
sS'fitness'
p174
Nsb.