ccopy_reg
_reconstructor
p0
(cneat.genome
DefaultGenome
p1
c__builtin__
object
p2
Ntp3
Rp4
(dp5
S'connections'
p6
(dp7
(I-12
I26
tp8
g0
(cneat.genes
DefaultConnectionGene
p9
g2
Ntp10
Rp11
(dp12
S'enabled'
p13
I01
sS'weight'
p14
F1.732539372799601
sS'key'
p15
g8
sbs(I26
I2
tp16
g0
(g9
g2
Ntp17
Rp18
(dp19
g13
I01
sg14
F-0.28279571966962325
sg15
g16
sbs(I-7
I26
tp20
g0
(g9
g2
Ntp21
Rp22
(dp23
g13
I01
sg14
F-0.6260908769509846
sg15
g20
sbs(I26
I6
tp24
g0
(g9
g2
Ntp25
Rp26
(dp27
g13
I01
sg14
F-0.9877412261045889
sg15
g24
sbs(I-3
I26
tp28
g0
(g9
g2
Ntp29
Rp30
(dp31
g13
I01
sg14
F0.7796997004890344
sg15
g28
sbs(I-11
I26
tp32
g0
(g9
g2
Ntp33
Rp34
(dp35
g13
I01
sg14
F0.1483432256899483
sg15
g32
sbs(I-6
I26
tp36
g0
(g9
g2
Ntp37
Rp38
(dp39
g13
I01
sg14
F0.3062779319245372
sg15
g36
sbs(I26
I3
tp40
g0
(g9
g2
Ntp41
Rp42
(dp43
g13
I01
sg14
F-0.38500027245417007
sg15
g40
sbs(I26
I8
tp44
g0
(g9
g2
Ntp45
Rp46
(dp47
g13
I01
sg14
F0.2858241595649583
sg15
g44
sbs(I-16
I26
tp48
g0
(g9
g2
Ntp49
Rp50
(dp51
g13
I01
sg14
F-0.15152316284338233
sg15
g48
sbs(I26
I0
tp52
g0
(g9
g2
Ntp53
Rp54
(dp55
g13
I01
sg14
F0.44873156306052747
sg15
g52
sbs(I26
I7
tp56
g0
(g9
g2
Ntp57
Rp58
(dp59
g13
I01
sg14
F0.5114499824097786
sg15
g56
sbs(I-20
I26
tp60
g0
(g9
g2
Ntp61
Rp62
(dp63
g13
I01
sg14
F-0.2093064678545762
sg15
g60
sbs(I26
I9
tp64
g0
(g9
g2
Ntp65
Rp66
(dp67
g13
I01
sg14
F1.4182294175847379
sg15
g64
sbs(I-2
I26
tp68
g0
(g9
g2
Ntp69
Rp70
(dp71
g13
I01
sg14
F1.0063587864882635
sg15
g68
sbs(I26
I4
tp72
g0
(g9
g2
Ntp73
Rp74
(dp75
g13
I01
sg14
F-1.894130819636155
sg15
g72
sbs(I-15
I26
tp76
g0
(g9
g2
Ntp77
Rp78
(dp79
g13
I01
sg14
F-0.6426042795369717
sg15
g76
sbs(I-5
I26
tp80
g0
(g9
g2
Ntp81
Rp82
(dp83
g13
I01
sg14
F1.7803256077450902
sg15
g80
sbs(I-1
I26
tp84
g0
(g9
g2
Ntp85
Rp86
(dp87
g13
I01
sg14
F-0.9897813237888968
sg15
g84
sbs(I26
I1
tp88
g0
(g9
g2
Ntp89
Rp90
(dp91
g13
I01
sg14
F-0.1444982162523363
sg15
g88
sbs(I-13
I26
tp92
g0
(g9
g2
Ntp93
Rp94
(dp95
g13
I01
sg14
F-0.04649333532802708
sg15
g92
sbs(I-10
I26
tp96
g0
(g9
g2
Ntp97
Rp98
(dp99
g13
I01
sg14
F1.2980651446159368
sg15
g96
sbs(I-19
I26
tp100
g0
(g9
g2
Ntp101
Rp102
(dp103
g13
I01
sg14
F-0.6349683209836428
sg15
g100
sbs(I-8
I26
tp104
g0
(g9
g2
Ntp105
Rp106
(dp107
g13
I01
sg14
F-0.628978259012416
sg15
g104
sbs(I-14
I26
tp108
g0
(g9
g2
Ntp109
Rp110
(dp111
g13
I01
sg14
F0.2336237798460484
sg15
g108
sbs(I26
I5
tp112
g0
(g9
g2
Ntp113
Rp114
(dp115
g13
I01
sg14
F-0.6471447570862058
sg15
g112
sbs(I-18
I26
tp116
g0
(g9
g2
Ntp117
Rp118
(dp119
g13
I01
sg14
F-1.6373084825327058
sg15
g116
sbs(I-9
I26
tp120
g0
(g9
g2
Ntp121
Rp122
(dp123
g13
I01
sg14
F-1.3540381729431616
sg15
g120
sbs(I-4
I26
tp124
g0
(g9
g2
Ntp125
Rp126
(dp127
g13
I01
sg14
F0.10184415778626792
sg15
g124
sbs(I-17
I26
tp128
g0
(g9
g2
Ntp129
Rp130
(dp131
g13
I01
sg14
F-0.29111293429807633
sg15
g128
sbssS'nodes'
p132
(dp133
I0
g0
(cneat.genes
DefaultNodeGene
p134
g2
Ntp135
Rp136
(dp137
S'activation'
p138
S'relu'
p139
sS'bias'
p140
F10.242079752709097
sS'response'
p141
F1.0
sg15
I0
sS'aggregation'
p142
S'sum'
p143
sbsI1
g0
(g134
g2
Ntp144
Rp145
(dp146
g138
g139
sg140
F-25.462561404302605
sg141
F1.0
sg15
I1
sg142
g143
sbsI2
g0
(g134
g2
Ntp147
Rp148
(dp149
g138
g139
sg140
F-0.426426397636305
sg141
F1.0
sg15
I2
sg142
g143
sbsI3
g0
(g134
g2
Ntp150
Rp151
(dp152
g138
g139
sg140
F-20.355985513400956
sg141
F1.0
sg15
I3
sg142
g143
sbsI4
g0
(g134
g2
Ntp153
Rp154
(dp155
g138
g139
sg140
F16.120559213962846
sg141
F1.0
sg15
I4
sg142
g143
sbsI5
g0
(g134
g2
Ntp156
Rp157
(dp158
g138
g139
sg140
F-25.803742682052384
sg141
F1.0
sg15
I5
sg142
g143
sbsI6
g0
(g134
g2
Ntp159
Rp160
(dp161
g138
g139
sg140
F7.328877902593648
sg141
F1.0
sg15
I6
sg142
g143
sbsI7
g0
(g134
g2
Ntp162
Rp163
(dp164
g138
g139
sg140
F4.0874688276278635
sg141
F1.0
sg15
I7
sg142
g143
sbsI8
g0
(g134
g2
Ntp165
Rp166
(dp167
g138
g139
sg140
F11.754337615885186
sg141
F1.0
sg15
I8
sg142
g143
sbsI9
g0
(g134
g2
Ntp168
Rp169
(dp170
g138
g139
sg140
F-8.732913141003184
sg141
F1.0
sg15
I9
sg142
g143
sbsI26
g0
(g134
g2
Ntp171
Rp172
(dp173
g138
g139
sg140
F11.473609242803391
sg141
F1.0
sg15
I26
sg142
g143
sbssg15
I17
sS'fitness'
p174
F0.03130417226477416
sb.