ccopy_reg
_reconstructor
p0
(cneat.genome
DefaultGenome
p1
c__builtin__
object
p2
Ntp3
Rp4
(dp5
S'connections'
p6
(dp7
(I-5
I186
tp8
g0
(cneat.genes
DefaultConnectionGene
p9
g2
Ntp10
Rp11
(dp12
S'enabled'
p13
I01
sS'weight'
p14
F2.2137635425618387
sS'key'
p15
g8
sbs(I-2
I186
tp16
g0
(g9
g2
Ntp17
Rp18
(dp19
g13
I01
sg14
F-1.0255445435045254
sg15
g16
sbs(I186
I1
tp20
g0
(g9
g2
Ntp21
Rp22
(dp23
g13
I01
sg14
F0.6001043117988891
sg15
g20
sbs(I6
I6
tp24
g0
(g9
g2
Ntp25
Rp26
(dp27
g13
I01
sg14
F-0.6434035181664267
sg15
g24
sbs(I188
I509
tp28
g0
(g9
g2
Ntp29
Rp30
(dp31
g13
I01
sg14
F1.6613653991108754
sg15
g28
sbs(I-9
I189
tp32
g0
(g9
g2
Ntp33
Rp34
(dp35
g13
I01
sg14
F0.747700043816639
sg15
g32
sbs(I185
I6
tp36
g0
(g9
g2
Ntp37
Rp38
(dp39
g13
I01
sg14
F-1.3340942790857482
sg15
g36
sbs(I-3
I188
tp40
g0
(g9
g2
Ntp41
Rp42
(dp43
g13
I01
sg14
F-0.2710979296739863
sg15
g40
sbs(I189
I1
tp44
g0
(g9
g2
Ntp45
Rp46
(dp47
g13
I01
sg14
F0.17566760677566048
sg15
g44
sbs(I186
I5
tp48
g0
(g9
g2
Ntp49
Rp50
(dp51
g13
I00
sg14
F-1.015907404471998
sg15
g48
sbs(I189
I0
tp52
g0
(g9
g2
Ntp53
Rp54
(dp55
g13
I01
sg14
F-0.2109442522878945
sg15
g52
sbs(I-7
I437
tp56
g0
(g9
g2
Ntp57
Rp58
(dp59
g13
I01
sg14
F0.7170112286446197
sg15
g56
sbs(I185
I2
tp60
g0
(g9
g2
Ntp61
Rp62
(dp63
g13
I01
sg14
F3.0547274831137967
sg15
g60
sbs(I-4
I186
tp64
g0
(g9
g2
Ntp65
Rp66
(dp67
g13
I01
sg14
F3.1394369025211297
sg15
g64
sbs(I-6
I185
tp68
g0
(g9
g2
Ntp69
Rp70
(dp71
g13
I01
sg14
F1.1526886870167627
sg15
g68
sbs(I188
I4
tp72
g0
(g9
g2
Ntp73
Rp74
(dp75
g13
I00
sg14
F-0.8593730780141924
sg15
g72
sbs(I3
I3
tp76
g0
(g9
g2
Ntp77
Rp78
(dp79
g13
I01
sg14
F1.0743005459352115
sg15
g76
sbs(I4
I4
tp80
g0
(g9
g2
Ntp81
Rp82
(dp83
g13
I01
sg14
F-0.45099988021017023
sg15
g80
sbs(I-4
I3
tp84
g0
(g9
g2
Ntp85
Rp86
(dp87
g13
I01
sg14
F0.9638690478237297
sg15
g84
sbs(I188
I6
tp88
g0
(g9
g2
Ntp89
Rp90
(dp91
g13
I01
sg14
F-0.5541010564480308
sg15
g88
sbs(I-7
I186
tp92
g0
(g9
g2
Ntp93
Rp94
(dp95
g13
I01
sg14
F0.2872104846214051
sg15
g92
sbs(I-2
I188
tp96
g0
(g9
g2
Ntp97
Rp98
(dp99
g13
I00
sg14
F-0.5268892596280137
sg15
g96
sbs(I188
I1
tp100
g0
(g9
g2
Ntp101
Rp102
(dp103
g13
I01
sg14
F-1.5954639391218928
sg15
g100
sbs(I185
I8
tp104
g0
(g9
g2
Ntp105
Rp106
(dp107
g13
I01
sg14
F-0.5067206240868674
sg15
g104
sbs(I186
I6
tp108
g0
(g9
g2
Ntp109
Rp110
(dp111
g13
I01
sg14
F2.2642356062818827
sg15
g108
sbs(I-3
I186
tp112
g0
(g9
g2
Ntp113
Rp114
(dp115
g13
I01
sg14
F-1.4330551399773108
sg15
g112
sbs(I188
I5
tp116
g0
(g9
g2
Ntp117
Rp118
(dp119
g13
I00
sg14
F-0.41477271826673856
sg15
g116
sbs(I0
I0
tp120
g0
(g9
g2
Ntp121
Rp122
(dp123
g13
I00
sg14
F0.03123153794811824
sg15
g120
sbs(I189
I8
tp124
g0
(g9
g2
Ntp125
Rp126
(dp127
g13
I01
sg14
F-1.907687010312002
sg15
g124
sbs(I-6
I186
tp128
g0
(g9
g2
Ntp129
Rp130
(dp131
g13
I01
sg14
F-1.951352032064432
sg15
g128
sbs(I-5
I185
tp132
g0
(g9
g2
Ntp133
Rp134
(dp135
g13
I01
sg14
F0.5579510143909425
sg15
g132
sbs(I-10
I186
tp136
g0
(g9
g2
Ntp137
Rp138
(dp139
g13
I01
sg14
F1.3872868948181796
sg15
g136
sbs(I188
I188
tp140
g0
(g9
g2
Ntp141
Rp142
(dp143
g13
I01
sg14
F1.0841576562304227
sg15
g140
sbs(I185
I185
tp144
g0
(g9
g2
Ntp145
Rp146
(dp147
g13
I00
sg14
F1.8898031678780545
sg15
g144
sbs(I186
I8
tp148
g0
(g9
g2
Ntp149
Rp150
(dp151
g13
I00
sg14
F0.30981787317519305
sg15
g148
sbs(I-3
I185
tp152
g0
(g9
g2
Ntp153
Rp154
(dp155
g13
I01
sg14
F0.9450918786772902
sg15
g152
sbs(I-1
I185
tp156
g0
(g9
g2
Ntp157
Rp158
(dp159
g13
I01
sg14
F0.7642273230924818
sg15
g156
sbs(I185
I4
tp160
g0
(g9
g2
Ntp161
Rp162
(dp163
g13
I01
sg14
F-0.02832604850634257
sg15
g160
sbs(I509
I5
tp164
g0
(g9
g2
Ntp165
Rp166
(dp167
g13
I01
sg14
F0.03636185442047196
sg15
g164
sbs(I-5
I188
tp168
g0
(g9
g2
Ntp169
Rp170
(dp171
g13
I00
sg14
F-0.5604448085680771
sg15
g168
sbs(I-4
I188
tp172
g0
(g9
g2
Ntp173
Rp174
(dp175
g13
I01
sg14
F-1.0864464161169332
sg15
g172
sbs(I186
I9
tp176
g0
(g9
g2
Ntp177
Rp178
(dp179
g13
I01
sg14
F0.4829084800266494
sg15
g176
sbs(I-8
I185
tp180
g0
(g9
g2
Ntp181
Rp182
(dp183
g13
I01
sg14
F0.8439727850387012
sg15
g180
sbs(I8
I8
tp184
g0
(g9
g2
Ntp185
Rp186
(dp187
g13
I01
sg14
F1.592608529131341
sg15
g184
sbs(I189
I2
tp188
g0
(g9
g2
Ntp189
Rp190
(dp191
g13
I01
sg14
F0.17382320673411725
sg15
g188
sbs(I186
I4
tp192
g0
(g9
g2
Ntp193
Rp194
(dp195
g13
I01
sg14
F2.045122375976919
sg15
g192
sbs(I186
I0
tp196
g0
(g9
g2
Ntp197
Rp198
(dp199
g13
I01
sg14
F1.3278153429678552
sg15
g196
sbs(I-10
I188
tp200
g0
(g9
g2
Ntp201
Rp202
(dp203
g13
I01
sg14
F-0.08643824984350552
sg15
g200
sbs(I-9
I185
tp204
g0
(g9
g2
Ntp205
Rp206
(dp207
g13
I01
sg14
F-1.3426028550317193
sg15
g204
sbssS'nodes'
p208
(dp209
I0
g0
(cneat.genes
DefaultNodeGene
p210
g2
Ntp211
Rp212
(dp213
S'activation'
p214
S'tanh'
p215
sS'bias'
p216
F-13.984636068923377
sS'response'
p217
F1.0
sg15
I0
sS'aggregation'
p218
S'sum'
p219
sbsI1
g0
(g210
g2
Ntp220
Rp221
(dp222
g214
g215
sg216
F4.808913322239044
sg217
F1.0
sg15
I1
sg218
g219
sbsI2
g0
(g210
g2
Ntp223
Rp224
(dp225
g214
g215
sg216
F7.062248288732827
sg217
F1.0
sg15
I2
sg218
g219
sbsI3
g0
(g210
g2
Ntp226
Rp227
(dp228
g214
g215
sg216
F-12.504984240663433
sg217
F1.0
sg15
I3
sg218
g219
sbsI4
g0
(g210
g2
Ntp229
Rp230
(dp231
g214
g215
sg216
F3.328458796244914
sg217
F1.0
sg15
I4
sg218
g219
sbsI5
g0
(g210
g2
Ntp232
Rp233
(dp234
g214
g215
sg216
F2.549782766662235
sg217
F1.0
sg15
I5
sg218
g219
sbsI6
g0
(g210
g2
Ntp235
Rp236
(dp237
g214
g215
sg216
F-6.265488725299786
sg217
F1.0
sg15
I6
sg218
g219
sbsI7
g0
(g210
g2
Ntp238
Rp239
(dp240
g214
g215
sg216
F-0.1671016880023921
sg217
F1.0
sg15
I7
sg218
g219
sbsI8
g0
(g210
g2
Ntp241
Rp242
(dp243
g214
g215
sg216
F-12.455186001070189
sg217
F1.0
sg15
I8
sg218
g219
sbsI9
g0
(g210
g2
Ntp244
Rp245
(dp246
g214
g215
sg216
F-12.765039225711579
sg217
F1.0
sg15
I9
sg218
g219
sbsI189
g0
(g210
g2
Ntp247
Rp248
(dp249
g214
g215
sg216
F-3.379895948236737
sg217
F1.0
sg15
I189
sg218
g219
sbsI437
g0
(g210
g2
Ntp250
Rp251
(dp252
g214
g215
sg216
F-12.189448132912993
sg217
F1.0
sg15
I437
sg218
g219
sbsI185
g0
(g210
g2
Ntp253
Rp254
(dp255
g214
S'relu'
p256
sg216
F13.933124838763806
sg217
F1.0
sg15
I185
sg218
g219
sbsI186
g0
(g210
g2
Ntp257
Rp258
(dp259
g214
g215
sg216
F-14.218311133781501
sg217
F1.0
sg15
I186
sg218
g219
sbsI188
g0
(g210
g2
Ntp260
Rp261
(dp262
g214
g215
sg216
F-10.357211840482883
sg217
F1.0
sg15
I188
sg218
g219
sbsI509
g0
(g210
g2
Ntp263
Rp264
(dp265
g214
g215
sg216
F-23.499538792426627
sg217
F1.0
sg15
I509
sg218
g219
sbssg15
I18
sS'fitness'
p266
Nsb.