ccopy_reg
_reconstructor
p0
(cneat.genome
DefaultGenome
p1
c__builtin__
object
p2
Ntp3
Rp4
(dp5
S'connections'
p6
(dp7
(I-1
I27
tp8
g0
(cneat.genes
DefaultConnectionGene
p9
g2
Ntp10
Rp11
(dp12
S'enabled'
p13
I01
sS'weight'
p14
F0.06655137801357075
sS'key'
p15
g8
sbs(I-2
I27
tp16
g0
(g9
g2
Ntp17
Rp18
(dp19
g13
I01
sg14
F-0.6417276316788908
sg15
g16
sbs(I-11
I27
tp20
g0
(g9
g2
Ntp21
Rp22
(dp23
g13
I01
sg14
F-0.7417783676435453
sg15
g20
sbs(I-10
I27
tp24
g0
(g9
g2
Ntp25
Rp26
(dp27
g13
I01
sg14
F-0.14827542950341632
sg15
g24
sbs(I-8
I27
tp28
g0
(g9
g2
Ntp29
Rp30
(dp31
g13
I01
sg14
F0.3303155154800349
sg15
g28
sbs(I-14
I27
tp32
g0
(g9
g2
Ntp33
Rp34
(dp35
g13
I01
sg14
F-0.05750901028524869
sg15
g32
sbs(I27
I6
tp36
g0
(g9
g2
Ntp37
Rp38
(dp39
g13
I01
sg14
F-0.03077327739786081
sg15
g36
sbs(I-18
I27
tp40
g0
(g9
g2
Ntp41
Rp42
(dp43
g13
I01
sg14
F-0.736274541798175
sg15
g40
sbs(I-4
I27
tp44
g0
(g9
g2
Ntp45
Rp46
(dp47
g13
I01
sg14
F0.8317132444911827
sg15
g44
sbs(I27
I2
tp48
g0
(g9
g2
Ntp49
Rp50
(dp51
g13
I01
sg14
F-0.21645878942901656
sg15
g48
sbs(I-12
I27
tp52
g0
(g9
g2
Ntp53
Rp54
(dp55
g13
I01
sg14
F0.48609215678506223
sg15
g52
sbs(I27
I5
tp56
g0
(g9
g2
Ntp57
Rp58
(dp59
g13
I01
sg14
F-0.27106687828140813
sg15
g56
sbs(I-15
I27
tp60
g0
(g9
g2
Ntp61
Rp62
(dp63
g13
I01
sg14
F-1.1233682540810124
sg15
g60
sbs(I27
I1
tp64
g0
(g9
g2
Ntp65
Rp66
(dp67
g13
I01
sg14
F0.4035613676232002
sg15
g64
sbs(I-6
I27
tp68
g0
(g9
g2
Ntp69
Rp70
(dp71
g13
I01
sg14
F-0.7902315823375918
sg15
g68
sbs(I-5
I27
tp72
g0
(g9
g2
Ntp73
Rp74
(dp75
g13
I01
sg14
F-0.7995320568225335
sg15
g72
sbs(I-13
I27
tp76
g0
(g9
g2
Ntp77
Rp78
(dp79
g13
I01
sg14
F0.26427143154484073
sg15
g76
sbs(I-19
I27
tp80
g0
(g9
g2
Ntp81
Rp82
(dp83
g13
I01
sg14
F-1.5451147438231956
sg15
g80
sbs(I-16
I27
tp84
g0
(g9
g2
Ntp85
Rp86
(dp87
g13
I01
sg14
F-0.6545666193118503
sg15
g84
sbs(I27
I4
tp88
g0
(g9
g2
Ntp89
Rp90
(dp91
g13
I01
sg14
F-0.2865968638947469
sg15
g88
sbs(I-9
I27
tp92
g0
(g9
g2
Ntp93
Rp94
(dp95
g13
I01
sg14
F-1.1246377558523795
sg15
g92
sbs(I27
I9
tp96
g0
(g9
g2
Ntp97
Rp98
(dp99
g13
I01
sg14
F1.123902910130053
sg15
g96
sbs(I27
I0
tp100
g0
(g9
g2
Ntp101
Rp102
(dp103
g13
I01
sg14
F0.1188422534203571
sg15
g100
sbs(I-17
I27
tp104
g0
(g9
g2
Ntp105
Rp106
(dp107
g13
I01
sg14
F1.5097831349718063
sg15
g104
sbs(I-20
I27
tp108
g0
(g9
g2
Ntp109
Rp110
(dp111
g13
I01
sg14
F-0.5112276774559832
sg15
g108
sbs(I27
I7
tp112
g0
(g9
g2
Ntp113
Rp114
(dp115
g13
I01
sg14
F-0.4164177185598069
sg15
g112
sbs(I-7
I27
tp116
g0
(g9
g2
Ntp117
Rp118
(dp119
g13
I01
sg14
F1.4114821725210251
sg15
g116
sbs(I27
I8
tp120
g0
(g9
g2
Ntp121
Rp122
(dp123
g13
I01
sg14
F-0.8379803059102757
sg15
g120
sbs(I27
I3
tp124
g0
(g9
g2
Ntp125
Rp126
(dp127
g13
I01
sg14
F1.4355196363309761
sg15
g124
sbs(I-3
I27
tp128
g0
(g9
g2
Ntp129
Rp130
(dp131
g13
I01
sg14
F0.5543555424349877
sg15
g128
sbssS'nodes'
p132
(dp133
I0
g0
(cneat.genes
DefaultNodeGene
p134
g2
Ntp135
Rp136
(dp137
S'activation'
p138
S'relu'
p139
sS'bias'
p140
F-5.808310321848145
sS'response'
p141
F1.0
sg15
I0
sS'aggregation'
p142
S'sum'
p143
sbsI1
g0
(g134
g2
Ntp144
Rp145
(dp146
g138
g139
sg140
F18.070185254676783
sg141
F1.0
sg15
I1
sg142
g143
sbsI2
g0
(g134
g2
Ntp147
Rp148
(dp149
g138
g139
sg140
F-6.875891669646375
sg141
F1.0
sg15
I2
sg142
g143
sbsI3
g0
(g134
g2
Ntp150
Rp151
(dp152
g138
g139
sg140
F-1.5647828739040222
sg141
F1.0
sg15
I3
sg142
g143
sbsI4
g0
(g134
g2
Ntp153
Rp154
(dp155
g138
g139
sg140
F10.433659904498748
sg141
F1.0
sg15
I4
sg142
g143
sbsI5
g0
(g134
g2
Ntp156
Rp157
(dp158
g138
g139
sg140
F-4.96711437880348
sg141
F1.0
sg15
I5
sg142
g143
sbsI6
g0
(g134
g2
Ntp159
Rp160
(dp161
g138
g139
sg140
F-16.473581310754135
sg141
F1.0
sg15
I6
sg142
g143
sbsI7
g0
(g134
g2
Ntp162
Rp163
(dp164
g138
g139
sg140
F-1.9576708147385187
sg141
F1.0
sg15
I7
sg142
g143
sbsI8
g0
(g134
g2
Ntp165
Rp166
(dp167
g138
g139
sg140
F-15.292468765930703
sg141
F1.0
sg15
I8
sg142
g143
sbsI9
g0
(g134
g2
Ntp168
Rp169
(dp170
g138
g139
sg140
F0.26935983692708343
sg141
F1.0
sg15
I9
sg142
g143
sbsI27
g0
(g134
g2
Ntp171
Rp172
(dp173
g138
g139
sg140
F4.515417215642495
sg141
F1.0
sg15
I27
sg142
g143
sbssg15
I18
sS'fitness'
p174
F0.026907154816631917
sb.