ccopy_reg
_reconstructor
p0
(cneat.genome
DefaultGenome
p1
c__builtin__
object
p2
Ntp3
Rp4
(dp5
S'connections'
p6
(dp7
(I-1
I27
tp8
g0
(cneat.genes
DefaultConnectionGene
p9
g2
Ntp10
Rp11
(dp12
S'enabled'
p13
I01
sS'weight'
p14
F-0.9276161257988034
sS'key'
p15
g8
sbs(I-2
I27
tp16
g0
(g9
g2
Ntp17
Rp18
(dp19
g13
I01
sg14
F-0.20816388517190404
sg15
g16
sbs(I-11
I27
tp20
g0
(g9
g2
Ntp21
Rp22
(dp23
g13
I01
sg14
F-1.0834214598428287
sg15
g20
sbs(I-10
I27
tp24
g0
(g9
g2
Ntp25
Rp26
(dp27
g13
I01
sg14
F-0.39240042508635903
sg15
g24
sbs(I-8
I27
tp28
g0
(g9
g2
Ntp29
Rp30
(dp31
g13
I01
sg14
F0.19308530668333873
sg15
g28
sbs(I-14
I27
tp32
g0
(g9
g2
Ntp33
Rp34
(dp35
g13
I01
sg14
F0.44627493016185765
sg15
g32
sbs(I27
I6
tp36
g0
(g9
g2
Ntp37
Rp38
(dp39
g13
I01
sg14
F-0.8860297230882667
sg15
g36
sbs(I-18
I27
tp40
g0
(g9
g2
Ntp41
Rp42
(dp43
g13
I01
sg14
F1.822696358040405
sg15
g40
sbs(I-4
I27
tp44
g0
(g9
g2
Ntp45
Rp46
(dp47
g13
I01
sg14
F-2.1368662412179282
sg15
g44
sbs(I27
I2
tp48
g0
(g9
g2
Ntp49
Rp50
(dp51
g13
I01
sg14
F0.7425473179899774
sg15
g48
sbs(I-12
I27
tp52
g0
(g9
g2
Ntp53
Rp54
(dp55
g13
I01
sg14
F-1.1071891277501855
sg15
g52
sbs(I27
I5
tp56
g0
(g9
g2
Ntp57
Rp58
(dp59
g13
I01
sg14
F0.5964320881851404
sg15
g56
sbs(I-15
I27
tp60
g0
(g9
g2
Ntp61
Rp62
(dp63
g13
I01
sg14
F-0.6369564345756187
sg15
g60
sbs(I27
I1
tp64
g0
(g9
g2
Ntp65
Rp66
(dp67
g13
I01
sg14
F0.5722892484964157
sg15
g64
sbs(I-6
I27
tp68
g0
(g9
g2
Ntp69
Rp70
(dp71
g13
I01
sg14
F0.5743073149566357
sg15
g68
sbs(I-5
I27
tp72
g0
(g9
g2
Ntp73
Rp74
(dp75
g13
I01
sg14
F0.18508292245583274
sg15
g72
sbs(I-13
I27
tp76
g0
(g9
g2
Ntp77
Rp78
(dp79
g13
I01
sg14
F-0.884961131220569
sg15
g76
sbs(I-19
I27
tp80
g0
(g9
g2
Ntp81
Rp82
(dp83
g13
I01
sg14
F-0.9744680784540228
sg15
g80
sbs(I-16
I27
tp84
g0
(g9
g2
Ntp85
Rp86
(dp87
g13
I01
sg14
F-0.5352795551608304
sg15
g84
sbs(I27
I4
tp88
g0
(g9
g2
Ntp89
Rp90
(dp91
g13
I01
sg14
F0.2955667514761478
sg15
g88
sbs(I-9
I27
tp92
g0
(g9
g2
Ntp93
Rp94
(dp95
g13
I01
sg14
F0.017483264833940797
sg15
g92
sbs(I27
I9
tp96
g0
(g9
g2
Ntp97
Rp98
(dp99
g13
I01
sg14
F-1.0423024379917687
sg15
g96
sbs(I27
I0
tp100
g0
(g9
g2
Ntp101
Rp102
(dp103
g13
I01
sg14
F2.503288805238479
sg15
g100
sbs(I-17
I27
tp104
g0
(g9
g2
Ntp105
Rp106
(dp107
g13
I01
sg14
F-0.09909676710601452
sg15
g104
sbs(I-20
I27
tp108
g0
(g9
g2
Ntp109
Rp110
(dp111
g13
I01
sg14
F0.27105047149931016
sg15
g108
sbs(I27
I7
tp112
g0
(g9
g2
Ntp113
Rp114
(dp115
g13
I01
sg14
F0.15833540850177016
sg15
g112
sbs(I-7
I27
tp116
g0
(g9
g2
Ntp117
Rp118
(dp119
g13
I01
sg14
F0.8205470190264833
sg15
g116
sbs(I27
I8
tp120
g0
(g9
g2
Ntp121
Rp122
(dp123
g13
I01
sg14
F-0.8856022338952756
sg15
g120
sbs(I27
I3
tp124
g0
(g9
g2
Ntp125
Rp126
(dp127
g13
I01
sg14
F0.37219945692365486
sg15
g124
sbs(I-3
I27
tp128
g0
(g9
g2
Ntp129
Rp130
(dp131
g13
I01
sg14
F-0.5384524367490751
sg15
g128
sbssS'nodes'
p132
(dp133
I0
g0
(cneat.genes
DefaultNodeGene
p134
g2
Ntp135
Rp136
(dp137
S'activation'
p138
S'relu'
p139
sS'bias'
p140
F8.358198330335952
sS'response'
p141
F1.0
sg15
I0
sS'aggregation'
p142
S'sum'
p143
sbsI1
g0
(g134
g2
Ntp144
Rp145
(dp146
g138
g139
sg140
F4.488680509473133
sg141
F1.0
sg15
I1
sg142
g143
sbsI2
g0
(g134
g2
Ntp147
Rp148
(dp149
g138
g139
sg140
F-9.37161248976173
sg141
F1.0
sg15
I2
sg142
g143
sbsI3
g0
(g134
g2
Ntp150
Rp151
(dp152
g138
g139
sg140
F-7.997364641560108
sg141
F1.0
sg15
I3
sg142
g143
sbsI4
g0
(g134
g2
Ntp153
Rp154
(dp155
g138
g139
sg140
F10.038816930770464
sg141
F1.0
sg15
I4
sg142
g143
sbsI5
g0
(g134
g2
Ntp156
Rp157
(dp158
g138
g139
sg140
F9.668203351242287
sg141
F1.0
sg15
I5
sg142
g143
sbsI6
g0
(g134
g2
Ntp159
Rp160
(dp161
g138
g139
sg140
F3.7326285617186667
sg141
F1.0
sg15
I6
sg142
g143
sbsI7
g0
(g134
g2
Ntp162
Rp163
(dp164
g138
g139
sg140
F11.845659706087126
sg141
F1.0
sg15
I7
sg142
g143
sbsI8
g0
(g134
g2
Ntp165
Rp166
(dp167
g138
g139
sg140
F22.556926447258885
sg141
F1.0
sg15
I8
sg142
g143
sbsI9
g0
(g134
g2
Ntp168
Rp169
(dp170
g138
g139
sg140
F12.602190719591617
sg141
F1.0
sg15
I9
sg142
g143
sbsI27
g0
(g134
g2
Ntp171
Rp172
(dp173
g138
g139
sg140
F2.223541252623714
sg141
F1.0
sg15
I27
sg142
g143
sbssg15
I18
sS'fitness'
p174
Nsb.