ccopy_reg
_reconstructor
p0
(cneat.genome
DefaultGenome
p1
c__builtin__
object
p2
Ntp3
Rp4
(dp5
S'connections'
p6
(dp7
(I32
I1
tp8
g0
(cneat.genes
DefaultConnectionGene
p9
g2
Ntp10
Rp11
(dp12
S'enabled'
p13
I01
sS'weight'
p14
F0.6410039559729498
sS'key'
p15
g8
sbs(I-7
I30
tp16
g0
(g9
g2
Ntp17
Rp18
(dp19
g13
I00
sg14
F-0.29840266909475427
sg15
g16
sbs(I-4
I30
tp20
g0
(g9
g2
Ntp21
Rp22
(dp23
g13
I01
sg14
F0.6691336860597554
sg15
g20
sbs(I31
I9
tp24
g0
(g9
g2
Ntp25
Rp26
(dp27
g13
I01
sg14
F-0.7480479108778959
sg15
g24
sbs(I-3
I31
tp28
g0
(g9
g2
Ntp29
Rp30
(dp31
g13
I01
sg14
F-0.20668950970817923
sg15
g28
sbs(I30
I8
tp32
g0
(g9
g2
Ntp33
Rp34
(dp35
g13
I01
sg14
F-1.2047473999873977
sg15
g32
sbs(I-3
I619
tp36
g0
(g9
g2
Ntp37
Rp38
(dp39
g13
I01
sg14
F1.0
sg15
g36
sbs(I32
I6
tp40
g0
(g9
g2
Ntp41
Rp42
(dp43
g13
I00
sg14
F0.28723872087017477
sg15
g40
sbs(I-4
I3
tp44
g0
(g9
g2
Ntp45
Rp46
(dp47
g13
I01
sg14
F1.3458736695006173
sg15
g44
sbs(I-9
I33
tp48
g0
(g9
g2
Ntp49
Rp50
(dp51
g13
I01
sg14
F0.2809004811584987
sg15
g48
sbs(I32
I9
tp52
g0
(g9
g2
Ntp53
Rp54
(dp55
g13
I01
sg14
F-0.8018519122816632
sg15
g52
sbs(I-8
I32
tp56
g0
(g9
g2
Ntp57
Rp58
(dp59
g13
I01
sg14
F1.7458170673846356
sg15
g56
sbs(I33
I3
tp60
g0
(g9
g2
Ntp61
Rp62
(dp63
g13
I01
sg14
F2.4392854721618598
sg15
g60
sbs(I30
I0
tp64
g0
(g9
g2
Ntp65
Rp66
(dp67
g13
I01
sg14
F-0.33598579965079084
sg15
g64
sbs(I30
I9
tp68
g0
(g9
g2
Ntp69
Rp70
(dp71
g13
I01
sg14
F2.1259563205394385
sg15
g68
sbs(I4
I4
tp72
g0
(g9
g2
Ntp73
Rp74
(dp75
g13
I01
sg14
F0.7066237375537925
sg15
g72
sbs(I32
I7
tp76
g0
(g9
g2
Ntp77
Rp78
(dp79
g13
I00
sg14
F-0.8283451184911566
sg15
g76
sbs(I-6
I30
tp80
g0
(g9
g2
Ntp81
Rp82
(dp83
g13
I01
sg14
F0.7119594760139947
sg15
g80
sbs(I30
I5
tp84
g0
(g9
g2
Ntp85
Rp86
(dp87
g13
I01
sg14
F0.8251847882834398
sg15
g84
sbs(I2
I2
tp88
g0
(g9
g2
Ntp89
Rp90
(dp91
g13
I01
sg14
F-0.2885892837739768
sg15
g88
sbs(I-2
I31
tp92
g0
(g9
g2
Ntp93
Rp94
(dp95
g13
I01
sg14
F-0.7457793468592575
sg15
g92
sbs(I-10
I33
tp96
g0
(g9
g2
Ntp97
Rp98
(dp99
g13
I01
sg14
F-0.1439531567746502
sg15
g96
sbs(I-10
I30
tp100
g0
(g9
g2
Ntp101
Rp102
(dp103
g13
I01
sg14
F-1.9421535270584935
sg15
g100
sbs(I31
I0
tp104
g0
(g9
g2
Ntp105
Rp106
(dp107
g13
I01
sg14
F1.2312574037271067
sg15
g104
sbs(I1
I1
tp108
g0
(g9
g2
Ntp109
Rp110
(dp111
g13
I00
sg14
F1.317972039199044
sg15
g108
sbs(I-5
I33
tp112
g0
(g9
g2
Ntp113
Rp114
(dp115
g13
I00
sg14
F-0.7231405635281921
sg15
g112
sbs(I6
I6
tp116
g0
(g9
g2
Ntp117
Rp118
(dp119
g13
I01
sg14
F0.2337332699462782
sg15
g116
sbs(I31
I4
tp120
g0
(g9
g2
Ntp121
Rp122
(dp123
g13
I01
sg14
F-0.8449111631814975
sg15
g120
sbs(I7
I7
tp124
g0
(g9
g2
Ntp125
Rp126
(dp127
g13
I01
sg14
F2.420130723748968
sg15
g124
sbs(I-6
I31
tp128
g0
(g9
g2
Ntp129
Rp130
(dp131
g13
I01
sg14
F-0.0015480707266295468
sg15
g128
sbs(I33
I5
tp132
g0
(g9
g2
Ntp133
Rp134
(dp135
g13
I01
sg14
F1.3255742875464755
sg15
g132
sbs(I-5
I30
tp136
g0
(g9
g2
Ntp137
Rp138
(dp139
g13
I01
sg14
F-1.4017470058176769
sg15
g136
sbs(I31
I3
tp140
g0
(g9
g2
Ntp141
Rp142
(dp143
g13
I01
sg14
F-1.222010077918592
sg15
g140
sbs(I619
I33
tp144
g0
(g9
g2
Ntp145
Rp146
(dp147
g13
I01
sg14
F-0.4698220198505958
sg15
g144
sbs(I32
I3
tp148
g0
(g9
g2
Ntp149
Rp150
(dp151
g13
I01
sg14
F1.5724926200432952
sg15
g148
sbs(I5
I5
tp152
g0
(g9
g2
Ntp153
Rp154
(dp155
g13
I00
sg14
F-2.828953503631405
sg15
g152
sbs(I-9
I31
tp156
g0
(g9
g2
Ntp157
Rp158
(dp159
g13
I01
sg14
F-2.3614820966648917
sg15
g156
sbs(I-6
I33
tp160
g0
(g9
g2
Ntp161
Rp162
(dp163
g13
I01
sg14
F-1.9016778499550162
sg15
g160
sbs(I33
I4
tp164
g0
(g9
g2
Ntp165
Rp166
(dp167
g13
I01
sg14
F0.3370968518076606
sg15
g164
sbs(I-3
I33
tp168
g0
(g9
g2
Ntp169
Rp170
(dp171
g13
I00
sg14
F0.11205339363058277
sg15
g168
sbs(I8
I8
tp172
g0
(g9
g2
Ntp173
Rp174
(dp175
g13
I01
sg14
F-2.1498485987703417
sg15
g172
sbs(I-1
I31
tp176
g0
(g9
g2
Ntp177
Rp178
(dp179
g13
I01
sg14
F3.4876755503091608
sg15
g176
sbs(I31
I2
tp180
g0
(g9
g2
Ntp181
Rp182
(dp183
g13
I01
sg14
F0.1659645201069908
sg15
g180
sbs(I-4
I32
tp184
g0
(g9
g2
Ntp185
Rp186
(dp187
g13
I01
sg14
F-0.9852817363715508
sg15
g184
sbs(I33
I0
tp188
g0
(g9
g2
Ntp189
Rp190
(dp191
g13
I01
sg14
F1.7458377732207149
sg15
g188
sbs(I32
I8
tp192
g0
(g9
g2
Ntp193
Rp194
(dp195
g13
I00
sg14
F-2.7231187402253716
sg15
g192
sbs(I-10
I31
tp196
g0
(g9
g2
Ntp197
Rp198
(dp199
g13
I00
sg14
F2.555632635251929
sg15
g196
sbs(I-8
I31
tp200
g0
(g9
g2
Ntp201
Rp202
(dp203
g13
I01
sg14
F-1.2393822153942369
sg15
g200
sbs(I-7
I33
tp204
g0
(g9
g2
Ntp205
Rp206
(dp207
g13
I01
sg14
F-0.45715127641715575
sg15
g204
sbssS'nodes'
p208
(dp209
I0
g0
(cneat.genes
DefaultNodeGene
p210
g2
Ntp211
Rp212
(dp213
S'activation'
p214
S'tanh'
p215
sS'bias'
p216
F0.8280379800429483
sS'response'
p217
F1.0
sg15
I0
sS'aggregation'
p218
S'sum'
p219
sbsI1
g0
(g210
g2
Ntp220
Rp221
(dp222
g214
g215
sg216
F6.461193419108479
sg217
F1.0
sg15
I1
sg218
g219
sbsI2
g0
(g210
g2
Ntp223
Rp224
(dp225
g214
g215
sg216
F1.8684865384060902
sg217
F1.0
sg15
I2
sg218
g219
sbsI3
g0
(g210
g2
Ntp226
Rp227
(dp228
g214
S'relu'
p229
sg216
F10.40523909545826
sg217
F1.0
sg15
I3
sg218
g219
sbsI4
g0
(g210
g2
Ntp230
Rp231
(dp232
g214
g215
sg216
F-0.6967783304537087
sg217
F1.0
sg15
I4
sg218
g219
sbsI5
g0
(g210
g2
Ntp233
Rp234
(dp235
g214
g229
sg216
F13.870485772235066
sg217
F1.0
sg15
I5
sg218
g219
sbsI6
g0
(g210
g2
Ntp236
Rp237
(dp238
g214
g215
sg216
F-13.899694352461267
sg217
F1.0
sg15
I6
sg218
g219
sbsI7
g0
(g210
g2
Ntp239
Rp240
(dp241
g214
g215
sg216
F-5.056331789989615
sg217
F1.0
sg15
I7
sg218
g219
sbsI8
g0
(g210
g2
Ntp242
Rp243
(dp244
g214
g215
sg216
F20.867996553066135
sg217
F1.0
sg15
I8
sg218
g219
sbsI9
g0
(g210
g2
Ntp245
Rp246
(dp247
g214
g215
sg216
F17.27912684645937
sg217
F1.0
sg15
I9
sg218
g219
sbsI619
g0
(g210
g2
Ntp248
Rp249
(dp250
g214
g215
sg216
F-7.198198585005263
sg217
F1.0
sg15
I619
sg218
g219
sbsI32
g0
(g210
g2
Ntp251
Rp252
(dp253
g214
g215
sg216
F-20.371965944972516
sg217
F1.0
sg15
I32
sg218
g219
sbsI33
g0
(g210
g2
Ntp254
Rp255
(dp256
g214
g215
sg216
F21.529039703435444
sg217
F1.0
sg15
I33
sg218
g219
sbsI30
g0
(g210
g2
Ntp257
Rp258
(dp259
g214
g215
sg216
F10.108626586136772
sg217
F1.0
sg15
I30
sg218
g219
sbsI31
g0
(g210
g2
Ntp260
Rp261
(dp262
g214
g215
sg216
F-3.956522291545471
sg217
F1.0
sg15
I31
sg218
g219
sbssg15
I18
sS'fitness'
p263
Nsb.