ccopy_reg
_reconstructor
p0
(cneat.genome
DefaultGenome
p1
c__builtin__
object
p2
Ntp3
Rp4
(dp5
S'connections'
p6
(dp7
(I327
I3
tp8
g0
(cneat.genes
DefaultConnectionGene
p9
g2
Ntp10
Rp11
(dp12
S'enabled'
p13
I00
sS'weight'
p14
F-1.3908631186784688
sS'key'
p15
g8
sbs(I4
I327
tp16
g0
(g9
g2
Ntp17
Rp18
(dp19
g13
I01
sg14
F0.026400117015942387
sg15
g16
sbs(I0
I0
tp20
g0
(g9
g2
Ntp21
Rp22
(dp23
g13
I00
sg14
F1.2355995302647118
sg15
g20
sbs(I3
I3
tp24
g0
(g9
g2
Ntp25
Rp26
(dp27
g13
I00
sg14
F-2.572923744577937
sg15
g24
sbs(I-8
I327
tp28
g0
(g9
g2
Ntp29
Rp30
(dp31
g13
I01
sg14
F-1.2048484876914571
sg15
g28
sbs(I4
I4
tp32
g0
(g9
g2
Ntp33
Rp34
(dp35
g13
I01
sg14
F1.2562233855828244
sg15
g32
sbs(I327
I7
tp36
g0
(g9
g2
Ntp37
Rp38
(dp39
g13
I01
sg14
F-2.676183262788403
sg15
g36
sbs(I-4
I3
tp40
g0
(g9
g2
Ntp41
Rp42
(dp43
g13
I01
sg14
F0.4566376468697029
sg15
g40
sbs(I8
I8
tp44
g0
(g9
g2
Ntp45
Rp46
(dp47
g13
I00
sg14
F3.409369855838834
sg15
g44
sbs(I327
I4
tp48
g0
(g9
g2
Ntp49
Rp50
(dp51
g13
I01
sg14
F-0.44880966048027116
sg15
g48
sbs(I743
I327
tp52
g0
(g9
g2
Ntp53
Rp54
(dp55
g13
I01
sg14
F1.5491190440578761
sg15
g52
sbs(I-3
I327
tp56
g0
(g9
g2
Ntp57
Rp58
(dp59
g13
I00
sg14
F1.5839098875895132
sg15
g56
sbs(I-3
I743
tp60
g0
(g9
g2
Ntp61
Rp62
(dp63
g13
I01
sg14
F0.220199219222592
sg15
g60
sbs(I2
I2
tp64
g0
(g9
g2
Ntp65
Rp66
(dp67
g13
I01
sg14
F0.515456129106898
sg15
g64
sbs(I5
I327
tp68
g0
(g9
g2
Ntp69
Rp70
(dp71
g13
I01
sg14
F-2.4398222421174234
sg15
g68
sbs(I-4
I327
tp72
g0
(g9
g2
Ntp73
Rp74
(dp75
g13
I01
sg14
F1.5460481833059396
sg15
g72
sbs(I327
I8
tp76
g0
(g9
g2
Ntp77
Rp78
(dp79
g13
I01
sg14
F-5.338336725853503
sg15
g76
sbs(I1
I1
tp80
g0
(g9
g2
Ntp81
Rp82
(dp83
g13
I01
sg14
F1.145713325509196
sg15
g80
sbs(I327
I2
tp84
g0
(g9
g2
Ntp85
Rp86
(dp87
g13
I01
sg14
F-1.3210312496167063
sg15
g84
sbs(I327
I9
tp88
g0
(g9
g2
Ntp89
Rp90
(dp91
g13
I01
sg14
F1.1170394685350198
sg15
g88
sbssS'nodes'
p92
(dp93
I0
g0
(cneat.genes
DefaultNodeGene
p94
g2
Ntp95
Rp96
(dp97
S'activation'
p98
S'tanh'
p99
sS'bias'
p100
F-13.54682771266339
sS'response'
p101
F1.0
sg15
I0
sS'aggregation'
p102
S'sum'
p103
sbsI1
g0
(g94
g2
Ntp104
Rp105
(dp106
g98
g99
sg100
F-17.706467262729635
sg101
F1.0
sg15
I1
sg102
g103
sbsI2
g0
(g94
g2
Ntp107
Rp108
(dp109
g98
g99
sg100
F0.5808318312197995
sg101
F1.0
sg15
I2
sg102
g103
sbsI3
g0
(g94
g2
Ntp110
Rp111
(dp112
g98
g99
sg100
F-4.915146337849694
sg101
F1.0
sg15
I3
sg102
g103
sbsI4
g0
(g94
g2
Ntp113
Rp114
(dp115
g98
g99
sg100
F4.29174248551431
sg101
F1.0
sg15
I4
sg102
g103
sbsI5
g0
(g94
g2
Ntp116
Rp117
(dp118
g98
g99
sg100
F1.2622109626224334
sg101
F1.0
sg15
I5
sg102
g103
sbsI6
g0
(g94
g2
Ntp119
Rp120
(dp121
g98
g99
sg100
F-10.774812355981975
sg101
F1.0
sg15
I6
sg102
g103
sbsI7
g0
(g94
g2
Ntp122
Rp123
(dp124
g98
g99
sg100
F-8.879972475545976
sg101
F1.0
sg15
I7
sg102
g103
sbsI8
g0
(g94
g2
Ntp125
Rp126
(dp127
g98
g99
sg100
F-6.7115381971352015
sg101
F1.0
sg15
I8
sg102
g103
sbsI9
g0
(g94
g2
Ntp128
Rp129
(dp130
g98
g99
sg100
F-3.270844931372525
sg101
F1.0
sg15
I9
sg102
g103
sbsI327
g0
(g94
g2
Ntp131
Rp132
(dp133
g98
g99
sg100
F4.074384157952834
sg101
F1.0
sg15
I327
sg102
g103
sbsI743
g0
(g94
g2
Ntp134
Rp135
(dp136
g98
g99
sg100
F-4.3585018011736905
sg101
F1.0
sg15
I743
sg102
g103
sbssg15
I18
sS'fitness'
p137
F0.15422856291637288
sb.