ccopy_reg
_reconstructor
p0
(cneat.genome
DefaultGenome
p1
c__builtin__
object
p2
Ntp3
Rp4
(dp5
S'connections'
p6
(dp7
(I23
I4
tp8
g0
(cneat.genes
DefaultConnectionGene
p9
g2
Ntp10
Rp11
(dp12
S'enabled'
p13
I01
sS'weight'
p14
F-0.4159335431983501
sS'key'
p15
g8
sbs(I21
I3
tp16
g0
(g9
g2
Ntp17
Rp18
(dp19
g13
I00
sg14
F-0.7041913490459593
sg15
g16
sbs(I24
I8
tp20
g0
(g9
g2
Ntp21
Rp22
(dp23
g13
I00
sg14
F-0.14904587339136033
sg15
g20
sbs(I21
I737
tp24
g0
(g9
g2
Ntp25
Rp26
(dp27
g13
I01
sg14
F-0.05968635939858524
sg15
g24
sbs(I737
I7
tp28
g0
(g9
g2
Ntp29
Rp30
(dp31
g13
I01
sg14
F-0.9857789270715284
sg15
g28
sbs(I-2
I23
tp32
g0
(g9
g2
Ntp33
Rp34
(dp35
g13
I00
sg14
F-1.7768681204294867
sg15
g32
sbs(I7
I7
tp36
g0
(g9
g2
Ntp37
Rp38
(dp39
g13
I01
sg14
F3.178073501149333
sg15
g36
sbs(I24
I4
tp40
g0
(g9
g2
Ntp41
Rp42
(dp43
g13
I01
sg14
F-1.4680847932841206
sg15
g40
sbs(I23
I3
tp44
g0
(g9
g2
Ntp45
Rp46
(dp47
g13
I01
sg14
F0.9780903606822339
sg15
g44
sbs(I-7
I0
tp48
g0
(g9
g2
Ntp49
Rp50
(dp51
g13
I01
sg14
F0.7281039305588686
sg15
g48
sbs(I24
I0
tp52
g0
(g9
g2
Ntp53
Rp54
(dp55
g13
I00
sg14
F-2.8400268238898723
sg15
g52
sbs(I23
I7
tp56
g0
(g9
g2
Ntp57
Rp58
(dp59
g13
I01
sg14
F1.6330504666033356
sg15
g56
sbs(I-10
I21
tp60
g0
(g9
g2
Ntp61
Rp62
(dp63
g13
I01
sg14
F-0.5123300648827437
sg15
g60
sbs(I24
I9
tp64
g0
(g9
g2
Ntp65
Rp66
(dp67
g13
I01
sg14
F-0.5821679123406197
sg15
g64
sbs(I-5
I23
tp68
g0
(g9
g2
Ntp69
Rp70
(dp71
g13
I01
sg14
F1.3549304456534497
sg15
g68
sbs(I-6
I21
tp72
g0
(g9
g2
Ntp73
Rp74
(dp75
g13
I01
sg14
F0.33312086726504064
sg15
g72
sbs(I3
I3
tp76
g0
(g9
g2
Ntp77
Rp78
(dp79
g13
I00
sg14
F-1.511954543573503
sg15
g76
sbs(I-5
I24
tp80
g0
(g9
g2
Ntp81
Rp82
(dp83
g13
I01
sg14
F0.6423831034342847
sg15
g80
sbs(I-10
I9
tp84
g0
(g9
g2
Ntp85
Rp86
(dp87
g13
I01
sg14
F0.4179542497511862
sg15
g84
sbs(I533
I8
tp88
g0
(g9
g2
Ntp89
Rp90
(dp91
g13
I01
sg14
F1.6367903317694312
sg15
g88
sbs(I-8
I24
tp92
g0
(g9
g2
Ntp93
Rp94
(dp95
g13
I01
sg14
F0.26066633005381246
sg15
g92
sbs(I-1
I21
tp96
g0
(g9
g2
Ntp97
Rp98
(dp99
g13
I01
sg14
F-0.7327487107581002
sg15
g96
sbs(I2
I2
tp100
g0
(g9
g2
Ntp101
Rp102
(dp103
g13
I00
sg14
F0.10017670864868806
sg15
g100
sbs(I24
I1
tp104
g0
(g9
g2
Ntp105
Rp106
(dp107
g13
I01
sg14
F-2.2247599172272903
sg15
g104
sbs(I-9
I24
tp108
g0
(g9
g2
Ntp109
Rp110
(dp111
g13
I00
sg14
F0.3875290182810929
sg15
g108
sbs(I21
I0
tp112
g0
(g9
g2
Ntp113
Rp114
(dp115
g13
I00
sg14
F-1.184319494148932
sg15
g112
sbs(I21
I4
tp116
g0
(g9
g2
Ntp117
Rp118
(dp119
g13
I01
sg14
F1.2375220073474607
sg15
g116
sbs(I24
I2
tp120
g0
(g9
g2
Ntp121
Rp122
(dp123
g13
I01
sg14
F2.431970259581355
sg15
g120
sbs(I23
I1
tp124
g0
(g9
g2
Ntp125
Rp126
(dp127
g13
I01
sg14
F-0.4147454643111516
sg15
g124
sbs(I-8
I21
tp128
g0
(g9
g2
Ntp129
Rp130
(dp131
g13
I01
sg14
F-3.1174099818139203
sg15
g128
sbs(I-6
I24
tp132
g0
(g9
g2
Ntp133
Rp134
(dp135
g13
I01
sg14
F-0.04917325860439886
sg15
g132
sbs(I23
I5
tp136
g0
(g9
g2
Ntp137
Rp138
(dp139
g13
I01
sg14
F2.013406624699106
sg15
g136
sbs(I-1
I533
tp140
g0
(g9
g2
Ntp141
Rp142
(dp143
g13
I01
sg14
F0.5473986330931675
sg15
g140
sbs(I24
I7
tp144
g0
(g9
g2
Ntp145
Rp146
(dp147
g13
I01
sg14
F-0.919108065654961
sg15
g144
sbs(I21
I9
tp148
g0
(g9
g2
Ntp149
Rp150
(dp151
g13
I01
sg14
F-0.5528874845982407
sg15
g148
sbs(I23
I9
tp152
g0
(g9
g2
Ntp153
Rp154
(dp155
g13
I01
sg14
F2.5754824007510533
sg15
g152
sbs(I24
I3
tp156
g0
(g9
g2
Ntp157
Rp158
(dp159
g13
I01
sg14
F2.060799096933927
sg15
g156
sbs(I8
I8
tp160
g0
(g9
g2
Ntp161
Rp162
(dp163
g13
I01
sg14
F0.6001396934236449
sg15
g160
sbs(I21
I7
tp164
g0
(g9
g2
Ntp165
Rp166
(dp167
g13
I00
sg14
F-0.8051736913735931
sg15
g164
sbs(I-7
I23
tp168
g0
(g9
g2
Ntp169
Rp170
(dp171
g13
I00
sg14
F1.692144931936393
sg15
g168
sbssS'nodes'
p172
(dp173
I0
g0
(cneat.genes
DefaultNodeGene
p174
g2
Ntp175
Rp176
(dp177
S'activation'
p178
S'tanh'
p179
sS'bias'
p180
F4.482432693923855
sS'response'
p181
F1.0
sg15
I0
sS'aggregation'
p182
S'sum'
p183
sbsI1
g0
(g174
g2
Ntp184
Rp185
(dp186
g178
g179
sg180
F-16.39234184824376
sg181
F1.0
sg15
I1
sg182
g183
sbsI2
g0
(g174
g2
Ntp187
Rp188
(dp189
g178
g179
sg180
F14.22078226261188
sg181
F1.0
sg15
I2
sg182
g183
sbsI3
g0
(g174
g2
Ntp190
Rp191
(dp192
g178
g179
sg180
F10.132022313605054
sg181
F1.0
sg15
I3
sg182
g183
sbsI4
g0
(g174
g2
Ntp193
Rp194
(dp195
g178
g179
sg180
F-8.86372315796468
sg181
F1.0
sg15
I4
sg182
g183
sbsI5
g0
(g174
g2
Ntp196
Rp197
(dp198
g178
g179
sg180
F6.280204489272754
sg181
F1.0
sg15
I5
sg182
g183
sbsI6
g0
(g174
g2
Ntp199
Rp200
(dp201
g178
g179
sg180
F-4.905120577167194
sg181
F1.0
sg15
I6
sg182
g183
sbsI7
g0
(g174
g2
Ntp202
Rp203
(dp204
g178
g179
sg180
F9.433613877742445
sg181
F1.0
sg15
I7
sg182
g183
sbsI8
g0
(g174
g2
Ntp205
Rp206
(dp207
g178
g179
sg180
F2.514322440034901
sg181
F1.0
sg15
I8
sg182
g183
sbsI9
g0
(g174
g2
Ntp208
Rp209
(dp210
g178
g179
sg180
F1.3595854601836086
sg181
F1.0
sg15
I9
sg182
g183
sbsI21
g0
(g174
g2
Ntp211
Rp212
(dp213
g178
g179
sg180
F8.774828455127178
sg181
F1.0
sg15
I21
sg182
g183
sbsI23
g0
(g174
g2
Ntp214
Rp215
(dp216
g178
g179
sg180
F-1.0347667450676952
sg181
F1.0
sg15
I23
sg182
g183
sbsI24
g0
(g174
g2
Ntp217
Rp218
(dp219
g178
g179
sg180
F2.46075861050243
sg181
F1.0
sg15
I24
sg182
g183
sbsI737
g0
(g174
g2
Ntp220
Rp221
(dp222
g178
S'relu'
p223
sg180
F1.881388049634093
sg181
F1.0
sg15
I737
sg182
g183
sbsI533
g0
(g174
g2
Ntp224
Rp225
(dp226
g178
g179
sg180
F-15.706686556096757
sg181
F1.0
sg15
I533
sg182
g183
sbssg15
I189
sS'fitness'
p227
F0.1907119816206133
sb.