ccopy_reg
_reconstructor
p0
(cneat.genome
DefaultGenome
p1
c__builtin__
object
p2
Ntp3
Rp4
(dp5
S'connections'
p6
(dp7
(I-7
I30
tp8
g0
(cneat.genes
DefaultConnectionGene
p9
g2
Ntp10
Rp11
(dp12
S'enabled'
p13
I01
sS'weight'
p14
F0.022888548249599974
sS'key'
p15
g8
sbs(I-4
I30
tp16
g0
(g9
g2
Ntp17
Rp18
(dp19
g13
I01
sg14
F0.7964456365154009
sg15
g16
sbs(I31
I9
tp20
g0
(g9
g2
Ntp21
Rp22
(dp23
g13
I01
sg14
F0.1701818095658424
sg15
g20
sbs(I-3
I31
tp24
g0
(g9
g2
Ntp25
Rp26
(dp27
g13
I01
sg14
F-0.5083336395162972
sg15
g24
sbs(I30
I8
tp28
g0
(g9
g2
Ntp29
Rp30
(dp31
g13
I01
sg14
F-0.311730555438951
sg15
g28
sbs(I-4
I33
tp32
g0
(g9
g2
Ntp33
Rp34
(dp35
g13
I01
sg14
F-1.3364321066814215
sg15
g32
sbs(I-7
I33
tp36
g0
(g9
g2
Ntp37
Rp38
(dp39
g13
I01
sg14
F1.09983934237221
sg15
g36
sbs(I-9
I33
tp40
g0
(g9
g2
Ntp41
Rp42
(dp43
g13
I01
sg14
F0.19599326418378893
sg15
g40
sbs(I33
I3
tp44
g0
(g9
g2
Ntp45
Rp46
(dp47
g13
I01
sg14
F3.1096852525738004
sg15
g44
sbs(I5
I5
tp48
g0
(g9
g2
Ntp49
Rp50
(dp51
g13
I00
sg14
F-0.7824877817957692
sg15
g48
sbs(I30
I9
tp52
g0
(g9
g2
Ntp53
Rp54
(dp55
g13
I01
sg14
F2.2086681547765346
sg15
g52
sbs(I4
I4
tp56
g0
(g9
g2
Ntp57
Rp58
(dp59
g13
I01
sg14
F-1.5857878834804198
sg15
g56
sbs(I30
I0
tp60
g0
(g9
g2
Ntp61
Rp62
(dp63
g13
I01
sg14
F-0.040385374352207126
sg15
g60
sbs(I-4
I3
tp64
g0
(g9
g2
Ntp65
Rp66
(dp67
g13
I01
sg14
F0.3103900628918026
sg15
g64
sbs(I-6
I30
tp68
g0
(g9
g2
Ntp69
Rp70
(dp71
g13
I01
sg14
F0.06828667497882568
sg15
g68
sbs(I30
I5
tp72
g0
(g9
g2
Ntp73
Rp74
(dp75
g13
I01
sg14
F1.977039131789788
sg15
g72
sbs(I2
I2
tp76
g0
(g9
g2
Ntp77
Rp78
(dp79
g13
I01
sg14
F0.6640066833511138
sg15
g76
sbs(I-1
I31
tp80
g0
(g9
g2
Ntp81
Rp82
(dp83
g13
I01
sg14
F2.444921740279899
sg15
g80
sbs(I-10
I33
tp84
g0
(g9
g2
Ntp85
Rp86
(dp87
g13
I01
sg14
F-1.30780190701746
sg15
g84
sbs(I1
I1
tp88
g0
(g9
g2
Ntp89
Rp90
(dp91
g13
I00
sg14
F0.8058551879906306
sg15
g88
sbs(I-5
I33
tp92
g0
(g9
g2
Ntp93
Rp94
(dp95
g13
I00
sg14
F-0.5747485062079416
sg15
g92
sbs(I6
I6
tp96
g0
(g9
g2
Ntp97
Rp98
(dp99
g13
I01
sg14
F-0.3583110214211809
sg15
g96
sbs(I31
I4
tp100
g0
(g9
g2
Ntp101
Rp102
(dp103
g13
I01
sg14
F-1.2777279987727108
sg15
g100
sbs(I7
I7
tp104
g0
(g9
g2
Ntp105
Rp106
(dp107
g13
I01
sg14
F-0.7570660894586508
sg15
g104
sbs(I-6
I31
tp108
g0
(g9
g2
Ntp109
Rp110
(dp111
g13
I01
sg14
F-0.21766605860894683
sg15
g108
sbs(I33
I5
tp112
g0
(g9
g2
Ntp113
Rp114
(dp115
g13
I01
sg14
F2.2554987175765264
sg15
g112
sbs(I-5
I30
tp116
g0
(g9
g2
Ntp117
Rp118
(dp119
g13
I01
sg14
F-1.0597310403071378
sg15
g116
sbs(I9
I31
tp120
g0
(g9
g2
Ntp121
Rp122
(dp123
g13
I01
sg14
F2.635396778420538
sg15
g120
sbs(I31
I3
tp124
g0
(g9
g2
Ntp125
Rp126
(dp127
g13
I01
sg14
F-2.898276815377854
sg15
g124
sbs(I-10
I30
tp128
g0
(g9
g2
Ntp129
Rp130
(dp131
g13
I01
sg14
F-3.169416095373427
sg15
g128
sbs(I-9
I31
tp132
g0
(g9
g2
Ntp133
Rp134
(dp135
g13
I01
sg14
F-1.9205963303351998
sg15
g132
sbs(I-6
I33
tp136
g0
(g9
g2
Ntp137
Rp138
(dp139
g13
I00
sg14
F-0.956387711194755
sg15
g136
sbs(I33
I4
tp140
g0
(g9
g2
Ntp141
Rp142
(dp143
g13
I01
sg14
F-1.1395249334074666
sg15
g140
sbs(I-3
I33
tp144
g0
(g9
g2
Ntp145
Rp146
(dp147
g13
I01
sg14
F0.34668201729260073
sg15
g144
sbs(I8
I8
tp148
g0
(g9
g2
Ntp149
Rp150
(dp151
g13
I01
sg14
F-2.7634359069686814
sg15
g148
sbs(I-2
I31
tp152
g0
(g9
g2
Ntp153
Rp154
(dp155
g13
I00
sg14
F-0.7761386235404906
sg15
g152
sbs(I31
I2
tp156
g0
(g9
g2
Ntp157
Rp158
(dp159
g13
I01
sg14
F-1.1097410750365375
sg15
g156
sbs(I33
I0
tp160
g0
(g9
g2
Ntp161
Rp162
(dp163
g13
I01
sg14
F1.4483032998535537
sg15
g160
sbs(I-10
I31
tp164
g0
(g9
g2
Ntp165
Rp166
(dp167
g13
I00
sg14
F1.763077065614985
sg15
g164
sbs(I-8
I31
tp168
g0
(g9
g2
Ntp169
Rp170
(dp171
g13
I01
sg14
F-0.3404447170376337
sg15
g168
sbssS'nodes'
p172
(dp173
I0
g0
(cneat.genes
DefaultNodeGene
p174
g2
Ntp175
Rp176
(dp177
S'activation'
p178
S'tanh'
p179
sS'bias'
p180
F2.6878011494380942
sS'response'
p181
F1.0
sg15
I0
sS'aggregation'
p182
S'sum'
p183
sbsI1
g0
(g174
g2
Ntp184
Rp185
(dp186
g178
g179
sg180
F7.654495518741491
sg181
F1.0
sg15
I1
sg182
g183
sbsI2
g0
(g174
g2
Ntp187
Rp188
(dp189
g178
g179
sg180
F1.592950645137954
sg181
F1.0
sg15
I2
sg182
g183
sbsI3
g0
(g174
g2
Ntp190
Rp191
(dp192
g178
S'relu'
p193
sg180
F9.247918113134249
sg181
F1.0
sg15
I3
sg182
g183
sbsI4
g0
(g174
g2
Ntp194
Rp195
(dp196
g178
g179
sg180
F-16.006713395971673
sg181
F1.0
sg15
I4
sg182
g183
sbsI5
g0
(g174
g2
Ntp197
Rp198
(dp199
g178
g193
sg180
F-4.829496551862863
sg181
F1.0
sg15
I5
sg182
g183
sbsI6
g0
(g174
g2
Ntp200
Rp201
(dp202
g178
g179
sg180
F-14.533484537231589
sg181
F1.0
sg15
I6
sg182
g183
sbsI7
g0
(g174
g2
Ntp203
Rp204
(dp205
g178
g179
sg180
F-5.9138548371338695
sg181
F1.0
sg15
I7
sg182
g183
sbsI8
g0
(g174
g2
Ntp206
Rp207
(dp208
g178
g179
sg180
F21.752291946769716
sg181
F1.0
sg15
I8
sg182
g183
sbsI9
g0
(g174
g2
Ntp209
Rp210
(dp211
g178
g179
sg180
F16.965688589032222
sg181
F1.0
sg15
I9
sg182
g183
sbsI33
g0
(g174
g2
Ntp212
Rp213
(dp214
g178
g179
sg180
F21.10292082759735
sg181
F1.0
sg15
I33
sg182
g183
sbsI30
g0
(g174
g2
Ntp215
Rp216
(dp217
g178
g179
sg180
F8.438438825441551
sg181
F1.0
sg15
I30
sg182
g183
sbsI31
g0
(g174
g2
Ntp218
Rp219
(dp220
g178
g179
sg180
F-3.4612756012553723
sg181
F1.0
sg15
I31
sg182
g183
sbssg15
I19
sS'fitness'
p221
Nsb.