ccopy_reg
_reconstructor
p0
(cneat.genome
DefaultGenome
p1
c__builtin__
object
p2
Ntp3
Rp4
(dp5
S'connections'
p6
(dp7
(I28
I4
tp8
g0
(cneat.genes
DefaultConnectionGene
p9
g2
Ntp10
Rp11
(dp12
S'enabled'
p13
I01
sS'weight'
p14
F0.026921303108069512
sS'key'
p15
g8
sbs(I-15
I28
tp16
g0
(g9
g2
Ntp17
Rp18
(dp19
g13
I01
sg14
F-0.5423265218057038
sg15
g16
sbs(I28
I8
tp20
g0
(g9
g2
Ntp21
Rp22
(dp23
g13
I01
sg14
F0.005148982924919841
sg15
g20
sbs(I-2
I28
tp24
g0
(g9
g2
Ntp25
Rp26
(dp27
g13
I01
sg14
F0.9191229249162461
sg15
g24
sbs(I28
I1
tp28
g0
(g9
g2
Ntp29
Rp30
(dp31
g13
I01
sg14
F-1.1585144082818764
sg15
g28
sbs(I-10
I28
tp32
g0
(g9
g2
Ntp33
Rp34
(dp35
g13
I01
sg14
F-1.1895729108942992
sg15
g32
sbs(I-20
I28
tp36
g0
(g9
g2
Ntp37
Rp38
(dp39
g13
I01
sg14
F-2.8622960799918826
sg15
g36
sbs(I-5
I28
tp40
g0
(g9
g2
Ntp41
Rp42
(dp43
g13
I01
sg14
F1.1492296959736148
sg15
g40
sbs(I28
I5
tp44
g0
(g9
g2
Ntp45
Rp46
(dp47
g13
I01
sg14
F0.2554634336612129
sg15
g44
sbs(I-18
I28
tp48
g0
(g9
g2
Ntp49
Rp50
(dp51
g13
I01
sg14
F-0.5672765533645121
sg15
g48
sbs(I-13
I28
tp52
g0
(g9
g2
Ntp53
Rp54
(dp55
g13
I01
sg14
F-0.0025947077418067466
sg15
g52
sbs(I-8
I28
tp56
g0
(g9
g2
Ntp57
Rp58
(dp59
g13
I01
sg14
F0.2190162463106536
sg15
g56
sbs(I28
I9
tp60
g0
(g9
g2
Ntp61
Rp62
(dp63
g13
I01
sg14
F0.37999375589601153
sg15
g60
sbs(I28
I2
tp64
g0
(g9
g2
Ntp65
Rp66
(dp67
g13
I01
sg14
F-0.21760428464534726
sg15
g64
sbs(I-19
I28
tp68
g0
(g9
g2
Ntp69
Rp70
(dp71
g13
I01
sg14
F0.6295985664070305
sg15
g68
sbs(I-14
I28
tp72
g0
(g9
g2
Ntp73
Rp74
(dp75
g13
I01
sg14
F-0.17208328154287716
sg15
g72
sbs(I28
I6
tp76
g0
(g9
g2
Ntp77
Rp78
(dp79
g13
I01
sg14
F-0.20431390381291573
sg15
g76
sbs(I-7
I28
tp80
g0
(g9
g2
Ntp81
Rp82
(dp83
g13
I01
sg14
F0.05603211032108278
sg15
g80
sbs(I-9
I28
tp84
g0
(g9
g2
Ntp85
Rp86
(dp87
g13
I01
sg14
F0.33700394477758056
sg15
g84
sbs(I-4
I28
tp88
g0
(g9
g2
Ntp89
Rp90
(dp91
g13
I01
sg14
F1.2249687427777045
sg15
g88
sbs(I28
I3
tp92
g0
(g9
g2
Ntp93
Rp94
(dp95
g13
I01
sg14
F0.3321504515684766
sg15
g92
sbs(I-17
I28
tp96
g0
(g9
g2
Ntp97
Rp98
(dp99
g13
I01
sg14
F1.0596968331189838
sg15
g96
sbs(I-12
I28
tp100
g0
(g9
g2
Ntp101
Rp102
(dp103
g13
I01
sg14
F-0.23536289748528857
sg15
g100
sbs(I28
I7
tp104
g0
(g9
g2
Ntp105
Rp106
(dp107
g13
I01
sg14
F0.8465505030996301
sg15
g104
sbs(I-3
I28
tp108
g0
(g9
g2
Ntp109
Rp110
(dp111
g13
I01
sg14
F0.2938561465763833
sg15
g108
sbs(I-1
I28
tp112
g0
(g9
g2
Ntp113
Rp114
(dp115
g13
I01
sg14
F-0.287651042030544
sg15
g112
sbs(I-11
I28
tp116
g0
(g9
g2
Ntp117
Rp118
(dp119
g13
I01
sg14
F-0.39440158755925114
sg15
g116
sbs(I-6
I28
tp120
g0
(g9
g2
Ntp121
Rp122
(dp123
g13
I01
sg14
F0.3859721434809322
sg15
g120
sbs(I-16
I28
tp124
g0
(g9
g2
Ntp125
Rp126
(dp127
g13
I01
sg14
F0.7817410848269248
sg15
g124
sbs(I28
I0
tp128
g0
(g9
g2
Ntp129
Rp130
(dp131
g13
I01
sg14
F-2.4304980848610507
sg15
g128
sbssS'nodes'
p132
(dp133
I0
g0
(cneat.genes
DefaultNodeGene
p134
g2
Ntp135
Rp136
(dp137
S'activation'
p138
S'relu'
p139
sS'bias'
p140
F-3.0552396559682515
sS'response'
p141
F1.0
sg15
I0
sS'aggregation'
p142
S'sum'
p143
sbsI1
g0
(g134
g2
Ntp144
Rp145
(dp146
g138
g139
sg140
F21.505583127418156
sg141
F1.0
sg15
I1
sg142
g143
sbsI2
g0
(g134
g2
Ntp147
Rp148
(dp149
g138
g139
sg140
F-14.928808543579882
sg141
F1.0
sg15
I2
sg142
g143
sbsI3
g0
(g134
g2
Ntp150
Rp151
(dp152
g138
g139
sg140
F3.7440012531086175
sg141
F1.0
sg15
I3
sg142
g143
sbsI4
g0
(g134
g2
Ntp153
Rp154
(dp155
g138
g139
sg140
F-15.996834512364412
sg141
F1.0
sg15
I4
sg142
g143
sbsI5
g0
(g134
g2
Ntp156
Rp157
(dp158
g138
g139
sg140
F2.484556805895598
sg141
F1.0
sg15
I5
sg142
g143
sbsI6
g0
(g134
g2
Ntp159
Rp160
(dp161
g138
g139
sg140
F-1.8873948109561294
sg141
F1.0
sg15
I6
sg142
g143
sbsI7
g0
(g134
g2
Ntp162
Rp163
(dp164
g138
g139
sg140
F2.876475161414586
sg141
F1.0
sg15
I7
sg142
g143
sbsI8
g0
(g134
g2
Ntp165
Rp166
(dp167
g138
g139
sg140
F6.749505824890934
sg141
F1.0
sg15
I8
sg142
g143
sbsI9
g0
(g134
g2
Ntp168
Rp169
(dp170
g138
g139
sg140
F-17.844448446208723
sg141
F1.0
sg15
I9
sg142
g143
sbsI28
g0
(g134
g2
Ntp171
Rp172
(dp173
g138
g139
sg140
F5.129736846644405
sg141
F1.0
sg15
I28
sg142
g143
sbssg15
I19
sS'fitness'
p174
F0.09893501954745992
sb.