ccopy_reg
_reconstructor
p0
(cneat.genome
DefaultGenome
p1
c__builtin__
object
p2
Ntp3
Rp4
(dp5
S'connections'
p6
(dp7
(I-8
I102
tp8
g0
(cneat.genes
DefaultConnectionGene
p9
g2
Ntp10
Rp11
(dp12
S'enabled'
p13
I01
sS'weight'
p14
F-1.014102991348145
sS'key'
p15
g8
sbs(I-9
I104
tp16
g0
(g9
g2
Ntp17
Rp18
(dp19
g13
I01
sg14
F-0.2697305355025414
sg15
g16
sbs(I-6
I100
tp20
g0
(g9
g2
Ntp21
Rp22
(dp23
g13
I01
sg14
F-0.28795444309580304
sg15
g20
sbs(I-2
I100
tp24
g0
(g9
g2
Ntp25
Rp26
(dp27
g13
I01
sg14
F-0.3657040118307729
sg15
g24
sbs(I104
I6
tp28
g0
(g9
g2
Ntp29
Rp30
(dp31
g13
I01
sg14
F0.05415751426298537
sg15
g28
sbs(I-4
I103
tp32
g0
(g9
g2
Ntp33
Rp34
(dp35
g13
I01
sg14
F-0.8391311260299873
sg15
g32
sbs(I100
I1
tp36
g0
(g9
g2
Ntp37
Rp38
(dp39
g13
I01
sg14
F1.9159885028341144
sg15
g36
sbs(I-2
I102
tp40
g0
(g9
g2
Ntp41
Rp42
(dp43
g13
I01
sg14
F-1.7684556627694978
sg15
g40
sbs(I102
I4
tp44
g0
(g9
g2
Ntp45
Rp46
(dp47
g13
I01
sg14
F-0.5605722965304646
sg15
g44
sbs(I101
I4
tp48
g0
(g9
g2
Ntp49
Rp50
(dp51
g13
I01
sg14
F0.978016684407511
sg15
g48
sbs(I5
I5
tp52
g0
(g9
g2
Ntp53
Rp54
(dp55
g13
I01
sg14
F-0.8754588702121945
sg15
g52
sbs(I103
I1
tp56
g0
(g9
g2
Ntp57
Rp58
(dp59
g13
I01
sg14
F-0.059555069965147416
sg15
g56
sbs(I-7
I102
tp60
g0
(g9
g2
Ntp61
Rp62
(dp63
g13
I01
sg14
F0.4213041008273472
sg15
g60
sbs(I-5
I103
tp64
g0
(g9
g2
Ntp65
Rp66
(dp67
g13
I01
sg14
F0.6521991848009285
sg15
g64
sbs(I-10
I103
tp68
g0
(g9
g2
Ntp69
Rp70
(dp71
g13
I01
sg14
F1.1213842130294003
sg15
g68
sbs(I-5
I104
tp72
g0
(g9
g2
Ntp73
Rp74
(dp75
g13
I01
sg14
F-0.7686086996901275
sg15
g72
sbs(I-3
I101
tp76
g0
(g9
g2
Ntp77
Rp78
(dp79
g13
I01
sg14
F0.07062925480874667
sg15
g76
sbs(I104
I3
tp80
g0
(g9
g2
Ntp81
Rp82
(dp83
g13
I01
sg14
F-1.9714994602586715
sg15
g80
sbs(I-4
I100
tp84
g0
(g9
g2
Ntp85
Rp86
(dp87
g13
I01
sg14
F-0.20283039851211257
sg15
g84
sbs(I100
I6
tp88
g0
(g9
g2
Ntp89
Rp90
(dp91
g13
I01
sg14
F-0.8000662016269782
sg15
g88
sbs(I102
I1
tp92
g0
(g9
g2
Ntp93
Rp94
(dp95
g13
I01
sg14
F-0.41605296898727073
sg15
g92
sbs(I101
I7
tp96
g0
(g9
g2
Ntp97
Rp98
(dp99
g13
I01
sg14
F1.3914912281140555
sg15
g96
sbs(I103
I4
tp100
g0
(g9
g2
Ntp101
Rp102
(dp103
g13
I01
sg14
F-0.60835024876339
sg15
g100
sbs(I101
I101
tp104
g0
(g9
g2
Ntp105
Rp106
(dp107
g13
I01
sg14
F1.1055565561863587
sg15
g104
sbs(I-3
I104
tp108
g0
(g9
g2
Ntp109
Rp110
(dp111
g13
I01
sg14
F-1.1048470593556363
sg15
g108
sbs(I100
I8
tp112
g0
(g9
g2
Ntp113
Rp114
(dp115
g13
I01
sg14
F-0.24486312386674333
sg15
g112
sbs(I-2
I103
tp116
g0
(g9
g2
Ntp117
Rp118
(dp119
g13
I01
sg14
F1.4490862580571564
sg15
g116
sbs(I104
I0
tp120
g0
(g9
g2
Ntp121
Rp122
(dp123
g13
I01
sg14
F0.7078316340027289
sg15
g120
sbs(I9
I9
tp124
g0
(g9
g2
Ntp125
Rp126
(dp127
g13
I01
sg14
F0.42805321537872876
sg15
g124
sbs(I-8
I100
tp128
g0
(g9
g2
Ntp129
Rp130
(dp131
g13
I01
sg14
F-1.7704701859406884
sg15
g128
sbs(I102
I2
tp132
g0
(g9
g2
Ntp133
Rp134
(dp135
g13
I01
sg14
F-1.0116000535089558
sg15
g132
sbs(I-9
I100
tp136
g0
(g9
g2
Ntp137
Rp138
(dp139
g13
I01
sg14
F-0.05640169682489994
sg15
g136
sbs(I101
I0
tp140
g0
(g9
g2
Ntp141
Rp142
(dp143
g13
I01
sg14
F0.5250368274278019
sg15
g140
sbs(I-8
I103
tp144
g0
(g9
g2
Ntp145
Rp146
(dp147
g13
I01
sg14
F0.6111676355185323
sg15
g144
sbs(I-6
I101
tp148
g0
(g9
g2
Ntp149
Rp150
(dp151
g13
I01
sg14
F-1.144279268498518
sg15
g148
sbs(I104
I7
tp152
g0
(g9
g2
Ntp153
Rp154
(dp155
g13
I01
sg14
F0.4953989716698688
sg15
g152
sbs(I2
I2
tp156
g0
(g9
g2
Ntp157
Rp158
(dp159
g13
I01
sg14
F-0.7525351406539863
sg15
g156
sbs(I100
I2
tp160
g0
(g9
g2
Ntp161
Rp162
(dp163
g13
I01
sg14
F-0.7047120002548716
sg15
g160
sbs(I-1
I102
tp164
g0
(g9
g2
Ntp165
Rp166
(dp167
g13
I01
sg14
F0.7094563030139635
sg15
g164
sbs(I-1
I103
tp168
g0
(g9
g2
Ntp169
Rp170
(dp171
g13
I01
sg14
F1.1718637561645373
sg15
g168
sbs(I102
I5
tp172
g0
(g9
g2
Ntp173
Rp174
(dp175
g13
I01
sg14
F0.44336226142604945
sg15
g172
sbs(I101
I3
tp176
g0
(g9
g2
Ntp177
Rp178
(dp179
g13
I01
sg14
F2.2820462261085592
sg15
g176
sbs(I103
I0
tp180
g0
(g9
g2
Ntp181
Rp182
(dp183
g13
I01
sg14
F-0.038356823009459806
sg15
g180
sbs(I102
I8
tp184
g0
(g9
g2
Ntp185
Rp186
(dp187
g13
I01
sg14
F-0.6939063763409973
sg15
g184
sbs(I-7
I101
tp188
g0
(g9
g2
Ntp189
Rp190
(dp191
g13
I01
sg14
F0.49460209736478966
sg15
g188
sbs(I103
I103
tp192
g0
(g9
g2
Ntp193
Rp194
(dp195
g13
I01
sg14
F-0.5191246519381252
sg15
g192
sbs(I-5
I102
tp196
g0
(g9
g2
Ntp197
Rp198
(dp199
g13
I01
sg14
F1.3996469446362054
sg15
g196
sbs(I-2
I104
tp200
g0
(g9
g2
Ntp201
Rp202
(dp203
g13
I01
sg14
F-0.7136931104795325
sg15
g200
sbs(I-10
I100
tp204
g0
(g9
g2
Ntp205
Rp206
(dp207
g13
I01
sg14
F1.0724765266251122
sg15
g204
sbs(I-3
I100
tp208
g0
(g9
g2
Ntp209
Rp210
(dp211
g13
I01
sg14
F-1.119498452971287
sg15
g208
sbs(I-6
I102
tp212
g0
(g9
g2
Ntp213
Rp214
(dp215
g13
I01
sg14
F-0.11810563651692173
sg15
g212
sbs(I104
I4
tp216
g0
(g9
g2
Ntp217
Rp218
(dp219
g13
I01
sg14
F-1.4300264641424103
sg15
g216
sbs(I-4
I101
tp220
g0
(g9
g2
Ntp221
Rp222
(dp223
g13
I01
sg14
F0.5219350937947353
sg15
g220
sbs(I101
I9
tp224
g0
(g9
g2
Ntp225
Rp226
(dp227
g13
I01
sg14
F-1.7461571810668253
sg15
g224
sbs(I100
I7
tp228
g0
(g9
g2
Ntp229
Rp230
(dp231
g13
I01
sg14
F-0.954422413901262
sg15
g228
sbs(I102
I6
tp232
g0
(g9
g2
Ntp233
Rp234
(dp235
g13
I01
sg14
F-0.9908187571735023
sg15
g232
sbs(I101
I6
tp236
g0
(g9
g2
Ntp237
Rp238
(dp239
g13
I01
sg14
F1.0649797535490928
sg15
g236
sbs(I103
I7
tp240
g0
(g9
g2
Ntp241
Rp242
(dp243
g13
I01
sg14
F1.6717185942338044
sg15
g240
sbs(I104
I104
tp244
g0
(g9
g2
Ntp245
Rp246
(dp247
g13
I01
sg14
F0.7386201679017382
sg15
g244
sbs(I-5
I101
tp248
g0
(g9
g2
Ntp249
Rp250
(dp251
g13
I01
sg14
F0.35833265343755644
sg15
g248
sbs(I-3
I103
tp252
g0
(g9
g2
Ntp253
Rp254
(dp255
g13
I01
sg14
F-0.6191212863618867
sg15
g252
sbs(I100
I9
tp256
g0
(g9
g2
Ntp257
Rp258
(dp259
g13
I01
sg14
F-1.5092306761852718
sg15
g256
sbs(I104
I1
tp260
g0
(g9
g2
Ntp261
Rp262
(dp263
g13
I01
sg14
F-1.1974610302343178
sg15
g260
sbs(I100
I4
tp264
g0
(g9
g2
Ntp265
Rp266
(dp267
g13
I01
sg14
F-0.17336923037141094
sg15
g264
sbs(I102
I3
tp268
g0
(g9
g2
Ntp269
Rp270
(dp271
g13
I01
sg14
F-1.7865514870781887
sg15
g268
sbs(I-9
I103
tp272
g0
(g9
g2
Ntp273
Rp274
(dp275
g13
I01
sg14
F-0.8881543327473528
sg15
g272
sbs(I103
I9
tp276
g0
(g9
g2
Ntp277
Rp278
(dp279
g13
I01
sg14
F-0.16856217411453894
sg15
g276
sbs(I-8
I104
tp280
g0
(g9
g2
Ntp281
Rp282
(dp283
g13
I01
sg14
F-1.1564388124844638
sg15
g280
sbs(I102
I102
tp284
g0
(g9
g2
Ntp285
Rp286
(dp287
g13
I01
sg14
F0.13645186536412157
sg15
g284
sbs(I104
I8
tp288
g0
(g9
g2
Ntp289
Rp290
(dp291
g13
I01
sg14
F0.2920563998488352
sg15
g288
sbs(I100
I3
tp292
g0
(g9
g2
Ntp293
Rp294
(dp295
g13
I01
sg14
F-0.5224421611622921
sg15
g292
sbs(I-1
I100
tp296
g0
(g9
g2
Ntp297
Rp298
(dp299
g13
I01
sg14
F-0.3601006661425381
sg15
g296
sbs(I101
I2
tp300
g0
(g9
g2
Ntp301
Rp302
(dp303
g13
I01
sg14
F-0.14365972835085092
sg15
g300
sbs(I103
I3
tp304
g0
(g9
g2
Ntp305
Rp306
(dp307
g13
I01
sg14
F0.03633452650456888
sg15
g304
sbs(I102
I9
tp308
g0
(g9
g2
Ntp309
Rp310
(dp311
g13
I01
sg14
F-0.20145427043323413
sg15
g308
sbs(I-7
I100
tp312
g0
(g9
g2
Ntp313
Rp314
(dp315
g13
I01
sg14
F0.1735347504377093
sg15
g312
sbs(I100
I100
tp316
g0
(g9
g2
Ntp317
Rp318
(dp319
g13
I01
sg14
F0.10175848218923252
sg15
g316
sbs(I-8
I101
tp320
g0
(g9
g2
Ntp321
Rp322
(dp323
g13
I01
sg14
F0.9963258092885838
sg15
g320
sbs(I-10
I101
tp324
g0
(g9
g2
Ntp325
Rp326
(dp327
g13
I01
sg14
F0.9099512862632093
sg15
g324
sbs(I1
I1
tp328
g0
(g9
g2
Ntp329
Rp330
(dp331
g13
I01
sg14
F0.8867952373048532
sg15
g328
sbs(I-6
I104
tp332
g0
(g9
g2
Ntp333
Rp334
(dp335
g13
I01
sg14
F0.2757430403196066
sg15
g332
sbs(I-10
I104
tp336
g0
(g9
g2
Ntp337
Rp338
(dp339
g13
I01
sg14
F0.43243067937387386
sg15
g336
sbs(I-6
I103
tp340
g0
(g9
g2
Ntp341
Rp342
(dp343
g13
I01
sg14
F0.9727589996137672
sg15
g340
sbs(I104
I5
tp344
g0
(g9
g2
Ntp345
Rp346
(dp347
g13
I01
sg14
F0.24403584563706426
sg15
g344
sbs(I-4
I102
tp348
g0
(g9
g2
Ntp349
Rp350
(dp351
g13
I01
sg14
F1.2889209477501868
sg15
g348
sbs(I101
I8
tp352
g0
(g9
g2
Ntp353
Rp354
(dp355
g13
I01
sg14
F-0.37207817493517276
sg15
g352
sbs(I100
I0
tp356
g0
(g9
g2
Ntp357
Rp358
(dp359
g13
I01
sg14
F1.6647275860904953
sg15
g356
sbs(I102
I7
tp360
g0
(g9
g2
Ntp361
Rp362
(dp363
g13
I01
sg14
F-0.5030604096626992
sg15
g360
sbs(I101
I5
tp364
g0
(g9
g2
Ntp365
Rp366
(dp367
g13
I01
sg14
F0.43350843848128745
sg15
g364
sbs(I6
I6
tp368
g0
(g9
g2
Ntp369
Rp370
(dp371
g13
I01
sg14
F-1.6180794738143927
sg15
g368
sbs(I103
I6
tp372
g0
(g9
g2
Ntp373
Rp374
(dp375
g13
I01
sg14
F1.5620272530894204
sg15
g372
sbs(I7
I7
tp376
g0
(g9
g2
Ntp377
Rp378
(dp379
g13
I01
sg14
F0.5660704013586236
sg15
g376
sbs(I-7
I103
tp380
g0
(g9
g2
Ntp381
Rp382
(dp383
g13
I01
sg14
F1.697408917355867
sg15
g380
sbs(I-5
I100
tp384
g0
(g9
g2
Ntp385
Rp386
(dp387
g13
I01
sg14
F0.3138631823510937
sg15
g384
sbs(I-10
I102
tp388
g0
(g9
g2
Ntp389
Rp390
(dp391
g13
I01
sg14
F1.5829931154508645
sg15
g388
sbs(I-3
I102
tp392
g0
(g9
g2
Ntp393
Rp394
(dp395
g13
I01
sg14
F-0.33756585679128914
sg15
g392
sbs(I104
I2
tp396
g0
(g9
g2
Ntp397
Rp398
(dp399
g13
I01
sg14
F-1.190239963197157
sg15
g396
sbs(I100
I5
tp400
g0
(g9
g2
Ntp401
Rp402
(dp403
g13
I01
sg14
F-1.3673679308738702
sg15
g400
sbs(I4
I4
tp404
g0
(g9
g2
Ntp405
Rp406
(dp407
g13
I01
sg14
F0.11914818365805246
sg15
g404
sbs(I102
I0
tp408
g0
(g9
g2
Ntp409
Rp410
(dp411
g13
I01
sg14
F1.3386478210105166
sg15
g408
sbs(I103
I5
tp412
g0
(g9
g2
Ntp413
Rp414
(dp415
g13
I01
sg14
F-0.5604590803687337
sg15
g412
sbs(I-9
I102
tp416
g0
(g9
g2
Ntp417
Rp418
(dp419
g13
I01
sg14
F0.5569737424054182
sg15
g416
sbs(I0
I0
tp420
g0
(g9
g2
Ntp421
Rp422
(dp423
g13
I01
sg14
F0.9802859222457158
sg15
g420
sbs(I-2
I101
tp424
g0
(g9
g2
Ntp425
Rp426
(dp427
g13
I01
sg14
F1.1652780790333093
sg15
g424
sbs(I-1
I104
tp428
g0
(g9
g2
Ntp429
Rp430
(dp431
g13
I01
sg14
F-1.031586846871933
sg15
g428
sbs(I-4
I104
tp432
g0
(g9
g2
Ntp433
Rp434
(dp435
g13
I01
sg14
F-1.0064840201140668
sg15
g432
sbs(I-7
I104
tp436
g0
(g9
g2
Ntp437
Rp438
(dp439
g13
I01
sg14
F-0.524991775404093
sg15
g436
sbs(I103
I8
tp440
g0
(g9
g2
Ntp441
Rp442
(dp443
g13
I01
sg14
F0.4023673922029941
sg15
g440
sbs(I3
I3
tp444
g0
(g9
g2
Ntp445
Rp446
(dp447
g13
I01
sg14
F1.8714049981064045
sg15
g444
sbs(I-9
I101
tp448
g0
(g9
g2
Ntp449
Rp450
(dp451
g13
I01
sg14
F-1.217870911091517
sg15
g448
sbs(I104
I9
tp452
g0
(g9
g2
Ntp453
Rp454
(dp455
g13
I01
sg14
F0.6686087319694808
sg15
g452
sbs(I8
I8
tp456
g0
(g9
g2
Ntp457
Rp458
(dp459
g13
I01
sg14
F0.36642966759131546
sg15
g456
sbs(I-1
I101
tp460
g0
(g9
g2
Ntp461
Rp462
(dp463
g13
I01
sg14
F-0.8503578275082647
sg15
g460
sbs(I101
I1
tp464
g0
(g9
g2
Ntp465
Rp466
(dp467
g13
I01
sg14
F-0.628366191373177
sg15
g464
sbs(I103
I2
tp468
g0
(g9
g2
Ntp469
Rp470
(dp471
g13
I01
sg14
F0.15817611088137748
sg15
g468
sbssS'nodes'
p472
(dp473
I0
g0
(cneat.genes
DefaultNodeGene
p474
g2
Ntp475
Rp476
(dp477
S'activation'
p478
S'relu'
p479
sS'bias'
p480
F1.0633414431829948
sS'response'
p481
F1.0
sg15
I0
sS'aggregation'
p482
S'sum'
p483
sbsI1
g0
(g474
g2
Ntp484
Rp485
(dp486
g478
g479
sg480
F16.07100649872355
sg481
F1.0
sg15
I1
sg482
g483
sbsI2
g0
(g474
g2
Ntp487
Rp488
(dp489
g478
g479
sg480
F6.747456960397026
sg481
F1.0
sg15
I2
sg482
g483
sbsI3
g0
(g474
g2
Ntp490
Rp491
(dp492
g478
g479
sg480
F-2.2470426154073806
sg481
F1.0
sg15
I3
sg482
g483
sbsI4
g0
(g474
g2
Ntp493
Rp494
(dp495
g478
g479
sg480
F4.18585912832532
sg481
F1.0
sg15
I4
sg482
g483
sbsI5
g0
(g474
g2
Ntp496
Rp497
(dp498
g478
g479
sg480
F3.9358137614740234
sg481
F1.0
sg15
I5
sg482
g483
sbsI6
g0
(g474
g2
Ntp499
Rp500
(dp501
g478
g479
sg480
F8.260706704269365
sg481
F1.0
sg15
I6
sg482
g483
sbsI7
g0
(g474
g2
Ntp502
Rp503
(dp504
g478
g479
sg480
F-20.087968385942773
sg481
F1.0
sg15
I7
sg482
g483
sbsI8
g0
(g474
g2
Ntp505
Rp506
(dp507
g478
g479
sg480
F-9.43070784575929
sg481
F1.0
sg15
I8
sg482
g483
sbsI9
g0
(g474
g2
Ntp508
Rp509
(dp510
g478
g479
sg480
F-14.581107318944406
sg481
F1.0
sg15
I9
sg482
g483
sbsI103
g0
(g474
g2
Ntp511
Rp512
(dp513
g478
g479
sg480
F-1.7817850247645683
sg481
F1.0
sg15
I103
sg482
g483
sbsI104
g0
(g474
g2
Ntp514
Rp515
(dp516
g478
g479
sg480
F3.424446639447993
sg481
F1.0
sg15
I104
sg482
g483
sbsI100
g0
(g474
g2
Ntp517
Rp518
(dp519
g478
g479
sg480
F1.6810575048335044
sg481
F1.0
sg15
I100
sg482
g483
sbsI102
g0
(g474
g2
Ntp520
Rp521
(dp522
g478
g479
sg480
F-9.721713429704366
sg481
F1.0
sg15
I102
sg482
g483
sbsI101
g0
(g474
g2
Ntp523
Rp524
(dp525
g478
g479
sg480
F12.917656489309381
sg481
F1.0
sg15
I101
sg482
g483
sbssg15
I19
sS'fitness'
p526
Nsb.