ccopy_reg
_reconstructor
p0
(cneat.genome
DefaultGenome
p1
c__builtin__
object
p2
Ntp3
Rp4
(dp5
S'connections'
p6
(dp7
(I-8
I327
tp8
g0
(cneat.genes
DefaultConnectionGene
p9
g2
Ntp10
Rp11
(dp12
S'enabled'
p13
I01
sS'weight'
p14
F0.46449206684804767
sS'key'
p15
g8
sbs(I328
I7
tp16
g0
(g9
g2
Ntp17
Rp18
(dp19
g13
I01
sg14
F0.7870327127492405
sg15
g16
sbs(I-5
I328
tp20
g0
(g9
g2
Ntp21
Rp22
(dp23
g13
I00
sg14
F-0.5650633374156404
sg15
g20
sbs(I327
I9
tp24
g0
(g9
g2
Ntp25
Rp26
(dp27
g13
I01
sg14
F-2.2643123444912705
sg15
g24
sbs(I327
I4
tp28
g0
(g9
g2
Ntp29
Rp30
(dp31
g13
I01
sg14
F0.37692783009265296
sg15
g28
sbs(I3
I3
tp32
g0
(g9
g2
Ntp33
Rp34
(dp35
g13
I01
sg14
F-0.3549366285799114
sg15
g32
sbs(I-3
I552
tp36
g0
(g9
g2
Ntp37
Rp38
(dp39
g13
I01
sg14
F0.6665555810400233
sg15
g36
sbs(I-9
I328
tp40
g0
(g9
g2
Ntp41
Rp42
(dp43
g13
I00
sg14
F0.746376656747495
sg15
g40
sbs(I-2
I328
tp44
g0
(g9
g2
Ntp45
Rp46
(dp47
g13
I00
sg14
F-1.8177346238654304
sg15
g44
sbs(I-4
I3
tp48
g0
(g9
g2
Ntp49
Rp50
(dp51
g13
I01
sg14
F1.1241235744026707
sg15
g48
sbs(I3
I328
tp52
g0
(g9
g2
Ntp53
Rp54
(dp55
g13
I00
sg14
F0.028833402339320732
sg15
g52
sbs(I328
I8
tp56
g0
(g9
g2
Ntp57
Rp58
(dp59
g13
I00
sg14
F2.5411607503659015
sg15
g56
sbs(I552
I327
tp60
g0
(g9
g2
Ntp61
Rp62
(dp63
g13
I01
sg14
F-0.12494592823832652
sg15
g60
sbs(I2
I2
tp64
g0
(g9
g2
Ntp65
Rp66
(dp67
g13
I00
sg14
F-1.8409851779771274
sg15
g64
sbs(I327
I8
tp68
g0
(g9
g2
Ntp69
Rp70
(dp71
g13
I01
sg14
F0.49259303401613586
sg15
g68
sbs(I1
I1
tp72
g0
(g9
g2
Ntp73
Rp74
(dp75
g13
I01
sg14
F0.37406813763142926
sg15
g72
sbs(I327
I3
tp76
g0
(g9
g2
Ntp77
Rp78
(dp79
g13
I01
sg14
F0.10667867610790754
sg15
g76
sbs(I4
I327
tp80
g0
(g9
g2
Ntp81
Rp82
(dp83
g13
I01
sg14
F-1.29095019272822
sg15
g80
sbs(I0
I0
tp84
g0
(g9
g2
Ntp85
Rp86
(dp87
g13
I00
sg14
F-1.275282060591247
sg15
g84
sbs(I327
I7
tp88
g0
(g9
g2
Ntp89
Rp90
(dp91
g13
I01
sg14
F-0.47300533354773705
sg15
g88
sbs(I328
I9
tp92
g0
(g9
g2
Ntp93
Rp94
(dp95
g13
I01
sg14
F-1.4291328573750948
sg15
g92
sbs(I-6
I328
tp96
g0
(g9
g2
Ntp97
Rp98
(dp99
g13
I01
sg14
F0.5641440784532361
sg15
g96
sbs(I-8
I3
tp100
g0
(g9
g2
Ntp101
Rp102
(dp103
g13
I01
sg14
F-0.09988091066146226
sg15
g100
sbs(I-10
I327
tp104
g0
(g9
g2
Ntp105
Rp106
(dp107
g13
I01
sg14
F2.893688203474367
sg15
g104
sbs(I327
I2
tp108
g0
(g9
g2
Ntp109
Rp110
(dp111
g13
I01
sg14
F1.7378512459173088
sg15
g108
sbs(I-3
I327
tp112
g0
(g9
g2
Ntp113
Rp114
(dp115
g13
I00
sg14
F-2.401506594272715
sg15
g112
sbs(I328
I1
tp116
g0
(g9
g2
Ntp117
Rp118
(dp119
g13
I01
sg14
F-0.7559687026220422
sg15
g116
sbs(I327
I6
tp120
g0
(g9
g2
Ntp121
Rp122
(dp123
g13
I00
sg14
F-2.8994656954304245
sg15
g120
sbs(I8
I8
tp124
g0
(g9
g2
Ntp125
Rp126
(dp127
g13
I00
sg14
F2.2669500030984495
sg15
g124
sbs(I-4
I327
tp128
g0
(g9
g2
Ntp129
Rp130
(dp131
g13
I01
sg14
F0.45682714605300767
sg15
g128
sbssS'nodes'
p132
(dp133
I0
g0
(cneat.genes
DefaultNodeGene
p134
g2
Ntp135
Rp136
(dp137
S'activation'
p138
S'tanh'
p139
sS'bias'
p140
F-13.2618393981559
sS'response'
p141
F1.0
sg15
I0
sS'aggregation'
p142
S'sum'
p143
sbsI1
g0
(g134
g2
Ntp144
Rp145
(dp146
g138
g139
sg140
F8.402474037584591
sg141
F1.0
sg15
I1
sg142
g143
sbsI2
g0
(g134
g2
Ntp147
Rp148
(dp149
g138
g139
sg140
F-1.5303167080418816
sg141
F1.0
sg15
I2
sg142
g143
sbsI3
g0
(g134
g2
Ntp150
Rp151
(dp152
g138
g139
sg140
F-6.952641213742764
sg141
F1.0
sg15
I3
sg142
g143
sbsI4
g0
(g134
g2
Ntp153
Rp154
(dp155
g138
g139
sg140
F14.07689526877435
sg141
F1.0
sg15
I4
sg142
g143
sbsI5
g0
(g134
g2
Ntp156
Rp157
(dp158
g138
g139
sg140
F2.456507342452591
sg141
F1.0
sg15
I5
sg142
g143
sbsI6
g0
(g134
g2
Ntp159
Rp160
(dp161
g138
S'relu'
p162
sg140
F-15.035270015446415
sg141
F1.0
sg15
I6
sg142
g143
sbsI7
g0
(g134
g2
Ntp163
Rp164
(dp165
g138
g162
sg140
F-9.190479174012339
sg141
F1.0
sg15
I7
sg142
g143
sbsI8
g0
(g134
g2
Ntp166
Rp167
(dp168
g138
g139
sg140
F-0.46157586122918925
sg141
F1.0
sg15
I8
sg142
g143
sbsI9
g0
(g134
g2
Ntp169
Rp170
(dp171
g138
g162
sg140
F6.034353376009372
sg141
F1.0
sg15
I9
sg142
g143
sbsI327
g0
(g134
g2
Ntp172
Rp173
(dp174
g138
g139
sg140
F-4.284697733708191
sg141
F1.0
sg15
I327
sg142
g143
sbsI328
g0
(g134
g2
Ntp175
Rp176
(dp177
g138
g139
sg140
F4.190796801492979
sg141
F1.0
sg15
I328
sg142
g143
sbsI552
g0
(g134
g2
Ntp178
Rp179
(dp180
g138
g162
sg140
F-1.8138214875804546
sg141
F1.0
sg15
I552
sg142
g143
sbssg15
I2
sS'fitness'
p181
F-0.007175735161645713
sb.