ccopy_reg
_reconstructor
p0
(cneat.genome
DefaultGenome
p1
c__builtin__
object
p2
Ntp3
Rp4
(dp5
S'connections'
p6
(dp7
(I-2
I11
tp8
g0
(cneat.genes
DefaultConnectionGene
p9
g2
Ntp10
Rp11
(dp12
S'enabled'
p13
I01
sS'weight'
p14
F1.0191902188331454
sS'key'
p15
g8
sbs(I-7
I11
tp16
g0
(g9
g2
Ntp17
Rp18
(dp19
g13
I01
sg14
F-0.2483941479962072
sg15
g16
sbs(I11
I4
tp20
g0
(g9
g2
Ntp21
Rp22
(dp23
g13
I01
sg14
F0.8952783782027022
sg15
g20
sbs(I-4
I11
tp24
g0
(g9
g2
Ntp25
Rp26
(dp27
g13
I01
sg14
F-1.5936008847876122
sg15
g24
sbs(I11
I5
tp28
g0
(g9
g2
Ntp29
Rp30
(dp31
g13
I01
sg14
F-0.659662516560382
sg15
g28
sbs(I11
I8
tp32
g0
(g9
g2
Ntp33
Rp34
(dp35
g13
I01
sg14
F0.5138464176196138
sg15
g32
sbs(I-9
I11
tp36
g0
(g9
g2
Ntp37
Rp38
(dp39
g13
I01
sg14
F0.8761468131403236
sg15
g36
sbs(I11
I2
tp40
g0
(g9
g2
Ntp41
Rp42
(dp43
g13
I01
sg14
F0.4355440039254987
sg15
g40
sbs(I11
I9
tp44
g0
(g9
g2
Ntp45
Rp46
(dp47
g13
I01
sg14
F0.28713749827829954
sg15
g44
sbs(I11
I3
tp48
g0
(g9
g2
Ntp49
Rp50
(dp51
g13
I01
sg14
F-0.976323083725498
sg15
g48
sbs(I-3
I11
tp52
g0
(g9
g2
Ntp53
Rp54
(dp55
g13
I01
sg14
F-0.1714485320331774
sg15
g52
sbs(I-1
I11
tp56
g0
(g9
g2
Ntp57
Rp58
(dp59
g13
I01
sg14
F0.22441690163228029
sg15
g56
sbs(I11
I1
tp60
g0
(g9
g2
Ntp61
Rp62
(dp63
g13
I01
sg14
F-1.5156886430775653
sg15
g60
sbs(I-6
I11
tp64
g0
(g9
g2
Ntp65
Rp66
(dp67
g13
I01
sg14
F1.1792251081241454
sg15
g64
sbs(I-5
I11
tp68
g0
(g9
g2
Ntp69
Rp70
(dp71
g13
I01
sg14
F-1.477951325581303
sg15
g68
sbs(I-10
I11
tp72
g0
(g9
g2
Ntp73
Rp74
(dp75
g13
I01
sg14
F0.41617727882185973
sg15
g72
sbs(I-8
I11
tp76
g0
(g9
g2
Ntp77
Rp78
(dp79
g13
I01
sg14
F-0.17362457288608235
sg15
g76
sbs(I11
I0
tp80
g0
(g9
g2
Ntp81
Rp82
(dp83
g13
I01
sg14
F1.428576485664811
sg15
g80
sbs(I11
I6
tp84
g0
(g9
g2
Ntp85
Rp86
(dp87
g13
I01
sg14
F0.8808708933693671
sg15
g84
sbs(I11
I7
tp88
g0
(g9
g2
Ntp89
Rp90
(dp91
g13
I01
sg14
F-1.9775790483418907
sg15
g88
sbssS'nodes'
p92
(dp93
I0
g0
(cneat.genes
DefaultNodeGene
p94
g2
Ntp95
Rp96
(dp97
S'activation'
p98
S'relu'
p99
sS'bias'
p100
F6.164804660162268
sS'response'
p101
F1.0
sg15
I0
sS'aggregation'
p102
S'sum'
p103
sbsI1
g0
(g94
g2
Ntp104
Rp105
(dp106
g98
g99
sg100
F14.010719294465163
sg101
F1.0
sg15
I1
sg102
g103
sbsI2
g0
(g94
g2
Ntp107
Rp108
(dp109
g98
g99
sg100
F-17.76266577611236
sg101
F1.0
sg15
I2
sg102
g103
sbsI3
g0
(g94
g2
Ntp110
Rp111
(dp112
g98
g99
sg100
F2.740254812361914
sg101
F1.0
sg15
I3
sg102
g103
sbsI4
g0
(g94
g2
Ntp113
Rp114
(dp115
g98
g99
sg100
F-0.25845923452614594
sg101
F1.0
sg15
I4
sg102
g103
sbsI5
g0
(g94
g2
Ntp116
Rp117
(dp118
g98
g99
sg100
F-7.010227670335601
sg101
F1.0
sg15
I5
sg102
g103
sbsI6
g0
(g94
g2
Ntp119
Rp120
(dp121
g98
g99
sg100
F-4.3375661971825945
sg101
F1.0
sg15
I6
sg102
g103
sbsI7
g0
(g94
g2
Ntp122
Rp123
(dp124
g98
g99
sg100
F-20.794980055893106
sg101
F1.0
sg15
I7
sg102
g103
sbsI8
g0
(g94
g2
Ntp125
Rp126
(dp127
g98
g99
sg100
F2.382468114273046
sg101
F1.0
sg15
I8
sg102
g103
sbsI9
g0
(g94
g2
Ntp128
Rp129
(dp130
g98
g99
sg100
F-9.783170135110087
sg101
F1.0
sg15
I9
sg102
g103
sbsI11
g0
(g94
g2
Ntp131
Rp132
(dp133
g98
g99
sg100
F8.203681766937788
sg101
F1.0
sg15
I11
sg102
g103
sbssg15
I2
sS'fitness'
p134
F-0.024765450721119908
sb.