ccopy_reg
_reconstructor
p0
(cneat.genome
DefaultGenome
p1
c__builtin__
object
p2
Ntp3
Rp4
(dp5
S'connections'
p6
(dp7
(I-9
I11
tp8
g0
(cneat.genes
DefaultConnectionGene
p9
g2
Ntp10
Rp11
(dp12
S'enabled'
p13
I01
sS'weight'
p14
F3.1552174648200695
sS'key'
p15
g8
sbs(I11
I2
tp16
g0
(g9
g2
Ntp17
Rp18
(dp19
g13
I01
sg14
F0.37843129744797405
sg15
g16
sbs(I-15
I11
tp20
g0
(g9
g2
Ntp21
Rp22
(dp23
g13
I01
sg14
F0.42915231404626114
sg15
g20
sbs(I-17
I11
tp24
g0
(g9
g2
Ntp25
Rp26
(dp27
g13
I01
sg14
F-0.8564380766699635
sg15
g24
sbs(I-19
I11
tp28
g0
(g9
g2
Ntp29
Rp30
(dp31
g13
I01
sg14
F-0.3331993778035279
sg15
g28
sbs(I-16
I11
tp32
g0
(g9
g2
Ntp33
Rp34
(dp35
g13
I01
sg14
F-1.1854654009076298
sg15
g32
sbs(I-7
I11
tp36
g0
(g9
g2
Ntp37
Rp38
(dp39
g13
I01
sg14
F-0.050885589225207986
sg15
g36
sbs(I11
I5
tp40
g0
(g9
g2
Ntp41
Rp42
(dp43
g13
I01
sg14
F2.276680671550673
sg15
g40
sbs(I-3
I11
tp44
g0
(g9
g2
Ntp45
Rp46
(dp47
g13
I01
sg14
F1.1536073113853773
sg15
g44
sbs(I11
I1
tp48
g0
(g9
g2
Ntp49
Rp50
(dp51
g13
I01
sg14
F-2.4695810837652625
sg15
g48
sbs(I-20
I11
tp52
g0
(g9
g2
Ntp53
Rp54
(dp55
g13
I01
sg14
F-0.6811776114151478
sg15
g52
sbs(I-11
I11
tp56
g0
(g9
g2
Ntp57
Rp58
(dp59
g13
I01
sg14
F-2.0014797634266612
sg15
g56
sbs(I-10
I11
tp60
g0
(g9
g2
Ntp61
Rp62
(dp63
g13
I01
sg14
F0.10751623544593852
sg15
g60
sbs(I-8
I11
tp64
g0
(g9
g2
Ntp65
Rp66
(dp67
g13
I01
sg14
F1.1441701050044175
sg15
g64
sbs(I-18
I11
tp68
g0
(g9
g2
Ntp69
Rp70
(dp71
g13
I01
sg14
F-0.1786534697628538
sg15
g68
sbs(I11
I4
tp72
g0
(g9
g2
Ntp73
Rp74
(dp75
g13
I01
sg14
F1.0647000376518478
sg15
g72
sbs(I-4
I11
tp76
g0
(g9
g2
Ntp77
Rp78
(dp79
g13
I01
sg14
F0.2485473682803551
sg15
g76
sbs(I11
I7
tp80
g0
(g9
g2
Ntp81
Rp82
(dp83
g13
I01
sg14
F-1.4306475587378624
sg15
g80
sbs(I11
I9
tp84
g0
(g9
g2
Ntp85
Rp86
(dp87
g13
I01
sg14
F-0.18950855799377905
sg15
g84
sbs(I-12
I11
tp88
g0
(g9
g2
Ntp89
Rp90
(dp91
g13
I01
sg14
F-1.2644763437193094
sg15
g88
sbs(I-2
I11
tp92
g0
(g9
g2
Ntp93
Rp94
(dp95
g13
I01
sg14
F0.8071188711064113
sg15
g92
sbs(I-14
I11
tp96
g0
(g9
g2
Ntp97
Rp98
(dp99
g13
I01
sg14
F0.6696901300241888
sg15
g96
sbs(I11
I0
tp100
g0
(g9
g2
Ntp101
Rp102
(dp103
g13
I01
sg14
F0.7309559402330505
sg15
g100
sbs(I11
I8
tp104
g0
(g9
g2
Ntp105
Rp106
(dp107
g13
I01
sg14
F-0.5444489742087762
sg15
g104
sbs(I11
I3
tp108
g0
(g9
g2
Ntp109
Rp110
(dp111
g13
I01
sg14
F0.9744764176704623
sg15
g108
sbs(I-6
I11
tp112
g0
(g9
g2
Ntp113
Rp114
(dp115
g13
I01
sg14
F-0.06644015586081357
sg15
g112
sbs(I-5
I11
tp116
g0
(g9
g2
Ntp117
Rp118
(dp119
g13
I01
sg14
F0.96925779291297
sg15
g116
sbs(I-1
I11
tp120
g0
(g9
g2
Ntp121
Rp122
(dp123
g13
I01
sg14
F0.19609416153607998
sg15
g120
sbs(I-13
I11
tp124
g0
(g9
g2
Ntp125
Rp126
(dp127
g13
I01
sg14
F-0.9789019632178529
sg15
g124
sbs(I11
I6
tp128
g0
(g9
g2
Ntp129
Rp130
(dp131
g13
I01
sg14
F-0.25244055232275187
sg15
g128
sbssS'nodes'
p132
(dp133
I0
g0
(cneat.genes
DefaultNodeGene
p134
g2
Ntp135
Rp136
(dp137
S'activation'
p138
S'relu'
p139
sS'bias'
p140
F-12.028949464735948
sS'response'
p141
F1.0
sg15
I0
sS'aggregation'
p142
S'sum'
p143
sbsI1
g0
(g134
g2
Ntp144
Rp145
(dp146
g138
g139
sg140
F1.9717914024019154
sg141
F1.0
sg15
I1
sg142
g143
sbsI2
g0
(g134
g2
Ntp147
Rp148
(dp149
g138
g139
sg140
F-3.408556079252187
sg141
F1.0
sg15
I2
sg142
g143
sbsI3
g0
(g134
g2
Ntp150
Rp151
(dp152
g138
g139
sg140
F23.124131364919833
sg141
F1.0
sg15
I3
sg142
g143
sbsI4
g0
(g134
g2
Ntp153
Rp154
(dp155
g138
g139
sg140
F3.5187079951054328
sg141
F1.0
sg15
I4
sg142
g143
sbsI5
g0
(g134
g2
Ntp156
Rp157
(dp158
g138
g139
sg140
F9.21411785757183
sg141
F1.0
sg15
I5
sg142
g143
sbsI6
g0
(g134
g2
Ntp159
Rp160
(dp161
g138
g139
sg140
F8.854712177818996
sg141
F1.0
sg15
I6
sg142
g143
sbsI7
g0
(g134
g2
Ntp162
Rp163
(dp164
g138
g139
sg140
F0.5930194586332128
sg141
F1.0
sg15
I7
sg142
g143
sbsI8
g0
(g134
g2
Ntp165
Rp166
(dp167
g138
g139
sg140
F4.827320270591972
sg141
F1.0
sg15
I8
sg142
g143
sbsI9
g0
(g134
g2
Ntp168
Rp169
(dp170
g138
g139
sg140
F12.237521137252354
sg141
F1.0
sg15
I9
sg142
g143
sbsI11
g0
(g134
g2
Ntp171
Rp172
(dp173
g138
g139
sg140
F3.4970645676879752
sg141
F1.0
sg15
I11
sg142
g143
sbssg15
I2
sS'fitness'
p174
F0.0778819110346394
sb.