ccopy_reg
_reconstructor
p0
(cneat.genome
DefaultGenome
p1
c__builtin__
object
p2
Ntp3
Rp4
(dp5
S'connections'
p6
(dp7
(I-9
I11
tp8
g0
(cneat.genes
DefaultConnectionGene
p9
g2
Ntp10
Rp11
(dp12
S'enabled'
p13
I01
sS'weight'
p14
F-1.2791437193649624
sS'key'
p15
g8
sbs(I11
I2
tp16
g0
(g9
g2
Ntp17
Rp18
(dp19
g13
I01
sg14
F1.9028879523259732
sg15
g16
sbs(I-15
I11
tp20
g0
(g9
g2
Ntp21
Rp22
(dp23
g13
I01
sg14
F-0.10566314678075733
sg15
g20
sbs(I-17
I11
tp24
g0
(g9
g2
Ntp25
Rp26
(dp27
g13
I01
sg14
F0.15849155685631433
sg15
g24
sbs(I-19
I11
tp28
g0
(g9
g2
Ntp29
Rp30
(dp31
g13
I01
sg14
F1.5878081008955098
sg15
g28
sbs(I-16
I11
tp32
g0
(g9
g2
Ntp33
Rp34
(dp35
g13
I01
sg14
F-0.29020918737253953
sg15
g32
sbs(I-7
I11
tp36
g0
(g9
g2
Ntp37
Rp38
(dp39
g13
I01
sg14
F-0.36399834042538487
sg15
g36
sbs(I11
I5
tp40
g0
(g9
g2
Ntp41
Rp42
(dp43
g13
I01
sg14
F0.10508271900043711
sg15
g40
sbs(I-3
I11
tp44
g0
(g9
g2
Ntp45
Rp46
(dp47
g13
I01
sg14
F0.0233617264637732
sg15
g44
sbs(I11
I1
tp48
g0
(g9
g2
Ntp49
Rp50
(dp51
g13
I01
sg14
F0.47009876196690065
sg15
g48
sbs(I-20
I11
tp52
g0
(g9
g2
Ntp53
Rp54
(dp55
g13
I01
sg14
F-0.4104340628414105
sg15
g52
sbs(I-11
I11
tp56
g0
(g9
g2
Ntp57
Rp58
(dp59
g13
I01
sg14
F-0.8390175127651684
sg15
g56
sbs(I-10
I11
tp60
g0
(g9
g2
Ntp61
Rp62
(dp63
g13
I01
sg14
F0.9816701220424697
sg15
g60
sbs(I-8
I11
tp64
g0
(g9
g2
Ntp65
Rp66
(dp67
g13
I01
sg14
F-1.2228887845204996
sg15
g64
sbs(I-18
I11
tp68
g0
(g9
g2
Ntp69
Rp70
(dp71
g13
I01
sg14
F1.832454357586934
sg15
g68
sbs(I11
I4
tp72
g0
(g9
g2
Ntp73
Rp74
(dp75
g13
I01
sg14
F0.5927697205332877
sg15
g72
sbs(I-4
I11
tp76
g0
(g9
g2
Ntp77
Rp78
(dp79
g13
I01
sg14
F0.5723544409115895
sg15
g76
sbs(I11
I7
tp80
g0
(g9
g2
Ntp81
Rp82
(dp83
g13
I01
sg14
F-1.0898400238447512
sg15
g80
sbs(I11
I9
tp84
g0
(g9
g2
Ntp85
Rp86
(dp87
g13
I01
sg14
F-0.9365919954412766
sg15
g84
sbs(I-12
I11
tp88
g0
(g9
g2
Ntp89
Rp90
(dp91
g13
I01
sg14
F-0.8023031068847861
sg15
g88
sbs(I-2
I11
tp92
g0
(g9
g2
Ntp93
Rp94
(dp95
g13
I01
sg14
F-0.6153792789886176
sg15
g92
sbs(I-14
I11
tp96
g0
(g9
g2
Ntp97
Rp98
(dp99
g13
I01
sg14
F-0.2404331671257936
sg15
g96
sbs(I11
I0
tp100
g0
(g9
g2
Ntp101
Rp102
(dp103
g13
I01
sg14
F-0.35779380370012637
sg15
g100
sbs(I11
I8
tp104
g0
(g9
g2
Ntp105
Rp106
(dp107
g13
I01
sg14
F0.5958656376969689
sg15
g104
sbs(I11
I3
tp108
g0
(g9
g2
Ntp109
Rp110
(dp111
g13
I01
sg14
F-0.34619808860547435
sg15
g108
sbs(I-6
I11
tp112
g0
(g9
g2
Ntp113
Rp114
(dp115
g13
I01
sg14
F-0.4014500094536063
sg15
g112
sbs(I-5
I11
tp116
g0
(g9
g2
Ntp117
Rp118
(dp119
g13
I01
sg14
F1.18165090684528
sg15
g116
sbs(I-1
I11
tp120
g0
(g9
g2
Ntp121
Rp122
(dp123
g13
I01
sg14
F-0.8330044551581792
sg15
g120
sbs(I-13
I11
tp124
g0
(g9
g2
Ntp125
Rp126
(dp127
g13
I01
sg14
F0.462083733072144
sg15
g124
sbs(I11
I6
tp128
g0
(g9
g2
Ntp129
Rp130
(dp131
g13
I01
sg14
F-0.21813615614033513
sg15
g128
sbssS'nodes'
p132
(dp133
I0
g0
(cneat.genes
DefaultNodeGene
p134
g2
Ntp135
Rp136
(dp137
S'activation'
p138
S'relu'
p139
sS'bias'
p140
F-15.897225211512435
sS'response'
p141
F1.0
sg15
I0
sS'aggregation'
p142
S'sum'
p143
sbsI1
g0
(g134
g2
Ntp144
Rp145
(dp146
g138
g139
sg140
F-18.457327731689574
sg141
F1.0
sg15
I1
sg142
g143
sbsI2
g0
(g134
g2
Ntp147
Rp148
(dp149
g138
g139
sg140
F-15.481315210281423
sg141
F1.0
sg15
I2
sg142
g143
sbsI3
g0
(g134
g2
Ntp150
Rp151
(dp152
g138
g139
sg140
F13.462918597006388
sg141
F1.0
sg15
I3
sg142
g143
sbsI4
g0
(g134
g2
Ntp153
Rp154
(dp155
g138
g139
sg140
F-3.6496645817857276
sg141
F1.0
sg15
I4
sg142
g143
sbsI5
g0
(g134
g2
Ntp156
Rp157
(dp158
g138
g139
sg140
F-20.55183212590736
sg141
F1.0
sg15
I5
sg142
g143
sbsI6
g0
(g134
g2
Ntp159
Rp160
(dp161
g138
g139
sg140
F0.04102602195318092
sg141
F1.0
sg15
I6
sg142
g143
sbsI7
g0
(g134
g2
Ntp162
Rp163
(dp164
g138
g139
sg140
F-7.618217091154968
sg141
F1.0
sg15
I7
sg142
g143
sbsI8
g0
(g134
g2
Ntp165
Rp166
(dp167
g138
g139
sg140
F-4.538495963669575
sg141
F1.0
sg15
I8
sg142
g143
sbsI9
g0
(g134
g2
Ntp168
Rp169
(dp170
g138
g139
sg140
F4.94933113003376
sg141
F1.0
sg15
I9
sg142
g143
sbsI11
g0
(g134
g2
Ntp171
Rp172
(dp173
g138
g139
sg140
F2.2517317719803427
sg141
F1.0
sg15
I11
sg142
g143
sbssg15
I2
sS'fitness'
p174
Nsb.