ccopy_reg
_reconstructor
p0
(cneat.genome
DefaultGenome
p1
c__builtin__
object
p2
Ntp3
Rp4
(dp5
S'connections'
p6
(dp7
(I-8
I327
tp8
g0
(cneat.genes
DefaultConnectionGene
p9
g2
Ntp10
Rp11
(dp12
S'enabled'
p13
I01
sS'weight'
p14
F0.2216719313348233
sS'key'
p15
g8
sbs(I-4
I9
tp16
g0
(g9
g2
Ntp17
Rp18
(dp19
g13
I01
sg14
F-0.22764513433433065
sg15
g16
sbs(I328
I7
tp20
g0
(g9
g2
Ntp21
Rp22
(dp23
g13
I01
sg14
F0.8120105162806113
sg15
g20
sbs(I-5
I328
tp24
g0
(g9
g2
Ntp25
Rp26
(dp27
g13
I01
sg14
F-0.7787111120645147
sg15
g24
sbs(I327
I9
tp28
g0
(g9
g2
Ntp29
Rp30
(dp31
g13
I00
sg14
F1.8897899603353467
sg15
g28
sbs(I327
I4
tp32
g0
(g9
g2
Ntp33
Rp34
(dp35
g13
I01
sg14
F-0.45315148460159477
sg15
g32
sbs(I3
I3
tp36
g0
(g9
g2
Ntp37
Rp38
(dp39
g13
I01
sg14
F0.5464326299559898
sg15
g36
sbs(I4
I4
tp40
g0
(g9
g2
Ntp41
Rp42
(dp43
g13
I01
sg14
F-0.1428322886352611
sg15
g40
sbs(I-9
I328
tp44
g0
(g9
g2
Ntp45
Rp46
(dp47
g13
I00
sg14
F-1.1482112138111547
sg15
g44
sbs(I-2
I328
tp48
g0
(g9
g2
Ntp49
Rp50
(dp51
g13
I00
sg14
F-2.2526173528069795
sg15
g48
sbs(I-4
I3
tp52
g0
(g9
g2
Ntp53
Rp54
(dp55
g13
I00
sg14
F0.5145788382277644
sg15
g52
sbs(I3
I328
tp56
g0
(g9
g2
Ntp57
Rp58
(dp59
g13
I00
sg14
F0.2630773870054706
sg15
g56
sbs(I328
I8
tp60
g0
(g9
g2
Ntp61
Rp62
(dp63
g13
I00
sg14
F2.119383828772582
sg15
g60
sbs(I2
I2
tp64
g0
(g9
g2
Ntp65
Rp66
(dp67
g13
I01
sg14
F3.003053485673504
sg15
g64
sbs(I589
I9
tp68
g0
(g9
g2
Ntp69
Rp70
(dp71
g13
I01
sg14
F-1.5703422347293032
sg15
g68
sbs(I327
I8
tp72
g0
(g9
g2
Ntp73
Rp74
(dp75
g13
I01
sg14
F-0.010329234743378407
sg15
g72
sbs(I1
I1
tp76
g0
(g9
g2
Ntp77
Rp78
(dp79
g13
I01
sg14
F1.753934708535691
sg15
g76
sbs(I327
I3
tp80
g0
(g9
g2
Ntp81
Rp82
(dp83
g13
I01
sg14
F0.5585990253470154
sg15
g80
sbs(I4
I327
tp84
g0
(g9
g2
Ntp85
Rp86
(dp87
g13
I01
sg14
F-1.510556472384949
sg15
g84
sbs(I0
I0
tp88
g0
(g9
g2
Ntp89
Rp90
(dp91
g13
I00
sg14
F-0.6801982720192804
sg15
g88
sbs(I327
I7
tp92
g0
(g9
g2
Ntp93
Rp94
(dp95
g13
I01
sg14
F-0.5095141750692912
sg15
g92
sbs(I328
I9
tp96
g0
(g9
g2
Ntp97
Rp98
(dp99
g13
I01
sg14
F-1.3027065382062193
sg15
g96
sbs(I-6
I328
tp100
g0
(g9
g2
Ntp101
Rp102
(dp103
g13
I01
sg14
F0.6532800377579889
sg15
g100
sbs(I-8
I3
tp104
g0
(g9
g2
Ntp105
Rp106
(dp107
g13
I01
sg14
F0.7298925184700435
sg15
g104
sbs(I-10
I327
tp108
g0
(g9
g2
Ntp109
Rp110
(dp111
g13
I01
sg14
F3.242334216752139
sg15
g108
sbs(I327
I2
tp112
g0
(g9
g2
Ntp113
Rp114
(dp115
g13
I01
sg14
F-0.20029682642259095
sg15
g112
sbs(I-3
I327
tp116
g0
(g9
g2
Ntp117
Rp118
(dp119
g13
I00
sg14
F-1.7523716684048325
sg15
g116
sbs(I328
I1
tp120
g0
(g9
g2
Ntp121
Rp122
(dp123
g13
I01
sg14
F1.6020877527867503
sg15
g120
sbs(I327
I6
tp124
g0
(g9
g2
Ntp125
Rp126
(dp127
g13
I00
sg14
F-2.6415181055083643
sg15
g124
sbs(I327
I589
tp128
g0
(g9
g2
Ntp129
Rp130
(dp131
g13
I01
sg14
F1.8966964606590961
sg15
g128
sbs(I8
I8
tp132
g0
(g9
g2
Ntp133
Rp134
(dp135
g13
I00
sg14
F0.9481417020667293
sg15
g132
sbs(I-4
I327
tp136
g0
(g9
g2
Ntp137
Rp138
(dp139
g13
I01
sg14
F0.7779125386241121
sg15
g136
sbssS'nodes'
p140
(dp141
I0
g0
(cneat.genes
DefaultNodeGene
p142
g2
Ntp143
Rp144
(dp145
S'activation'
p146
S'tanh'
p147
sS'bias'
p148
F-13.667128142719031
sS'response'
p149
F1.0
sg15
I0
sS'aggregation'
p150
S'sum'
p151
sbsI1
g0
(g142
g2
Ntp152
Rp153
(dp154
g146
g147
sg148
F-16.70278369937522
sg149
F1.0
sg15
I1
sg150
g151
sbsI2
g0
(g142
g2
Ntp155
Rp156
(dp157
g146
g147
sg148
F-1.919489292967421
sg149
F1.0
sg15
I2
sg150
g151
sbsI3
g0
(g142
g2
Ntp158
Rp159
(dp160
g146
g147
sg148
F-6.344143148834296
sg149
F1.0
sg15
I3
sg150
g151
sbsI4
g0
(g142
g2
Ntp161
Rp162
(dp163
g146
g147
sg148
F-3.2771330618276693
sg149
F1.0
sg15
I4
sg150
g151
sbsI5
g0
(g142
g2
Ntp164
Rp165
(dp166
g146
g147
sg148
F1.743854574000961
sg149
F1.0
sg15
I5
sg150
g151
sbsI6
g0
(g142
g2
Ntp167
Rp168
(dp169
g146
g147
sg148
F11.921700616731847
sg149
F1.0
sg15
I6
sg150
g151
sbsI7
g0
(g142
g2
Ntp170
Rp171
(dp172
g146
g147
sg148
F-8.654430054860818
sg149
F1.0
sg15
I7
sg150
g151
sbsI8
g0
(g142
g2
Ntp173
Rp174
(dp175
g146
g147
sg148
F-0.5269097276051427
sg149
F1.0
sg15
I8
sg150
g151
sbsI9
g0
(g142
g2
Ntp176
Rp177
(dp178
g146
S'relu'
p179
sg148
F18.29544813750306
sg149
F1.0
sg15
I9
sg150
g151
sbsI327
g0
(g142
g2
Ntp180
Rp181
(dp182
g146
g147
sg148
F-3.341355347922996
sg149
F1.0
sg15
I327
sg150
g151
sbsI589
g0
(g142
g2
Ntp183
Rp184
(dp185
g146
g179
sg148
F-22.154847619719874
sg149
F1.0
sg15
I589
sg150
g151
sbsI328
g0
(g142
g2
Ntp186
Rp187
(dp188
g146
g147
sg148
F-2.768709285171317
sg149
F1.0
sg15
I328
sg150
g151
sbssg15
I2
sS'fitness'
p189
F0.003097793208552746
sb.