ccopy_reg
_reconstructor
p0
(cneat.genome
DefaultGenome
p1
c__builtin__
object
p2
Ntp3
Rp4
(dp5
S'connections'
p6
(dp7
(I-4
I5
tp8
g0
(cneat.genes
DefaultConnectionGene
p9
g2
Ntp10
Rp11
(dp12
S'enabled'
p13
I01
sS'weight'
p14
F-1.0516570346504988
sS'key'
p15
g8
sbs(I-1
I0
tp16
g0
(g9
g2
Ntp17
Rp18
(dp19
g13
I01
sg14
F-0.6477694233663851
sg15
g16
sbs(I-3
I8
tp20
g0
(g9
g2
Ntp21
Rp22
(dp23
g13
I01
sg14
F0.07106883678746106
sg15
g20
sbs(I-1
I2
tp24
g0
(g9
g2
Ntp25
Rp26
(dp27
g13
I01
sg14
F-1.071504770173117
sg15
g24
sbs(I-8
I1
tp28
g0
(g9
g2
Ntp29
Rp30
(dp31
g13
I01
sg14
F0.5009899601766523
sg15
g28
sbs(I-2
I0
tp32
g0
(g9
g2
Ntp33
Rp34
(dp35
g13
I01
sg14
F-1.357038284784468
sg15
g32
sbs(I-10
I3
tp36
g0
(g9
g2
Ntp37
Rp38
(dp39
g13
I01
sg14
F-1.3524330708987766
sg15
g36
sbs(I-5
I1
tp40
g0
(g9
g2
Ntp41
Rp42
(dp43
g13
I01
sg14
F-0.1477153152245994
sg15
g40
sbs(I5
I5
tp44
g0
(g9
g2
Ntp45
Rp46
(dp47
g13
I01
sg14
F1.1347078756981337
sg15
g44
sbs(I1
I1
tp48
g0
(g9
g2
Ntp49
Rp50
(dp51
g13
I01
sg14
F-0.2469430287482653
sg15
g48
sbs(I-2
I6
tp52
g0
(g9
g2
Ntp53
Rp54
(dp55
g13
I01
sg14
F0.4972156692288647
sg15
g52
sbs(I-6
I1
tp56
g0
(g9
g2
Ntp57
Rp58
(dp59
g13
I01
sg14
F1.2792504851422113
sg15
g56
sbs(I-9
I9
tp60
g0
(g9
g2
Ntp61
Rp62
(dp63
g13
I01
sg14
F-2.086833732510335
sg15
g60
sbs(I-3
I1
tp64
g0
(g9
g2
Ntp65
Rp66
(dp67
g13
I01
sg14
F0.6128290659072966
sg15
g64
sbs(I-8
I8
tp68
g0
(g9
g2
Ntp69
Rp70
(dp71
g13
I01
sg14
F-1.3733019870781646
sg15
g68
sbs(I-7
I5
tp72
g0
(g9
g2
Ntp73
Rp74
(dp75
g13
I01
sg14
F0.7608618421098386
sg15
g72
sbs(I9
I9
tp76
g0
(g9
g2
Ntp77
Rp78
(dp79
g13
I01
sg14
F0.0488003364245565
sg15
g76
sbs(I-5
I6
tp80
g0
(g9
g2
Ntp81
Rp82
(dp83
g13
I01
sg14
F-0.08231725437749282
sg15
g80
sbs(I-6
I2
tp84
g0
(g9
g2
Ntp85
Rp86
(dp87
g13
I01
sg14
F0.466341347468596
sg15
g84
sbs(I-1
I3
tp88
g0
(g9
g2
Ntp89
Rp90
(dp91
g13
I01
sg14
F0.7312568717395154
sg15
g88
sbs(I-10
I9
tp92
g0
(g9
g2
Ntp93
Rp94
(dp95
g13
I01
sg14
F-0.4785178335731065
sg15
g92
sbs(I-4
I1
tp96
g0
(g9
g2
Ntp97
Rp98
(dp99
g13
I01
sg14
F1.4834325547813023
sg15
g96
sbs(I-2
I4
tp100
g0
(g9
g2
Ntp101
Rp102
(dp103
g13
I01
sg14
F-0.12479704760865676
sg15
g100
sbs(I-3
I4
tp104
g0
(g9
g2
Ntp105
Rp106
(dp107
g13
I01
sg14
F3.375579142976086
sg15
g104
sbs(I-2
I5
tp108
g0
(g9
g2
Ntp109
Rp110
(dp111
g13
I01
sg14
F-0.3521232712135558
sg15
g108
sbs(I-8
I5
tp112
g0
(g9
g2
Ntp113
Rp114
(dp115
g13
I01
sg14
F1.561341921652316
sg15
g112
sbs(I-6
I8
tp116
g0
(g9
g2
Ntp117
Rp118
(dp119
g13
I01
sg14
F1.088006098509737
sg15
g116
sbs(I-7
I0
tp120
g0
(g9
g2
Ntp121
Rp122
(dp123
g13
I01
sg14
F0.34259741878751165
sg15
g120
sbs(I-10
I7
tp124
g0
(g9
g2
Ntp125
Rp126
(dp127
g13
I01
sg14
F1.0094694827391821
sg15
g124
sbs(I-5
I5
tp128
g0
(g9
g2
Ntp129
Rp130
(dp131
g13
I01
sg14
F0.8386310189926696
sg15
g128
sbs(I-6
I7
tp132
g0
(g9
g2
Ntp133
Rp134
(dp135
g13
I01
sg14
F-1.4352579582800145
sg15
g132
sbs(I-9
I6
tp136
g0
(g9
g2
Ntp137
Rp138
(dp139
g13
I01
sg14
F1.7783770568304644
sg15
g136
sbs(I-4
I6
tp140
g0
(g9
g2
Ntp141
Rp142
(dp143
g13
I01
sg14
F0.48656396941092656
sg15
g140
sbs(I-1
I1
tp144
g0
(g9
g2
Ntp145
Rp146
(dp147
g13
I01
sg14
F-0.40377153901619667
sg15
g144
sbs(I-3
I7
tp148
g0
(g9
g2
Ntp149
Rp150
(dp151
g13
I00
sg14
F0.5083058962592478
sg15
g148
sbs(I-9
I3
tp152
g0
(g9
g2
Ntp153
Rp154
(dp155
g13
I01
sg14
F0.21146371127777475
sg15
g152
sbs(I-8
I2
tp156
g0
(g9
g2
Ntp157
Rp158
(dp159
g13
I01
sg14
F0.7076186395807966
sg15
g156
sbs(I2
I2
tp160
g0
(g9
g2
Ntp161
Rp162
(dp163
g13
I00
sg14
F0.1698155533445499
sg15
g160
sbs(I-7
I3
tp164
g0
(g9
g2
Ntp165
Rp166
(dp167
g13
I01
sg14
F0.10612270638252541
sg15
g164
sbs(I-10
I0
tp168
g0
(g9
g2
Ntp169
Rp170
(dp171
g13
I01
sg14
F-1.533827876631125
sg15
g168
sbs(I-5
I0
tp172
g0
(g9
g2
Ntp173
Rp174
(dp175
g13
I01
sg14
F0.33479162846964927
sg15
g172
sbs(I-9
I5
tp176
g0
(g9
g2
Ntp177
Rp178
(dp179
g13
I01
sg14
F0.44874446543446767
sg15
g176
sbs(I-2
I2
tp180
g0
(g9
g2
Ntp181
Rp182
(dp183
g13
I01
sg14
F1.9083232509726507
sg15
g180
sbs(I-2
I7
tp184
g0
(g9
g2
Ntp185
Rp186
(dp187
g13
I01
sg14
F0.07623033450678457
sg15
g184
sbs(I-1
I4
tp188
g0
(g9
g2
Ntp189
Rp190
(dp191
g13
I00
sg14
F-0.9303694596994072
sg15
g188
sbs(I-7
I9
tp192
g0
(g9
g2
Ntp193
Rp194
(dp195
g13
I01
sg14
F-0.7062159470192114
sg15
g192
sbs(I-9
I8
tp196
g0
(g9
g2
Ntp197
Rp198
(dp199
g13
I01
sg14
F-0.8499255107959964
sg15
g196
sbs(I-2
I8
tp200
g0
(g9
g2
Ntp201
Rp202
(dp203
g13
I01
sg14
F0.3558337347262438
sg15
g200
sbs(I-3
I0
tp204
g0
(g9
g2
Ntp205
Rp206
(dp207
g13
I01
sg14
F-0.46950602661011787
sg15
g204
sbs(I-4
I8
tp208
g0
(g9
g2
Ntp209
Rp210
(dp211
g13
I01
sg14
F2.910714332055565
sg15
g208
sbs(I-8
I9
tp212
g0
(g9
g2
Ntp213
Rp214
(dp215
g13
I01
sg14
F0.8324958197733009
sg15
g212
sbs(I-7
I4
tp216
g0
(g9
g2
Ntp217
Rp218
(dp219
g13
I01
sg14
F0.9233402429650399
sg15
g216
sbs(I-6
I3
tp220
g0
(g9
g2
Ntp221
Rp222
(dp223
g13
I01
sg14
F-1.3416835727947989
sg15
g220
sbs(I-9
I2
tp224
g0
(g9
g2
Ntp225
Rp226
(dp227
g13
I01
sg14
F0.5164432027771311
sg15
g224
sbs(I-4
I2
tp228
g0
(g9
g2
Ntp229
Rp230
(dp231
g13
I01
sg14
F0.48555890725264456
sg15
g228
sbs(I-1
I5
tp232
g0
(g9
g2
Ntp233
Rp234
(dp235
g13
I01
sg14
F0.19648896605915256
sg15
g232
sbs(I-3
I3
tp236
g0
(g9
g2
Ntp237
Rp238
(dp239
g13
I01
sg14
F-1.3487432837079347
sg15
g236
sbs(I-8
I6
tp240
g0
(g9
g2
Ntp241
Rp242
(dp243
g13
I01
sg14
F0.13525022596239156
sg15
g240
sbs(I-6
I9
tp244
g0
(g9
g2
Ntp245
Rp246
(dp247
g13
I01
sg14
F-0.6490283977390441
sg15
g244
sbs(I-7
I7
tp248
g0
(g9
g2
Ntp249
Rp250
(dp251
g13
I01
sg14
F0.17083909619630655
sg15
g248
sbs(I-10
I4
tp252
g0
(g9
g2
Ntp253
Rp254
(dp255
g13
I01
sg14
F-0.6938430586288991
sg15
g252
sbs(I-5
I4
tp256
g0
(g9
g2
Ntp257
Rp258
(dp259
g13
I01
sg14
F-1.1830913175396511
sg15
g256
sbs(I-6
I4
tp260
g0
(g9
g2
Ntp261
Rp262
(dp263
g13
I01
sg14
F-0.37584061695590876
sg15
g260
sbs(I-9
I1
tp264
g0
(g9
g2
Ntp265
Rp266
(dp267
g13
I01
sg14
F-1.1222191013871234
sg15
g264
sbs(I-4
I7
tp268
g0
(g9
g2
Ntp269
Rp270
(dp271
g13
I01
sg14
F-1.1271487790925205
sg15
g268
sbs(I-5
I9
tp272
g0
(g9
g2
Ntp273
Rp274
(dp275
g13
I01
sg14
F0.4362004292703212
sg15
g272
sbs(I-2
I9
tp276
g0
(g9
g2
Ntp277
Rp278
(dp279
g13
I01
sg14
F0.4320270931374312
sg15
g276
sbs(I-1
I6
tp280
g0
(g9
g2
Ntp281
Rp282
(dp283
g13
I01
sg14
F2.117544891014917
sg15
g280
sbs(I-3
I6
tp284
g0
(g9
g2
Ntp285
Rp286
(dp287
g13
I01
sg14
F-0.6417001059383628
sg15
g284
sbs(I-8
I3
tp288
g0
(g9
g2
Ntp289
Rp290
(dp291
g13
I01
sg14
F-2.4742515036368107
sg15
g288
sbs(I-7
I2
tp292
g0
(g9
g2
Ntp293
Rp294
(dp295
g13
I01
sg14
F-1.1555144083535311
sg15
g292
sbs(I-10
I1
tp296
g0
(g9
g2
Ntp297
Rp298
(dp299
g13
I01
sg14
F0.11159322408737181
sg15
g296
sbs(I-5
I3
tp300
g0
(g9
g2
Ntp301
Rp302
(dp303
g13
I01
sg14
F-0.332654652227473
sg15
g300
sbs(I-9
I4
tp304
g0
(g9
g2
Ntp305
Rp306
(dp307
g13
I01
sg14
F1.063765989251197
sg15
g304
sbs(I-4
I4
tp308
g0
(g9
g2
Ntp309
Rp310
(dp311
g13
I01
sg14
F0.380615128430365
sg15
g308
sbs(I-2
I3
tp312
g0
(g9
g2
Ntp313
Rp314
(dp315
g13
I01
sg14
F-0.7157123192677036
sg15
g312
sbs(I-3
I9
tp316
g0
(g9
g2
Ntp317
Rp318
(dp319
g13
I01
sg14
F1.3196814203435085
sg15
g316
sbs(I-7
I8
tp320
g0
(g9
g2
Ntp321
Rp322
(dp323
g13
I01
sg14
F0.8659059350947665
sg15
g320
sbs(I-8
I0
tp324
g0
(g9
g2
Ntp325
Rp326
(dp327
g13
I01
sg14
F0.2762152825498386
sg15
g324
sbs(I-10
I2
tp328
g0
(g9
g2
Ntp329
Rp330
(dp331
g13
I01
sg14
F-1.1508797073479502
sg15
g328
sbs(I6
I6
tp332
g0
(g9
g2
Ntp333
Rp334
(dp335
g13
I01
sg14
F1.3158999295324967
sg15
g332
sbs(I-1
I9
tp336
g0
(g9
g2
Ntp337
Rp338
(dp339
g13
I01
sg14
F-3.1229523890177253
sg15
g336
sbs(I-4
I9
tp340
g0
(g9
g2
Ntp341
Rp342
(dp343
g13
I01
sg14
F2.4948636967780984
sg15
g340
sbs(I7
I7
tp344
g0
(g9
g2
Ntp345
Rp346
(dp347
g13
I01
sg14
F2.1605517537115735
sg15
g344
sbs(I-1
I8
tp348
g0
(g9
g2
Ntp349
Rp350
(dp351
g13
I01
sg14
F1.5422306736394649
sg15
g348
sbs(I3
I3
tp352
g0
(g9
g2
Ntp353
Rp354
(dp355
g13
I01
sg14
F0.10126709623119123
sg15
g352
sbs(I-6
I0
tp356
g0
(g9
g2
Ntp357
Rp358
(dp359
g13
I01
sg14
F2.42693133837428
sg15
g356
sbs(I4
I4
tp360
g0
(g9
g2
Ntp361
Rp362
(dp363
g13
I01
sg14
F-0.8186655347944533
sg15
g360
sbs(I-4
I3
tp364
g0
(g9
g2
Ntp365
Rp366
(dp367
g13
I01
sg14
F1.7666159313993037
sg15
g364
sbs(I-3
I2
tp368
g0
(g9
g2
Ntp369
Rp370
(dp371
g13
I01
sg14
F-0.9637435348604116
sg15
g368
sbs(I0
I0
tp372
g0
(g9
g2
Ntp373
Rp374
(dp375
g13
I01
sg14
F-0.25674212209787906
sg15
g372
sbs(I-8
I7
tp376
g0
(g9
g2
Ntp377
Rp378
(dp379
g13
I01
sg14
F0.6748663305705892
sg15
g376
sbs(I-7
I6
tp380
g0
(g9
g2
Ntp381
Rp382
(dp383
g13
I01
sg14
F2.167388894281693
sg15
g380
sbs(I-2
I1
tp384
g0
(g9
g2
Ntp385
Rp386
(dp387
g13
I01
sg14
F0.7364769159082588
sg15
g384
sbs(I-10
I5
tp388
g0
(g9
g2
Ntp389
Rp390
(dp391
g13
I01
sg14
F-1.8352409673827472
sg15
g388
sbs(I-5
I7
tp392
g0
(g9
g2
Ntp393
Rp394
(dp395
g13
I01
sg14
F-1.0631474004005623
sg15
g392
sbs(I-6
I5
tp396
g0
(g9
g2
Ntp397
Rp398
(dp399
g13
I01
sg14
F0.9597249481566223
sg15
g396
sbs(I-9
I0
tp400
g0
(g9
g2
Ntp401
Rp402
(dp403
g13
I01
sg14
F0.018648032769965017
sg15
g400
sbs(I-10
I8
tp404
g0
(g9
g2
Ntp405
Rp406
(dp407
g13
I01
sg14
F-1.4934671197690443
sg15
g404
sbs(I-4
I0
tp408
g0
(g9
g2
Ntp409
Rp410
(dp411
g13
I01
sg14
F-1.0702293955925613
sg15
g408
sbs(I-5
I8
tp412
g0
(g9
g2
Ntp413
Rp414
(dp415
g13
I01
sg14
F-1.0765999945894027
sg15
g412
sbs(I-1
I7
tp416
g0
(g9
g2
Ntp417
Rp418
(dp419
g13
I01
sg14
F0.9690204622601686
sg15
g416
sbs(I-3
I5
tp420
g0
(g9
g2
Ntp421
Rp422
(dp423
g13
I01
sg14
F-0.4780470442606234
sg15
g420
sbs(I-8
I4
tp424
g0
(g9
g2
Ntp425
Rp426
(dp427
g13
I01
sg14
F-0.6594725043073475
sg15
g424
sbs(I8
I8
tp428
g0
(g9
g2
Ntp429
Rp430
(dp431
g13
I01
sg14
F-1.9510971169169011
sg15
g428
sbs(I-7
I1
tp432
g0
(g9
g2
Ntp433
Rp434
(dp435
g13
I01
sg14
F-2.4981165036115405
sg15
g432
sbs(I-10
I6
tp436
g0
(g9
g2
Ntp437
Rp438
(dp439
g13
I01
sg14
F-0.5389535141366696
sg15
g436
sbs(I-5
I2
tp440
g0
(g9
g2
Ntp441
Rp442
(dp443
g13
I01
sg14
F-0.49852911811352973
sg15
g440
sbs(I-6
I6
tp444
g0
(g9
g2
Ntp445
Rp446
(dp447
g13
I01
sg14
F0.006177807819454373
sg15
g444
sbs(I-9
I7
tp448
g0
(g9
g2
Ntp449
Rp450
(dp451
g13
I01
sg14
F-0.46039378178570933
sg15
g448
sbssS'nodes'
p452
(dp453
I0
g0
(cneat.genes
DefaultNodeGene
p454
g2
Ntp455
Rp456
(dp457
S'activation'
p458
S'relu'
p459
sS'bias'
p460
F7.239435011771421
sS'response'
p461
F1.0
sg15
I0
sS'aggregation'
p462
S'sum'
p463
sbsI1
g0
(g454
g2
Ntp464
Rp465
(dp466
g458
g459
sg460
F-5.258554377251086
sg461
F1.0
sg15
I1
sg462
g463
sbsI2
g0
(g454
g2
Ntp467
Rp468
(dp469
g458
g459
sg460
F1.930928314174831
sg461
F1.0
sg15
I2
sg462
g463
sbsI3
g0
(g454
g2
Ntp470
Rp471
(dp472
g458
g459
sg460
F3.9448980715021915
sg461
F1.0
sg15
I3
sg462
g463
sbsI4
g0
(g454
g2
Ntp473
Rp474
(dp475
g458
g459
sg460
F25.212626347437034
sg461
F1.0
sg15
I4
sg462
g463
sbsI5
g0
(g454
g2
Ntp476
Rp477
(dp478
g458
g459
sg460
F23.743981403501067
sg461
F1.0
sg15
I5
sg462
g463
sbsI6
g0
(g454
g2
Ntp479
Rp480
(dp481
g458
g459
sg460
F17.756173540823337
sg461
F1.0
sg15
I6
sg462
g463
sbsI7
g0
(g454
g2
Ntp482
Rp483
(dp484
g458
g459
sg460
F1.1875311266795412
sg461
F1.0
sg15
I7
sg462
g463
sbsI8
g0
(g454
g2
Ntp485
Rp486
(dp487
g458
g459
sg460
F-4.710863020737155
sg461
F1.0
sg15
I8
sg462
g463
sbsI9
g0
(g454
g2
Ntp488
Rp489
(dp490
g458
g459
sg460
F35.39355121714762
sg461
F1.0
sg15
I9
sg462
g463
sbssg15
I208
sS'fitness'
p491
F-0.15387120965415368
sb.