ccopy_reg
_reconstructor
p0
(cneat.genome
DefaultGenome
p1
c__builtin__
object
p2
Ntp3
Rp4
(dp5
S'connections'
p6
(dp7
(I-1
I0
tp8
g0
(cneat.genes
DefaultConnectionGene
p9
g2
Ntp10
Rp11
(dp12
S'enabled'
p13
I01
sS'weight'
p14
F1.053020904170062
sS'key'
p15
g8
sbs(I-3
I8
tp16
g0
(g9
g2
Ntp17
Rp18
(dp19
g13
I01
sg14
F0.476593973149001
sg15
g16
sbs(I-1
I2
tp20
g0
(g9
g2
Ntp21
Rp22
(dp23
g13
I01
sg14
F-1.1564314537108644
sg15
g20
sbs(I-8
I1
tp24
g0
(g9
g2
Ntp25
Rp26
(dp27
g13
I01
sg14
F-1.0149307694235943
sg15
g24
sbs(I8
I3162
tp28
g0
(g9
g2
Ntp29
Rp30
(dp31
g13
I01
sg14
F-1.55285397563186
sg15
g28
sbs(I-2
I0
tp32
g0
(g9
g2
Ntp33
Rp34
(dp35
g13
I00
sg14
F0.9203470957328967
sg15
g32
sbs(I-10
I3
tp36
g0
(g9
g2
Ntp37
Rp38
(dp39
g13
I00
sg14
F-0.661348298282901
sg15
g36
sbs(I-5
I1
tp40
g0
(g9
g2
Ntp41
Rp42
(dp43
g13
I00
sg14
F0.17318893071125518
sg15
g40
sbs(I5
I5
tp44
g0
(g9
g2
Ntp45
Rp46
(dp47
g13
I01
sg14
F1.5113041785281998
sg15
g44
sbs(I-3
I1491
tp48
g0
(g9
g2
Ntp49
Rp50
(dp51
g13
I00
sg14
F-1.2616113879881523
sg15
g48
sbs(I3909
I7
tp52
g0
(g9
g2
Ntp53
Rp54
(dp55
g13
I00
sg14
F0.6165085293942727
sg15
g52
sbs(I1
I1
tp56
g0
(g9
g2
Ntp57
Rp58
(dp59
g13
I00
sg14
F-0.3097767917775548
sg15
g56
sbs(I-8
I3644
tp60
g0
(g9
g2
Ntp61
Rp62
(dp63
g13
I00
sg14
F0.8800730999676231
sg15
g60
sbs(I4197
I7
tp64
g0
(g9
g2
Ntp65
Rp66
(dp67
g13
I01
sg14
F-1.3892638853172405
sg15
g64
sbs(I-9
I9
tp68
g0
(g9
g2
Ntp69
Rp70
(dp71
g13
I01
sg14
F2.4305102991015013
sg15
g68
sbs(I-3
I1
tp72
g0
(g9
g2
Ntp73
Rp74
(dp75
g13
I01
sg14
F-1.550085360524621
sg15
g72
sbs(I4242
I6
tp76
g0
(g9
g2
Ntp77
Rp78
(dp79
g13
I01
sg14
F-2.4272195179603417
sg15
g76
sbs(I1491
I0
tp80
g0
(g9
g2
Ntp81
Rp82
(dp83
g13
I01
sg14
F1.234402901277058
sg15
g80
sbs(I-7
I356
tp84
g0
(g9
g2
Ntp85
Rp86
(dp87
g13
I01
sg14
F-3.9709429116796127
sg15
g84
sbs(I-6
I3162
tp88
g0
(g9
g2
Ntp89
Rp90
(dp91
g13
I01
sg14
F0.7751025399647333
sg15
g88
sbs(I9
I9
tp92
g0
(g9
g2
Ntp93
Rp94
(dp95
g13
I01
sg14
F1.5817514781503228
sg15
g92
sbs(I-5
I6
tp96
g0
(g9
g2
Ntp97
Rp98
(dp99
g13
I01
sg14
F-0.36031582832602777
sg15
g96
sbs(I-6
I2
tp100
g0
(g9
g2
Ntp101
Rp102
(dp103
g13
I01
sg14
F1.779828796463674
sg15
g100
sbs(I-10
I9
tp104
g0
(g9
g2
Ntp105
Rp106
(dp107
g13
I00
sg14
F-5.407485322172428
sg15
g104
sbs(I-4
I1
tp108
g0
(g9
g2
Ntp109
Rp110
(dp111
g13
I00
sg14
F0.1794471567033567
sg15
g108
sbs(I-2
I4
tp112
g0
(g9
g2
Ntp113
Rp114
(dp115
g13
I00
sg14
F-1.492880576359183
sg15
g112
sbs(I-3
I4
tp116
g0
(g9
g2
Ntp117
Rp118
(dp119
g13
I00
sg14
F0.08947558112368152
sg15
g116
sbs(I-9
I1491
tp120
g0
(g9
g2
Ntp121
Rp122
(dp123
g13
I00
sg14
F0.0677845707486591
sg15
g120
sbs(I-8
I5
tp124
g0
(g9
g2
Ntp125
Rp126
(dp127
g13
I00
sg14
F0.37358228744267724
sg15
g124
sbs(I-7
I0
tp128
g0
(g9
g2
Ntp129
Rp130
(dp131
g13
I00
sg14
F-1.3690004863246548
sg15
g128
sbs(I-9
I5
tp132
g0
(g9
g2
Ntp133
Rp134
(dp135
g13
I01
sg14
F0.3121491985992759
sg15
g132
sbs(I-4
I6
tp136
g0
(g9
g2
Ntp137
Rp138
(dp139
g13
I01
sg14
F-0.2930609335292139
sg15
g136
sbs(I-1
I1
tp140
g0
(g9
g2
Ntp141
Rp142
(dp143
g13
I01
sg14
F-1.9945871263747763
sg15
g140
sbs(I3644
I4
tp144
g0
(g9
g2
Ntp145
Rp146
(dp147
g13
I00
sg14
F-1.8181402316960111
sg15
g144
sbs(I2
I2
tp148
g0
(g9
g2
Ntp149
Rp150
(dp151
g13
I00
sg14
F1.9516015925068808
sg15
g148
sbs(I-7
I3
tp152
g0
(g9
g2
Ntp153
Rp154
(dp155
g13
I01
sg14
F0.43886675221336324
sg15
g152
sbs(I-10
I0
tp156
g0
(g9
g2
Ntp157
Rp158
(dp159
g13
I01
sg14
F-1.1530161442828848
sg15
g156
sbs(I-5
I0
tp160
g0
(g9
g2
Ntp161
Rp162
(dp163
g13
I01
sg14
F-0.3208007871039165
sg15
g160
sbs(I6
I4242
tp164
g0
(g9
g2
Ntp165
Rp166
(dp167
g13
I01
sg14
F0.0062118910938260274
sg15
g164
sbs(I-2
I2
tp168
g0
(g9
g2
Ntp169
Rp170
(dp171
g13
I00
sg14
F-1.9271549481213262
sg15
g168
sbs(I-1
I7
tp172
g0
(g9
g2
Ntp173
Rp174
(dp175
g13
I00
sg14
F2.0642325210254495
sg15
g172
sbs(I-7
I9
tp176
g0
(g9
g2
Ntp177
Rp178
(dp179
g13
I00
sg14
F-0.3040897331855165
sg15
g176
sbs(I-8
I1491
tp180
g0
(g9
g2
Ntp181
Rp182
(dp183
g13
I00
sg14
F2.6502102032800687
sg15
g180
sbs(I-9
I8
tp184
g0
(g9
g2
Ntp185
Rp186
(dp187
g13
I01
sg14
F-0.6641689859161994
sg15
g184
sbs(I-2
I8
tp188
g0
(g9
g2
Ntp189
Rp190
(dp191
g13
I01
sg14
F0.023819729894908104
sg15
g188
sbs(I-3
I0
tp192
g0
(g9
g2
Ntp193
Rp194
(dp195
g13
I01
sg14
F0.1432965225607744
sg15
g192
sbs(I-4
I8
tp196
g0
(g9
g2
Ntp197
Rp198
(dp199
g13
I00
sg14
F-0.8395021175027315
sg15
g196
sbs(I-8
I9
tp200
g0
(g9
g2
Ntp201
Rp202
(dp203
g13
I01
sg14
F2.336535529511889
sg15
g200
sbs(I-7
I4
tp204
g0
(g9
g2
Ntp205
Rp206
(dp207
g13
I01
sg14
F2.798385989853298
sg15
g204
sbs(I-6
I3
tp208
g0
(g9
g2
Ntp209
Rp210
(dp211
g13
I01
sg14
F1.2583532297644948
sg15
g208
sbs(I-9
I2
tp212
g0
(g9
g2
Ntp213
Rp214
(dp215
g13
I01
sg14
F-0.6651053502254914
sg15
g212
sbs(I-6
I356
tp216
g0
(g9
g2
Ntp217
Rp218
(dp219
g13
I01
sg14
F1.1621935515123754
sg15
g216
sbs(I-3
I3
tp220
g0
(g9
g2
Ntp221
Rp222
(dp223
g13
I00
sg14
F1.4899992574835315
sg15
g220
sbs(I-8
I6
tp224
g0
(g9
g2
Ntp225
Rp226
(dp227
g13
I00
sg14
F-0.9250258381388846
sg15
g224
sbs(I4010
I6
tp228
g0
(g9
g2
Ntp229
Rp230
(dp231
g13
I01
sg14
F2.1862125804475436
sg15
g228
sbs(I-7
I7
tp232
g0
(g9
g2
Ntp233
Rp234
(dp235
g13
I00
sg14
F-1.0949925706173054
sg15
g232
sbs(I-6
I4
tp236
g0
(g9
g2
Ntp237
Rp238
(dp239
g13
I00
sg14
F-2.0163368953272043
sg15
g236
sbs(I-5
I9
tp240
g0
(g9
g2
Ntp241
Rp242
(dp243
g13
I00
sg14
F3.32647241097707
sg15
g240
sbs(I-4
I1491
tp244
g0
(g9
g2
Ntp245
Rp246
(dp247
g13
I00
sg14
F0.05285244114135912
sg15
g244
sbs(I-1
I6
tp248
g0
(g9
g2
Ntp249
Rp250
(dp251
g13
I01
sg14
F1.81075656961827
sg15
g248
sbs(I-3
I6
tp252
g0
(g9
g2
Ntp253
Rp254
(dp255
g13
I00
sg14
F0.08501749935059319
sg15
g252
sbs(I5
I1491
tp256
g0
(g9
g2
Ntp257
Rp258
(dp259
g13
I00
sg14
F0.572924415088637
sg15
g256
sbs(I-1
I3909
tp260
g0
(g9
g2
Ntp261
Rp262
(dp263
g13
I01
sg14
F0.29731474512111766
sg15
g260
sbs(I-7
I2
tp264
g0
(g9
g2
Ntp265
Rp266
(dp267
g13
I01
sg14
F-5.39057351883723
sg15
g264
sbs(I-10
I1
tp268
g0
(g9
g2
Ntp269
Rp270
(dp271
g13
I00
sg14
F-0.748368893226756
sg15
g268
sbs(I-5
I3
tp272
g0
(g9
g2
Ntp273
Rp274
(dp275
g13
I01
sg14
F1.8726257013937577
sg15
g272
sbs(I-4
I4
tp276
g0
(g9
g2
Ntp277
Rp278
(dp279
g13
I00
sg14
F0.9765380217672024
sg15
g276
sbs(I356
I8
tp280
g0
(g9
g2
Ntp281
Rp282
(dp283
g13
I01
sg14
F-0.948036616561565
sg15
g280
sbs(I-2
I3
tp284
g0
(g9
g2
Ntp285
Rp286
(dp287
g13
I01
sg14
F-1.270838769301916
sg15
g284
sbs(I-3
I9
tp288
g0
(g9
g2
Ntp289
Rp290
(dp291
g13
I01
sg14
F-1.4001595533159072
sg15
g288
sbs(I-8
I4197
tp292
g0
(g9
g2
Ntp293
Rp294
(dp295
g13
I01
sg14
F0.069125707504816
sg15
g292
sbs(I-5
I1491
tp296
g0
(g9
g2
Ntp297
Rp298
(dp299
g13
I01
sg14
F-0.19871826388435754
sg15
g296
sbs(I-7
I8
tp300
g0
(g9
g2
Ntp301
Rp302
(dp303
g13
I00
sg14
F-0.9432347166287296
sg15
g300
sbs(I-2
I6
tp304
g0
(g9
g2
Ntp305
Rp306
(dp307
g13
I01
sg14
F-3.807168652524133
sg15
g304
sbs(I-10
I2
tp308
g0
(g9
g2
Ntp309
Rp310
(dp311
g13
I00
sg14
F0.5015114399564145
sg15
g308
sbs(I6
I6
tp312
g0
(g9
g2
Ntp313
Rp314
(dp315
g13
I00
sg14
F2.650207834795527
sg15
g312
sbs(I-3
I4010
tp316
g0
(g9
g2
Ntp317
Rp318
(dp319
g13
I01
sg14
F-0.833058582004566
sg15
g316
sbs(I-4
I9
tp320
g0
(g9
g2
Ntp321
Rp322
(dp323
g13
I00
sg14
F-1.0225352595192674
sg15
g320
sbs(I7
I7
tp324
g0
(g9
g2
Ntp325
Rp326
(dp327
g13
I00
sg14
F-0.15192799706032054
sg15
g324
sbs(I-1
I8
tp328
g0
(g9
g2
Ntp329
Rp330
(dp331
g13
I00
sg14
F0.3347849355734366
sg15
g328
sbs(I3
I3
tp332
g0
(g9
g2
Ntp333
Rp334
(dp335
g13
I01
sg14
F-0.9493110537506562
sg15
g332
sbs(I-6
I0
tp336
g0
(g9
g2
Ntp337
Rp338
(dp339
g13
I01
sg14
F1.8143352978242633
sg15
g336
sbs(I1491
I1
tp340
g0
(g9
g2
Ntp341
Rp342
(dp343
g13
I01
sg14
F10.118847775478702
sg15
g340
sbs(I-8
I7
tp344
g0
(g9
g2
Ntp345
Rp346
(dp347
g13
I01
sg14
F-1.2729275284640982
sg15
g344
sbs(I4
I356
tp348
g0
(g9
g2
Ntp349
Rp350
(dp351
g13
I00
sg14
F-2.0630585333088978
sg15
g348
sbs(I-10
I5
tp352
g0
(g9
g2
Ntp353
Rp354
(dp355
g13
I00
sg14
F1.9893617309405849
sg15
g352
sbs(I-3
I7
tp356
g0
(g9
g2
Ntp357
Rp358
(dp359
g13
I01
sg14
F0.2567160233379385
sg15
g356
sbs(I-10
I8
tp360
g0
(g9
g2
Ntp361
Rp362
(dp363
g13
I00
sg14
F1.6630684397043616
sg15
g360
sbs(I-2
I7
tp364
g0
(g9
g2
Ntp365
Rp366
(dp367
g13
I01
sg14
F1.9513786468745589
sg15
g364
sbs(I-3
I5
tp368
g0
(g9
g2
Ntp369
Rp370
(dp371
g13
I01
sg14
F1.3138914071923835
sg15
g368
sbs(I356
I7
tp372
g0
(g9
g2
Ntp373
Rp374
(dp375
g13
I01
sg14
F4.6510874112505824
sg15
g372
sbs(I-8
I4
tp376
g0
(g9
g2
Ntp377
Rp378
(dp379
g13
I01
sg14
F-0.4048906572279377
sg15
g376
sbs(I8
I8
tp380
g0
(g9
g2
Ntp381
Rp382
(dp383
g13
I00
sg14
F0.3677768392151044
sg15
g380
sbs(I-7
I1
tp384
g0
(g9
g2
Ntp385
Rp386
(dp387
g13
I01
sg14
F0.7246273366708265
sg15
g384
sbs(I-10
I6
tp388
g0
(g9
g2
Ntp389
Rp390
(dp391
g13
I01
sg14
F-0.4094465331336879
sg15
g388
sbs(I-5
I2
tp392
g0
(g9
g2
Ntp393
Rp394
(dp395
g13
I00
sg14
F1.3315649818763702
sg15
g392
sbs(I-6
I6
tp396
g0
(g9
g2
Ntp397
Rp398
(dp399
g13
I00
sg14
F-3.243907908003989
sg15
g396
sbs(I-9
I7
tp400
g0
(g9
g2
Ntp401
Rp402
(dp403
g13
I01
sg14
F-1.9003549167767528
sg15
g400
sbssS'nodes'
p404
(dp405
I0
g0
(cneat.genes
DefaultNodeGene
p406
g2
Ntp407
Rp408
(dp409
S'activation'
p410
S'tanh'
p411
sS'bias'
p412
F-0.07258720213492365
sS'response'
p413
F1.0
sg15
I0
sS'aggregation'
p414
S'sum'
p415
sbsI1
g0
(g406
g2
Ntp416
Rp417
(dp418
g410
S'relu'
p419
sg412
F-15.20676693016267
sg413
F1.0
sg15
I1
sg414
g415
sbsI2
g0
(g406
g2
Ntp420
Rp421
(dp422
g410
g411
sg412
F0.7794653551239777
sg413
F1.0
sg15
I2
sg414
g415
sbsI3
g0
(g406
g2
Ntp423
Rp424
(dp425
g410
g411
sg412
F-26.197605989060985
sg413
F1.0
sg15
I3
sg414
g415
sbsI4
g0
(g406
g2
Ntp426
Rp427
(dp428
g410
g411
sg412
F-8.365415813380288
sg413
F1.0
sg15
I4
sg414
g415
sbsI5
g0
(g406
g2
Ntp429
Rp430
(dp431
g410
g411
sg412
F-8.885768861289087
sg413
F1.0
sg15
I5
sg414
g415
sbsI6
g0
(g406
g2
Ntp432
Rp433
(dp434
g410
g411
sg412
F9.908731015515269
sg413
F1.0
sg15
I6
sg414
g415
sbsI7
g0
(g406
g2
Ntp435
Rp436
(dp437
g410
g419
sg412
F0.35216841453003106
sg413
F1.0
sg15
I7
sg414
g415
sbsI8
g0
(g406
g2
Ntp438
Rp439
(dp440
g410
g411
sg412
F7.589264242595309
sg413
F1.0
sg15
I8
sg414
g415
sbsI9
g0
(g406
g2
Ntp441
Rp442
(dp443
g410
g419
sg412
F3.016728402371065
sg413
F1.0
sg15
I9
sg414
g415
sbsI4010
g0
(g406
g2
Ntp444
Rp445
(dp446
g410
g419
sg412
F14.34917593868102
sg413
F1.0
sg15
I4010
sg414
g415
sbsI4197
g0
(g406
g2
Ntp447
Rp448
(dp449
g410
g419
sg412
F2.8783443986881116
sg413
F1.0
sg15
I4197
sg414
g415
sbsI4242
g0
(g406
g2
Ntp450
Rp451
(dp452
g410
g411
sg412
F-11.162149893247769
sg413
F1.0
sg15
I4242
sg414
g415
sbsI1491
g0
(g406
g2
Ntp453
Rp454
(dp455
g410
g419
sg412
F25.308481481349073
sg413
F1.0
sg15
I1491
sg414
g415
sbsI356
g0
(g406
g2
Ntp456
Rp457
(dp458
g410
g419
sg412
F16.891464577708522
sg413
F1.0
sg15
I356
sg414
g415
sbsI3162
g0
(g406
g2
Ntp459
Rp460
(dp461
g410
g419
sg412
F13.210104630801467
sg413
F1.0
sg15
I3162
sg414
g415
sbsI3644
g0
(g406
g2
Ntp462
Rp463
(dp464
g410
g419
sg412
F2.4399320390888826
sg413
F1.0
sg15
I3644
sg414
g415
sbsI3909
g0
(g406
g2
Ntp465
Rp466
(dp467
g410
g419
sg412
F-20.959477067026885
sg413
F1.0
sg15
I3909
sg414
g415
sbssg15
I21412
sS'fitness'
p468
Nsb.