ccopy_reg
_reconstructor
p0
(cneat.genome
DefaultGenome
p1
c__builtin__
object
p2
Ntp3
Rp4
(dp5
S'connections'
p6
(dp7
(I-1
I0
tp8
g0
(cneat.genes
DefaultConnectionGene
p9
g2
Ntp10
Rp11
(dp12
S'enabled'
p13
I01
sS'weight'
p14
F-3.4356070006611183
sS'key'
p15
g8
sbs(I-3
I8
tp16
g0
(g9
g2
Ntp17
Rp18
(dp19
g13
I01
sg14
F4.113968764897988
sg15
g16
sbs(I-1
I2
tp20
g0
(g9
g2
Ntp21
Rp22
(dp23
g13
I00
sg14
F-3.4303391864089092
sg15
g20
sbs(I-8
I1
tp24
g0
(g9
g2
Ntp25
Rp26
(dp27
g13
I01
sg14
F-0.13603987761436842
sg15
g24
sbs(I4258
I4
tp28
g0
(g9
g2
Ntp29
Rp30
(dp31
g13
I01
sg14
F0.13788025312094387
sg15
g28
sbs(I-2
I0
tp32
g0
(g9
g2
Ntp33
Rp34
(dp35
g13
I01
sg14
F0.04944516735751232
sg15
g32
sbs(I-10
I3
tp36
g0
(g9
g2
Ntp37
Rp38
(dp39
g13
I01
sg14
F2.8264984786399463
sg15
g36
sbs(I-5
I1
tp40
g0
(g9
g2
Ntp41
Rp42
(dp43
g13
I01
sg14
F-1.49791232765644
sg15
g40
sbs(I5
I5
tp44
g0
(g9
g2
Ntp45
Rp46
(dp47
g13
I00
sg14
F-2.3167702737987454
sg15
g44
sbs(I-3
I1491
tp48
g0
(g9
g2
Ntp49
Rp50
(dp51
g13
I01
sg14
F2.479093360931933
sg15
g48
sbs(I4
I4258
tp52
g0
(g9
g2
Ntp53
Rp54
(dp55
g13
I01
sg14
F0.1496643973050188
sg15
g52
sbs(I1
I1
tp56
g0
(g9
g2
Ntp57
Rp58
(dp59
g13
I00
sg14
F2.77594723779975
sg15
g56
sbs(I-9
I9
tp60
g0
(g9
g2
Ntp61
Rp62
(dp63
g13
I01
sg14
F-2.574022897471753
sg15
g60
sbs(I-3
I1
tp64
g0
(g9
g2
Ntp65
Rp66
(dp67
g13
I00
sg14
F-0.988852431918369
sg15
g64
sbs(I1491
I0
tp68
g0
(g9
g2
Ntp69
Rp70
(dp71
g13
I00
sg14
F3.3515111640509434
sg15
g68
sbs(I-7
I356
tp72
g0
(g9
g2
Ntp73
Rp74
(dp75
g13
I00
sg14
F-0.009081533076413599
sg15
g72
sbs(I9
I9
tp76
g0
(g9
g2
Ntp77
Rp78
(dp79
g13
I01
sg14
F0.40285943333203506
sg15
g76
sbs(I-5
I6
tp80
g0
(g9
g2
Ntp81
Rp82
(dp83
g13
I00
sg14
F-1.1987348620231635
sg15
g80
sbs(I-6
I2
tp84
g0
(g9
g2
Ntp85
Rp86
(dp87
g13
I01
sg14
F-5.23522543805287
sg15
g84
sbs(I-9
I3
tp88
g0
(g9
g2
Ntp89
Rp90
(dp91
g13
I00
sg14
F1.642928130013829
sg15
g88
sbs(I-10
I9
tp92
g0
(g9
g2
Ntp93
Rp94
(dp95
g13
I00
sg14
F0.1467152627139453
sg15
g92
sbs(I-4
I1
tp96
g0
(g9
g2
Ntp97
Rp98
(dp99
g13
I00
sg14
F-1.4692720850750078
sg15
g96
sbs(I-8
I1761
tp100
g0
(g9
g2
Ntp101
Rp102
(dp103
g13
I01
sg14
F0.03139187908312562
sg15
g100
sbs(I-2
I4
tp104
g0
(g9
g2
Ntp105
Rp106
(dp107
g13
I00
sg14
F2.384948205285683
sg15
g104
sbs(I-3
I4
tp108
g0
(g9
g2
Ntp109
Rp110
(dp111
g13
I00
sg14
F-2.266847308782144
sg15
g108
sbs(I-8
I5
tp112
g0
(g9
g2
Ntp113
Rp114
(dp115
g13
I00
sg14
F-0.403258166003886
sg15
g112
sbs(I-9
I3758
tp116
g0
(g9
g2
Ntp117
Rp118
(dp119
g13
I00
sg14
F0.41240819510303794
sg15
g116
sbs(I-6
I7
tp120
g0
(g9
g2
Ntp121
Rp122
(dp123
g13
I00
sg14
F0.6565433475649172
sg15
g120
sbs(I-9
I6
tp124
g0
(g9
g2
Ntp125
Rp126
(dp127
g13
I00
sg14
F2.207144805348472
sg15
g124
sbs(I-4
I6
tp128
g0
(g9
g2
Ntp129
Rp130
(dp131
g13
I00
sg14
F-2.325340632391508
sg15
g128
sbs(I-1
I1
tp132
g0
(g9
g2
Ntp133
Rp134
(dp135
g13
I01
sg14
F-2.2351321328965823
sg15
g132
sbs(I-3
I7
tp136
g0
(g9
g2
Ntp137
Rp138
(dp139
g13
I00
sg14
F0.7116186544671743
sg15
g136
sbs(I-7
I3
tp140
g0
(g9
g2
Ntp141
Rp142
(dp143
g13
I01
sg14
F-0.7118053340157396
sg15
g140
sbs(I-10
I0
tp144
g0
(g9
g2
Ntp145
Rp146
(dp147
g13
I00
sg14
F-1.438516294286433
sg15
g144
sbs(I-5
I0
tp148
g0
(g9
g2
Ntp149
Rp150
(dp151
g13
I01
sg14
F6.773147600028158
sg15
g148
sbs(I-9
I5
tp152
g0
(g9
g2
Ntp153
Rp154
(dp155
g13
I00
sg14
F1.0972476589233686
sg15
g152
sbs(I4338
I3
tp156
g0
(g9
g2
Ntp157
Rp158
(dp159
g13
I01
sg14
F1.1195976650482211
sg15
g156
sbs(I-10
I4315
tp160
g0
(g9
g2
Ntp161
Rp162
(dp163
g13
I01
sg14
F1.581573163318533
sg15
g160
sbs(I-2
I2
tp164
g0
(g9
g2
Ntp165
Rp166
(dp167
g13
I01
sg14
F-0.5338987217055297
sg15
g164
sbs(I-1
I7
tp168
g0
(g9
g2
Ntp169
Rp170
(dp171
g13
I00
sg14
F-0.19073150801808647
sg15
g168
sbs(I-1
I4
tp172
g0
(g9
g2
Ntp173
Rp174
(dp175
g13
I01
sg14
F-0.3003551210963441
sg15
g172
sbs(I-7
I9
tp176
g0
(g9
g2
Ntp177
Rp178
(dp179
g13
I01
sg14
F-0.28248297478739626
sg15
g176
sbs(I-8
I1491
tp180
g0
(g9
g2
Ntp181
Rp182
(dp183
g13
I01
sg14
F-1.0330237224529153
sg15
g180
sbs(I-2
I8
tp184
g0
(g9
g2
Ntp185
Rp186
(dp187
g13
I00
sg14
F1.912518055843575
sg15
g184
sbs(I-3
I0
tp188
g0
(g9
g2
Ntp189
Rp190
(dp191
g13
I01
sg14
F3.0118714220452696
sg15
g188
sbs(I-4
I8
tp192
g0
(g9
g2
Ntp193
Rp194
(dp195
g13
I00
sg14
F0.35516209825390055
sg15
g192
sbs(I-8
I9
tp196
g0
(g9
g2
Ntp197
Rp198
(dp199
g13
I01
sg14
F-0.5784724755561592
sg15
g196
sbs(I-7
I4
tp200
g0
(g9
g2
Ntp201
Rp202
(dp203
g13
I01
sg14
F0.2545104390400058
sg15
g200
sbs(I-6
I3
tp204
g0
(g9
g2
Ntp205
Rp206
(dp207
g13
I00
sg14
F0.8207735104686811
sg15
g204
sbs(I-9
I2
tp208
g0
(g9
g2
Ntp209
Rp210
(dp211
g13
I00
sg14
F0.08983174250188826
sg15
g208
sbs(I-6
I356
tp212
g0
(g9
g2
Ntp213
Rp214
(dp215
g13
I01
sg14
F-0.9802459587338518
sg15
g212
sbs(I-1
I5
tp216
g0
(g9
g2
Ntp217
Rp218
(dp219
g13
I01
sg14
F1.8495371229518183
sg15
g216
sbs(I-3
I3
tp220
g0
(g9
g2
Ntp221
Rp222
(dp223
g13
I01
sg14
F0.13319526634211357
sg15
g220
sbs(I4315
I9
tp224
g0
(g9
g2
Ntp225
Rp226
(dp227
g13
I01
sg14
F1.5228327962357753
sg15
g224
sbs(I-8
I6
tp228
g0
(g9
g2
Ntp229
Rp230
(dp231
g13
I01
sg14
F0.5442758239018229
sg15
g228
sbs(I-7
I3942
tp232
g0
(g9
g2
Ntp233
Rp234
(dp235
g13
I01
sg14
F2.0065160388977143
sg15
g232
sbs(I-7
I7
tp236
g0
(g9
g2
Ntp237
Rp238
(dp239
g13
I00
sg14
F0.8972714067926726
sg15
g236
sbs(I-6
I4
tp240
g0
(g9
g2
Ntp241
Rp242
(dp243
g13
I01
sg14
F-0.7768034545872275
sg15
g240
sbs(I-5
I9
tp244
g0
(g9
g2
Ntp245
Rp246
(dp247
g13
I01
sg14
F-1.5123196894171531
sg15
g244
sbs(I-4
I1491
tp248
g0
(g9
g2
Ntp249
Rp250
(dp251
g13
I01
sg14
F-0.35987513645180175
sg15
g248
sbs(I-2
I6
tp252
g0
(g9
g2
Ntp253
Rp254
(dp255
g13
I00
sg14
F2.094412703225736
sg15
g252
sbs(I-3
I6
tp256
g0
(g9
g2
Ntp257
Rp258
(dp259
g13
I00
sg14
F1.2927398612703602
sg15
g256
sbs(I-7
I3557
tp260
g0
(g9
g2
Ntp261
Rp262
(dp263
g13
I00
sg14
F-1.3678691320895024
sg15
g260
sbs(I3942
I1
tp264
g0
(g9
g2
Ntp265
Rp266
(dp267
g13
I01
sg14
F-0.2845429189742546
sg15
g264
sbs(I5
I1491
tp268
g0
(g9
g2
Ntp269
Rp270
(dp271
g13
I01
sg14
F-0.10148807096291731
sg15
g268
sbs(I-8
I3
tp272
g0
(g9
g2
Ntp273
Rp274
(dp275
g13
I00
sg14
F1.881751270319644
sg15
g272
sbs(I-7
I2
tp276
g0
(g9
g2
Ntp277
Rp278
(dp279
g13
I00
sg14
F0.351864719808523
sg15
g276
sbs(I-10
I1
tp280
g0
(g9
g2
Ntp281
Rp282
(dp283
g13
I00
sg14
F1.3256524225725288
sg15
g280
sbs(I-5
I3
tp284
g0
(g9
g2
Ntp285
Rp286
(dp287
g13
I00
sg14
F0.10396577203421997
sg15
g284
sbs(I-9
I4
tp288
g0
(g9
g2
Ntp289
Rp290
(dp291
g13
I00
sg14
F-0.37693628670820895
sg15
g288
sbs(I3557
I9
tp292
g0
(g9
g2
Ntp293
Rp294
(dp295
g13
I00
sg14
F-0.4252379795952379
sg15
g292
sbs(I-9
I3557
tp296
g0
(g9
g2
Ntp297
Rp298
(dp299
g13
I01
sg14
F0.3730235691752887
sg15
g296
sbs(I9
I3758
tp300
g0
(g9
g2
Ntp301
Rp302
(dp303
g13
I01
sg14
F1.883315172524359
sg15
g300
sbs(I356
I8
tp304
g0
(g9
g2
Ntp305
Rp306
(dp307
g13
I00
sg14
F-2.8196428445904633
sg15
g304
sbs(I-2
I3
tp308
g0
(g9
g2
Ntp309
Rp310
(dp311
g13
I00
sg14
F-0.11588332831635911
sg15
g308
sbs(I-3
I9
tp312
g0
(g9
g2
Ntp313
Rp314
(dp315
g13
I01
sg14
F0.367810972920381
sg15
g312
sbs(I-5
I1491
tp316
g0
(g9
g2
Ntp317
Rp318
(dp319
g13
I01
sg14
F-1.4520744710082187
sg15
g316
sbs(I-7
I8
tp320
g0
(g9
g2
Ntp321
Rp322
(dp323
g13
I00
sg14
F-0.15993947191100083
sg15
g320
sbs(I-1
I6
tp324
g0
(g9
g2
Ntp325
Rp326
(dp327
g13
I00
sg14
F0.4797019074014094
sg15
g324
sbs(I-10
I2
tp328
g0
(g9
g2
Ntp329
Rp330
(dp331
g13
I01
sg14
F0.9193909509846472
sg15
g328
sbs(I6
I6
tp332
g0
(g9
g2
Ntp333
Rp334
(dp335
g13
I01
sg14
F0.22754982887315
sg15
g332
sbs(I7
I7
tp336
g0
(g9
g2
Ntp337
Rp338
(dp339
g13
I00
sg14
F0.020369525821027412
sg15
g336
sbs(I-1
I8
tp340
g0
(g9
g2
Ntp341
Rp342
(dp343
g13
I00
sg14
F2.0282919607498275
sg15
g340
sbs(I3758
I3
tp344
g0
(g9
g2
Ntp345
Rp346
(dp347
g13
I00
sg14
F-1.8606641659381902
sg15
g344
sbs(I-6
I4338
tp348
g0
(g9
g2
Ntp349
Rp350
(dp351
g13
I01
sg14
F1.124946274454058
sg15
g348
sbs(I3
I3
tp352
g0
(g9
g2
Ntp353
Rp354
(dp355
g13
I00
sg14
F-1.8089357010915186
sg15
g352
sbs(I-6
I0
tp356
g0
(g9
g2
Ntp357
Rp358
(dp359
g13
I01
sg14
F-2.282430280808784
sg15
g356
sbs(I4
I4
tp360
g0
(g9
g2
Ntp361
Rp362
(dp363
g13
I01
sg14
F1.138032201189937
sg15
g360
sbs(I-3
I2
tp364
g0
(g9
g2
Ntp365
Rp366
(dp367
g13
I01
sg14
F-2.3242143580313863
sg15
g364
sbs(I5
I1761
tp368
g0
(g9
g2
Ntp369
Rp370
(dp371
g13
I00
sg14
F-2.0971494855414132
sg15
g368
sbs(I1491
I1
tp372
g0
(g9
g2
Ntp373
Rp374
(dp375
g13
I01
sg14
F10.836334433936383
sg15
g372
sbs(I-8
I7
tp376
g0
(g9
g2
Ntp377
Rp378
(dp379
g13
I00
sg14
F0.48980898180752575
sg15
g376
sbs(I4
I356
tp380
g0
(g9
g2
Ntp381
Rp382
(dp383
g13
I01
sg14
F-3.268811604172841
sg15
g380
sbs(I-10
I5
tp384
g0
(g9
g2
Ntp385
Rp386
(dp387
g13
I00
sg14
F-6.997695619028488
sg15
g384
sbs(I-6
I5
tp388
g0
(g9
g2
Ntp389
Rp390
(dp391
g13
I00
sg14
F0.993120313806957
sg15
g388
sbs(I-9
I0
tp392
g0
(g9
g2
Ntp393
Rp394
(dp395
g13
I00
sg14
F-0.8990852773024522
sg15
g392
sbs(I-10
I8
tp396
g0
(g9
g2
Ntp397
Rp398
(dp399
g13
I01
sg14
F1.133614556150288
sg15
g396
sbs(I-4
I0
tp400
g0
(g9
g2
Ntp401
Rp402
(dp403
g13
I00
sg14
F-1.5222729311878789
sg15
g400
sbs(I-5
I8
tp404
g0
(g9
g2
Ntp405
Rp406
(dp407
g13
I00
sg14
F-0.28006378878544114
sg15
g404
sbs(I3557
I1761
tp408
g0
(g9
g2
Ntp409
Rp410
(dp411
g13
I01
sg14
F-0.1690831702510331
sg15
g408
sbs(I-2
I7
tp412
g0
(g9
g2
Ntp413
Rp414
(dp415
g13
I00
sg14
F-1.257052988131183
sg15
g412
sbs(I-3
I5
tp416
g0
(g9
g2
Ntp417
Rp418
(dp419
g13
I01
sg14
F-2.6249230213936503
sg15
g416
sbs(I356
I7
tp420
g0
(g9
g2
Ntp421
Rp422
(dp423
g13
I01
sg14
F8.278087919710908
sg15
g420
sbs(I-8
I4
tp424
g0
(g9
g2
Ntp425
Rp426
(dp427
g13
I01
sg14
F-1.098407629873153
sg15
g424
sbs(I8
I8
tp428
g0
(g9
g2
Ntp429
Rp430
(dp431
g13
I01
sg14
F-3.841417781308812
sg15
g428
sbs(I-7
I1
tp432
g0
(g9
g2
Ntp433
Rp434
(dp435
g13
I00
sg14
F-1.2193022380379392
sg15
g432
sbs(I-10
I6
tp436
g0
(g9
g2
Ntp437
Rp438
(dp439
g13
I01
sg14
F2.0556514400571544
sg15
g436
sbs(I-5
I2
tp440
g0
(g9
g2
Ntp441
Rp442
(dp443
g13
I01
sg14
F1.5122727750634923
sg15
g440
sbs(I-6
I6
tp444
g0
(g9
g2
Ntp445
Rp446
(dp447
g13
I01
sg14
F-1.3314227199519368
sg15
g444
sbs(I-9
I7
tp448
g0
(g9
g2
Ntp449
Rp450
(dp451
g13
I01
sg14
F0.6462986034944515
sg15
g448
sbssS'nodes'
p452
(dp453
I0
g0
(cneat.genes
DefaultNodeGene
p454
g2
Ntp455
Rp456
(dp457
S'activation'
p458
S'tanh'
p459
sS'bias'
p460
F1.7972269556385376
sS'response'
p461
F1.0
sg15
I0
sS'aggregation'
p462
S'sum'
p463
sbsI1
g0
(g454
g2
Ntp464
Rp465
(dp466
g458
S'relu'
p467
sg460
F-1.7571447478100373
sg461
F1.0
sg15
I1
sg462
g463
sbsI2
g0
(g454
g2
Ntp468
Rp469
(dp470
g458
g459
sg460
F-4.192074050499832
sg461
F1.0
sg15
I2
sg462
g463
sbsI3
g0
(g454
g2
Ntp471
Rp472
(dp473
g458
g467
sg460
F0.4061599756222438
sg461
F1.0
sg15
I3
sg462
g463
sbsI4
g0
(g454
g2
Ntp474
Rp475
(dp476
g458
g459
sg460
F-3.1322177521257006
sg461
F1.0
sg15
I4
sg462
g463
sbsI5
g0
(g454
g2
Ntp477
Rp478
(dp479
g458
g467
sg460
F3.634237531595396
sg461
F1.0
sg15
I5
sg462
g463
sbsI6
g0
(g454
g2
Ntp480
Rp481
(dp482
g458
g459
sg460
F9.546056071079768
sg461
F1.0
sg15
I6
sg462
g463
sbsI7
g0
(g454
g2
Ntp483
Rp484
(dp485
g458
g467
sg460
F6.759169529085751
sg461
F1.0
sg15
I7
sg462
g463
sbsI8
g0
(g454
g2
Ntp486
Rp487
(dp488
g458
g459
sg460
F10.543373037636723
sg461
F1.0
sg15
I8
sg462
g463
sbsI9
g0
(g454
g2
Ntp489
Rp490
(dp491
g458
g467
sg460
F-19.658833127966773
sg461
F1.0
sg15
I9
sg462
g463
sbsI1761
g0
(g454
g2
Ntp492
Rp493
(dp494
g458
g459
sg460
F-9.570251715015587
sg461
F1.0
sg15
I1761
sg462
g463
sbsI4258
g0
(g454
g2
Ntp495
Rp496
(dp497
g458
g467
sg460
F3.636738643631671
sg461
F1.0
sg15
I4258
sg462
g463
sbsI3758
g0
(g454
g2
Ntp498
Rp499
(dp500
g458
g467
sg460
F-5.263103186796075
sg461
F1.0
sg15
I3758
sg462
g463
sbsI4338
g0
(g454
g2
Ntp501
Rp502
(dp503
g458
g467
sg460
F18.59513425539475
sg461
F1.0
sg15
I4338
sg462
g463
sbsI1491
g0
(g454
g2
Ntp504
Rp505
(dp506
g458
g467
sg460
F12.756720229530183
sg461
F1.0
sg15
I1491
sg462
g463
sbsI3942
g0
(g454
g2
Ntp507
Rp508
(dp509
g458
g467
sg460
F-2.233649747552308
sg461
F1.0
sg15
I3942
sg462
g463
sbsI356
g0
(g454
g2
Ntp510
Rp511
(dp512
g458
g467
sg460
F14.692204955841229
sg461
F1.0
sg15
I356
sg462
g463
sbsI4315
g0
(g454
g2
Ntp513
Rp514
(dp515
g458
g467
sg460
F5.107321943101565
sg461
F1.0
sg15
I4315
sg462
g463
sbsI3557
g0
(g454
g2
Ntp516
Rp517
(dp518
g458
g467
sg460
F-4.005636080275115
sg461
F1.0
sg15
I3557
sg462
g463
sbssg15
I21422
sS'fitness'
p519
Nsb.