ccopy_reg
_reconstructor
p0
(cneat.genome
DefaultGenome
p1
c__builtin__
object
p2
Ntp3
Rp4
(dp5
S'connections'
p6
(dp7
(I-1
I0
tp8
g0
(cneat.genes
DefaultConnectionGene
p9
g2
Ntp10
Rp11
(dp12
S'enabled'
p13
I00
sS'weight'
p14
F2.438885972896455
sS'key'
p15
g8
sbs(I-3
I8
tp16
g0
(g9
g2
Ntp17
Rp18
(dp19
g13
I01
sg14
F2.135411020820084
sg15
g16
sbs(I-1
I2
tp20
g0
(g9
g2
Ntp21
Rp22
(dp23
g13
I01
sg14
F-0.5302435829209615
sg15
g20
sbs(I-8
I1
tp24
g0
(g9
g2
Ntp25
Rp26
(dp27
g13
I00
sg14
F-0.47855068846173987
sg15
g24
sbs(I-2
I0
tp28
g0
(g9
g2
Ntp29
Rp30
(dp31
g13
I01
sg14
F-1.2189738709665163
sg15
g28
sbs(I-10
I3
tp32
g0
(g9
g2
Ntp33
Rp34
(dp35
g13
I00
sg14
F0.9306636906822854
sg15
g32
sbs(I-5
I1
tp36
g0
(g9
g2
Ntp37
Rp38
(dp39
g13
I00
sg14
F1.446801004617402
sg15
g36
sbs(I-3
I1491
tp40
g0
(g9
g2
Ntp41
Rp42
(dp43
g13
I00
sg14
F-0.15647349801565302
sg15
g40
sbs(I3850
I0
tp44
g0
(g9
g2
Ntp45
Rp46
(dp47
g13
I01
sg14
F-0.6249870958491954
sg15
g44
sbs(I1
I1
tp48
g0
(g9
g2
Ntp49
Rp50
(dp51
g13
I00
sg14
F0.3439216031261173
sg15
g48
sbs(I4055
I4
tp52
g0
(g9
g2
Ntp53
Rp54
(dp55
g13
I00
sg14
F1.4013891263011808
sg15
g52
sbs(I-9
I9
tp56
g0
(g9
g2
Ntp57
Rp58
(dp59
g13
I01
sg14
F-0.23699678979253508
sg15
g56
sbs(I-3
I1
tp60
g0
(g9
g2
Ntp61
Rp62
(dp63
g13
I01
sg14
F-0.4536543905095938
sg15
g60
sbs(I1491
I0
tp64
g0
(g9
g2
Ntp65
Rp66
(dp67
g13
I01
sg14
F1.2490746236992047
sg15
g64
sbs(I-7
I356
tp68
g0
(g9
g2
Ntp69
Rp70
(dp71
g13
I01
sg14
F-1.1151822793403228
sg15
g68
sbs(I-8
I3985
tp72
g0
(g9
g2
Ntp73
Rp74
(dp75
g13
I01
sg14
F-2.20673244713667
sg15
g72
sbs(I9
I9
tp76
g0
(g9
g2
Ntp77
Rp78
(dp79
g13
I00
sg14
F2.6078341634316944
sg15
g76
sbs(I-5
I6
tp80
g0
(g9
g2
Ntp81
Rp82
(dp83
g13
I01
sg14
F0.8942571227080783
sg15
g80
sbs(I-6
I2
tp84
g0
(g9
g2
Ntp85
Rp86
(dp87
g13
I01
sg14
F-5.2383732905069245
sg15
g84
sbs(I-10
I9
tp88
g0
(g9
g2
Ntp89
Rp90
(dp91
g13
I01
sg14
F5.594380255407185
sg15
g88
sbs(I-4
I1
tp92
g0
(g9
g2
Ntp93
Rp94
(dp95
g13
I01
sg14
F-1.0735080284292706
sg15
g92
sbs(I-8
I1761
tp96
g0
(g9
g2
Ntp97
Rp98
(dp99
g13
I00
sg14
F0.45157412612206715
sg15
g96
sbs(I-2
I4
tp100
g0
(g9
g2
Ntp101
Rp102
(dp103
g13
I00
sg14
F-2.313537410166501
sg15
g100
sbs(I-3
I4
tp104
g0
(g9
g2
Ntp105
Rp106
(dp107
g13
I01
sg14
F-2.5770213198551484
sg15
g104
sbs(I-2
I5
tp108
g0
(g9
g2
Ntp109
Rp110
(dp111
g13
I01
sg14
F-0.13507374449077325
sg15
g108
sbs(I-8
I5
tp112
g0
(g9
g2
Ntp113
Rp114
(dp115
g13
I01
sg14
F1.8923279018653079
sg15
g112
sbs(I-10
I4272
tp116
g0
(g9
g2
Ntp117
Rp118
(dp119
g13
I01
sg14
F-0.15730525822149066
sg15
g116
sbs(I4040
I3985
tp120
g0
(g9
g2
Ntp121
Rp122
(dp123
g13
I01
sg14
F0.3847833346956277
sg15
g120
sbs(I-6
I7
tp124
g0
(g9
g2
Ntp125
Rp126
(dp127
g13
I01
sg14
F-3.4742338309994434
sg15
g124
sbs(I-9
I6
tp128
g0
(g9
g2
Ntp129
Rp130
(dp131
g13
I01
sg14
F0.16475177219160575
sg15
g128
sbs(I-4
I6
tp132
g0
(g9
g2
Ntp133
Rp134
(dp135
g13
I00
sg14
F2.448002844382685
sg15
g132
sbs(I-1
I1
tp136
g0
(g9
g2
Ntp137
Rp138
(dp139
g13
I01
sg14
F0.38520437933275403
sg15
g136
sbs(I-3
I7
tp140
g0
(g9
g2
Ntp141
Rp142
(dp143
g13
I00
sg14
F-0.2532670727778965
sg15
g140
sbs(I-3
I4341
tp144
g0
(g9
g2
Ntp145
Rp146
(dp147
g13
I01
sg14
F-0.49366375070496676
sg15
g144
sbs(I-1
I7
tp148
g0
(g9
g2
Ntp149
Rp150
(dp151
g13
I00
sg14
F2.6536795346158164
sg15
g148
sbs(I-7
I3
tp152
g0
(g9
g2
Ntp153
Rp154
(dp155
g13
I00
sg14
F-0.23884640785684957
sg15
g152
sbs(I-10
I0
tp156
g0
(g9
g2
Ntp157
Rp158
(dp159
g13
I00
sg14
F-1.5595414131906105
sg15
g156
sbs(I-5
I0
tp160
g0
(g9
g2
Ntp161
Rp162
(dp163
g13
I01
sg14
F0.6572167905765856
sg15
g160
sbs(I-9
I5
tp164
g0
(g9
g2
Ntp165
Rp166
(dp167
g13
I00
sg14
F-2.1862670572942196
sg15
g164
sbs(I4272
I3
tp168
g0
(g9
g2
Ntp169
Rp170
(dp171
g13
I01
sg14
F-0.008522855449063726
sg15
g168
sbs(I-2
I2
tp172
g0
(g9
g2
Ntp173
Rp174
(dp175
g13
I00
sg14
F-3.70075809243781
sg15
g172
sbs(I-1
I4055
tp176
g0
(g9
g2
Ntp177
Rp178
(dp179
g13
I00
sg14
F-0.8083816906113588
sg15
g176
sbs(I4341
I3
tp180
g0
(g9
g2
Ntp181
Rp182
(dp183
g13
I01
sg14
F1.0725643055376735
sg15
g180
sbs(I-8
I4040
tp184
g0
(g9
g2
Ntp185
Rp186
(dp187
g13
I00
sg14
F-0.4305926719753605
sg15
g184
sbs(I-1
I4
tp188
g0
(g9
g2
Ntp189
Rp190
(dp191
g13
I01
sg14
F2.02566999748563
sg15
g188
sbs(I-7
I9
tp192
g0
(g9
g2
Ntp193
Rp194
(dp195
g13
I00
sg14
F-0.7985056136781828
sg15
g192
sbs(I-8
I1491
tp196
g0
(g9
g2
Ntp197
Rp198
(dp199
g13
I00
sg14
F0.4903562090112582
sg15
g196
sbs(I4
I4113
tp200
g0
(g9
g2
Ntp201
Rp202
(dp203
g13
I01
sg14
F2.9893675671229714
sg15
g200
sbs(I-2
I8
tp204
g0
(g9
g2
Ntp205
Rp206
(dp207
g13
I00
sg14
F0.31227749069845034
sg15
g204
sbs(I-3
I0
tp208
g0
(g9
g2
Ntp209
Rp210
(dp211
g13
I01
sg14
F-2.665784508228234
sg15
g208
sbs(I-4
I8
tp212
g0
(g9
g2
Ntp213
Rp214
(dp215
g13
I00
sg14
F0.21819334429787546
sg15
g212
sbs(I-2
I3960
tp216
g0
(g9
g2
Ntp217
Rp218
(dp219
g13
I00
sg14
F1.1973873837859972
sg15
g216
sbs(I-8
I9
tp220
g0
(g9
g2
Ntp221
Rp222
(dp223
g13
I00
sg14
F0.5792067698833311
sg15
g220
sbs(I-7
I4
tp224
g0
(g9
g2
Ntp225
Rp226
(dp227
g13
I01
sg14
F-2.2275039180283582
sg15
g224
sbs(I4016
I8
tp228
g0
(g9
g2
Ntp229
Rp230
(dp231
g13
I01
sg14
F-2.00047747038872
sg15
g228
sbs(I-6
I3
tp232
g0
(g9
g2
Ntp233
Rp234
(dp235
g13
I01
sg14
F0.1477484106449385
sg15
g232
sbs(I-9
I2
tp236
g0
(g9
g2
Ntp237
Rp238
(dp239
g13
I00
sg14
F-0.5308403276919199
sg15
g236
sbs(I-6
I356
tp240
g0
(g9
g2
Ntp241
Rp242
(dp243
g13
I01
sg14
F0.5194723299367345
sg15
g240
sbs(I-1
I5
tp244
g0
(g9
g2
Ntp245
Rp246
(dp247
g13
I01
sg14
F-5.772112574433932
sg15
g244
sbs(I-3
I3
tp248
g0
(g9
g2
Ntp249
Rp250
(dp251
g13
I01
sg14
F-2.434710544634976
sg15
g248
sbs(I3985
I6
tp252
g0
(g9
g2
Ntp253
Rp254
(dp255
g13
I00
sg14
F-4.191316382392581
sg15
g252
sbs(I-8
I6
tp256
g0
(g9
g2
Ntp257
Rp258
(dp259
g13
I00
sg14
F-0.3336773144061588
sg15
g256
sbs(I-7
I7
tp260
g0
(g9
g2
Ntp261
Rp262
(dp263
g13
I01
sg14
F0.4229719787048843
sg15
g260
sbs(I-6
I4
tp264
g0
(g9
g2
Ntp265
Rp266
(dp267
g13
I00
sg14
F-1.9460234854513343
sg15
g264
sbs(I-5
I9
tp268
g0
(g9
g2
Ntp269
Rp270
(dp271
g13
I01
sg14
F0.06471755006978805
sg15
g268
sbs(I-4
I1491
tp272
g0
(g9
g2
Ntp273
Rp274
(dp275
g13
I01
sg14
F-0.1400470314400042
sg15
g272
sbs(I-1
I6
tp276
g0
(g9
g2
Ntp277
Rp278
(dp279
g13
I01
sg14
F2.0492543438893813
sg15
g276
sbs(I7
I3960
tp280
g0
(g9
g2
Ntp281
Rp282
(dp283
g13
I01
sg14
F1.1702366901752446
sg15
g280
sbs(I5
I1491
tp284
g0
(g9
g2
Ntp285
Rp286
(dp287
g13
I01
sg14
F0.8312917080174804
sg15
g284
sbs(I-2
I4016
tp288
g0
(g9
g2
Ntp289
Rp290
(dp291
g13
I01
sg14
F1.3366982080565284
sg15
g288
sbs(I-7
I2
tp292
g0
(g9
g2
Ntp293
Rp294
(dp295
g13
I01
sg14
F-0.09243444115834099
sg15
g292
sbs(I-10
I1
tp296
g0
(g9
g2
Ntp297
Rp298
(dp299
g13
I00
sg14
F0.06424068345455469
sg15
g296
sbs(I-5
I3
tp300
g0
(g9
g2
Ntp301
Rp302
(dp303
g13
I01
sg14
F0.7889016408633892
sg15
g300
sbs(I-9
I4
tp304
g0
(g9
g2
Ntp305
Rp306
(dp307
g13
I00
sg14
F-0.38193428242921335
sg15
g304
sbs(I356
I8
tp308
g0
(g9
g2
Ntp309
Rp310
(dp311
g13
I01
sg14
F3.1438738101797994
sg15
g308
sbs(I-2
I3
tp312
g0
(g9
g2
Ntp313
Rp314
(dp315
g13
I00
sg14
F-4.011752765510311
sg15
g312
sbs(I-3
I9
tp316
g0
(g9
g2
Ntp317
Rp318
(dp319
g13
I01
sg14
F-0.10306540518320435
sg15
g316
sbs(I-5
I1491
tp320
g0
(g9
g2
Ntp321
Rp322
(dp323
g13
I00
sg14
F-0.9835976778470396
sg15
g320
sbs(I-7
I8
tp324
g0
(g9
g2
Ntp325
Rp326
(dp327
g13
I00
sg14
F0.5684040766160141
sg15
g324
sbs(I-10
I2
tp328
g0
(g9
g2
Ntp329
Rp330
(dp331
g13
I01
sg14
F0.9637081469771099
sg15
g328
sbs(I6
I6
tp332
g0
(g9
g2
Ntp333
Rp334
(dp335
g13
I01
sg14
F1.7790292758523305
sg15
g332
sbs(I7
I7
tp336
g0
(g9
g2
Ntp337
Rp338
(dp339
g13
I00
sg14
F-1.0566847732045732
sg15
g336
sbs(I-1
I8
tp340
g0
(g9
g2
Ntp341
Rp342
(dp343
g13
I01
sg14
F-2.4579012701774845
sg15
g340
sbs(I3
I3
tp344
g0
(g9
g2
Ntp345
Rp346
(dp347
g13
I01
sg14
F0.3464577279839688
sg15
g344
sbs(I-6
I0
tp348
g0
(g9
g2
Ntp349
Rp350
(dp351
g13
I01
sg14
F0.07237770419583558
sg15
g348
sbs(I-3
I2
tp352
g0
(g9
g2
Ntp353
Rp354
(dp355
g13
I00
sg14
F-1.6318117672442949
sg15
g352
sbs(I5
I1761
tp356
g0
(g9
g2
Ntp357
Rp358
(dp359
g13
I00
sg14
F-1.8707433899057617
sg15
g356
sbs(I1491
I1
tp360
g0
(g9
g2
Ntp361
Rp362
(dp363
g13
I01
sg14
F11.78952973782598
sg15
g360
sbs(I-8
I7
tp364
g0
(g9
g2
Ntp365
Rp366
(dp367
g13
I00
sg14
F3.3056407531657843
sg15
g364
sbs(I4122
I0
tp368
g0
(g9
g2
Ntp369
Rp370
(dp371
g13
I01
sg14
F-0.10079654912444502
sg15
g368
sbs(I4
I356
tp372
g0
(g9
g2
Ntp373
Rp374
(dp375
g13
I00
sg14
F0.7346375921939776
sg15
g372
sbs(I-10
I5
tp376
g0
(g9
g2
Ntp377
Rp378
(dp379
g13
I00
sg14
F-0.07401373614704765
sg15
g376
sbs(I-6
I5
tp380
g0
(g9
g2
Ntp381
Rp382
(dp383
g13
I01
sg14
F-2.769604067556161
sg15
g380
sbs(I-9
I0
tp384
g0
(g9
g2
Ntp385
Rp386
(dp387
g13
I00
sg14
F0.08598857874888505
sg15
g384
sbs(I-10
I8
tp388
g0
(g9
g2
Ntp389
Rp390
(dp391
g13
I00
sg14
F-2.6595875388234136
sg15
g388
sbs(I-4
I0
tp392
g0
(g9
g2
Ntp393
Rp394
(dp395
g13
I00
sg14
F-2.7669362829361672
sg15
g392
sbs(I-5
I8
tp396
g0
(g9
g2
Ntp397
Rp398
(dp399
g13
I00
sg14
F1.300479547852221
sg15
g396
sbs(I-2
I7
tp400
g0
(g9
g2
Ntp401
Rp402
(dp403
g13
I00
sg14
F-1.4878939353071798
sg15
g400
sbs(I-3
I5
tp404
g0
(g9
g2
Ntp405
Rp406
(dp407
g13
I01
sg14
F-0.3942862631871157
sg15
g404
sbs(I356
I7
tp408
g0
(g9
g2
Ntp409
Rp410
(dp411
g13
I01
sg14
F4.7056091938746825
sg15
g408
sbs(I-6
I6
tp412
g0
(g9
g2
Ntp413
Rp414
(dp415
g13
I01
sg14
F-0.8543139740014564
sg15
g412
sbs(I-8
I4
tp416
g0
(g9
g2
Ntp417
Rp418
(dp419
g13
I00
sg14
F-0.0040009507754690254
sg15
g416
sbs(I8
I8
tp420
g0
(g9
g2
Ntp421
Rp422
(dp423
g13
I01
sg14
F-0.11332767006216475
sg15
g420
sbs(I-7
I1
tp424
g0
(g9
g2
Ntp425
Rp426
(dp427
g13
I00
sg14
F1.209519994432571
sg15
g424
sbs(I-10
I6
tp428
g0
(g9
g2
Ntp429
Rp430
(dp431
g13
I00
sg14
F-0.06170119075086889
sg15
g428
sbs(I-4
I4122
tp432
g0
(g9
g2
Ntp433
Rp434
(dp435
g13
I01
sg14
F-0.6365255198376305
sg15
g432
sbs(I-5
I2
tp436
g0
(g9
g2
Ntp437
Rp438
(dp439
g13
I00
sg14
F0.031460551834800676
sg15
g436
sbs(I3960
I0
tp440
g0
(g9
g2
Ntp441
Rp442
(dp443
g13
I00
sg14
F1.0672149997054785
sg15
g440
sbssS'nodes'
p444
(dp445
I0
g0
(cneat.genes
DefaultNodeGene
p446
g2
Ntp447
Rp448
(dp449
S'activation'
p450
S'tanh'
p451
sS'bias'
p452
F0.6576989219336938
sS'response'
p453
F1.0
sg15
I0
sS'aggregation'
p454
S'sum'
p455
sbsI1
g0
(g446
g2
Ntp456
Rp457
(dp458
g450
S'relu'
p459
sg452
F8.96186056943962
sg453
F1.0
sg15
I1
sg454
g455
sbsI2
g0
(g446
g2
Ntp460
Rp461
(dp462
g450
g451
sg452
F-40.70806918320525
sg453
F1.0
sg15
I2
sg454
g455
sbsI3
g0
(g446
g2
Ntp463
Rp464
(dp465
g450
g459
sg452
F-17.96651871938894
sg453
F1.0
sg15
I3
sg454
g455
sbsI4
g0
(g446
g2
Ntp466
Rp467
(dp468
g450
g451
sg452
F2.9095093603661786
sg453
F1.0
sg15
I4
sg454
g455
sbsI5
g0
(g446
g2
Ntp469
Rp470
(dp471
g450
g459
sg452
F3.5059401874796037
sg453
F1.0
sg15
I5
sg454
g455
sbsI6
g0
(g446
g2
Ntp472
Rp473
(dp474
g450
g451
sg452
F-14.360039197681601
sg453
F1.0
sg15
I6
sg454
g455
sbsI7
g0
(g446
g2
Ntp475
Rp476
(dp477
g450
g459
sg452
F3.6964454262337387
sg453
F1.0
sg15
I7
sg454
g455
sbsI8
g0
(g446
g2
Ntp478
Rp479
(dp480
g450
g451
sg452
F-1.0565170504711046
sg453
F1.0
sg15
I8
sg454
g455
sbsI9
g0
(g446
g2
Ntp481
Rp482
(dp483
g450
g451
sg452
F10.790550504959532
sg453
F1.0
sg15
I9
sg454
g455
sbsI3850
g0
(g446
g2
Ntp484
Rp485
(dp486
g450
g459
sg452
F-5.396976239639318
sg453
F1.0
sg15
I3850
sg454
g455
sbsI3985
g0
(g446
g2
Ntp487
Rp488
(dp489
g450
g459
sg452
F-2.8666786856886213
sg453
F1.0
sg15
I3985
sg454
g455
sbsI4122
g0
(g446
g2
Ntp490
Rp491
(dp492
g450
g451
sg452
F22.366013953003645
sg453
F1.0
sg15
I4122
sg454
g455
sbsI4016
g0
(g446
g2
Ntp493
Rp494
(dp495
g450
g459
sg452
F2.1745498057382147
sg453
F1.0
sg15
I4016
sg454
g455
sbsI4272
g0
(g446
g2
Ntp496
Rp497
(dp498
g450
g459
sg452
F-22.294111958985738
sg453
F1.0
sg15
I4272
sg454
g455
sbsI4040
g0
(g446
g2
Ntp499
Rp500
(dp501
g450
g459
sg452
F0.4414175603603214
sg453
F1.0
sg15
I4040
sg454
g455
sbsI1491
g0
(g446
g2
Ntp502
Rp503
(dp504
g450
g459
sg452
F21.375618803681114
sg453
F1.0
sg15
I1491
sg454
g455
sbsI4055
g0
(g446
g2
Ntp505
Rp506
(dp507
g450
g459
sg452
F4.944099806710646
sg453
F1.0
sg15
I4055
sg454
g455
sbsI1761
g0
(g446
g2
Ntp508
Rp509
(dp510
g450
g451
sg452
F-15.614140048172025
sg453
F1.0
sg15
I1761
sg454
g455
sbsI356
g0
(g446
g2
Ntp511
Rp512
(dp513
g450
g459
sg452
F14.479134574526242
sg453
F1.0
sg15
I356
sg454
g455
sbsI4113
g0
(g446
g2
Ntp514
Rp515
(dp516
g450
g451
sg452
F-11.745914138584565
sg453
F1.0
sg15
I4113
sg454
g455
sbsI4341
g0
(g446
g2
Ntp517
Rp518
(dp519
g450
g459
sg452
F-0.372258832231924
sg453
F1.0
sg15
I4341
sg454
g455
sbsI3960
g0
(g446
g2
Ntp520
Rp521
(dp522
g450
g459
sg452
F-0.5129441791529088
sg453
F1.0
sg15
I3960
sg454
g455
sbssg15
I21432
sS'fitness'
p523
Nsb.