ccopy_reg
_reconstructor
p0
(cneat.genome
DefaultGenome
p1
c__builtin__
object
p2
Ntp3
Rp4
(dp5
S'connections'
p6
(dp7
(I31
I6
tp8
g0
(cneat.genes
DefaultConnectionGene
p9
g2
Ntp10
Rp11
(dp12
S'enabled'
p13
I01
sS'weight'
p14
F-0.4194363439997054
sS'key'
p15
g8
sbs(I-18
I31
tp16
g0
(g9
g2
Ntp17
Rp18
(dp19
g13
I01
sg14
F-3.1837471239433333
sg15
g16
sbs(I31
I9
tp20
g0
(g9
g2
Ntp21
Rp22
(dp23
g13
I01
sg14
F0.7758951804845261
sg15
g20
sbs(I-3
I31
tp24
g0
(g9
g2
Ntp25
Rp26
(dp27
g13
I01
sg14
F0.5374122588887985
sg15
g24
sbs(I-11
I31
tp28
g0
(g9
g2
Ntp29
Rp30
(dp31
g13
I01
sg14
F0.6455408793418802
sg15
g28
sbs(I-14
I31
tp32
g0
(g9
g2
Ntp33
Rp34
(dp35
g13
I01
sg14
F1.3728112475584688
sg15
g32
sbs(I31
I1
tp36
g0
(g9
g2
Ntp37
Rp38
(dp39
g13
I01
sg14
F0.4319683530485631
sg15
g36
sbs(I-4
I31
tp40
g0
(g9
g2
Ntp41
Rp42
(dp43
g13
I01
sg14
F0.13216459274974324
sg15
g40
sbs(I31
I8
tp44
g0
(g9
g2
Ntp45
Rp46
(dp47
g13
I01
sg14
F2.3512291299280026
sg15
g44
sbs(I-12
I31
tp48
g0
(g9
g2
Ntp49
Rp50
(dp51
g13
I01
sg14
F-0.3382913028342161
sg15
g48
sbs(I31
I5
tp52
g0
(g9
g2
Ntp53
Rp54
(dp55
g13
I01
sg14
F0.014006036382820228
sg15
g52
sbs(I-15
I31
tp56
g0
(g9
g2
Ntp57
Rp58
(dp59
g13
I01
sg14
F-0.3403585043211389
sg15
g56
sbs(I-5
I31
tp60
g0
(g9
g2
Ntp61
Rp62
(dp63
g13
I01
sg14
F1.261153337308212
sg15
g60
sbs(I31
I0
tp64
g0
(g9
g2
Ntp65
Rp66
(dp67
g13
I01
sg14
F1.2461660142575088
sg15
g64
sbs(I-13
I31
tp68
g0
(g9
g2
Ntp69
Rp70
(dp71
g13
I01
sg14
F-1.3356679122474324
sg15
g68
sbs(I-16
I31
tp72
g0
(g9
g2
Ntp73
Rp74
(dp75
g13
I01
sg14
F0.1447930427201762
sg15
g72
sbs(I31
I4
tp76
g0
(g9
g2
Ntp77
Rp78
(dp79
g13
I01
sg14
F-0.4708658301833607
sg15
g76
sbs(I-6
I31
tp80
g0
(g9
g2
Ntp81
Rp82
(dp83
g13
I01
sg14
F0.7796081896685864
sg15
g80
sbs(I31
I3
tp84
g0
(g9
g2
Ntp85
Rp86
(dp87
g13
I01
sg14
F-1.534789685945475
sg15
g84
sbs(I-19
I31
tp88
g0
(g9
g2
Ntp89
Rp90
(dp91
g13
I01
sg14
F-0.5824917586629619
sg15
g88
sbs(I31
I7
tp92
g0
(g9
g2
Ntp93
Rp94
(dp95
g13
I01
sg14
F-1.275509004848987
sg15
g92
sbs(I-9
I31
tp96
g0
(g9
g2
Ntp97
Rp98
(dp99
g13
I01
sg14
F-0.491841816394938
sg15
g96
sbs(I-7
I31
tp100
g0
(g9
g2
Ntp101
Rp102
(dp103
g13
I01
sg14
F-0.6287642495367876
sg15
g100
sbs(I-17
I31
tp104
g0
(g9
g2
Ntp105
Rp106
(dp107
g13
I01
sg14
F-0.15665850908770487
sg15
g104
sbs(I-20
I31
tp108
g0
(g9
g2
Ntp109
Rp110
(dp111
g13
I01
sg14
F0.14905156050168952
sg15
g108
sbs(I-2
I31
tp112
g0
(g9
g2
Ntp113
Rp114
(dp115
g13
I01
sg14
F-2.1365822352160313
sg15
g112
sbs(I-1
I31
tp116
g0
(g9
g2
Ntp117
Rp118
(dp119
g13
I01
sg14
F1.6807145070419032
sg15
g116
sbs(I31
I2
tp120
g0
(g9
g2
Ntp121
Rp122
(dp123
g13
I01
sg14
F0.4350965679922667
sg15
g120
sbs(I-10
I31
tp124
g0
(g9
g2
Ntp125
Rp126
(dp127
g13
I01
sg14
F1.822420381775886
sg15
g124
sbs(I-8
I31
tp128
g0
(g9
g2
Ntp129
Rp130
(dp131
g13
I01
sg14
F0.21881657890363923
sg15
g128
sbssS'nodes'
p132
(dp133
I0
g0
(cneat.genes
DefaultNodeGene
p134
g2
Ntp135
Rp136
(dp137
S'activation'
p138
S'relu'
p139
sS'bias'
p140
F-3.0269818792622702
sS'response'
p141
F1.0
sg15
I0
sS'aggregation'
p142
S'sum'
p143
sbsI1
g0
(g134
g2
Ntp144
Rp145
(dp146
g138
g139
sg140
F6.788841461911352
sg141
F1.0
sg15
I1
sg142
g143
sbsI2
g0
(g134
g2
Ntp147
Rp148
(dp149
g138
g139
sg140
F1.3543486099753186
sg141
F1.0
sg15
I2
sg142
g143
sbsI3
g0
(g134
g2
Ntp150
Rp151
(dp152
g138
g139
sg140
F-10.952842401631193
sg141
F1.0
sg15
I3
sg142
g143
sbsI4
g0
(g134
g2
Ntp153
Rp154
(dp155
g138
g139
sg140
F7.766187927812938
sg141
F1.0
sg15
I4
sg142
g143
sbsI5
g0
(g134
g2
Ntp156
Rp157
(dp158
g138
g139
sg140
F11.838729600096798
sg141
F1.0
sg15
I5
sg142
g143
sbsI6
g0
(g134
g2
Ntp159
Rp160
(dp161
g138
g139
sg140
F8.28571025033404
sg141
F1.0
sg15
I6
sg142
g143
sbsI7
g0
(g134
g2
Ntp162
Rp163
(dp164
g138
g139
sg140
F-0.4131193953062525
sg141
F1.0
sg15
I7
sg142
g143
sbsI8
g0
(g134
g2
Ntp165
Rp166
(dp167
g138
g139
sg140
F-14.519595060831364
sg141
F1.0
sg15
I8
sg142
g143
sbsI9
g0
(g134
g2
Ntp168
Rp169
(dp170
g138
g139
sg140
F-1.9082551969635022
sg141
F1.0
sg15
I9
sg142
g143
sbsI31
g0
(g134
g2
Ntp171
Rp172
(dp173
g138
g139
sg140
F-25.94236738186577
sg141
F1.0
sg15
I31
sg142
g143
sbssg15
I22
sS'fitness'
p174
F0.09754775727941947
sb.