ccopy_reg
_reconstructor
p0
(cneat.genome
DefaultGenome
p1
c__builtin__
object
p2
Ntp3
Rp4
(dp5
S'connections'
p6
(dp7
(I31
I6
tp8
g0
(cneat.genes
DefaultConnectionGene
p9
g2
Ntp10
Rp11
(dp12
S'enabled'
p13
I01
sS'weight'
p14
F-0.012175406098436122
sS'key'
p15
g8
sbs(I-18
I31
tp16
g0
(g9
g2
Ntp17
Rp18
(dp19
g13
I01
sg14
F-0.6029759574258247
sg15
g16
sbs(I31
I9
tp20
g0
(g9
g2
Ntp21
Rp22
(dp23
g13
I01
sg14
F-0.8108158584610439
sg15
g20
sbs(I-3
I31
tp24
g0
(g9
g2
Ntp25
Rp26
(dp27
g13
I01
sg14
F1.1192156260864485
sg15
g24
sbs(I-11
I31
tp28
g0
(g9
g2
Ntp29
Rp30
(dp31
g13
I01
sg14
F0.5504956375824755
sg15
g28
sbs(I-14
I31
tp32
g0
(g9
g2
Ntp33
Rp34
(dp35
g13
I01
sg14
F0.6859496223582988
sg15
g32
sbs(I31
I1
tp36
g0
(g9
g2
Ntp37
Rp38
(dp39
g13
I01
sg14
F1.4658609165326055
sg15
g36
sbs(I-4
I31
tp40
g0
(g9
g2
Ntp41
Rp42
(dp43
g13
I01
sg14
F-0.9195582350854234
sg15
g40
sbs(I31
I8
tp44
g0
(g9
g2
Ntp45
Rp46
(dp47
g13
I01
sg14
F-1.6531731091764479
sg15
g44
sbs(I-12
I31
tp48
g0
(g9
g2
Ntp49
Rp50
(dp51
g13
I01
sg14
F0.7130030461954326
sg15
g48
sbs(I31
I5
tp52
g0
(g9
g2
Ntp53
Rp54
(dp55
g13
I01
sg14
F1.3370307651568938
sg15
g52
sbs(I-15
I31
tp56
g0
(g9
g2
Ntp57
Rp58
(dp59
g13
I01
sg14
F-2.0888508073083285
sg15
g56
sbs(I-5
I31
tp60
g0
(g9
g2
Ntp61
Rp62
(dp63
g13
I01
sg14
F-1.8447213037053256
sg15
g60
sbs(I31
I0
tp64
g0
(g9
g2
Ntp65
Rp66
(dp67
g13
I01
sg14
F-0.05053464010497406
sg15
g64
sbs(I-13
I31
tp68
g0
(g9
g2
Ntp69
Rp70
(dp71
g13
I01
sg14
F0.16314496771238837
sg15
g68
sbs(I-16
I31
tp72
g0
(g9
g2
Ntp73
Rp74
(dp75
g13
I01
sg14
F-0.5611139612345797
sg15
g72
sbs(I31
I4
tp76
g0
(g9
g2
Ntp77
Rp78
(dp79
g13
I01
sg14
F-0.3476426404812602
sg15
g76
sbs(I-6
I31
tp80
g0
(g9
g2
Ntp81
Rp82
(dp83
g13
I01
sg14
F1.0051789217076508
sg15
g80
sbs(I31
I3
tp84
g0
(g9
g2
Ntp85
Rp86
(dp87
g13
I01
sg14
F0.4310823214649629
sg15
g84
sbs(I-19
I31
tp88
g0
(g9
g2
Ntp89
Rp90
(dp91
g13
I01
sg14
F0.3272973561972463
sg15
g88
sbs(I31
I7
tp92
g0
(g9
g2
Ntp93
Rp94
(dp95
g13
I01
sg14
F-0.742620373500416
sg15
g92
sbs(I-9
I31
tp96
g0
(g9
g2
Ntp97
Rp98
(dp99
g13
I01
sg14
F0.2565297024980479
sg15
g96
sbs(I-7
I31
tp100
g0
(g9
g2
Ntp101
Rp102
(dp103
g13
I01
sg14
F3.008963108716193
sg15
g100
sbs(I-17
I31
tp104
g0
(g9
g2
Ntp105
Rp106
(dp107
g13
I01
sg14
F-0.009319646378881488
sg15
g104
sbs(I-20
I31
tp108
g0
(g9
g2
Ntp109
Rp110
(dp111
g13
I01
sg14
F0.8255740930599478
sg15
g108
sbs(I-2
I31
tp112
g0
(g9
g2
Ntp113
Rp114
(dp115
g13
I01
sg14
F-0.470405255649712
sg15
g112
sbs(I-1
I31
tp116
g0
(g9
g2
Ntp117
Rp118
(dp119
g13
I01
sg14
F0.16629269257599152
sg15
g116
sbs(I31
I2
tp120
g0
(g9
g2
Ntp121
Rp122
(dp123
g13
I01
sg14
F-0.33631028687353187
sg15
g120
sbs(I-10
I31
tp124
g0
(g9
g2
Ntp125
Rp126
(dp127
g13
I01
sg14
F-0.6958042512577881
sg15
g124
sbs(I-8
I31
tp128
g0
(g9
g2
Ntp129
Rp130
(dp131
g13
I01
sg14
F0.3795531594846194
sg15
g128
sbssS'nodes'
p132
(dp133
I0
g0
(cneat.genes
DefaultNodeGene
p134
g2
Ntp135
Rp136
(dp137
S'activation'
p138
S'relu'
p139
sS'bias'
p140
F1.9810242051192999
sS'response'
p141
F1.0
sg15
I0
sS'aggregation'
p142
S'sum'
p143
sbsI1
g0
(g134
g2
Ntp144
Rp145
(dp146
g138
g139
sg140
F-13.56174752591282
sg141
F1.0
sg15
I1
sg142
g143
sbsI2
g0
(g134
g2
Ntp147
Rp148
(dp149
g138
g139
sg140
F6.9844796918511145
sg141
F1.0
sg15
I2
sg142
g143
sbsI3
g0
(g134
g2
Ntp150
Rp151
(dp152
g138
g139
sg140
F3.4387943248401323
sg141
F1.0
sg15
I3
sg142
g143
sbsI4
g0
(g134
g2
Ntp153
Rp154
(dp155
g138
g139
sg140
F-11.127574819119621
sg141
F1.0
sg15
I4
sg142
g143
sbsI5
g0
(g134
g2
Ntp156
Rp157
(dp158
g138
g139
sg140
F-8.164945243828827
sg141
F1.0
sg15
I5
sg142
g143
sbsI6
g0
(g134
g2
Ntp159
Rp160
(dp161
g138
g139
sg140
F11.113316518772862
sg141
F1.0
sg15
I6
sg142
g143
sbsI7
g0
(g134
g2
Ntp162
Rp163
(dp164
g138
g139
sg140
F-12.171212078047937
sg141
F1.0
sg15
I7
sg142
g143
sbsI8
g0
(g134
g2
Ntp165
Rp166
(dp167
g138
g139
sg140
F-8.42652822283671
sg141
F1.0
sg15
I8
sg142
g143
sbsI9
g0
(g134
g2
Ntp168
Rp169
(dp170
g138
g139
sg140
F13.669380656467228
sg141
F1.0
sg15
I9
sg142
g143
sbsI31
g0
(g134
g2
Ntp171
Rp172
(dp173
g138
g139
sg140
F13.701434757499024
sg141
F1.0
sg15
I31
sg142
g143
sbssg15
I22
sS'fitness'
p174
Nsb.