ccopy_reg
_reconstructor
p0
(cneat.genome
DefaultGenome
p1
c__builtin__
object
p2
Ntp3
Rp4
(dp5
S'connections'
p6
(dp7
(I-2
I0
tp8
g0
(cneat.genes
DefaultConnectionGene
p9
g2
Ntp10
Rp11
(dp12
S'enabled'
p13
I00
sS'weight'
p14
F-0.1299804808141492
sS'key'
p15
g8
sbs(I-3
I8
tp16
g0
(g9
g2
Ntp17
Rp18
(dp19
g13
I00
sg14
F0.5417515532110285
sg15
g16
sbs(I-1
I310
tp20
g0
(g9
g2
Ntp21
Rp22
(dp23
g13
I01
sg14
F-2.6138813066917255
sg15
g20
sbs(I-2
I2
tp24
g0
(g9
g2
Ntp25
Rp26
(dp27
g13
I01
sg14
F-2.8524287499973866
sg15
g24
sbs(I-8
I1
tp28
g0
(g9
g2
Ntp29
Rp30
(dp31
g13
I01
sg14
F1.1259565818802764
sg15
g28
sbs(I9
I4024
tp32
g0
(g9
g2
Ntp33
Rp34
(dp35
g13
I01
sg14
F1.630286376995091
sg15
g32
sbs(I-1
I0
tp36
g0
(g9
g2
Ntp37
Rp38
(dp39
g13
I01
sg14
F0.49837745884446927
sg15
g36
sbs(I-7
I9
tp40
g0
(g9
g2
Ntp41
Rp42
(dp43
g13
I00
sg14
F-0.8812314894741828
sg15
g40
sbs(I-5
I1
tp44
g0
(g9
g2
Ntp45
Rp46
(dp47
g13
I00
sg14
F-0.6138415611404657
sg15
g44
sbs(I-4
I4320
tp48
g0
(g9
g2
Ntp49
Rp50
(dp51
g13
I01
sg14
F0.7587664767997262
sg15
g48
sbs(I-7
I310
tp52
g0
(g9
g2
Ntp53
Rp54
(dp55
g13
I01
sg14
F-1.075447795688513
sg15
g52
sbs(I-1
I4024
tp56
g0
(g9
g2
Ntp57
Rp58
(dp59
g13
I01
sg14
F-0.7760952593330908
sg15
g56
sbs(I4031
I1
tp60
g0
(g9
g2
Ntp61
Rp62
(dp63
g13
I01
sg14
F0.03227679385603244
sg15
g60
sbs(I-6
I1
tp64
g0
(g9
g2
Ntp65
Rp66
(dp67
g13
I00
sg14
F-0.37579049249941926
sg15
g64
sbs(I-9
I9
tp68
g0
(g9
g2
Ntp69
Rp70
(dp71
g13
I00
sg14
F-1.5134822785316075
sg15
g68
sbs(I-3
I1
tp72
g0
(g9
g2
Ntp73
Rp74
(dp75
g13
I00
sg14
F3.3687521458433434
sg15
g72
sbs(I310
I3845
tp76
g0
(g9
g2
Ntp77
Rp78
(dp79
g13
I01
sg14
F0.766168730294003
sg15
g76
sbs(I-8
I8
tp80
g0
(g9
g2
Ntp81
Rp82
(dp83
g13
I00
sg14
F1.3352299379589465
sg15
g80
sbs(I-7
I5
tp84
g0
(g9
g2
Ntp85
Rp86
(dp87
g13
I00
sg14
F1.3005050597877443
sg15
g84
sbs(I-6
I310
tp88
g0
(g9
g2
Ntp89
Rp90
(dp91
g13
I00
sg14
F0.9097140569279762
sg15
g88
sbs(I9
I9
tp92
g0
(g9
g2
Ntp93
Rp94
(dp95
g13
I00
sg14
F-0.8252540781558522
sg15
g92
sbs(I-6
I2
tp96
g0
(g9
g2
Ntp97
Rp98
(dp99
g13
I01
sg14
F-0.459446309504121
sg15
g96
sbs(I-9
I3
tp100
g0
(g9
g2
Ntp101
Rp102
(dp103
g13
I01
sg14
F3.270778609706919
sg15
g100
sbs(I-4
I1
tp104
g0
(g9
g2
Ntp105
Rp106
(dp107
g13
I00
sg14
F-0.19135706046017648
sg15
g104
sbs(I-1
I4
tp108
g0
(g9
g2
Ntp109
Rp110
(dp111
g13
I01
sg14
F1.7674137907572645
sg15
g108
sbs(I-1
I3931
tp112
g0
(g9
g2
Ntp113
Rp114
(dp115
g13
I01
sg14
F2.4465315786131523
sg15
g112
sbs(I-1
I5
tp116
g0
(g9
g2
Ntp117
Rp118
(dp119
g13
I01
sg14
F-0.9377685309447779
sg15
g116
sbs(I-5
I5
tp120
g0
(g9
g2
Ntp121
Rp122
(dp123
g13
I00
sg14
F-0.13108732304625037
sg15
g120
sbs(I-6
I7
tp124
g0
(g9
g2
Ntp125
Rp126
(dp127
g13
I00
sg14
F-2.5524302613851306
sg15
g124
sbs(I-10
I3861
tp128
g0
(g9
g2
Ntp129
Rp130
(dp131
g13
I00
sg14
F-2.052132773433547
sg15
g128
sbs(I-2
I1
tp132
g0
(g9
g2
Ntp133
Rp134
(dp135
g13
I00
sg14
F4.2119529069738935
sg15
g132
sbs(I2
I2
tp136
g0
(g9
g2
Ntp137
Rp138
(dp139
g13
I01
sg14
F0.17272208991362437
sg15
g136
sbs(I-7
I3
tp140
g0
(g9
g2
Ntp141
Rp142
(dp143
g13
I01
sg14
F0.7746374582635428
sg15
g140
sbs(I-10
I0
tp144
g0
(g9
g2
Ntp145
Rp146
(dp147
g13
I01
sg14
F-0.025755334923570516
sg15
g144
sbs(I-5
I0
tp148
g0
(g9
g2
Ntp149
Rp150
(dp151
g13
I01
sg14
F1.114302897043217
sg15
g148
sbs(I-9
I5
tp152
g0
(g9
g2
Ntp153
Rp154
(dp155
g13
I00
sg14
F-3.217786794803703
sg15
g152
sbs(I-1
I2
tp156
g0
(g9
g2
Ntp157
Rp158
(dp159
g13
I00
sg14
F-1.3169393982649609
sg15
g156
sbs(I310
I7
tp160
g0
(g9
g2
Ntp161
Rp162
(dp163
g13
I01
sg14
F5.137019701792857
sg15
g160
sbs(I-2
I4
tp164
g0
(g9
g2
Ntp165
Rp166
(dp167
g13
I00
sg14
F0.36015362874136453
sg15
g164
sbs(I-3
I3845
tp168
g0
(g9
g2
Ntp169
Rp170
(dp171
g13
I01
sg14
F-1.923518682849843
sg15
g168
sbs(I2
I3861
tp172
g0
(g9
g2
Ntp173
Rp174
(dp175
g13
I01
sg14
F-0.6003692425439009
sg15
g172
sbs(I-9
I8
tp176
g0
(g9
g2
Ntp177
Rp178
(dp179
g13
I00
sg14
F2.056529309395505
sg15
g176
sbs(I-1
I8
tp180
g0
(g9
g2
Ntp181
Rp182
(dp183
g13
I01
sg14
F-2.4172985869228754
sg15
g180
sbs(I-3
I0
tp184
g0
(g9
g2
Ntp185
Rp186
(dp187
g13
I00
sg14
F-1.3980154710244126
sg15
g184
sbs(I-4
I8
tp188
g0
(g9
g2
Ntp189
Rp190
(dp191
g13
I00
sg14
F-0.5919166972043698
sg15
g188
sbs(I-8
I9
tp192
g0
(g9
g2
Ntp193
Rp194
(dp195
g13
I01
sg14
F1.4194099452451332
sg15
g192
sbs(I-7
I4
tp196
g0
(g9
g2
Ntp197
Rp198
(dp199
g13
I01
sg14
F1.350848311720757
sg15
g196
sbs(I1
I4024
tp200
g0
(g9
g2
Ntp201
Rp202
(dp203
g13
I00
sg14
F-1.4444393335665204
sg15
g200
sbs(I-3
I4094
tp204
g0
(g9
g2
Ntp205
Rp206
(dp207
g13
I01
sg14
F-0.6032572497212687
sg15
g204
sbs(I-6
I3
tp208
g0
(g9
g2
Ntp209
Rp210
(dp211
g13
I00
sg14
F2.333153661722807
sg15
g208
sbs(I-9
I2
tp212
g0
(g9
g2
Ntp213
Rp214
(dp215
g13
I00
sg14
F-2.1940605201673193
sg15
g212
sbs(I4094
I5
tp216
g0
(g9
g2
Ntp217
Rp218
(dp219
g13
I01
sg14
F0.4476176836206315
sg15
g216
sbs(I4320
I4
tp220
g0
(g9
g2
Ntp221
Rp222
(dp223
g13
I00
sg14
F1.122165490956621
sg15
g220
sbs(I-8
I6
tp224
g0
(g9
g2
Ntp225
Rp226
(dp227
g13
I01
sg14
F-0.6438646745900733
sg15
g224
sbs(I-6
I9
tp228
g0
(g9
g2
Ntp229
Rp230
(dp231
g13
I00
sg14
F-0.8860852848660037
sg15
g228
sbs(I-7
I7
tp232
g0
(g9
g2
Ntp233
Rp234
(dp235
g13
I00
sg14
F-0.2667232877714403
sg15
g232
sbs(I3931
I8
tp236
g0
(g9
g2
Ntp237
Rp238
(dp239
g13
I00
sg14
F0.014949650923867908
sg15
g236
sbs(I-2
I9
tp240
g0
(g9
g2
Ntp241
Rp242
(dp243
g13
I00
sg14
F-4.050617491876196
sg15
g240
sbs(I-1
I6
tp244
g0
(g9
g2
Ntp245
Rp246
(dp247
g13
I01
sg14
F0.15916080447177122
sg15
g244
sbs(I-3
I6
tp248
g0
(g9
g2
Ntp249
Rp250
(dp251
g13
I00
sg14
F1.1966176430690882
sg15
g248
sbs(I-8
I3
tp252
g0
(g9
g2
Ntp253
Rp254
(dp255
g13
I01
sg14
F-2.280456913653566
sg15
g252
sbs(I-6
I3861
tp256
g0
(g9
g2
Ntp257
Rp258
(dp259
g13
I01
sg14
F-0.3277211624816087
sg15
g256
sbs(I-7
I2
tp260
g0
(g9
g2
Ntp261
Rp262
(dp263
g13
I01
sg14
F-1.9468241032423705
sg15
g260
sbs(I-10
I1
tp264
g0
(g9
g2
Ntp265
Rp266
(dp267
g13
I00
sg14
F-1.5803501809065883
sg15
g264
sbs(I-10
I4031
tp268
g0
(g9
g2
Ntp269
Rp270
(dp271
g13
I01
sg14
F1.25737920049233
sg15
g268
sbs(I-5
I3
tp272
g0
(g9
g2
Ntp273
Rp274
(dp275
g13
I00
sg14
F-1.227916599083455
sg15
g272
sbs(I-4
I4
tp276
g0
(g9
g2
Ntp277
Rp278
(dp279
g13
I00
sg14
F2.716676536992506
sg15
g276
sbs(I-7
I4094
tp280
g0
(g9
g2
Ntp281
Rp282
(dp283
g13
I00
sg14
F2.3105927320041424
sg15
g280
sbs(I-5
I3861
tp284
g0
(g9
g2
Ntp285
Rp286
(dp287
g13
I00
sg14
F-0.12674725644462992
sg15
g284
sbs(I-2
I3
tp288
g0
(g9
g2
Ntp289
Rp290
(dp291
g13
I00
sg14
F-0.04476870297549915
sg15
g288
sbs(I-3
I9
tp292
g0
(g9
g2
Ntp293
Rp294
(dp295
g13
I01
sg14
F0.14816684751150583
sg15
g292
sbs(I1
I1
tp296
g0
(g9
g2
Ntp297
Rp298
(dp299
g13
I00
sg14
F-0.17974814301921094
sg15
g296
sbs(I-7
I8
tp300
g0
(g9
g2
Ntp301
Rp302
(dp303
g13
I00
sg14
F0.4695363123033577
sg15
g300
sbs(I-1
I9
tp304
g0
(g9
g2
Ntp305
Rp306
(dp307
g13
I00
sg14
F-0.38580804855655504
sg15
g304
sbs(I-4
I9
tp308
g0
(g9
g2
Ntp309
Rp310
(dp311
g13
I01
sg14
F-0.2231407103962521
sg15
g308
sbs(I7
I7
tp312
g0
(g9
g2
Ntp313
Rp314
(dp315
g13
I01
sg14
F-0.3659462782703043
sg15
g312
sbs(I4374
I9
tp316
g0
(g9
g2
Ntp317
Rp318
(dp319
g13
I01
sg14
F-2.0246307187921855
sg15
g316
sbs(I310
I1
tp320
g0
(g9
g2
Ntp321
Rp322
(dp323
g13
I01
sg14
F11.801779600133921
sg15
g320
sbs(I-6
I0
tp324
g0
(g9
g2
Ntp325
Rp326
(dp327
g13
I00
sg14
F-1.1418203744043036
sg15
g324
sbs(I4
I4
tp328
g0
(g9
g2
Ntp329
Rp330
(dp331
g13
I01
sg14
F0.7285752344319202
sg15
g328
sbs(I3861
I8
tp332
g0
(g9
g2
Ntp333
Rp334
(dp335
g13
I00
sg14
F-2.016613033847017
sg15
g332
sbs(I4024
I4
tp336
g0
(g9
g2
Ntp337
Rp338
(dp339
g13
I01
sg14
F-1.7176715980242103
sg15
g336
sbs(I0
I0
tp340
g0
(g9
g2
Ntp341
Rp342
(dp343
g13
I01
sg14
F2.5426953784150523
sg15
g340
sbs(I-8
I7
tp344
g0
(g9
g2
Ntp345
Rp346
(dp347
g13
I01
sg14
F2.8838950729075683
sg15
g344
sbs(I-7
I6
tp348
g0
(g9
g2
Ntp349
Rp350
(dp351
g13
I01
sg14
F0.23237115930146435
sg15
g348
sbs(I-1
I1
tp352
g0
(g9
g2
Ntp353
Rp354
(dp355
g13
I01
sg14
F3.519650609609528
sg15
g352
sbs(I-10
I5
tp356
g0
(g9
g2
Ntp357
Rp358
(dp359
g13
I00
sg14
F-3.420614031693389
sg15
g356
sbs(I-5
I7
tp360
g0
(g9
g2
Ntp361
Rp362
(dp363
g13
I01
sg14
F-1.2471091808490418
sg15
g360
sbs(I-6
I5
tp364
g0
(g9
g2
Ntp365
Rp366
(dp367
g13
I00
sg14
F-1.439989951054909
sg15
g364
sbs(I-9
I0
tp368
g0
(g9
g2
Ntp369
Rp370
(dp371
g13
I00
sg14
F-0.8959897818124286
sg15
g368
sbs(I-10
I8
tp372
g0
(g9
g2
Ntp373
Rp374
(dp375
g13
I01
sg14
F1.4796063294269606
sg15
g372
sbs(I-4
I0
tp376
g0
(g9
g2
Ntp377
Rp378
(dp379
g13
I01
sg14
F-3.1364170450246447
sg15
g376
sbs(I-5
I8
tp380
g0
(g9
g2
Ntp381
Rp382
(dp383
g13
I00
sg14
F0.1914182174015675
sg15
g380
sbs(I-2
I7
tp384
g0
(g9
g2
Ntp385
Rp386
(dp387
g13
I01
sg14
F1.9364913326972868
sg15
g384
sbs(I-3
I5
tp388
g0
(g9
g2
Ntp389
Rp390
(dp391
g13
I01
sg14
F-0.0449923094593897
sg15
g388
sbs(I-2
I5
tp392
g0
(g9
g2
Ntp393
Rp394
(dp395
g13
I01
sg14
F1.1074314392849813
sg15
g392
sbs(I-8
I4
tp396
g0
(g9
g2
Ntp397
Rp398
(dp399
g13
I00
sg14
F-0.4149420180690511
sg15
g396
sbs(I-7
I1
tp400
g0
(g9
g2
Ntp401
Rp402
(dp403
g13
I01
sg14
F-0.09934710453613893
sg15
g400
sbs(I-5
I2
tp404
g0
(g9
g2
Ntp405
Rp406
(dp407
g13
I00
sg14
F-4.187979060302202
sg15
g404
sbs(I-6
I6
tp408
g0
(g9
g2
Ntp409
Rp410
(dp411
g13
I01
sg14
F-0.2522717984488998
sg15
g408
sbssS'nodes'
p412
(dp413
I0
g0
(cneat.genes
DefaultNodeGene
p414
g2
Ntp415
Rp416
(dp417
S'activation'
p418
S'tanh'
p419
sS'bias'
p420
F-5.606772422686772
sS'response'
p421
F1.0
sg15
I0
sS'aggregation'
p422
S'sum'
p423
sbsI1
g0
(g414
g2
Ntp424
Rp425
(dp426
g418
S'relu'
p427
sg420
F-7.973371794859359
sg421
F1.0
sg15
I1
sg422
g423
sbsI2
g0
(g414
g2
Ntp428
Rp429
(dp430
g418
g419
sg420
F23.090178431794683
sg421
F1.0
sg15
I2
sg422
g423
sbsI3
g0
(g414
g2
Ntp431
Rp432
(dp433
g418
g419
sg420
F-1.0753234983917082
sg421
F1.0
sg15
I3
sg422
g423
sbsI4
g0
(g414
g2
Ntp434
Rp435
(dp436
g418
g427
sg420
F15.599135186687844
sg421
F1.0
sg15
I4
sg422
g423
sbsI5
g0
(g414
g2
Ntp437
Rp438
(dp439
g418
g419
sg420
F-4.975195014059022
sg421
F1.0
sg15
I5
sg422
g423
sbsI6
g0
(g414
g2
Ntp440
Rp441
(dp442
g418
g419
sg420
F14.116993757277951
sg421
F1.0
sg15
I6
sg422
g423
sbsI7
g0
(g414
g2
Ntp443
Rp444
(dp445
g418
g427
sg420
F10.463624076717657
sg421
F1.0
sg15
I7
sg422
g423
sbsI8
g0
(g414
g2
Ntp446
Rp447
(dp448
g418
g427
sg420
F20.156220717939068
sg421
F1.0
sg15
I8
sg422
g423
sbsI9
g0
(g414
g2
Ntp449
Rp450
(dp451
g418
g419
sg420
F7.6325328743095575
sg421
F1.0
sg15
I9
sg422
g423
sbsI4320
g0
(g414
g2
Ntp452
Rp453
(dp454
g418
g427
sg420
F-9.206468340292226
sg421
F1.0
sg15
I4320
sg422
g423
sbsI310
g0
(g414
g2
Ntp455
Rp456
(dp457
g418
g427
sg420
F14.856629603180071
sg421
F1.0
sg15
I310
sg422
g423
sbsI3845
g0
(g414
g2
Ntp458
Rp459
(dp460
g418
g419
sg420
F0.7712453257348537
sg421
F1.0
sg15
I3845
sg422
g423
sbsI3861
g0
(g414
g2
Ntp461
Rp462
(dp463
g418
g427
sg420
F-4.238682697470745
sg421
F1.0
sg15
I3861
sg422
g423
sbsI4374
g0
(g414
g2
Ntp464
Rp465
(dp466
g418
g427
sg420
F-11.901380935336807
sg421
F1.0
sg15
I4374
sg422
g423
sbsI4024
g0
(g414
g2
Ntp467
Rp468
(dp469
g418
g419
sg420
F-3.328488603913539
sg421
F1.0
sg15
I4024
sg422
g423
sbsI3931
g0
(g414
g2
Ntp470
Rp471
(dp472
g418
g427
sg420
F22.037474292735784
sg421
F1.0
sg15
I3931
sg422
g423
sbsI4094
g0
(g414
g2
Ntp473
Rp474
(dp475
g418
g427
sg420
F-21.85941222161122
sg421
F1.0
sg15
I4094
sg422
g423
sbsI4031
g0
(g414
g2
Ntp476
Rp477
(dp478
g418
g419
sg420
F-11.462560257252324
sg421
F1.0
sg15
I4031
sg422
g423
sbssg15
I22373
sS'fitness'
p479
Nsb.