ccopy_reg
_reconstructor
p0
(cneat.genome
DefaultGenome
p1
c__builtin__
object
p2
Ntp3
Rp4
(dp5
S'connections'
p6
(dp7
(I-4
I5
tp8
g0
(cneat.genes
DefaultConnectionGene
p9
g2
Ntp10
Rp11
(dp12
S'enabled'
p13
I00
sS'weight'
p14
F2.7457079107887856
sS'key'
p15
g8
sbs(I-2
I0
tp16
g0
(g9
g2
Ntp17
Rp18
(dp19
g13
I00
sg14
F-2.0916967588895052
sg15
g16
sbs(I-3
I8
tp20
g0
(g9
g2
Ntp21
Rp22
(dp23
g13
I00
sg14
F-0.5872426844982945
sg15
g20
sbs(I-1
I310
tp24
g0
(g9
g2
Ntp25
Rp26
(dp27
g13
I01
sg14
F0.06152831471368414
sg15
g24
sbs(I-2
I2
tp28
g0
(g9
g2
Ntp29
Rp30
(dp31
g13
I01
sg14
F1.3201509681657337
sg15
g28
sbs(I-8
I1
tp32
g0
(g9
g2
Ntp33
Rp34
(dp35
g13
I00
sg14
F0.3993735323242711
sg15
g32
sbs(I-1
I0
tp36
g0
(g9
g2
Ntp37
Rp38
(dp39
g13
I00
sg14
F1.6348200265621111
sg15
g36
sbs(I-5
I1
tp40
g0
(g9
g2
Ntp41
Rp42
(dp43
g13
I00
sg14
F0.10178534819621737
sg15
g40
sbs(I4316
I310
tp44
g0
(g9
g2
Ntp45
Rp46
(dp47
g13
I00
sg14
F0.27166187114146756
sg15
g44
sbs(I3734
I7
tp48
g0
(g9
g2
Ntp49
Rp50
(dp51
g13
I01
sg14
F0.3864775458432764
sg15
g48
sbs(I-7
I310
tp52
g0
(g9
g2
Ntp53
Rp54
(dp55
g13
I00
sg14
F1.3882280497782042
sg15
g52
sbs(I1
I1
tp56
g0
(g9
g2
Ntp57
Rp58
(dp59
g13
I00
sg14
F1.1937888434712332
sg15
g56
sbs(I-6
I1
tp60
g0
(g9
g2
Ntp61
Rp62
(dp63
g13
I01
sg14
F0.516027434047958
sg15
g60
sbs(I-9
I9
tp64
g0
(g9
g2
Ntp65
Rp66
(dp67
g13
I01
sg14
F0.08940903060097294
sg15
g64
sbs(I-3
I1
tp68
g0
(g9
g2
Ntp69
Rp70
(dp71
g13
I00
sg14
F1.3917155310204894
sg15
g68
sbs(I-8
I8
tp72
g0
(g9
g2
Ntp73
Rp74
(dp75
g13
I01
sg14
F-1.092050921587151
sg15
g72
sbs(I-7
I5
tp76
g0
(g9
g2
Ntp77
Rp78
(dp79
g13
I01
sg14
F-0.30639905776187554
sg15
g76
sbs(I-6
I310
tp80
g0
(g9
g2
Ntp81
Rp82
(dp83
g13
I00
sg14
F-0.40274307214369176
sg15
g80
sbs(I9
I9
tp84
g0
(g9
g2
Ntp85
Rp86
(dp87
g13
I00
sg14
F-5.4072721066290175
sg15
g84
sbs(I-6
I2
tp88
g0
(g9
g2
Ntp89
Rp90
(dp91
g13
I00
sg14
F-0.3729555593775177
sg15
g88
sbs(I-9
I3
tp92
g0
(g9
g2
Ntp93
Rp94
(dp95
g13
I00
sg14
F1.4464955548002871
sg15
g92
sbs(I-4
I1
tp96
g0
(g9
g2
Ntp97
Rp98
(dp99
g13
I01
sg14
F0.6201457235588281
sg15
g96
sbs(I-2
I4
tp100
g0
(g9
g2
Ntp101
Rp102
(dp103
g13
I00
sg14
F-1.5772138022242888
sg15
g100
sbs(I-2
I5
tp104
g0
(g9
g2
Ntp105
Rp106
(dp107
g13
I01
sg14
F0.19243084771504249
sg15
g104
sbs(I-3
I3734
tp108
g0
(g9
g2
Ntp109
Rp110
(dp111
g13
I01
sg14
F0.44345622632606535
sg15
g108
sbs(I-5
I5
tp112
g0
(g9
g2
Ntp113
Rp114
(dp115
g13
I00
sg14
F2.9431798485341267
sg15
g112
sbs(I-6
I7
tp116
g0
(g9
g2
Ntp117
Rp118
(dp119
g13
I00
sg14
F-3.6154738320998376
sg15
g116
sbs(I-9
I6
tp120
g0
(g9
g2
Ntp121
Rp122
(dp123
g13
I01
sg14
F-0.24439551055480546
sg15
g120
sbs(I-1
I1
tp124
g0
(g9
g2
Ntp125
Rp126
(dp127
g13
I01
sg14
F-0.7847526933956268
sg15
g124
sbs(I-4
I4335
tp128
g0
(g9
g2
Ntp129
Rp130
(dp131
g13
I00
sg14
F0.32647848428038906
sg15
g128
sbs(I2
I2
tp132
g0
(g9
g2
Ntp133
Rp134
(dp135
g13
I00
sg14
F-1.728446693392378
sg15
g132
sbs(I-7
I3
tp136
g0
(g9
g2
Ntp137
Rp138
(dp139
g13
I01
sg14
F-3.3523919870471026
sg15
g136
sbs(I-5
I0
tp140
g0
(g9
g2
Ntp141
Rp142
(dp143
g13
I01
sg14
F0.09715321477128108
sg15
g140
sbs(I-9
I5
tp144
g0
(g9
g2
Ntp145
Rp146
(dp147
g13
I00
sg14
F0.4273929844070986
sg15
g144
sbs(I-1
I2
tp148
g0
(g9
g2
Ntp149
Rp150
(dp151
g13
I00
sg14
F-1.3131157519092664
sg15
g148
sbs(I310
I7
tp152
g0
(g9
g2
Ntp153
Rp154
(dp155
g13
I01
sg14
F6.148793301620673
sg15
g152
sbs(I-1
I4
tp156
g0
(g9
g2
Ntp157
Rp158
(dp159
g13
I00
sg14
F-1.1238576765350101
sg15
g156
sbs(I-7
I9
tp160
g0
(g9
g2
Ntp161
Rp162
(dp163
g13
I00
sg14
F-0.17237534672826044
sg15
g160
sbs(I-9
I8
tp164
g0
(g9
g2
Ntp165
Rp166
(dp167
g13
I00
sg14
F0.07612858005768741
sg15
g164
sbs(I-2
I8
tp168
g0
(g9
g2
Ntp169
Rp170
(dp171
g13
I00
sg14
F2.367004983612799
sg15
g168
sbs(I-3
I0
tp172
g0
(g9
g2
Ntp173
Rp174
(dp175
g13
I01
sg14
F1.47607139548329
sg15
g172
sbs(I-4
I8
tp176
g0
(g9
g2
Ntp177
Rp178
(dp179
g13
I01
sg14
F-2.0566925267163345
sg15
g176
sbs(I-7
I4
tp180
g0
(g9
g2
Ntp181
Rp182
(dp183
g13
I00
sg14
F-0.004083826207759211
sg15
g180
sbs(I4335
I9
tp184
g0
(g9
g2
Ntp185
Rp186
(dp187
g13
I01
sg14
F-0.47114904802908975
sg15
g184
sbs(I-6
I3
tp188
g0
(g9
g2
Ntp189
Rp190
(dp191
g13
I00
sg14
F-0.14809583784495417
sg15
g188
sbs(I-9
I2
tp192
g0
(g9
g2
Ntp193
Rp194
(dp195
g13
I00
sg14
F-1.2004896135688086
sg15
g192
sbs(I-1
I5
tp196
g0
(g9
g2
Ntp197
Rp198
(dp199
g13
I00
sg14
F-3.7033583941193036
sg15
g196
sbs(I-8
I6
tp200
g0
(g9
g2
Ntp201
Rp202
(dp203
g13
I00
sg14
F-0.23654993236384442
sg15
g200
sbs(I-6
I9
tp204
g0
(g9
g2
Ntp205
Rp206
(dp207
g13
I01
sg14
F-0.10404219450694331
sg15
g204
sbs(I-7
I7
tp208
g0
(g9
g2
Ntp209
Rp210
(dp211
g13
I00
sg14
F-3.2615556598459143
sg15
g208
sbs(I-1
I9
tp212
g0
(g9
g2
Ntp213
Rp214
(dp215
g13
I01
sg14
F-2.6326422028738774
sg15
g212
sbs(I-1
I6
tp216
g0
(g9
g2
Ntp217
Rp218
(dp219
g13
I00
sg14
F1.0363416922695783
sg15
g216
sbs(I-3
I6
tp220
g0
(g9
g2
Ntp221
Rp222
(dp223
g13
I01
sg14
F-1.4496980245025013
sg15
g220
sbs(I-8
I3
tp224
g0
(g9
g2
Ntp225
Rp226
(dp227
g13
I00
sg14
F-1.3003552636840703
sg15
g224
sbs(I-7
I2
tp228
g0
(g9
g2
Ntp229
Rp230
(dp231
g13
I00
sg14
F-0.9787586379705606
sg15
g228
sbs(I-10
I1
tp232
g0
(g9
g2
Ntp233
Rp234
(dp235
g13
I01
sg14
F-2.869513740411418
sg15
g232
sbs(I-5
I3
tp236
g0
(g9
g2
Ntp237
Rp238
(dp239
g13
I01
sg14
F1.9019010307467363
sg15
g236
sbs(I-9
I4
tp240
g0
(g9
g2
Ntp241
Rp242
(dp243
g13
I01
sg14
F1.1484008516903055
sg15
g240
sbs(I-4
I4
tp244
g0
(g9
g2
Ntp245
Rp246
(dp247
g13
I00
sg14
F-2.504820195670458
sg15
g244
sbs(I1
I3734
tp248
g0
(g9
g2
Ntp249
Rp250
(dp251
g13
I01
sg14
F0.09602945403501953
sg15
g248
sbs(I-3
I9
tp252
g0
(g9
g2
Ntp253
Rp254
(dp255
g13
I01
sg14
F3.942148047653716
sg15
g252
sbs(I-7
I8
tp256
g0
(g9
g2
Ntp257
Rp258
(dp259
g13
I01
sg14
F-0.2089173398629765
sg15
g256
sbs(I-8
I0
tp260
g0
(g9
g2
Ntp261
Rp262
(dp263
g13
I01
sg14
F-1.8734891176977455
sg15
g260
sbs(I-2
I9
tp264
g0
(g9
g2
Ntp265
Rp266
(dp267
g13
I00
sg14
F-1.347443527300174
sg15
g264
sbs(I-4
I9
tp268
g0
(g9
g2
Ntp269
Rp270
(dp271
g13
I00
sg14
F0.8656084812768835
sg15
g268
sbs(I7
I7
tp272
g0
(g9
g2
Ntp273
Rp274
(dp275
g13
I00
sg14
F-0.28408206801166813
sg15
g272
sbs(I-1
I8
tp276
g0
(g9
g2
Ntp277
Rp278
(dp279
g13
I01
sg14
F-0.4961688972730184
sg15
g276
sbs(I310
I1
tp280
g0
(g9
g2
Ntp281
Rp282
(dp283
g13
I01
sg14
F9.415170332906433
sg15
g280
sbs(I-6
I0
tp284
g0
(g9
g2
Ntp285
Rp286
(dp287
g13
I01
sg14
F-0.3191294915241257
sg15
g284
sbs(I-6
I4316
tp288
g0
(g9
g2
Ntp289
Rp290
(dp291
g13
I00
sg14
F-0.17288037994984454
sg15
g288
sbs(I0
I0
tp292
g0
(g9
g2
Ntp293
Rp294
(dp295
g13
I00
sg14
F0.8883718232434937
sg15
g292
sbs(I-8
I7
tp296
g0
(g9
g2
Ntp297
Rp298
(dp299
g13
I01
sg14
F-5.270343795659778
sg15
g296
sbs(I-7
I6
tp300
g0
(g9
g2
Ntp301
Rp302
(dp303
g13
I01
sg14
F-1.3870755269823218
sg15
g300
sbs(I-2
I1
tp304
g0
(g9
g2
Ntp305
Rp306
(dp307
g13
I01
sg14
F-3.102306458771421
sg15
g304
sbs(I-10
I5
tp308
g0
(g9
g2
Ntp309
Rp310
(dp311
g13
I00
sg14
F0.8395559492628205
sg15
g308
sbs(I-5
I7
tp312
g0
(g9
g2
Ntp313
Rp314
(dp315
g13
I01
sg14
F-0.0337602974541506
sg15
g312
sbs(I-6
I5
tp316
g0
(g9
g2
Ntp317
Rp318
(dp319
g13
I00
sg14
F-0.15313556795404476
sg15
g316
sbs(I-10
I8
tp320
g0
(g9
g2
Ntp321
Rp322
(dp323
g13
I00
sg14
F-0.7547511864762603
sg15
g320
sbs(I-4
I0
tp324
g0
(g9
g2
Ntp325
Rp326
(dp327
g13
I01
sg14
F-0.7499141278558112
sg15
g324
sbs(I-5
I8
tp328
g0
(g9
g2
Ntp329
Rp330
(dp331
g13
I01
sg14
F-2.4580988034151825
sg15
g328
sbs(I-2
I7
tp332
g0
(g9
g2
Ntp333
Rp334
(dp335
g13
I01
sg14
F2.4861641486968113
sg15
g332
sbs(I-3
I5
tp336
g0
(g9
g2
Ntp337
Rp338
(dp339
g13
I00
sg14
F0.358561907355969
sg15
g336
sbs(I-4
I3734
tp340
g0
(g9
g2
Ntp341
Rp342
(dp343
g13
I00
sg14
F1.7824597187223028
sg15
g340
sbs(I-8
I4
tp344
g0
(g9
g2
Ntp345
Rp346
(dp347
g13
I00
sg14
F-0.32064361121251334
sg15
g344
sbs(I-7
I1
tp348
g0
(g9
g2
Ntp349
Rp350
(dp351
g13
I00
sg14
F-0.03721936339151247
sg15
g348
sbs(I-5
I2
tp352
g0
(g9
g2
Ntp353
Rp354
(dp355
g13
I00
sg14
F0.25334902618612154
sg15
g352
sbs(I-6
I6
tp356
g0
(g9
g2
Ntp357
Rp358
(dp359
g13
I00
sg14
F0.3393505179723799
sg15
g356
sbs(I-9
I7
tp360
g0
(g9
g2
Ntp361
Rp362
(dp363
g13
I00
sg14
F1.7972296717709129
sg15
g360
sbssS'nodes'
p364
(dp365
I0
g0
(cneat.genes
DefaultNodeGene
p366
g2
Ntp367
Rp368
(dp369
S'activation'
p370
S'tanh'
p371
sS'bias'
p372
F7.561594373070831
sS'response'
p373
F1.0
sg15
I0
sS'aggregation'
p374
S'sum'
p375
sbsI1
g0
(g366
g2
Ntp376
Rp377
(dp378
g370
S'relu'
p379
sg372
F12.001346836639726
sg373
F1.0
sg15
I1
sg374
g375
sbsI2
g0
(g366
g2
Ntp380
Rp381
(dp382
g370
g371
sg372
F12.572307411019137
sg373
F1.0
sg15
I2
sg374
g375
sbsI3
g0
(g366
g2
Ntp383
Rp384
(dp385
g370
g371
sg372
F-5.660863591147176
sg373
F1.0
sg15
I3
sg374
g375
sbsI4
g0
(g366
g2
Ntp386
Rp387
(dp388
g370
g371
sg372
F-7.630407339184934
sg373
F1.0
sg15
I4
sg374
g375
sbsI5
g0
(g366
g2
Ntp389
Rp390
(dp391
g370
g371
sg372
F4.69826576079631
sg373
F1.0
sg15
I5
sg374
g375
sbsI6
g0
(g366
g2
Ntp392
Rp393
(dp394
g370
g371
sg372
F2.900296416555705
sg373
F1.0
sg15
I6
sg374
g375
sbsI7
g0
(g366
g2
Ntp395
Rp396
(dp397
g370
g379
sg372
F1.6979377193246827
sg373
F1.0
sg15
I7
sg374
g375
sbsI8
g0
(g366
g2
Ntp398
Rp399
(dp400
g370
g379
sg372
F-7.293764765234615
sg373
F1.0
sg15
I8
sg374
g375
sbsI9
g0
(g366
g2
Ntp401
Rp402
(dp403
g370
g371
sg372
F8.152794001851095
sg373
F1.0
sg15
I9
sg374
g375
sbsI4335
g0
(g366
g2
Ntp404
Rp405
(dp406
g370
g379
sg372
F6.933491104434125
sg373
F1.0
sg15
I4335
sg374
g375
sbsI310
g0
(g366
g2
Ntp407
Rp408
(dp409
g370
g379
sg372
F11.694719953626958
sg373
F1.0
sg15
I310
sg374
g375
sbsI3734
g0
(g366
g2
Ntp410
Rp411
(dp412
g370
g379
sg372
F1.6999420917543102
sg373
F1.0
sg15
I3734
sg374
g375
sbsI4316
g0
(g366
g2
Ntp413
Rp414
(dp415
g370
g379
sg372
F17.111603792550778
sg373
F1.0
sg15
I4316
sg374
g375
sbssg15
I22381
sS'fitness'
p416
Nsb.