ccopy_reg
_reconstructor
p0
(cneat.genome
DefaultGenome
p1
c__builtin__
object
p2
Ntp3
Rp4
(dp5
S'connections'
p6
(dp7
(I-2
I0
tp8
g0
(cneat.genes
DefaultConnectionGene
p9
g2
Ntp10
Rp11
(dp12
S'enabled'
p13
I01
sS'weight'
p14
F-0.4810134435721789
sS'key'
p15
g8
sbs(I-3
I8
tp16
g0
(g9
g2
Ntp17
Rp18
(dp19
g13
I01
sg14
F-1.7027287573611625
sg15
g16
sbs(I4084
I4084
tp20
g0
(g9
g2
Ntp21
Rp22
(dp23
g13
I01
sg14
F1.9692278494472406
sg15
g20
sbs(I-1
I310
tp24
g0
(g9
g2
Ntp25
Rp26
(dp27
g13
I00
sg14
F1.8393863508764587
sg15
g24
sbs(I-2
I2
tp28
g0
(g9
g2
Ntp29
Rp30
(dp31
g13
I00
sg14
F0.10985655587270193
sg15
g28
sbs(I-8
I1
tp32
g0
(g9
g2
Ntp33
Rp34
(dp35
g13
I01
sg14
F0.47250346333693666
sg15
g32
sbs(I4084
I4
tp36
g0
(g9
g2
Ntp37
Rp38
(dp39
g13
I01
sg14
F2.055146751487486
sg15
g36
sbs(I-1
I0
tp40
g0
(g9
g2
Ntp41
Rp42
(dp43
g13
I01
sg14
F0.22663819101549704
sg15
g40
sbs(I-5
I1
tp44
g0
(g9
g2
Ntp45
Rp46
(dp47
g13
I00
sg14
F2.396556135968194
sg15
g44
sbs(I310
I4283
tp48
g0
(g9
g2
Ntp49
Rp50
(dp51
g13
I01
sg14
F1.8268310222669686
sg15
g48
sbs(I2
I4309
tp52
g0
(g9
g2
Ntp53
Rp54
(dp55
g13
I01
sg14
F0.0010569045543831201
sg15
g52
sbs(I-7
I310
tp56
g0
(g9
g2
Ntp57
Rp58
(dp59
g13
I01
sg14
F1.1126880223820397
sg15
g56
sbs(I1
I1
tp60
g0
(g9
g2
Ntp61
Rp62
(dp63
g13
I00
sg14
F0.8393216483827761
sg15
g60
sbs(I-1
I6
tp64
g0
(g9
g2
Ntp65
Rp66
(dp67
g13
I01
sg14
F-0.2238152644788034
sg15
g64
sbs(I-6
I1
tp68
g0
(g9
g2
Ntp69
Rp70
(dp71
g13
I01
sg14
F1.0153918954144643
sg15
g68
sbs(I4309
I2
tp72
g0
(g9
g2
Ntp73
Rp74
(dp75
g13
I01
sg14
F1.3893316876654116
sg15
g72
sbs(I-9
I9
tp76
g0
(g9
g2
Ntp77
Rp78
(dp79
g13
I00
sg14
F3.103639722837674
sg15
g76
sbs(I-3
I1
tp80
g0
(g9
g2
Ntp81
Rp82
(dp83
g13
I00
sg14
F-0.3775842995906349
sg15
g80
sbs(I-8
I8
tp84
g0
(g9
g2
Ntp85
Rp86
(dp87
g13
I00
sg14
F-2.7204593972243947
sg15
g84
sbs(I-5
I4283
tp88
g0
(g9
g2
Ntp89
Rp90
(dp91
g13
I01
sg14
F0.22695344375379756
sg15
g88
sbs(I-7
I5
tp92
g0
(g9
g2
Ntp93
Rp94
(dp95
g13
I00
sg14
F-0.968924674852386
sg15
g92
sbs(I-6
I310
tp96
g0
(g9
g2
Ntp97
Rp98
(dp99
g13
I01
sg14
F-0.33875661743837293
sg15
g96
sbs(I9
I9
tp100
g0
(g9
g2
Ntp101
Rp102
(dp103
g13
I00
sg14
F-0.8215757825740024
sg15
g100
sbs(I-6
I2
tp104
g0
(g9
g2
Ntp105
Rp106
(dp107
g13
I01
sg14
F1.3922823512497657
sg15
g104
sbs(I-9
I3
tp108
g0
(g9
g2
Ntp109
Rp110
(dp111
g13
I01
sg14
F3.3135389464987868
sg15
g108
sbs(I-4
I1
tp112
g0
(g9
g2
Ntp113
Rp114
(dp115
g13
I01
sg14
F-0.25415174722583667
sg15
g112
sbs(I-1
I4
tp116
g0
(g9
g2
Ntp117
Rp118
(dp119
g13
I01
sg14
F-2.827656679354111
sg15
g116
sbs(I-1
I5
tp120
g0
(g9
g2
Ntp121
Rp122
(dp123
g13
I00
sg14
F-0.09774210895612157
sg15
g120
sbs(I4051
I3974
tp124
g0
(g9
g2
Ntp125
Rp126
(dp127
g13
I01
sg14
F3.267361327482466
sg15
g124
sbs(I-4
I4084
tp128
g0
(g9
g2
Ntp129
Rp130
(dp131
g13
I00
sg14
F0.8571886950665737
sg15
g128
sbs(I-5
I5
tp132
g0
(g9
g2
Ntp133
Rp134
(dp135
g13
I01
sg14
F-0.8159048501949708
sg15
g132
sbs(I-6
I7
tp136
g0
(g9
g2
Ntp137
Rp138
(dp139
g13
I01
sg14
F5.796955480795859
sg15
g136
sbs(I4370
I8
tp140
g0
(g9
g2
Ntp141
Rp142
(dp143
g13
I01
sg14
F0.9341456958849124
sg15
g140
sbs(I-9
I6
tp144
g0
(g9
g2
Ntp145
Rp146
(dp147
g13
I01
sg14
F-0.2837669629993855
sg15
g144
sbs(I-1
I4283
tp148
g0
(g9
g2
Ntp149
Rp150
(dp151
g13
I00
sg14
F1.6464950329678796
sg15
g148
sbs(I-1
I1
tp152
g0
(g9
g2
Ntp153
Rp154
(dp155
g13
I01
sg14
F0.627529727632274
sg15
g152
sbs(I3974
I7
tp156
g0
(g9
g2
Ntp157
Rp158
(dp159
g13
I00
sg14
F2.1278411895879477
sg15
g156
sbs(I2
I2
tp160
g0
(g9
g2
Ntp161
Rp162
(dp163
g13
I01
sg14
F-0.5731654083774312
sg15
g160
sbs(I-7
I3
tp164
g0
(g9
g2
Ntp165
Rp166
(dp167
g13
I01
sg14
F1.1270413157457473
sg15
g164
sbs(I-5
I0
tp168
g0
(g9
g2
Ntp169
Rp170
(dp171
g13
I01
sg14
F3.9034893282986496
sg15
g168
sbs(I-9
I5
tp172
g0
(g9
g2
Ntp173
Rp174
(dp175
g13
I00
sg14
F0.9404405676650933
sg15
g172
sbs(I-1
I2
tp176
g0
(g9
g2
Ntp177
Rp178
(dp179
g13
I00
sg14
F-1.110918720844975
sg15
g176
sbs(I310
I7
tp180
g0
(g9
g2
Ntp181
Rp182
(dp183
g13
I01
sg14
F7.496627135790665
sg15
g180
sbs(I-10
I5
tp184
g0
(g9
g2
Ntp185
Rp186
(dp187
g13
I00
sg14
F-0.9311766043679535
sg15
g184
sbs(I-2
I4
tp188
g0
(g9
g2
Ntp189
Rp190
(dp191
g13
I01
sg14
F0.7699138482480535
sg15
g188
sbs(I-7
I9
tp192
g0
(g9
g2
Ntp193
Rp194
(dp195
g13
I00
sg14
F-1.6800710190643455
sg15
g192
sbs(I-9
I8
tp196
g0
(g9
g2
Ntp197
Rp198
(dp199
g13
I00
sg14
F-2.1548941505314025
sg15
g196
sbs(I-2
I8
tp200
g0
(g9
g2
Ntp201
Rp202
(dp203
g13
I00
sg14
F-0.667960006805939
sg15
g200
sbs(I-3
I0
tp204
g0
(g9
g2
Ntp205
Rp206
(dp207
g13
I01
sg14
F2.0162896034923556
sg15
g204
sbs(I-8
I9
tp208
g0
(g9
g2
Ntp209
Rp210
(dp211
g13
I00
sg14
F-0.6261271335742469
sg15
g208
sbs(I-7
I4
tp212
g0
(g9
g2
Ntp213
Rp214
(dp215
g13
I00
sg14
F-0.0006295556091709398
sg15
g212
sbs(I-6
I3
tp216
g0
(g9
g2
Ntp217
Rp218
(dp219
g13
I00
sg14
F-0.8998494992282704
sg15
g216
sbs(I-9
I2
tp220
g0
(g9
g2
Ntp221
Rp222
(dp223
g13
I01
sg14
F1.0559790024591467
sg15
g220
sbs(I4283
I6
tp224
g0
(g9
g2
Ntp225
Rp226
(dp227
g13
I01
sg14
F1.8579111651789908
sg15
g224
sbs(I-2
I5
tp228
g0
(g9
g2
Ntp229
Rp230
(dp231
g13
I00
sg14
F3.8470641224223865
sg15
g228
sbs(I-7
I7
tp232
g0
(g9
g2
Ntp233
Rp234
(dp235
g13
I00
sg14
F-1.6956014185843862
sg15
g232
sbs(I-8
I6
tp236
g0
(g9
g2
Ntp237
Rp238
(dp239
g13
I01
sg14
F2.1465370515040245
sg15
g236
sbs(I-6
I9
tp240
g0
(g9
g2
Ntp241
Rp242
(dp243
g13
I00
sg14
F1.2380677145627257
sg15
g240
sbs(I4462
I6
tp244
g0
(g9
g2
Ntp245
Rp246
(dp247
g13
I01
sg14
F-1.3315012953769882
sg15
g244
sbs(I-2
I9
tp248
g0
(g9
g2
Ntp249
Rp250
(dp251
g13
I00
sg14
F0.8672266649693907
sg15
g248
sbs(I-2
I6
tp252
g0
(g9
g2
Ntp253
Rp254
(dp255
g13
I01
sg14
F0.9183582658325766
sg15
g252
sbs(I-3
I6
tp256
g0
(g9
g2
Ntp257
Rp258
(dp259
g13
I00
sg14
F0.3601707585936639
sg15
g256
sbs(I4534
I2
tp260
g0
(g9
g2
Ntp261
Rp262
(dp263
g13
I01
sg14
F1.2750754524765768
sg15
g260
sbs(I-6
I4462
tp264
g0
(g9
g2
Ntp265
Rp266
(dp267
g13
I00
sg14
F1.932059641945364
sg15
g264
sbs(I-8
I3
tp268
g0
(g9
g2
Ntp269
Rp270
(dp271
g13
I01
sg14
F1.3147510878074702
sg15
g268
sbs(I-7
I2
tp272
g0
(g9
g2
Ntp273
Rp274
(dp275
g13
I00
sg14
F0.15524705723874524
sg15
g272
sbs(I-10
I1
tp276
g0
(g9
g2
Ntp277
Rp278
(dp279
g13
I01
sg14
F-1.3793718332053637
sg15
g276
sbs(I-5
I3
tp280
g0
(g9
g2
Ntp281
Rp282
(dp283
g13
I00
sg14
F-0.7860184588750073
sg15
g280
sbs(I-9
I4
tp284
g0
(g9
g2
Ntp285
Rp286
(dp287
g13
I01
sg14
F-0.7850206681439087
sg15
g284
sbs(I-4
I4
tp288
g0
(g9
g2
Ntp289
Rp290
(dp291
g13
I00
sg14
F0.6595754279875949
sg15
g288
sbs(I-2
I3
tp292
g0
(g9
g2
Ntp293
Rp294
(dp295
g13
I00
sg14
F1.641690090139009
sg15
g292
sbs(I-3
I9
tp296
g0
(g9
g2
Ntp297
Rp298
(dp299
g13
I00
sg14
F1.1052503466993993
sg15
g296
sbs(I-7
I8
tp300
g0
(g9
g2
Ntp301
Rp302
(dp303
g13
I00
sg14
F-1.2564049281236596
sg15
g300
sbs(I-8
I0
tp304
g0
(g9
g2
Ntp305
Rp306
(dp307
g13
I01
sg14
F-0.6089303430259829
sg15
g304
sbs(I-1
I9
tp308
g0
(g9
g2
Ntp309
Rp310
(dp311
g13
I01
sg14
F1.9577790897748444
sg15
g308
sbs(I-1
I8
tp312
g0
(g9
g2
Ntp313
Rp314
(dp315
g13
I00
sg14
F0.7163680457984561
sg15
g312
sbs(I4051
I2
tp316
g0
(g9
g2
Ntp317
Rp318
(dp319
g13
I01
sg14
F-1.7356108297947286
sg15
g316
sbs(I310
I1
tp320
g0
(g9
g2
Ntp321
Rp322
(dp323
g13
I01
sg14
F15.424255947803081
sg15
g320
sbs(I-6
I0
tp324
g0
(g9
g2
Ntp325
Rp326
(dp327
g13
I01
sg14
F1.2997528344427682
sg15
g324
sbs(I4
I4
tp328
g0
(g9
g2
Ntp329
Rp330
(dp331
g13
I01
sg14
F1.9778739053086871
sg15
g328
sbs(I0
I0
tp332
g0
(g9
g2
Ntp333
Rp334
(dp335
g13
I01
sg14
F1.242550229292694
sg15
g332
sbs(I-8
I7
tp336
g0
(g9
g2
Ntp337
Rp338
(dp339
g13
I01
sg14
F-0.778017566837585
sg15
g336
sbs(I-7
I6
tp340
g0
(g9
g2
Ntp341
Rp342
(dp343
g13
I00
sg14
F-2.4546600079557725
sg15
g340
sbs(I-2
I1
tp344
g0
(g9
g2
Ntp345
Rp346
(dp347
g13
I01
sg14
F0.43323790031423637
sg15
g344
sbs(I310
I2
tp348
g0
(g9
g2
Ntp349
Rp350
(dp351
g13
I00
sg14
F1.2327074361945474
sg15
g348
sbs(I-5
I7
tp352
g0
(g9
g2
Ntp353
Rp354
(dp355
g13
I00
sg14
F1.6875970025482774
sg15
g352
sbs(I-6
I5
tp356
g0
(g9
g2
Ntp357
Rp358
(dp359
g13
I01
sg14
F0.4975802037987265
sg15
g356
sbs(I-9
I0
tp360
g0
(g9
g2
Ntp361
Rp362
(dp363
g13
I01
sg14
F-8.346941051057112
sg15
g360
sbs(I-10
I8
tp364
g0
(g9
g2
Ntp365
Rp366
(dp367
g13
I01
sg14
F-2.42603624015441
sg15
g364
sbs(I-4
I0
tp368
g0
(g9
g2
Ntp369
Rp370
(dp371
g13
I00
sg14
F0.604897142051229
sg15
g368
sbs(I-5
I8
tp372
g0
(g9
g2
Ntp373
Rp374
(dp375
g13
I01
sg14
F-2.325927947584477
sg15
g372
sbs(I-2
I7
tp376
g0
(g9
g2
Ntp377
Rp378
(dp379
g13
I01
sg14
F0.06792695272040516
sg15
g376
sbs(I-3
I5
tp380
g0
(g9
g2
Ntp381
Rp382
(dp383
g13
I00
sg14
F-0.2191548863351189
sg15
g380
sbs(I-2
I4370
tp384
g0
(g9
g2
Ntp385
Rp386
(dp387
g13
I01
sg14
F-1.3202680618470333
sg15
g384
sbs(I3974
I8
tp388
g0
(g9
g2
Ntp389
Rp390
(dp391
g13
I01
sg14
F0.6751918135210816
sg15
g388
sbs(I310
I4534
tp392
g0
(g9
g2
Ntp393
Rp394
(dp395
g13
I01
sg14
F-0.24648052868199044
sg15
g392
sbs(I-8
I4
tp396
g0
(g9
g2
Ntp397
Rp398
(dp399
g13
I01
sg14
F-1.2407955136259434
sg15
g396
sbs(I-7
I1
tp400
g0
(g9
g2
Ntp401
Rp402
(dp403
g13
I01
sg14
F1.3528740309321416
sg15
g400
sbs(I-5
I2
tp404
g0
(g9
g2
Ntp405
Rp406
(dp407
g13
I00
sg14
F-4.224667072651144
sg15
g404
sbs(I-6
I6
tp408
g0
(g9
g2
Ntp409
Rp410
(dp411
g13
I00
sg14
F-0.5179249197543555
sg15
g408
sbs(I-9
I7
tp412
g0
(g9
g2
Ntp413
Rp414
(dp415
g13
I01
sg14
F-1.6449710047531712
sg15
g412
sbssS'nodes'
p416
(dp417
I0
g0
(cneat.genes
DefaultNodeGene
p418
g2
Ntp419
Rp420
(dp421
S'activation'
p422
S'tanh'
p423
sS'bias'
p424
F7.778546643081679
sS'response'
p425
F1.0
sg15
I0
sS'aggregation'
p426
S'sum'
p427
sbsI1
g0
(g418
g2
Ntp428
Rp429
(dp430
g422
S'relu'
p431
sg424
F-2.981437674873475
sg425
F1.0
sg15
I1
sg426
g427
sbsI2
g0
(g418
g2
Ntp432
Rp433
(dp434
g422
g423
sg424
F-1.524110697976512
sg425
F1.0
sg15
I2
sg426
g427
sbsI3
g0
(g418
g2
Ntp435
Rp436
(dp437
g422
g423
sg424
F12.484134870950033
sg425
F1.0
sg15
I3
sg426
g427
sbsI4
g0
(g418
g2
Ntp438
Rp439
(dp440
g422
g431
sg424
F-7.902752561692452
sg425
F1.0
sg15
I4
sg426
g427
sbsI5
g0
(g418
g2
Ntp441
Rp442
(dp443
g422
g423
sg424
F-22.712586965672386
sg425
F1.0
sg15
I5
sg426
g427
sbsI6
g0
(g418
g2
Ntp444
Rp445
(dp446
g422
g423
sg424
F17.37177678431447
sg425
F1.0
sg15
I6
sg426
g427
sbsI7
g0
(g418
g2
Ntp447
Rp448
(dp449
g422
g431
sg424
F-11.270718608912794
sg425
F1.0
sg15
I7
sg426
g427
sbsI8
g0
(g418
g2
Ntp450
Rp451
(dp452
g422
g423
sg424
F-18.811752625088285
sg425
F1.0
sg15
I8
sg426
g427
sbsI9
g0
(g418
g2
Ntp453
Rp454
(dp455
g422
g423
sg424
F-13.802684372280419
sg425
F1.0
sg15
I9
sg426
g427
sbsI4534
g0
(g418
g2
Ntp456
Rp457
(dp458
g422
g431
sg424
F-6.35712680254103
sg425
F1.0
sg15
I4534
sg426
g427
sbsI4462
g0
(g418
g2
Ntp459
Rp460
(dp461
g422
g423
sg424
F18.23399686075118
sg425
F1.0
sg15
I4462
sg426
g427
sbsI310
g0
(g418
g2
Ntp462
Rp463
(dp464
g422
g431
sg424
F14.25603530179327
sg425
F1.0
sg15
I310
sg426
g427
sbsI4370
g0
(g418
g2
Ntp465
Rp466
(dp467
g422
g431
sg424
F1.081950186014486
sg425
F1.0
sg15
I4370
sg426
g427
sbsI4051
g0
(g418
g2
Ntp468
Rp469
(dp470
g422
g423
sg424
F-9.737697651123668
sg425
F1.0
sg15
I4051
sg426
g427
sbsI4084
g0
(g418
g2
Ntp471
Rp472
(dp473
g422
g431
sg424
F0.40789317539300063
sg425
F1.0
sg15
I4084
sg426
g427
sbsI4309
g0
(g418
g2
Ntp474
Rp475
(dp476
g422
g431
sg424
F-10.463259730521175
sg425
F1.0
sg15
I4309
sg426
g427
sbsI3974
g0
(g418
g2
Ntp477
Rp478
(dp479
g422
g431
sg424
F-4.148706742952274
sg425
F1.0
sg15
I3974
sg426
g427
sbsI4283
g0
(g418
g2
Ntp480
Rp481
(dp482
g422
g423
sg424
F20.400855634605914
sg425
F1.0
sg15
I4283
sg426
g427
sbssg15
I22389
sS'fitness'
p483
Nsb.