ccopy_reg
_reconstructor
p0
(cneat.genome
DefaultGenome
p1
c__builtin__
object
p2
Ntp3
Rp4
(dp5
S'connections'
p6
(dp7
(I-2
I0
tp8
g0
(cneat.genes
DefaultConnectionGene
p9
g2
Ntp10
Rp11
(dp12
S'enabled'
p13
I01
sS'weight'
p14
F0.8297440087462686
sS'key'
p15
g8
sbs(I-3
I8
tp16
g0
(g9
g2
Ntp17
Rp18
(dp19
g13
I00
sg14
F-0.3080928858801705
sg15
g16
sbs(I4216
I5
tp20
g0
(g9
g2
Ntp21
Rp22
(dp23
g13
I01
sg14
F0.005960003608116771
sg15
g20
sbs(I-1
I310
tp24
g0
(g9
g2
Ntp25
Rp26
(dp27
g13
I01
sg14
F2.0925936976458117
sg15
g24
sbs(I3734
I9
tp28
g0
(g9
g2
Ntp29
Rp30
(dp31
g13
I00
sg14
F-1.1108240571683339
sg15
g28
sbs(I-8
I1
tp32
g0
(g9
g2
Ntp33
Rp34
(dp35
g13
I01
sg14
F0.9702284618209233
sg15
g32
sbs(I-1
I0
tp36
g0
(g9
g2
Ntp37
Rp38
(dp39
g13
I01
sg14
F-1.9119933294600249
sg15
g36
sbs(I-5
I1
tp40
g0
(g9
g2
Ntp41
Rp42
(dp43
g13
I00
sg14
F-0.47338384822007706
sg15
g40
sbs(I3734
I7
tp44
g0
(g9
g2
Ntp45
Rp46
(dp47
g13
I01
sg14
F0.1305887882355746
sg15
g44
sbs(I3845
I3734
tp48
g0
(g9
g2
Ntp49
Rp50
(dp51
g13
I00
sg14
F0.8662072910507916
sg15
g48
sbs(I-7
I310
tp52
g0
(g9
g2
Ntp53
Rp54
(dp55
g13
I00
sg14
F-0.4652507556126958
sg15
g52
sbs(I1
I1
tp56
g0
(g9
g2
Ntp57
Rp58
(dp59
g13
I00
sg14
F0.011394978597043554
sg15
g56
sbs(I-6
I1
tp60
g0
(g9
g2
Ntp61
Rp62
(dp63
g13
I00
sg14
F2.5157514333949162
sg15
g60
sbs(I-9
I9
tp64
g0
(g9
g2
Ntp65
Rp66
(dp67
g13
I01
sg14
F-0.7789508450919733
sg15
g64
sbs(I-3
I1
tp68
g0
(g9
g2
Ntp69
Rp70
(dp71
g13
I01
sg14
F1.470827123518073
sg15
g68
sbs(I4
I4216
tp72
g0
(g9
g2
Ntp73
Rp74
(dp75
g13
I01
sg14
F-0.28727760923190415
sg15
g72
sbs(I-8
I8
tp76
g0
(g9
g2
Ntp77
Rp78
(dp79
g13
I01
sg14
F0.8443493845669636
sg15
g76
sbs(I-7
I5
tp80
g0
(g9
g2
Ntp81
Rp82
(dp83
g13
I00
sg14
F-4.284980761447611
sg15
g80
sbs(I-6
I310
tp84
g0
(g9
g2
Ntp85
Rp86
(dp87
g13
I00
sg14
F-0.16510342753023788
sg15
g84
sbs(I9
I9
tp88
g0
(g9
g2
Ntp89
Rp90
(dp91
g13
I01
sg14
F0.24736289041624016
sg15
g88
sbs(I-6
I2
tp92
g0
(g9
g2
Ntp93
Rp94
(dp95
g13
I00
sg14
F0.16746190484788293
sg15
g92
sbs(I-9
I3
tp96
g0
(g9
g2
Ntp97
Rp98
(dp99
g13
I00
sg14
F-1.000280363949869
sg15
g96
sbs(I-2
I4
tp100
g0
(g9
g2
Ntp101
Rp102
(dp103
g13
I01
sg14
F2.1498249126149203
sg15
g100
sbs(I-1
I3931
tp104
g0
(g9
g2
Ntp105
Rp106
(dp107
g13
I00
sg14
F-2.115109949796264
sg15
g104
sbs(I-2
I5
tp108
g0
(g9
g2
Ntp109
Rp110
(dp111
g13
I01
sg14
F-0.5109966278019995
sg15
g108
sbs(I-3
I3734
tp112
g0
(g9
g2
Ntp113
Rp114
(dp115
g13
I01
sg14
F-0.749818629893606
sg15
g112
sbs(I4418
I3
tp116
g0
(g9
g2
Ntp117
Rp118
(dp119
g13
I01
sg14
F-0.04018666593610373
sg15
g116
sbs(I-5
I5
tp120
g0
(g9
g2
Ntp121
Rp122
(dp123
g13
I00
sg14
F-1.0337503377548023
sg15
g120
sbs(I-6
I7
tp124
g0
(g9
g2
Ntp125
Rp126
(dp127
g13
I00
sg14
F-0.13283242192475508
sg15
g124
sbs(I-9
I6
tp128
g0
(g9
g2
Ntp129
Rp130
(dp131
g13
I01
sg14
F3.3777648461276586
sg15
g128
sbs(I-1
I1
tp132
g0
(g9
g2
Ntp133
Rp134
(dp135
g13
I00
sg14
F-0.003127258849388994
sg15
g132
sbs(I-6
I4418
tp136
g0
(g9
g2
Ntp137
Rp138
(dp139
g13
I01
sg14
F0.9131254242856269
sg15
g136
sbs(I2
I2
tp140
g0
(g9
g2
Ntp141
Rp142
(dp143
g13
I00
sg14
F0.17639590923439769
sg15
g140
sbs(I-7
I3
tp144
g0
(g9
g2
Ntp145
Rp146
(dp147
g13
I01
sg14
F-2.5516943780098855
sg15
g144
sbs(I-5
I0
tp148
g0
(g9
g2
Ntp149
Rp150
(dp151
g13
I01
sg14
F0.47263846597251075
sg15
g148
sbs(I-9
I5
tp152
g0
(g9
g2
Ntp153
Rp154
(dp155
g13
I00
sg14
F-3.9091916163308555
sg15
g152
sbs(I-2
I2
tp156
g0
(g9
g2
Ntp157
Rp158
(dp159
g13
I00
sg14
F-0.1251813122011544
sg15
g156
sbs(I310
I7
tp160
g0
(g9
g2
Ntp161
Rp162
(dp163
g13
I00
sg14
F4.831893647882551
sg15
g160
sbs(I-1
I4
tp164
g0
(g9
g2
Ntp165
Rp166
(dp167
g13
I00
sg14
F3.3140511791191236
sg15
g164
sbs(I-3
I3845
tp168
g0
(g9
g2
Ntp169
Rp170
(dp171
g13
I00
sg14
F0.10761068636046733
sg15
g168
sbs(I-9
I8
tp172
g0
(g9
g2
Ntp173
Rp174
(dp175
g13
I01
sg14
F0.5479991692085743
sg15
g172
sbs(I-2
I8
tp176
g0
(g9
g2
Ntp177
Rp178
(dp179
g13
I01
sg14
F0.5667903462847426
sg15
g176
sbs(I-3
I0
tp180
g0
(g9
g2
Ntp181
Rp182
(dp183
g13
I01
sg14
F-1.0517231499820914
sg15
g180
sbs(I-4
I8
tp184
g0
(g9
g2
Ntp185
Rp186
(dp187
g13
I00
sg14
F-0.007133494450342837
sg15
g184
sbs(I-8
I9
tp188
g0
(g9
g2
Ntp189
Rp190
(dp191
g13
I00
sg14
F-0.9753253824395518
sg15
g188
sbs(I-7
I4
tp192
g0
(g9
g2
Ntp193
Rp194
(dp195
g13
I01
sg14
F1.2128325339566723
sg15
g192
sbs(I-7
I4338
tp196
g0
(g9
g2
Ntp197
Rp198
(dp199
g13
I01
sg14
F-1.34037816401193
sg15
g196
sbs(I-6
I3
tp200
g0
(g9
g2
Ntp201
Rp202
(dp203
g13
I00
sg14
F2.0430517631977425
sg15
g200
sbs(I-9
I2
tp204
g0
(g9
g2
Ntp205
Rp206
(dp207
g13
I01
sg14
F-0.07182378697546457
sg15
g204
sbs(I-1
I5
tp208
g0
(g9
g2
Ntp209
Rp210
(dp211
g13
I00
sg14
F0.1197738697195376
sg15
g208
sbs(I-9
I3931
tp212
g0
(g9
g2
Ntp213
Rp214
(dp215
g13
I01
sg14
F-0.2877660760803747
sg15
g212
sbs(I-7
I7
tp216
g0
(g9
g2
Ntp217
Rp218
(dp219
g13
I01
sg14
F-0.6199032336481858
sg15
g216
sbs(I-6
I9
tp220
g0
(g9
g2
Ntp221
Rp222
(dp223
g13
I00
sg14
F-1.9086990391345673
sg15
g220
sbs(I-7
I9
tp224
g0
(g9
g2
Ntp225
Rp226
(dp227
g13
I01
sg14
F-0.00678342568321566
sg15
g224
sbs(I6
I3734
tp228
g0
(g9
g2
Ntp229
Rp230
(dp231
g13
I01
sg14
F-0.20320578631366837
sg15
g228
sbs(I3931
I8
tp232
g0
(g9
g2
Ntp233
Rp234
(dp235
g13
I00
sg14
F-1.4448723905920628
sg15
g232
sbs(I-1
I9
tp236
g0
(g9
g2
Ntp237
Rp238
(dp239
g13
I00
sg14
F-0.7849675093058195
sg15
g236
sbs(I-1
I6
tp240
g0
(g9
g2
Ntp241
Rp242
(dp243
g13
I01
sg14
F0.015339069975999015
sg15
g240
sbs(I-6
I4216
tp244
g0
(g9
g2
Ntp245
Rp246
(dp247
g13
I01
sg14
F-0.5758745573244736
sg15
g244
sbs(I-8
I3
tp248
g0
(g9
g2
Ntp249
Rp250
(dp251
g13
I01
sg14
F0.29057010585363263
sg15
g248
sbs(I-7
I2
tp252
g0
(g9
g2
Ntp253
Rp254
(dp255
g13
I00
sg14
F0.11699740643980952
sg15
g252
sbs(I-10
I1
tp256
g0
(g9
g2
Ntp257
Rp258
(dp259
g13
I01
sg14
F0.38870835519227925
sg15
g256
sbs(I-5
I3
tp260
g0
(g9
g2
Ntp261
Rp262
(dp263
g13
I00
sg14
F-1.5277857636005236
sg15
g260
sbs(I-9
I4
tp264
g0
(g9
g2
Ntp265
Rp266
(dp267
g13
I00
sg14
F-0.7982391422175905
sg15
g264
sbs(I-4
I4
tp268
g0
(g9
g2
Ntp269
Rp270
(dp271
g13
I00
sg14
F-1.8059698008904261
sg15
g268
sbs(I3
I3734
tp272
g0
(g9
g2
Ntp273
Rp274
(dp275
g13
I00
sg14
F-1.241497010361509
sg15
g272
sbs(I-2
I3
tp276
g0
(g9
g2
Ntp277
Rp278
(dp279
g13
I01
sg14
F-2.220217348139178
sg15
g276
sbs(I-3
I9
tp280
g0
(g9
g2
Ntp281
Rp282
(dp283
g13
I00
sg14
F-2.476835002107327
sg15
g280
sbs(I-7
I8
tp284
g0
(g9
g2
Ntp285
Rp286
(dp287
g13
I00
sg14
F0.7882599311725309
sg15
g284
sbs(I-2
I9
tp288
g0
(g9
g2
Ntp289
Rp290
(dp291
g13
I01
sg14
F1.8536663203840604
sg15
g288
sbs(I7
I7
tp292
g0
(g9
g2
Ntp293
Rp294
(dp295
g13
I00
sg14
F-0.29315603589168526
sg15
g292
sbs(I-1
I8
tp296
g0
(g9
g2
Ntp297
Rp298
(dp299
g13
I00
sg14
F-2.014598129906988
sg15
g296
sbs(I4216
I1
tp300
g0
(g9
g2
Ntp301
Rp302
(dp303
g13
I00
sg14
F0.9046202142261319
sg15
g300
sbs(I310
I1
tp304
g0
(g9
g2
Ntp305
Rp306
(dp307
g13
I01
sg14
F-0.07676092930810206
sg15
g304
sbs(I9
I3931
tp308
g0
(g9
g2
Ntp309
Rp310
(dp311
g13
I01
sg14
F-1.4778473870135773
sg15
g308
sbs(I-6
I0
tp312
g0
(g9
g2
Ntp313
Rp314
(dp315
g13
I01
sg14
F0.796156381167304
sg15
g312
sbs(I4338
I6
tp316
g0
(g9
g2
Ntp317
Rp318
(dp319
g13
I01
sg14
F-0.4783842508815241
sg15
g316
sbs(I0
I0
tp320
g0
(g9
g2
Ntp321
Rp322
(dp323
g13
I00
sg14
F-2.0313152125847633
sg15
g320
sbs(I-8
I7
tp324
g0
(g9
g2
Ntp325
Rp326
(dp327
g13
I00
sg14
F1.216956125103287
sg15
g324
sbs(I-7
I6
tp328
g0
(g9
g2
Ntp329
Rp330
(dp331
g13
I01
sg14
F0.9845438515248863
sg15
g328
sbs(I-2
I1
tp332
g0
(g9
g2
Ntp333
Rp334
(dp335
g13
I01
sg14
F1.7720472281368382
sg15
g332
sbs(I-10
I5
tp336
g0
(g9
g2
Ntp337
Rp338
(dp339
g13
I01
sg14
F1.4091628415057698
sg15
g336
sbs(I-5
I7
tp340
g0
(g9
g2
Ntp341
Rp342
(dp343
g13
I01
sg14
F-1.1278326008633734
sg15
g340
sbs(I-6
I5
tp344
g0
(g9
g2
Ntp345
Rp346
(dp347
g13
I01
sg14
F0.026503655991967356
sg15
g344
sbs(I-9
I0
tp348
g0
(g9
g2
Ntp349
Rp350
(dp351
g13
I01
sg14
F-1.5297284355696832
sg15
g348
sbs(I-10
I8
tp352
g0
(g9
g2
Ntp353
Rp354
(dp355
g13
I01
sg14
F-1.8957912621846271
sg15
g352
sbs(I-4
I0
tp356
g0
(g9
g2
Ntp357
Rp358
(dp359
g13
I01
sg14
F0.7313566234131517
sg15
g356
sbs(I-5
I8
tp360
g0
(g9
g2
Ntp361
Rp362
(dp363
g13
I00
sg14
F-2.517911134390083
sg15
g360
sbs(I-2
I7
tp364
g0
(g9
g2
Ntp365
Rp366
(dp367
g13
I01
sg14
F-0.3930415360978235
sg15
g364
sbs(I-3
I5
tp368
g0
(g9
g2
Ntp369
Rp370
(dp371
g13
I01
sg14
F-0.15965478422842494
sg15
g368
sbs(I-8
I4
tp372
g0
(g9
g2
Ntp373
Rp374
(dp375
g13
I01
sg14
F0.25537740597958214
sg15
g372
sbs(I-7
I1
tp376
g0
(g9
g2
Ntp377
Rp378
(dp379
g13
I01
sg14
F-1.0831991167319774
sg15
g376
sbs(I-5
I2
tp380
g0
(g9
g2
Ntp381
Rp382
(dp383
g13
I00
sg14
F-2.1625094315919124
sg15
g380
sbs(I-6
I6
tp384
g0
(g9
g2
Ntp385
Rp386
(dp387
g13
I01
sg14
F3.0869914759427406
sg15
g384
sbs(I-9
I7
tp388
g0
(g9
g2
Ntp389
Rp390
(dp391
g13
I00
sg14
F-1.0957574180535998
sg15
g388
sbssS'nodes'
p392
(dp393
I0
g0
(cneat.genes
DefaultNodeGene
p394
g2
Ntp395
Rp396
(dp397
S'activation'
p398
S'tanh'
p399
sS'bias'
p400
F12.355913875122157
sS'response'
p401
F1.0
sg15
I0
sS'aggregation'
p402
S'sum'
p403
sbsI1
g0
(g394
g2
Ntp404
Rp405
(dp406
g398
S'relu'
p407
sg400
F-5.710118254242885
sg401
F1.0
sg15
I1
sg402
g403
sbsI2
g0
(g394
g2
Ntp408
Rp409
(dp410
g398
g399
sg400
F1.589339209611805
sg401
F1.0
sg15
I2
sg402
g403
sbsI3
g0
(g394
g2
Ntp411
Rp412
(dp413
g398
g399
sg400
F13.23405372023852
sg401
F1.0
sg15
I3
sg402
g403
sbsI4
g0
(g394
g2
Ntp414
Rp415
(dp416
g398
g407
sg400
F-6.8260464203671685
sg401
F1.0
sg15
I4
sg402
g403
sbsI5
g0
(g394
g2
Ntp417
Rp418
(dp419
g398
g399
sg400
F-0.1784505639353136
sg401
F1.0
sg15
I5
sg402
g403
sbsI6
g0
(g394
g2
Ntp420
Rp421
(dp422
g398
g399
sg400
F2.0722798872870705
sg401
F1.0
sg15
I6
sg402
g403
sbsI7
g0
(g394
g2
Ntp423
Rp424
(dp425
g398
g407
sg400
F2.1315113801504673
sg401
F1.0
sg15
I7
sg402
g403
sbsI8
g0
(g394
g2
Ntp426
Rp427
(dp428
g398
g407
sg400
F-11.030637390665202
sg401
F1.0
sg15
I8
sg402
g403
sbsI9
g0
(g394
g2
Ntp429
Rp430
(dp431
g398
g399
sg400
F-14.5249629682799
sg401
F1.0
sg15
I9
sg402
g403
sbsI4418
g0
(g394
g2
Ntp432
Rp433
(dp434
g398
g407
sg400
F5.949721336787745
sg401
F1.0
sg15
I4418
sg402
g403
sbsI310
g0
(g394
g2
Ntp435
Rp436
(dp437
g398
g407
sg400
F15.704542848975382
sg401
F1.0
sg15
I310
sg402
g403
sbsI4338
g0
(g394
g2
Ntp438
Rp439
(dp440
g398
g399
sg400
F-17.11410026346568
sg401
F1.0
sg15
I4338
sg402
g403
sbsI3734
g0
(g394
g2
Ntp441
Rp442
(dp443
g398
g399
sg400
F-1.370243032451188
sg401
F1.0
sg15
I3734
sg402
g403
sbsI4216
g0
(g394
g2
Ntp444
Rp445
(dp446
g398
g399
sg400
F-5.5850235351795945
sg401
F1.0
sg15
I4216
sg402
g403
sbsI3931
g0
(g394
g2
Ntp447
Rp448
(dp449
g398
g407
sg400
F-6.8858831857870495
sg401
F1.0
sg15
I3931
sg402
g403
sbsI3845
g0
(g394
g2
Ntp450
Rp451
(dp452
g398
g399
sg400
F1.848300682676356
sg401
F1.0
sg15
I3845
sg402
g403
sbssg15
I22421
sS'fitness'
p453
Nsb.