ccopy_reg
_reconstructor
p0
(cneat.genome
DefaultGenome
p1
c__builtin__
object
p2
Ntp3
Rp4
(dp5
S'connections'
p6
(dp7
(I32
I1
tp8
g0
(cneat.genes
DefaultConnectionGene
p9
g2
Ntp10
Rp11
(dp12
S'enabled'
p13
I01
sS'weight'
p14
F-0.864052024110835
sS'key'
p15
g8
sbs(I-14
I32
tp16
g0
(g9
g2
Ntp17
Rp18
(dp19
g13
I01
sg14
F-0.5320693213874429
sg15
g16
sbs(I-11
I32
tp20
g0
(g9
g2
Ntp21
Rp22
(dp23
g13
I01
sg14
F0.14658160164978676
sg15
g20
sbs(I-3
I32
tp24
g0
(g9
g2
Ntp25
Rp26
(dp27
g13
I01
sg14
F-0.8098561935785897
sg15
g24
sbs(I32
I6
tp28
g0
(g9
g2
Ntp29
Rp30
(dp31
g13
I01
sg14
F0.41806472546789125
sg15
g28
sbs(I-18
I32
tp32
g0
(g9
g2
Ntp33
Rp34
(dp35
g13
I01
sg14
F-0.919502619990335
sg15
g32
sbs(I32
I9
tp36
g0
(g9
g2
Ntp37
Rp38
(dp39
g13
I01
sg14
F-1.0459601945682986
sg15
g36
sbs(I-8
I32
tp40
g0
(g9
g2
Ntp41
Rp42
(dp43
g13
I01
sg14
F1.2631650620642545
sg15
g40
sbs(I-10
I32
tp44
g0
(g9
g2
Ntp45
Rp46
(dp47
g13
I01
sg14
F-1.652609538727721
sg15
g44
sbs(I-1
I32
tp48
g0
(g9
g2
Ntp49
Rp50
(dp51
g13
I01
sg14
F0.38282381766901613
sg15
g48
sbs(I-20
I32
tp52
g0
(g9
g2
Ntp53
Rp54
(dp55
g13
I01
sg14
F0.8757747126433693
sg15
g52
sbs(I-17
I32
tp56
g0
(g9
g2
Ntp57
Rp58
(dp59
g13
I01
sg14
F1.6273583717385613
sg15
g56
sbs(I32
I7
tp60
g0
(g9
g2
Ntp61
Rp62
(dp63
g13
I01
sg14
F-0.35085051852183124
sg15
g60
sbs(I32
I2
tp64
g0
(g9
g2
Ntp65
Rp66
(dp67
g13
I01
sg14
F-0.4008760322342088
sg15
g64
sbs(I-7
I32
tp68
g0
(g9
g2
Ntp69
Rp70
(dp71
g13
I01
sg14
F-0.8495605372345505
sg15
g68
sbs(I-9
I32
tp72
g0
(g9
g2
Ntp73
Rp74
(dp75
g13
I01
sg14
F0.3157407276761215
sg15
g72
sbs(I32
I3
tp76
g0
(g9
g2
Ntp77
Rp78
(dp79
g13
I01
sg14
F3.265036537764214
sg15
g76
sbs(I-19
I32
tp80
g0
(g9
g2
Ntp81
Rp82
(dp83
g13
I01
sg14
F-0.932281927495264
sg15
g80
sbs(I-6
I32
tp84
g0
(g9
g2
Ntp85
Rp86
(dp87
g13
I01
sg14
F-1.0226849472792021
sg15
g84
sbs(I-16
I32
tp88
g0
(g9
g2
Ntp89
Rp90
(dp91
g13
I01
sg14
F-0.8085390177586543
sg15
g88
sbs(I32
I4
tp92
g0
(g9
g2
Ntp93
Rp94
(dp95
g13
I01
sg14
F0.21348324616254127
sg15
g92
sbs(I-13
I32
tp96
g0
(g9
g2
Ntp97
Rp98
(dp99
g13
I01
sg14
F1.0274673537180155
sg15
g96
sbs(I-2
I32
tp100
g0
(g9
g2
Ntp101
Rp102
(dp103
g13
I01
sg14
F0.13732985033256656
sg15
g100
sbs(I-5
I32
tp104
g0
(g9
g2
Ntp105
Rp106
(dp107
g13
I01
sg14
F-1.8523678034193067
sg15
g104
sbs(I32
I0
tp108
g0
(g9
g2
Ntp109
Rp110
(dp111
g13
I01
sg14
F0.8546129552784926
sg15
g108
sbs(I-15
I32
tp112
g0
(g9
g2
Ntp113
Rp114
(dp115
g13
I01
sg14
F-2.5148876115106793
sg15
g112
sbs(I-12
I32
tp116
g0
(g9
g2
Ntp117
Rp118
(dp119
g13
I01
sg14
F-0.8103863314744162
sg15
g116
sbs(I32
I5
tp120
g0
(g9
g2
Ntp121
Rp122
(dp123
g13
I01
sg14
F-1.9645917216152853
sg15
g120
sbs(I-4
I32
tp124
g0
(g9
g2
Ntp125
Rp126
(dp127
g13
I01
sg14
F-0.4521010016359743
sg15
g124
sbs(I32
I8
tp128
g0
(g9
g2
Ntp129
Rp130
(dp131
g13
I01
sg14
F-0.201729528547536
sg15
g128
sbssS'nodes'
p132
(dp133
I0
g0
(cneat.genes
DefaultNodeGene
p134
g2
Ntp135
Rp136
(dp137
S'activation'
p138
S'relu'
p139
sS'bias'
p140
F11.638009461566492
sS'response'
p141
F1.0
sg15
I0
sS'aggregation'
p142
S'sum'
p143
sbsI1
g0
(g134
g2
Ntp144
Rp145
(dp146
g138
g139
sg140
F-5.3770787365108195
sg141
F1.0
sg15
I1
sg142
g143
sbsI2
g0
(g134
g2
Ntp147
Rp148
(dp149
g138
g139
sg140
F28.92527227979052
sg141
F1.0
sg15
I2
sg142
g143
sbsI3
g0
(g134
g2
Ntp150
Rp151
(dp152
g138
g139
sg140
F13.716876448207973
sg141
F1.0
sg15
I3
sg142
g143
sbsI4
g0
(g134
g2
Ntp153
Rp154
(dp155
g138
g139
sg140
F5.533862523303225
sg141
F1.0
sg15
I4
sg142
g143
sbsI5
g0
(g134
g2
Ntp156
Rp157
(dp158
g138
g139
sg140
F-1.5767089306673812
sg141
F1.0
sg15
I5
sg142
g143
sbsI6
g0
(g134
g2
Ntp159
Rp160
(dp161
g138
g139
sg140
F17.649849679296278
sg141
F1.0
sg15
I6
sg142
g143
sbsI7
g0
(g134
g2
Ntp162
Rp163
(dp164
g138
g139
sg140
F-7.795393540242385
sg141
F1.0
sg15
I7
sg142
g143
sbsI8
g0
(g134
g2
Ntp165
Rp166
(dp167
g138
g139
sg140
F8.15013276232548
sg141
F1.0
sg15
I8
sg142
g143
sbsI9
g0
(g134
g2
Ntp168
Rp169
(dp170
g138
g139
sg140
F15.771036083414279
sg141
F1.0
sg15
I9
sg142
g143
sbsI32
g0
(g134
g2
Ntp171
Rp172
(dp173
g138
g139
sg140
F20.431192805098817
sg141
F1.0
sg15
I32
sg142
g143
sbssg15
I23
sS'fitness'
p174
Nsb.