ccopy_reg
_reconstructor
p0
(cneat.genome
DefaultGenome
p1
c__builtin__
object
p2
Ntp3
Rp4
(dp5
S'connections'
p6
(dp7
(I-8
I327
tp8
g0
(cneat.genes
DefaultConnectionGene
p9
g2
Ntp10
Rp11
(dp12
S'enabled'
p13
I00
sS'weight'
p14
F-0.4601893734495999
sS'key'
p15
g8
sbs(I328
I7
tp16
g0
(g9
g2
Ntp17
Rp18
(dp19
g13
I01
sg14
F-0.14975268372565545
sg15
g16
sbs(I-5
I328
tp20
g0
(g9
g2
Ntp21
Rp22
(dp23
g13
I01
sg14
F0.06161373521404167
sg15
g20
sbs(I327
I9
tp24
g0
(g9
g2
Ntp25
Rp26
(dp27
g13
I01
sg14
F0.5064341220765474
sg15
g24
sbs(I327
I4
tp28
g0
(g9
g2
Ntp29
Rp30
(dp31
g13
I01
sg14
F0.7634740971009499
sg15
g28
sbs(I3
I3
tp32
g0
(g9
g2
Ntp33
Rp34
(dp35
g13
I00
sg14
F-1.5905856252968011
sg15
g32
sbs(I-9
I328
tp36
g0
(g9
g2
Ntp37
Rp38
(dp39
g13
I00
sg14
F1.5663566265582276
sg15
g36
sbs(I-2
I328
tp40
g0
(g9
g2
Ntp41
Rp42
(dp43
g13
I01
sg14
F0.8770930590856668
sg15
g40
sbs(I3
I328
tp44
g0
(g9
g2
Ntp45
Rp46
(dp47
g13
I00
sg14
F2.0013648842707985
sg15
g44
sbs(I328
I8
tp48
g0
(g9
g2
Ntp49
Rp50
(dp51
g13
I00
sg14
F0.5296232748022953
sg15
g48
sbs(I2
I2
tp52
g0
(g9
g2
Ntp53
Rp54
(dp55
g13
I01
sg14
F-0.204024880184256
sg15
g52
sbs(I327
I8
tp56
g0
(g9
g2
Ntp57
Rp58
(dp59
g13
I01
sg14
F-1.6759214242046683
sg15
g56
sbs(I1
I1
tp60
g0
(g9
g2
Ntp61
Rp62
(dp63
g13
I01
sg14
F1.172516034982976
sg15
g60
sbs(I327
I3
tp64
g0
(g9
g2
Ntp65
Rp66
(dp67
g13
I01
sg14
F2.4051833957630313
sg15
g64
sbs(I0
I0
tp68
g0
(g9
g2
Ntp69
Rp70
(dp71
g13
I01
sg14
F-1.2025519134755596
sg15
g68
sbs(I2
I328
tp72
g0
(g9
g2
Ntp73
Rp74
(dp75
g13
I01
sg14
F0.5709603231293094
sg15
g72
sbs(I327
I7
tp76
g0
(g9
g2
Ntp77
Rp78
(dp79
g13
I01
sg14
F1.2595386972661968
sg15
g76
sbs(I328
I9
tp80
g0
(g9
g2
Ntp81
Rp82
(dp83
g13
I01
sg14
F-0.45686127837604484
sg15
g80
sbs(I-6
I328
tp84
g0
(g9
g2
Ntp85
Rp86
(dp87
g13
I01
sg14
F0.2556355406610085
sg15
g84
sbs(I-10
I327
tp88
g0
(g9
g2
Ntp89
Rp90
(dp91
g13
I01
sg14
F0.549634742159963
sg15
g88
sbs(I327
I2
tp92
g0
(g9
g2
Ntp93
Rp94
(dp95
g13
I01
sg14
F-1.0187503840435843
sg15
g92
sbs(I-3
I327
tp96
g0
(g9
g2
Ntp97
Rp98
(dp99
g13
I01
sg14
F-0.6912600626402382
sg15
g96
sbs(I328
I1
tp100
g0
(g9
g2
Ntp101
Rp102
(dp103
g13
I01
sg14
F-1.4285310628744068
sg15
g100
sbs(I327
I6
tp104
g0
(g9
g2
Ntp105
Rp106
(dp107
g13
I00
sg14
F-0.073262803930493
sg15
g104
sbs(I8
I8
tp108
g0
(g9
g2
Ntp109
Rp110
(dp111
g13
I01
sg14
F-2.6209877700278708
sg15
g108
sbs(I-4
I327
tp112
g0
(g9
g2
Ntp113
Rp114
(dp115
g13
I01
sg14
F-0.21100620345000032
sg15
g112
sbssS'nodes'
p116
(dp117
I0
g0
(cneat.genes
DefaultNodeGene
p118
g2
Ntp119
Rp120
(dp121
S'activation'
p122
S'tanh'
p123
sS'bias'
p124
F-0.9251384047877591
sS'response'
p125
F1.0
sg15
I0
sS'aggregation'
p126
S'sum'
p127
sbsI1
g0
(g118
g2
Ntp128
Rp129
(dp130
g122
g123
sg124
F-6.737248704984597
sg125
F1.0
sg15
I1
sg126
g127
sbsI2
g0
(g118
g2
Ntp131
Rp132
(dp133
g122
g123
sg124
F-1.5590855281200728
sg125
F1.0
sg15
I2
sg126
g127
sbsI3
g0
(g118
g2
Ntp134
Rp135
(dp136
g122
g123
sg124
F-5.4196180267290766
sg125
F1.0
sg15
I3
sg126
g127
sbsI4
g0
(g118
g2
Ntp137
Rp138
(dp139
g122
g123
sg124
F4.690278266611986
sg125
F1.0
sg15
I4
sg126
g127
sbsI5
g0
(g118
g2
Ntp140
Rp141
(dp142
g122
g123
sg124
F-0.8806780673256985
sg125
F1.0
sg15
I5
sg126
g127
sbsI6
g0
(g118
g2
Ntp143
Rp144
(dp145
g122
g123
sg124
F-6.9107592158174755
sg125
F1.0
sg15
I6
sg126
g127
sbsI7
g0
(g118
g2
Ntp146
Rp147
(dp148
g122
S'relu'
p149
sg124
F-10.435383439736016
sg125
F1.0
sg15
I7
sg126
g127
sbsI8
g0
(g118
g2
Ntp150
Rp151
(dp152
g122
g123
sg124
F-1.596578526219149
sg125
F1.0
sg15
I8
sg126
g127
sbsI9
g0
(g118
g2
Ntp153
Rp154
(dp155
g122
g123
sg124
F4.356955168486356
sg125
F1.0
sg15
I9
sg126
g127
sbsI327
g0
(g118
g2
Ntp156
Rp157
(dp158
g122
g123
sg124
F-15.804367478410777
sg125
F1.0
sg15
I327
sg126
g127
sbsI328
g0
(g118
g2
Ntp159
Rp160
(dp161
g122
g123
sg124
F-0.2793621423043827
sg125
F1.0
sg15
I328
sg126
g127
sbssg15
I24
sS'fitness'
p162
Nsb.