ccopy_reg
_reconstructor
p0
(cneat.genome
DefaultGenome
p1
c__builtin__
object
p2
Ntp3
Rp4
(dp5
S'connections'
p6
(dp7
(I33
I7
tp8
g0
(cneat.genes
DefaultConnectionGene
p9
g2
Ntp10
Rp11
(dp12
S'enabled'
p13
I01
sS'weight'
p14
F-0.931291181370524
sS'key'
p15
g8
sbs(I-12
I33
tp16
g0
(g9
g2
Ntp17
Rp18
(dp19
g13
I01
sg14
F0.7121964375725056
sg15
g16
sbs(I-2
I33
tp20
g0
(g9
g2
Ntp21
Rp22
(dp23
g13
I01
sg14
F-1.483513756619404
sg15
g20
sbs(I-17
I33
tp24
g0
(g9
g2
Ntp25
Rp26
(dp27
g13
I01
sg14
F0.17769315511271377
sg15
g24
sbs(I33
I8
tp28
g0
(g9
g2
Ntp29
Rp30
(dp31
g13
I01
sg14
F0.17759860607880637
sg15
g28
sbs(I-4
I33
tp32
g0
(g9
g2
Ntp33
Rp34
(dp35
g13
I01
sg14
F0.1104058494166813
sg15
g32
sbs(I-7
I33
tp36
g0
(g9
g2
Ntp37
Rp38
(dp39
g13
I01
sg14
F-1.4036814108518016
sg15
g36
sbs(I-9
I33
tp40
g0
(g9
g2
Ntp41
Rp42
(dp43
g13
I01
sg14
F0.26306096514872324
sg15
g40
sbs(I-14
I33
tp44
g0
(g9
g2
Ntp45
Rp46
(dp47
g13
I01
sg14
F-0.40240707647002005
sg15
g44
sbs(I-19
I33
tp48
g0
(g9
g2
Ntp49
Rp50
(dp51
g13
I01
sg14
F-1.4221882600352724
sg15
g48
sbs(I33
I3
tp52
g0
(g9
g2
Ntp53
Rp54
(dp55
g13
I01
sg14
F-1.629711811804198
sg15
g52
sbs(I-18
I33
tp56
g0
(g9
g2
Ntp57
Rp58
(dp59
g13
I01
sg14
F-1.3667408628525128
sg15
g56
sbs(I33
I6
tp60
g0
(g9
g2
Ntp61
Rp62
(dp63
g13
I01
sg14
F1.0648543775729564
sg15
g60
sbs(I-8
I33
tp64
g0
(g9
g2
Ntp65
Rp66
(dp67
g13
I01
sg14
F1.0241232698305702
sg15
g64
sbs(I-10
I33
tp68
g0
(g9
g2
Ntp69
Rp70
(dp71
g13
I01
sg14
F0.5499883636388366
sg15
g68
sbs(I-13
I33
tp72
g0
(g9
g2
Ntp73
Rp74
(dp75
g13
I01
sg14
F-0.4348632707171227
sg15
g72
sbs(I33
I2
tp76
g0
(g9
g2
Ntp77
Rp78
(dp79
g13
I01
sg14
F-0.7641360933247732
sg15
g76
sbs(I-1
I33
tp80
g0
(g9
g2
Ntp81
Rp82
(dp83
g13
I01
sg14
F2.4524594976935226
sg15
g80
sbs(I-5
I33
tp84
g0
(g9
g2
Ntp85
Rp86
(dp87
g13
I01
sg14
F1.2158479427533129
sg15
g84
sbs(I-20
I33
tp88
g0
(g9
g2
Ntp89
Rp90
(dp91
g13
I01
sg14
F0.2817015482816579
sg15
g88
sbs(I-15
I33
tp92
g0
(g9
g2
Ntp93
Rp94
(dp95
g13
I01
sg14
F0.21533433566808466
sg15
g92
sbs(I33
I5
tp96
g0
(g9
g2
Ntp97
Rp98
(dp99
g13
I01
sg14
F-0.20625616450977563
sg15
g96
sbs(I33
I1
tp100
g0
(g9
g2
Ntp101
Rp102
(dp103
g13
I01
sg14
F0.18112198178968578
sg15
g100
sbs(I-6
I33
tp104
g0
(g9
g2
Ntp105
Rp106
(dp107
g13
I01
sg14
F-1.5771419326440408
sg15
g104
sbs(I-11
I33
tp108
g0
(g9
g2
Ntp109
Rp110
(dp111
g13
I01
sg14
F-1.4724817172253402
sg15
g108
sbs(I33
I4
tp112
g0
(g9
g2
Ntp113
Rp114
(dp115
g13
I01
sg14
F0.8897540087322181
sg15
g112
sbs(I-16
I33
tp116
g0
(g9
g2
Ntp117
Rp118
(dp119
g13
I01
sg14
F0.35378206745061186
sg15
g116
sbs(I-3
I33
tp120
g0
(g9
g2
Ntp121
Rp122
(dp123
g13
I01
sg14
F-0.35251701138711256
sg15
g120
sbs(I33
I9
tp124
g0
(g9
g2
Ntp125
Rp126
(dp127
g13
I01
sg14
F-0.6541803481692835
sg15
g124
sbs(I33
I0
tp128
g0
(g9
g2
Ntp129
Rp130
(dp131
g13
I01
sg14
F0.01415410553463931
sg15
g128
sbssS'nodes'
p132
(dp133
I0
g0
(cneat.genes
DefaultNodeGene
p134
g2
Ntp135
Rp136
(dp137
S'activation'
p138
S'relu'
p139
sS'bias'
p140
F16.12000957739929
sS'response'
p141
F1.0
sg15
I0
sS'aggregation'
p142
S'sum'
p143
sbsI1
g0
(g134
g2
Ntp144
Rp145
(dp146
g138
g139
sg140
F2.7289521930582468
sg141
F1.0
sg15
I1
sg142
g143
sbsI2
g0
(g134
g2
Ntp147
Rp148
(dp149
g138
g139
sg140
F10.30229925137888
sg141
F1.0
sg15
I2
sg142
g143
sbsI3
g0
(g134
g2
Ntp150
Rp151
(dp152
g138
g139
sg140
F1.2802377966627323
sg141
F1.0
sg15
I3
sg142
g143
sbsI4
g0
(g134
g2
Ntp153
Rp154
(dp155
g138
g139
sg140
F1.7654776762186994
sg141
F1.0
sg15
I4
sg142
g143
sbsI5
g0
(g134
g2
Ntp156
Rp157
(dp158
g138
g139
sg140
F-0.6296448057231341
sg141
F1.0
sg15
I5
sg142
g143
sbsI6
g0
(g134
g2
Ntp159
Rp160
(dp161
g138
g139
sg140
F4.204279049069851
sg141
F1.0
sg15
I6
sg142
g143
sbsI7
g0
(g134
g2
Ntp162
Rp163
(dp164
g138
g139
sg140
F-18.430434810954704
sg141
F1.0
sg15
I7
sg142
g143
sbsI8
g0
(g134
g2
Ntp165
Rp166
(dp167
g138
g139
sg140
F-0.7062373032225029
sg141
F1.0
sg15
I8
sg142
g143
sbsI9
g0
(g134
g2
Ntp168
Rp169
(dp170
g138
g139
sg140
F9.042424753384225
sg141
F1.0
sg15
I9
sg142
g143
sbsI33
g0
(g134
g2
Ntp171
Rp172
(dp173
g138
g139
sg140
F-16.78044662625552
sg141
F1.0
sg15
I33
sg142
g143
sbssg15
I24
sS'fitness'
p174
Nsb.