ccopy_reg
_reconstructor
p0
(cneat.genome
DefaultGenome
p1
c__builtin__
object
p2
Ntp3
Rp4
(dp5
S'connections'
p6
(dp7
(I34
I7
tp8
g0
(cneat.genes
DefaultConnectionGene
p9
g2
Ntp10
Rp11
(dp12
S'enabled'
p13
I01
sS'weight'
p14
F0.1283536712297875
sS'key'
p15
g8
sbs(I-1
I34
tp16
g0
(g9
g2
Ntp17
Rp18
(dp19
g13
I01
sg14
F-0.2045616925430484
sg15
g16
sbs(I-19
I34
tp20
g0
(g9
g2
Ntp21
Rp22
(dp23
g13
I01
sg14
F0.19623221007054215
sg15
g20
sbs(I-16
I34
tp24
g0
(g9
g2
Ntp25
Rp26
(dp27
g13
I01
sg14
F-0.22692306102821663
sg15
g24
sbs(I-6
I34
tp28
g0
(g9
g2
Ntp29
Rp30
(dp31
g13
I01
sg14
F0.20897377220294835
sg15
g28
sbs(I34
I0
tp32
g0
(g9
g2
Ntp33
Rp34
(dp35
g13
I01
sg14
F-0.12215839554717774
sg15
g32
sbs(I-13
I34
tp36
g0
(g9
g2
Ntp37
Rp38
(dp39
g13
I01
sg14
F-0.9138590914465645
sg15
g36
sbs(I-5
I34
tp40
g0
(g9
g2
Ntp41
Rp42
(dp43
g13
I01
sg14
F-0.5592274147211128
sg15
g40
sbs(I34
I4
tp44
g0
(g9
g2
Ntp45
Rp46
(dp47
g13
I01
sg14
F-0.4640414847909932
sg15
g44
sbs(I-12
I34
tp48
g0
(g9
g2
Ntp49
Rp50
(dp51
g13
I01
sg14
F-0.1920135121924147
sg15
g48
sbs(I34
I1
tp52
g0
(g9
g2
Ntp53
Rp54
(dp55
g13
I01
sg14
F-1.2864472177065993
sg15
g52
sbs(I-15
I34
tp56
g0
(g9
g2
Ntp57
Rp58
(dp59
g13
I01
sg14
F0.2220895176091277
sg15
g56
sbs(I-4
I34
tp60
g0
(g9
g2
Ntp61
Rp62
(dp63
g13
I01
sg14
F0.5247704886331743
sg15
g60
sbs(I34
I5
tp64
g0
(g9
g2
Ntp65
Rp66
(dp67
g13
I01
sg14
F0.15736810635212098
sg15
g64
sbs(I34
I9
tp68
g0
(g9
g2
Ntp69
Rp70
(dp71
g13
I01
sg14
F0.7633903615503742
sg15
g68
sbs(I-14
I34
tp72
g0
(g9
g2
Ntp73
Rp74
(dp75
g13
I01
sg14
F0.49529437743802013
sg15
g72
sbs(I-11
I34
tp76
g0
(g9
g2
Ntp77
Rp78
(dp79
g13
I01
sg14
F-0.02425424112992095
sg15
g76
sbs(I34
I6
tp80
g0
(g9
g2
Ntp81
Rp82
(dp83
g13
I01
sg14
F-1.0830562095145277
sg15
g80
sbs(I-3
I34
tp84
g0
(g9
g2
Ntp85
Rp86
(dp87
g13
I01
sg14
F0.39038791381173177
sg15
g84
sbs(I-8
I34
tp88
g0
(g9
g2
Ntp89
Rp90
(dp91
g13
I01
sg14
F-0.15887396600073608
sg15
g88
sbs(I34
I2
tp92
g0
(g9
g2
Ntp93
Rp94
(dp95
g13
I01
sg14
F0.3301154258860512
sg15
g92
sbs(I-18
I34
tp96
g0
(g9
g2
Ntp97
Rp98
(dp99
g13
I01
sg14
F-0.7360548798141102
sg15
g96
sbs(I-20
I34
tp100
g0
(g9
g2
Ntp101
Rp102
(dp103
g13
I01
sg14
F-2.384829160394206
sg15
g100
sbs(I-10
I34
tp104
g0
(g9
g2
Ntp105
Rp106
(dp107
g13
I01
sg14
F-0.0719662878885783
sg15
g104
sbs(I-17
I34
tp108
g0
(g9
g2
Ntp109
Rp110
(dp111
g13
I01
sg14
F0.10990230779845872
sg15
g108
sbs(I-2
I34
tp112
g0
(g9
g2
Ntp113
Rp114
(dp115
g13
I01
sg14
F0.1871101389095522
sg15
g112
sbs(I-9
I34
tp116
g0
(g9
g2
Ntp117
Rp118
(dp119
g13
I01
sg14
F-1.1098572414961363
sg15
g116
sbs(I34
I3
tp120
g0
(g9
g2
Ntp121
Rp122
(dp123
g13
I01
sg14
F0.2984773872170726
sg15
g120
sbs(I34
I8
tp124
g0
(g9
g2
Ntp125
Rp126
(dp127
g13
I01
sg14
F-0.9641994933603627
sg15
g124
sbs(I-7
I34
tp128
g0
(g9
g2
Ntp129
Rp130
(dp131
g13
I01
sg14
F-0.6767202792763722
sg15
g128
sbssS'nodes'
p132
(dp133
I0
g0
(cneat.genes
DefaultNodeGene
p134
g2
Ntp135
Rp136
(dp137
S'activation'
p138
S'relu'
p139
sS'bias'
p140
F17.770519021472523
sS'response'
p141
F1.0
sg15
I0
sS'aggregation'
p142
S'sum'
p143
sbsI1
g0
(g134
g2
Ntp144
Rp145
(dp146
g138
g139
sg140
F8.062343341472811
sg141
F1.0
sg15
I1
sg142
g143
sbsI2
g0
(g134
g2
Ntp147
Rp148
(dp149
g138
g139
sg140
F9.370319302133165
sg141
F1.0
sg15
I2
sg142
g143
sbsI3
g0
(g134
g2
Ntp150
Rp151
(dp152
g138
g139
sg140
F12.989422818550178
sg141
F1.0
sg15
I3
sg142
g143
sbsI4
g0
(g134
g2
Ntp153
Rp154
(dp155
g138
g139
sg140
F6.818655220882762
sg141
F1.0
sg15
I4
sg142
g143
sbsI5
g0
(g134
g2
Ntp156
Rp157
(dp158
g138
g139
sg140
F-19.230747980093877
sg141
F1.0
sg15
I5
sg142
g143
sbsI6
g0
(g134
g2
Ntp159
Rp160
(dp161
g138
g139
sg140
F-4.892516409579618
sg141
F1.0
sg15
I6
sg142
g143
sbsI7
g0
(g134
g2
Ntp162
Rp163
(dp164
g138
g139
sg140
F17.791259335551025
sg141
F1.0
sg15
I7
sg142
g143
sbsI8
g0
(g134
g2
Ntp165
Rp166
(dp167
g138
g139
sg140
F1.086962733541528
sg141
F1.0
sg15
I8
sg142
g143
sbsI9
g0
(g134
g2
Ntp168
Rp169
(dp170
g138
g139
sg140
F-13.43265495758435
sg141
F1.0
sg15
I9
sg142
g143
sbsI34
g0
(g134
g2
Ntp171
Rp172
(dp173
g138
g139
sg140
F22.260126990435346
sg141
F1.0
sg15
I34
sg142
g143
sbssg15
I25
sS'fitness'
p174
Nsb.