ccopy_reg
_reconstructor
p0
(cneat.genome
DefaultGenome
p1
c__builtin__
object
p2
Ntp3
Rp4
(dp5
S'connections'
p6
(dp7
(I-10
I35
tp8
g0
(cneat.genes
DefaultConnectionGene
p9
g2
Ntp10
Rp11
(dp12
S'enabled'
p13
I01
sS'weight'
p14
F1.3443145591305674
sS'key'
p15
g8
sbs(I-1
I35
tp16
g0
(g9
g2
Ntp17
Rp18
(dp19
g13
I01
sg14
F1.1008318281378227
sg15
g16
sbs(I35
I1
tp20
g0
(g9
g2
Ntp21
Rp22
(dp23
g13
I01
sg14
F2.1794331063939256
sg15
g20
sbs(I35
I8
tp24
g0
(g9
g2
Ntp25
Rp26
(dp27
g13
I01
sg14
F0.06414393063342129
sg15
g24
sbs(I-15
I35
tp28
g0
(g9
g2
Ntp29
Rp30
(dp31
g13
I01
sg14
F-1.1344478896423877
sg15
g28
sbs(I35
I4
tp32
g0
(g9
g2
Ntp33
Rp34
(dp35
g13
I01
sg14
F-0.07592681094995246
sg15
g32
sbs(I35
I0
tp36
g0
(g9
g2
Ntp37
Rp38
(dp39
g13
I01
sg14
F0.28068214719268136
sg15
g36
sbs(I-16
I35
tp40
g0
(g9
g2
Ntp41
Rp42
(dp43
g13
I01
sg14
F0.5108217292521856
sg15
g40
sbs(I-6
I35
tp44
g0
(g9
g2
Ntp45
Rp46
(dp47
g13
I01
sg14
F0.5554414156318453
sg15
g44
sbs(I-11
I35
tp48
g0
(g9
g2
Ntp49
Rp50
(dp51
g13
I01
sg14
F-0.8991094979255426
sg15
g48
sbs(I-2
I35
tp52
g0
(g9
g2
Ntp53
Rp54
(dp55
g13
I01
sg14
F-0.308170714401353
sg15
g52
sbs(I-3
I35
tp56
g0
(g9
g2
Ntp57
Rp58
(dp59
g13
I01
sg14
F0.04767176643464866
sg15
g56
sbs(I35
I7
tp60
g0
(g9
g2
Ntp61
Rp62
(dp63
g13
I01
sg14
F-0.24293863616055172
sg15
g60
sbs(I35
I3
tp64
g0
(g9
g2
Ntp65
Rp66
(dp67
g13
I01
sg14
F-0.08328314603337761
sg15
g64
sbs(I-12
I35
tp68
g0
(g9
g2
Ntp69
Rp70
(dp71
g13
I01
sg14
F-0.2118044972732612
sg15
g68
sbs(I-17
I35
tp72
g0
(g9
g2
Ntp73
Rp74
(dp75
g13
I01
sg14
F0.324045039711526
sg15
g72
sbs(I-4
I35
tp76
g0
(g9
g2
Ntp77
Rp78
(dp79
g13
I01
sg14
F-1.5957342394476524
sg15
g76
sbs(I-9
I35
tp80
g0
(g9
g2
Ntp81
Rp82
(dp83
g13
I01
sg14
F0.48843888965879306
sg15
g80
sbs(I35
I6
tp84
g0
(g9
g2
Ntp85
Rp86
(dp87
g13
I01
sg14
F1.392147493260689
sg15
g84
sbs(I-7
I35
tp88
g0
(g9
g2
Ntp89
Rp90
(dp91
g13
I01
sg14
F-0.8007753416851436
sg15
g88
sbs(I35
I2
tp92
g0
(g9
g2
Ntp93
Rp94
(dp95
g13
I01
sg14
F-0.6573594337171808
sg15
g92
sbs(I-14
I35
tp96
g0
(g9
g2
Ntp97
Rp98
(dp99
g13
I01
sg14
F-0.48479887644021186
sg15
g96
sbs(I-19
I35
tp100
g0
(g9
g2
Ntp101
Rp102
(dp103
g13
I01
sg14
F1.251934876186714
sg15
g100
sbs(I-8
I35
tp104
g0
(g9
g2
Ntp105
Rp106
(dp107
g13
I01
sg14
F1.2989022209264114
sg15
g104
sbs(I35
I9
tp108
g0
(g9
g2
Ntp109
Rp110
(dp111
g13
I01
sg14
F0.37338442346296646
sg15
g108
sbs(I-13
I35
tp112
g0
(g9
g2
Ntp113
Rp114
(dp115
g13
I01
sg14
F-1.2639907137518671
sg15
g112
sbs(I-18
I35
tp116
g0
(g9
g2
Ntp117
Rp118
(dp119
g13
I01
sg14
F0.13442691282814886
sg15
g116
sbs(I-5
I35
tp120
g0
(g9
g2
Ntp121
Rp122
(dp123
g13
I01
sg14
F1.2853212240002718
sg15
g120
sbs(I-20
I35
tp124
g0
(g9
g2
Ntp125
Rp126
(dp127
g13
I01
sg14
F-1.0228405270807084
sg15
g124
sbs(I35
I5
tp128
g0
(g9
g2
Ntp129
Rp130
(dp131
g13
I01
sg14
F-1.1533117814127807
sg15
g128
sbssS'nodes'
p132
(dp133
I0
g0
(cneat.genes
DefaultNodeGene
p134
g2
Ntp135
Rp136
(dp137
S'activation'
p138
S'relu'
p139
sS'bias'
p140
F4.837905726850289
sS'response'
p141
F1.0
sg15
I0
sS'aggregation'
p142
S'sum'
p143
sbsI1
g0
(g134
g2
Ntp144
Rp145
(dp146
g138
g139
sg140
F-3.3800440706573873
sg141
F1.0
sg15
I1
sg142
g143
sbsI2
g0
(g134
g2
Ntp147
Rp148
(dp149
g138
g139
sg140
F-4.367165043018282
sg141
F1.0
sg15
I2
sg142
g143
sbsI3
g0
(g134
g2
Ntp150
Rp151
(dp152
g138
g139
sg140
F-8.302633430182821
sg141
F1.0
sg15
I3
sg142
g143
sbsI4
g0
(g134
g2
Ntp153
Rp154
(dp155
g138
g139
sg140
F-1.3310182878680004
sg141
F1.0
sg15
I4
sg142
g143
sbsI5
g0
(g134
g2
Ntp156
Rp157
(dp158
g138
g139
sg140
F-3.0472312434390387
sg141
F1.0
sg15
I5
sg142
g143
sbsI6
g0
(g134
g2
Ntp159
Rp160
(dp161
g138
g139
sg140
F13.966679358291385
sg141
F1.0
sg15
I6
sg142
g143
sbsI7
g0
(g134
g2
Ntp162
Rp163
(dp164
g138
g139
sg140
F7.721383488441006
sg141
F1.0
sg15
I7
sg142
g143
sbsI8
g0
(g134
g2
Ntp165
Rp166
(dp167
g138
g139
sg140
F3.31304109953195
sg141
F1.0
sg15
I8
sg142
g143
sbsI9
g0
(g134
g2
Ntp168
Rp169
(dp170
g138
g139
sg140
F14.074502310580112
sg141
F1.0
sg15
I9
sg142
g143
sbsI35
g0
(g134
g2
Ntp171
Rp172
(dp173
g138
g139
sg140
F-6.899813119190688
sg141
F1.0
sg15
I35
sg142
g143
sbssg15
I26
sS'fitness'
p174
Nsb.