ccopy_reg
_reconstructor
p0
(cneat.genome
DefaultGenome
p1
c__builtin__
object
p2
Ntp3
Rp4
(dp5
S'connections'
p6
(dp7
(I-8
I327
tp8
g0
(cneat.genes
DefaultConnectionGene
p9
g2
Ntp10
Rp11
(dp12
S'enabled'
p13
I00
sS'weight'
p14
F-0.17240179756967172
sS'key'
p15
g8
sbs(I-9
I620
tp16
g0
(g9
g2
Ntp17
Rp18
(dp19
g13
I01
sg14
F1.2847862780609443
sg15
g16
sbs(I328
I7
tp20
g0
(g9
g2
Ntp21
Rp22
(dp23
g13
I01
sg14
F-0.04454836378746432
sg15
g20
sbs(I-5
I328
tp24
g0
(g9
g2
Ntp25
Rp26
(dp27
g13
I00
sg14
F1.3221599272213593
sg15
g24
sbs(I327
I9
tp28
g0
(g9
g2
Ntp29
Rp30
(dp31
g13
I01
sg14
F1.2728927097327802
sg15
g28
sbs(I327
I4
tp32
g0
(g9
g2
Ntp33
Rp34
(dp35
g13
I01
sg14
F1.1741520998137482
sg15
g32
sbs(I3
I3
tp36
g0
(g9
g2
Ntp37
Rp38
(dp39
g13
I00
sg14
F-1.6753276485350008
sg15
g36
sbs(I-9
I328
tp40
g0
(g9
g2
Ntp41
Rp42
(dp43
g13
I00
sg14
F1.7024044176533395
sg15
g40
sbs(I-2
I328
tp44
g0
(g9
g2
Ntp45
Rp46
(dp47
g13
I01
sg14
F-0.24589509726181813
sg15
g44
sbs(I3
I328
tp48
g0
(g9
g2
Ntp49
Rp50
(dp51
g13
I00
sg14
F1.6175743442495853
sg15
g48
sbs(I328
I8
tp52
g0
(g9
g2
Ntp53
Rp54
(dp55
g13
I00
sg14
F-0.028157631972212438
sg15
g52
sbs(I2
I2
tp56
g0
(g9
g2
Ntp57
Rp58
(dp59
g13
I01
sg14
F-1.8092459145753794
sg15
g56
sbs(I620
I328
tp60
g0
(g9
g2
Ntp61
Rp62
(dp63
g13
I01
sg14
F1.3587330501758321
sg15
g60
sbs(I327
I8
tp64
g0
(g9
g2
Ntp65
Rp66
(dp67
g13
I01
sg14
F-2.223521093011808
sg15
g64
sbs(I1
I1
tp68
g0
(g9
g2
Ntp69
Rp70
(dp71
g13
I01
sg14
F1.5583961352459506
sg15
g68
sbs(I327
I3
tp72
g0
(g9
g2
Ntp73
Rp74
(dp75
g13
I01
sg14
F-0.6257169273444034
sg15
g72
sbs(I0
I0
tp76
g0
(g9
g2
Ntp77
Rp78
(dp79
g13
I01
sg14
F-0.12607579349902662
sg15
g76
sbs(I327
I7
tp80
g0
(g9
g2
Ntp81
Rp82
(dp83
g13
I01
sg14
F1.3087320116035728
sg15
g80
sbs(I328
I9
tp84
g0
(g9
g2
Ntp85
Rp86
(dp87
g13
I01
sg14
F-1.5605213028340577
sg15
g84
sbs(I-6
I328
tp88
g0
(g9
g2
Ntp89
Rp90
(dp91
g13
I01
sg14
F0.303885497082103
sg15
g88
sbs(I-10
I327
tp92
g0
(g9
g2
Ntp93
Rp94
(dp95
g13
I01
sg14
F1.4510495299838833
sg15
g92
sbs(I328
I5
tp96
g0
(g9
g2
Ntp97
Rp98
(dp99
g13
I01
sg14
F-0.5550461600692874
sg15
g96
sbs(I327
I2
tp100
g0
(g9
g2
Ntp101
Rp102
(dp103
g13
I01
sg14
F-0.170747373340183
sg15
g100
sbs(I328
I1
tp104
g0
(g9
g2
Ntp105
Rp106
(dp107
g13
I01
sg14
F-0.8405495066765383
sg15
g104
sbs(I327
I6
tp108
g0
(g9
g2
Ntp109
Rp110
(dp111
g13
I00
sg14
F0.5878690267300581
sg15
g108
sbs(I8
I8
tp112
g0
(g9
g2
Ntp113
Rp114
(dp115
g13
I01
sg14
F-1.9614405252351912
sg15
g112
sbs(I-4
I327
tp116
g0
(g9
g2
Ntp117
Rp118
(dp119
g13
I01
sg14
F-0.8298352498667318
sg15
g116
sbssS'nodes'
p120
(dp121
I0
g0
(cneat.genes
DefaultNodeGene
p122
g2
Ntp123
Rp124
(dp125
S'activation'
p126
S'tanh'
p127
sS'bias'
p128
F0.0747827608681425
sS'response'
p129
F1.0
sg15
I0
sS'aggregation'
p130
S'sum'
p131
sbsI1
g0
(g122
g2
Ntp132
Rp133
(dp134
g126
g127
sg128
F-6.673504250542566
sg129
F1.0
sg15
I1
sg130
g131
sbsI2
g0
(g122
g2
Ntp135
Rp136
(dp137
g126
g127
sg128
F-1.4676145210121505
sg129
F1.0
sg15
I2
sg130
g131
sbsI3
g0
(g122
g2
Ntp138
Rp139
(dp140
g126
g127
sg128
F-5.3119330303234795
sg129
F1.0
sg15
I3
sg130
g131
sbsI4
g0
(g122
g2
Ntp141
Rp142
(dp143
g126
g127
sg128
F5.0727527625772
sg129
F1.0
sg15
I4
sg130
g131
sbsI5
g0
(g122
g2
Ntp144
Rp145
(dp146
g126
g127
sg128
F-0.26254309151189453
sg129
F1.0
sg15
I5
sg130
g131
sbsI6
g0
(g122
g2
Ntp147
Rp148
(dp149
g126
g127
sg128
F-7.828338426683201
sg129
F1.0
sg15
I6
sg130
g131
sbsI7
g0
(g122
g2
Ntp150
Rp151
(dp152
g126
g127
sg128
F-10.56388160710825
sg129
F1.0
sg15
I7
sg130
g131
sbsI8
g0
(g122
g2
Ntp153
Rp154
(dp155
g126
g127
sg128
F-4.824981614390153
sg129
F1.0
sg15
I8
sg130
g131
sbsI9
g0
(g122
g2
Ntp156
Rp157
(dp158
g126
g127
sg128
F3.873411711283729
sg129
F1.0
sg15
I9
sg130
g131
sbsI327
g0
(g122
g2
Ntp159
Rp160
(dp161
g126
g127
sg128
F-6.289970685375471
sg129
F1.0
sg15
I327
sg130
g131
sbsI620
g0
(g122
g2
Ntp162
Rp163
(dp164
g126
S'relu'
p165
sg128
F9.984077013222034
sg129
F1.0
sg15
I620
sg130
g131
sbsI328
g0
(g122
g2
Ntp166
Rp167
(dp168
g126
g127
sg128
F-1.4928216936353218
sg129
F1.0
sg15
I328
sg130
g131
sbssg15
I26
sS'fitness'
p169
Nsb.