ccopy_reg
_reconstructor
p0
(cneat.genome
DefaultGenome
p1
c__builtin__
object
p2
Ntp3
Rp4
(dp5
S'connections'
p6
(dp7
(I-9
I36
tp8
g0
(cneat.genes
DefaultConnectionGene
p9
g2
Ntp10
Rp11
(dp12
S'enabled'
p13
I01
sS'weight'
p14
F0.6680738478681194
sS'key'
p15
g8
sbs(I36
I7
tp16
g0
(g9
g2
Ntp17
Rp18
(dp19
g13
I01
sg14
F-1.0219860342403528
sg15
g16
sbs(I-4
I36
tp20
g0
(g9
g2
Ntp21
Rp22
(dp23
g13
I01
sg14
F-0.7536654570655488
sg15
g20
sbs(I36
I9
tp24
g0
(g9
g2
Ntp25
Rp26
(dp27
g13
I01
sg14
F0.2624613328676719
sg15
g24
sbs(I36
I6
tp28
g0
(g9
g2
Ntp29
Rp30
(dp31
g13
I01
sg14
F0.7993032991352883
sg15
g28
sbs(I-7
I36
tp32
g0
(g9
g2
Ntp33
Rp34
(dp35
g13
I01
sg14
F-2.180976138624011
sg15
g32
sbs(I36
I8
tp36
g0
(g9
g2
Ntp37
Rp38
(dp39
g13
I01
sg14
F1.2169201953588775
sg15
g36
sbs(I36
I5
tp40
g0
(g9
g2
Ntp41
Rp42
(dp43
g13
I01
sg14
F-1.1813408897406161
sg15
g40
sbs(I36
I4
tp44
g0
(g9
g2
Ntp45
Rp46
(dp47
g13
I01
sg14
F-0.8117983577437112
sg15
g44
sbs(I36
I2
tp48
g0
(g9
g2
Ntp49
Rp50
(dp51
g13
I01
sg14
F-1.285219775293394
sg15
g48
sbs(I-8
I36
tp52
g0
(g9
g2
Ntp53
Rp54
(dp55
g13
I01
sg14
F0.6861910258464926
sg15
g52
sbs(I-10
I36
tp56
g0
(g9
g2
Ntp57
Rp58
(dp59
g13
I01
sg14
F-1.9136259866287042
sg15
g56
sbs(I-5
I36
tp60
g0
(g9
g2
Ntp61
Rp62
(dp63
g13
I01
sg14
F0.06651240674773332
sg15
g60
sbs(I-6
I36
tp64
g0
(g9
g2
Ntp65
Rp66
(dp67
g13
I01
sg14
F-0.8931404963120826
sg15
g64
sbs(I36
I3
tp68
g0
(g9
g2
Ntp69
Rp70
(dp71
g13
I01
sg14
F0.5217028767754768
sg15
g68
sbs(I-2
I36
tp72
g0
(g9
g2
Ntp73
Rp74
(dp75
g13
I01
sg14
F0.8763155362767205
sg15
g72
sbs(I-1
I36
tp76
g0
(g9
g2
Ntp77
Rp78
(dp79
g13
I01
sg14
F-0.05055686401835063
sg15
g76
sbs(I-3
I36
tp80
g0
(g9
g2
Ntp81
Rp82
(dp83
g13
I01
sg14
F-2.0006833039450296
sg15
g80
sbs(I36
I1
tp84
g0
(g9
g2
Ntp85
Rp86
(dp87
g13
I01
sg14
F0.3916635590218526
sg15
g84
sbs(I36
I0
tp88
g0
(g9
g2
Ntp89
Rp90
(dp91
g13
I01
sg14
F-1.4468564191335425
sg15
g88
sbssS'nodes'
p92
(dp93
I0
g0
(cneat.genes
DefaultNodeGene
p94
g2
Ntp95
Rp96
(dp97
S'activation'
p98
S'relu'
p99
sS'bias'
p100
F29.552983272167292
sS'response'
p101
F1.0
sg15
I0
sS'aggregation'
p102
S'sum'
p103
sbsI1
g0
(g94
g2
Ntp104
Rp105
(dp106
g98
g99
sg100
F3.995130202116155
sg101
F1.0
sg15
I1
sg102
g103
sbsI2
g0
(g94
g2
Ntp107
Rp108
(dp109
g98
g99
sg100
F3.5859350513473753
sg101
F1.0
sg15
I2
sg102
g103
sbsI3
g0
(g94
g2
Ntp110
Rp111
(dp112
g98
g99
sg100
F-6.830159429089542
sg101
F1.0
sg15
I3
sg102
g103
sbsI4
g0
(g94
g2
Ntp113
Rp114
(dp115
g98
g99
sg100
F-8.034438737129317
sg101
F1.0
sg15
I4
sg102
g103
sbsI5
g0
(g94
g2
Ntp116
Rp117
(dp118
g98
g99
sg100
F2.0617713587776825
sg101
F1.0
sg15
I5
sg102
g103
sbsI6
g0
(g94
g2
Ntp119
Rp120
(dp121
g98
g99
sg100
F2.1875460344802167
sg101
F1.0
sg15
I6
sg102
g103
sbsI7
g0
(g94
g2
Ntp122
Rp123
(dp124
g98
g99
sg100
F3.944320366402441
sg101
F1.0
sg15
I7
sg102
g103
sbsI8
g0
(g94
g2
Ntp125
Rp126
(dp127
g98
g99
sg100
F-3.9177275524106414
sg101
F1.0
sg15
I8
sg102
g103
sbsI9
g0
(g94
g2
Ntp128
Rp129
(dp130
g98
g99
sg100
F0.5032468972584636
sg101
F1.0
sg15
I9
sg102
g103
sbsI36
g0
(g94
g2
Ntp131
Rp132
(dp133
g98
g99
sg100
F-25.953493499903473
sg101
F1.0
sg15
I36
sg102
g103
sbssg15
I27
sS'fitness'
p134
F0.048477338253610114
sb.