ccopy_reg
_reconstructor
p0
(cneat.genome
DefaultGenome
p1
c__builtin__
object
p2
Ntp3
Rp4
(dp5
S'connections'
p6
(dp7
(I-8
I327
tp8
g0
(cneat.genes
DefaultConnectionGene
p9
g2
Ntp10
Rp11
(dp12
S'enabled'
p13
I00
sS'weight'
p14
F0.8129935973743497
sS'key'
p15
g8
sbs(I328
I7
tp16
g0
(g9
g2
Ntp17
Rp18
(dp19
g13
I01
sg14
F0.6645770416966795
sg15
g16
sbs(I-5
I328
tp20
g0
(g9
g2
Ntp21
Rp22
(dp23
g13
I01
sg14
F0.4579885794083826
sg15
g20
sbs(I327
I9
tp24
g0
(g9
g2
Ntp25
Rp26
(dp27
g13
I01
sg14
F0.7151483917716985
sg15
g24
sbs(I327
I4
tp28
g0
(g9
g2
Ntp29
Rp30
(dp31
g13
I01
sg14
F-1.1837388016352481
sg15
g28
sbs(I3
I3
tp32
g0
(g9
g2
Ntp33
Rp34
(dp35
g13
I00
sg14
F-0.9067106693960729
sg15
g32
sbs(I-9
I328
tp36
g0
(g9
g2
Ntp37
Rp38
(dp39
g13
I00
sg14
F0.7568731351289869
sg15
g36
sbs(I-2
I328
tp40
g0
(g9
g2
Ntp41
Rp42
(dp43
g13
I01
sg14
F-0.29266176862985704
sg15
g40
sbs(I3
I328
tp44
g0
(g9
g2
Ntp45
Rp46
(dp47
g13
I00
sg14
F2.515358784167795
sg15
g44
sbs(I328
I8
tp48
g0
(g9
g2
Ntp49
Rp50
(dp51
g13
I00
sg14
F0.9146432213243479
sg15
g48
sbs(I2
I2
tp52
g0
(g9
g2
Ntp53
Rp54
(dp55
g13
I01
sg14
F2.208631541742615
sg15
g52
sbs(I327
I8
tp56
g0
(g9
g2
Ntp57
Rp58
(dp59
g13
I01
sg14
F-1.3646937995751063
sg15
g56
sbs(I1
I1
tp60
g0
(g9
g2
Ntp61
Rp62
(dp63
g13
I00
sg14
F1.929714788618715
sg15
g60
sbs(I327
I3
tp64
g0
(g9
g2
Ntp65
Rp66
(dp67
g13
I01
sg14
F2.882199301924722
sg15
g64
sbs(I0
I0
tp68
g0
(g9
g2
Ntp69
Rp70
(dp71
g13
I01
sg14
F-1.6913810465898955
sg15
g68
sbs(I327
I7
tp72
g0
(g9
g2
Ntp73
Rp74
(dp75
g13
I01
sg14
F1.0551196045889055
sg15
g72
sbs(I328
I9
tp76
g0
(g9
g2
Ntp77
Rp78
(dp79
g13
I01
sg14
F-1.7680852383367633
sg15
g76
sbs(I-10
I327
tp80
g0
(g9
g2
Ntp81
Rp82
(dp83
g13
I01
sg14
F-0.3989350786432005
sg15
g80
sbs(I328
I5
tp84
g0
(g9
g2
Ntp85
Rp86
(dp87
g13
I01
sg14
F-1.8603093207705232
sg15
g84
sbs(I327
I2
tp88
g0
(g9
g2
Ntp89
Rp90
(dp91
g13
I01
sg14
F-0.3491027180281931
sg15
g88
sbs(I-3
I327
tp92
g0
(g9
g2
Ntp93
Rp94
(dp95
g13
I01
sg14
F-0.03578501120328437
sg15
g92
sbs(I328
I1
tp96
g0
(g9
g2
Ntp97
Rp98
(dp99
g13
I01
sg14
F-0.09754300605751427
sg15
g96
sbs(I327
I6
tp100
g0
(g9
g2
Ntp101
Rp102
(dp103
g13
I00
sg14
F1.420442094801742
sg15
g100
sbs(I8
I8
tp104
g0
(g9
g2
Ntp105
Rp106
(dp107
g13
I01
sg14
F-2.1360391895007287
sg15
g104
sbs(I-4
I327
tp108
g0
(g9
g2
Ntp109
Rp110
(dp111
g13
I01
sg14
F0.28160775034820196
sg15
g108
sbssS'nodes'
p112
(dp113
I0
g0
(cneat.genes
DefaultNodeGene
p114
g2
Ntp115
Rp116
(dp117
S'activation'
p118
S'tanh'
p119
sS'bias'
p120
F-1.0199859778640297
sS'response'
p121
F1.0
sg15
I0
sS'aggregation'
p122
S'sum'
p123
sbsI1
g0
(g114
g2
Ntp124
Rp125
(dp126
g118
g119
sg120
F-8.249259442720772
sg121
F1.0
sg15
I1
sg122
g123
sbsI2
g0
(g114
g2
Ntp127
Rp128
(dp129
g118
g119
sg120
F-3.1600079308720286
sg121
F1.0
sg15
I2
sg122
g123
sbsI3
g0
(g114
g2
Ntp130
Rp131
(dp132
g118
g119
sg120
F-4.427477524508012
sg121
F1.0
sg15
I3
sg122
g123
sbsI4
g0
(g114
g2
Ntp133
Rp134
(dp135
g118
g119
sg120
F4.351265877097904
sg121
F1.0
sg15
I4
sg122
g123
sbsI5
g0
(g114
g2
Ntp136
Rp137
(dp138
g118
g119
sg120
F-0.46479073300556945
sg121
F1.0
sg15
I5
sg122
g123
sbsI6
g0
(g114
g2
Ntp139
Rp140
(dp141
g118
g119
sg120
F-6.99402944976483
sg121
F1.0
sg15
I6
sg122
g123
sbsI7
g0
(g114
g2
Ntp142
Rp143
(dp144
g118
S'relu'
p145
sg120
F-11.874423602690829
sg121
F1.0
sg15
I7
sg122
g123
sbsI8
g0
(g114
g2
Ntp146
Rp147
(dp148
g118
g119
sg120
F-4.749895270782945
sg121
F1.0
sg15
I8
sg122
g123
sbsI9
g0
(g114
g2
Ntp149
Rp150
(dp151
g118
g119
sg120
F3.0061360660696783
sg121
F1.0
sg15
I9
sg122
g123
sbsI327
g0
(g114
g2
Ntp152
Rp153
(dp154
g118
g119
sg120
F-4.576501111568334
sg121
F1.0
sg15
I327
sg122
g123
sbsI328
g0
(g114
g2
Ntp155
Rp156
(dp157
g118
g119
sg120
F-0.2738019492842191
sg121
F1.0
sg15
I328
sg122
g123
sbssg15
I27
sS'fitness'
p158
Nsb.