ccopy_reg
_reconstructor
p0
(cneat.genome
DefaultGenome
p1
c__builtin__
object
p2
Ntp3
Rp4
(dp5
S'connections'
p6
(dp7
(I-4
I36
tp8
g0
(cneat.genes
DefaultConnectionGene
p9
g2
Ntp10
Rp11
(dp12
S'enabled'
p13
I01
sS'weight'
p14
F-0.7460592062452731
sS'key'
p15
g8
sbs(I36
I6
tp16
g0
(g9
g2
Ntp17
Rp18
(dp19
g13
I01
sg14
F0.15510143585117536
sg15
g16
sbs(I-18
I36
tp20
g0
(g9
g2
Ntp21
Rp22
(dp23
g13
I01
sg14
F-0.2458126180932551
sg15
g20
sbs(I-14
I36
tp24
g0
(g9
g2
Ntp25
Rp26
(dp27
g13
I01
sg14
F0.8781126460837366
sg15
g24
sbs(I-8
I36
tp28
g0
(g9
g2
Ntp29
Rp30
(dp31
g13
I01
sg14
F1.2660853527332265
sg15
g28
sbs(I-10
I36
tp32
g0
(g9
g2
Ntp33
Rp34
(dp35
g13
I01
sg14
F0.15873651155593327
sg15
g32
sbs(I-11
I36
tp36
g0
(g9
g2
Ntp37
Rp38
(dp39
g13
I01
sg14
F-2.297072173425365
sg15
g36
sbs(I36
I3
tp40
g0
(g9
g2
Ntp41
Rp42
(dp43
g13
I01
sg14
F-0.7870951633862833
sg15
g40
sbs(I-1
I36
tp44
g0
(g9
g2
Ntp45
Rp46
(dp47
g13
I01
sg14
F1.0773932989391282
sg15
g44
sbs(I-2
I36
tp48
g0
(g9
g2
Ntp49
Rp50
(dp51
g13
I01
sg14
F0.13956108269270773
sg15
g48
sbs(I-3
I36
tp52
g0
(g9
g2
Ntp53
Rp54
(dp55
g13
I01
sg14
F0.26942766651329814
sg15
g52
sbs(I36
I7
tp56
g0
(g9
g2
Ntp57
Rp58
(dp59
g13
I01
sg14
F1.064382640745468
sg15
g56
sbs(I-7
I36
tp60
g0
(g9
g2
Ntp61
Rp62
(dp63
g13
I01
sg14
F-0.43206002767041374
sg15
g60
sbs(I36
I8
tp64
g0
(g9
g2
Ntp65
Rp66
(dp67
g13
I01
sg14
F0.10877370756225739
sg15
g64
sbs(I-20
I36
tp68
g0
(g9
g2
Ntp69
Rp70
(dp71
g13
I01
sg14
F0.5834228952744273
sg15
g68
sbs(I-17
I36
tp72
g0
(g9
g2
Ntp73
Rp74
(dp75
g13
I01
sg14
F-0.7419750113614495
sg15
g72
sbs(I36
I0
tp76
g0
(g9
g2
Ntp77
Rp78
(dp79
g13
I01
sg14
F-1.0721984803314693
sg15
g76
sbs(I-9
I36
tp80
g0
(g9
g2
Ntp81
Rp82
(dp83
g13
I01
sg14
F0.24135990641832952
sg15
g80
sbs(I36
I9
tp84
g0
(g9
g2
Ntp85
Rp86
(dp87
g13
I01
sg14
F1.416108428003741
sg15
g84
sbs(I-16
I36
tp88
g0
(g9
g2
Ntp89
Rp90
(dp91
g13
I01
sg14
F0.12102614063152943
sg15
g88
sbs(I-19
I36
tp92
g0
(g9
g2
Ntp93
Rp94
(dp95
g13
I01
sg14
F-0.18590294556440437
sg15
g92
sbs(I36
I4
tp96
g0
(g9
g2
Ntp97
Rp98
(dp99
g13
I01
sg14
F-0.6572951464946284
sg15
g96
sbs(I-13
I36
tp100
g0
(g9
g2
Ntp101
Rp102
(dp103
g13
I01
sg14
F-0.5087974101939278
sg15
g100
sbs(I-5
I36
tp104
g0
(g9
g2
Ntp105
Rp106
(dp107
g13
I01
sg14
F0.22987226657674525
sg15
g104
sbs(I-6
I36
tp108
g0
(g9
g2
Ntp109
Rp110
(dp111
g13
I01
sg14
F-1.1589373706102126
sg15
g108
sbs(I36
I1
tp112
g0
(g9
g2
Ntp113
Rp114
(dp115
g13
I01
sg14
F0.5907083590379106
sg15
g112
sbs(I-15
I36
tp116
g0
(g9
g2
Ntp117
Rp118
(dp119
g13
I01
sg14
F-0.39902781937038906
sg15
g116
sbs(I36
I5
tp120
g0
(g9
g2
Ntp121
Rp122
(dp123
g13
I01
sg14
F-0.49654721692168424
sg15
g120
sbs(I36
I2
tp124
g0
(g9
g2
Ntp125
Rp126
(dp127
g13
I01
sg14
F1.645826546822779
sg15
g124
sbs(I-12
I36
tp128
g0
(g9
g2
Ntp129
Rp130
(dp131
g13
I01
sg14
F0.43691427765328766
sg15
g128
sbssS'nodes'
p132
(dp133
I0
g0
(cneat.genes
DefaultNodeGene
p134
g2
Ntp135
Rp136
(dp137
S'activation'
p138
S'relu'
p139
sS'bias'
p140
F1.4450210483013328
sS'response'
p141
F1.0
sg15
I0
sS'aggregation'
p142
S'sum'
p143
sbsI1
g0
(g134
g2
Ntp144
Rp145
(dp146
g138
g139
sg140
F1.110472115972018
sg141
F1.0
sg15
I1
sg142
g143
sbsI2
g0
(g134
g2
Ntp147
Rp148
(dp149
g138
g139
sg140
F-9.377790840442872
sg141
F1.0
sg15
I2
sg142
g143
sbsI3
g0
(g134
g2
Ntp150
Rp151
(dp152
g138
g139
sg140
F7.661372485136305
sg141
F1.0
sg15
I3
sg142
g143
sbsI4
g0
(g134
g2
Ntp153
Rp154
(dp155
g138
g139
sg140
F-12.257107486485925
sg141
F1.0
sg15
I4
sg142
g143
sbsI5
g0
(g134
g2
Ntp156
Rp157
(dp158
g138
g139
sg140
F-1.2462496405985244
sg141
F1.0
sg15
I5
sg142
g143
sbsI6
g0
(g134
g2
Ntp159
Rp160
(dp161
g138
g139
sg140
F-5.902473628146529
sg141
F1.0
sg15
I6
sg142
g143
sbsI7
g0
(g134
g2
Ntp162
Rp163
(dp164
g138
g139
sg140
F10.809641049765679
sg141
F1.0
sg15
I7
sg142
g143
sbsI8
g0
(g134
g2
Ntp165
Rp166
(dp167
g138
g139
sg140
F12.201766771927186
sg141
F1.0
sg15
I8
sg142
g143
sbsI9
g0
(g134
g2
Ntp168
Rp169
(dp170
g138
g139
sg140
F-6.221356650885777
sg141
F1.0
sg15
I9
sg142
g143
sbsI36
g0
(g134
g2
Ntp171
Rp172
(dp173
g138
g139
sg140
F-1.6308592217190525
sg141
F1.0
sg15
I36
sg142
g143
sbssg15
I27
sS'fitness'
p174
Nsb.