ccopy_reg
_reconstructor
p0
(cneat.genome
DefaultGenome
p1
c__builtin__
object
p2
Ntp3
Rp4
(dp5
S'connections'
p6
(dp7
(I-4
I36
tp8
g0
(cneat.genes
DefaultConnectionGene
p9
g2
Ntp10
Rp11
(dp12
S'enabled'
p13
I01
sS'weight'
p14
F-0.4390862030111194
sS'key'
p15
g8
sbs(I36
I6
tp16
g0
(g9
g2
Ntp17
Rp18
(dp19
g13
I01
sg14
F-0.09166973563877057
sg15
g16
sbs(I-18
I36
tp20
g0
(g9
g2
Ntp21
Rp22
(dp23
g13
I01
sg14
F-0.2742928519043844
sg15
g20
sbs(I-14
I36
tp24
g0
(g9
g2
Ntp25
Rp26
(dp27
g13
I01
sg14
F-0.41375148747212676
sg15
g24
sbs(I-8
I36
tp28
g0
(g9
g2
Ntp29
Rp30
(dp31
g13
I01
sg14
F-0.4218639680943455
sg15
g28
sbs(I-10
I36
tp32
g0
(g9
g2
Ntp33
Rp34
(dp35
g13
I01
sg14
F-0.21995220307315136
sg15
g32
sbs(I-11
I36
tp36
g0
(g9
g2
Ntp37
Rp38
(dp39
g13
I01
sg14
F0.058433309709598404
sg15
g36
sbs(I36
I3
tp40
g0
(g9
g2
Ntp41
Rp42
(dp43
g13
I01
sg14
F-0.16449054617508416
sg15
g40
sbs(I-1
I36
tp44
g0
(g9
g2
Ntp45
Rp46
(dp47
g13
I01
sg14
F0.26082813523893955
sg15
g44
sbs(I-2
I36
tp48
g0
(g9
g2
Ntp49
Rp50
(dp51
g13
I01
sg14
F0.9254639091711023
sg15
g48
sbs(I-3
I36
tp52
g0
(g9
g2
Ntp53
Rp54
(dp55
g13
I01
sg14
F-0.6903773275206276
sg15
g52
sbs(I36
I7
tp56
g0
(g9
g2
Ntp57
Rp58
(dp59
g13
I01
sg14
F0.8705855556340145
sg15
g56
sbs(I-7
I36
tp60
g0
(g9
g2
Ntp61
Rp62
(dp63
g13
I01
sg14
F0.8366647244505633
sg15
g60
sbs(I36
I8
tp64
g0
(g9
g2
Ntp65
Rp66
(dp67
g13
I01
sg14
F0.05236336054525807
sg15
g64
sbs(I-20
I36
tp68
g0
(g9
g2
Ntp69
Rp70
(dp71
g13
I01
sg14
F0.10017467755812008
sg15
g68
sbs(I-17
I36
tp72
g0
(g9
g2
Ntp73
Rp74
(dp75
g13
I01
sg14
F1.769887871228829
sg15
g72
sbs(I36
I0
tp76
g0
(g9
g2
Ntp77
Rp78
(dp79
g13
I01
sg14
F-1.5158913522820863
sg15
g76
sbs(I-9
I36
tp80
g0
(g9
g2
Ntp81
Rp82
(dp83
g13
I01
sg14
F2.391071161532845
sg15
g80
sbs(I36
I9
tp84
g0
(g9
g2
Ntp85
Rp86
(dp87
g13
I01
sg14
F-0.27352393621437515
sg15
g84
sbs(I-16
I36
tp88
g0
(g9
g2
Ntp89
Rp90
(dp91
g13
I01
sg14
F-0.8798781880063976
sg15
g88
sbs(I-19
I36
tp92
g0
(g9
g2
Ntp93
Rp94
(dp95
g13
I01
sg14
F-0.6742194706400828
sg15
g92
sbs(I36
I4
tp96
g0
(g9
g2
Ntp97
Rp98
(dp99
g13
I01
sg14
F-2.618428430442962
sg15
g96
sbs(I-13
I36
tp100
g0
(g9
g2
Ntp101
Rp102
(dp103
g13
I01
sg14
F0.8926032694668962
sg15
g100
sbs(I-5
I36
tp104
g0
(g9
g2
Ntp105
Rp106
(dp107
g13
I01
sg14
F-1.6963389531436464
sg15
g104
sbs(I-6
I36
tp108
g0
(g9
g2
Ntp109
Rp110
(dp111
g13
I01
sg14
F-0.6878433033576296
sg15
g108
sbs(I36
I1
tp112
g0
(g9
g2
Ntp113
Rp114
(dp115
g13
I01
sg14
F0.006242304102384244
sg15
g112
sbs(I-15
I36
tp116
g0
(g9
g2
Ntp117
Rp118
(dp119
g13
I01
sg14
F1.4537697877325
sg15
g116
sbs(I36
I5
tp120
g0
(g9
g2
Ntp121
Rp122
(dp123
g13
I01
sg14
F-0.01757790969040899
sg15
g120
sbs(I36
I2
tp124
g0
(g9
g2
Ntp125
Rp126
(dp127
g13
I01
sg14
F1.0633698819855308
sg15
g124
sbs(I-12
I36
tp128
g0
(g9
g2
Ntp129
Rp130
(dp131
g13
I01
sg14
F2.0914085653198518
sg15
g128
sbssS'nodes'
p132
(dp133
I0
g0
(cneat.genes
DefaultNodeGene
p134
g2
Ntp135
Rp136
(dp137
S'activation'
p138
S'relu'
p139
sS'bias'
p140
F9.415014172275558
sS'response'
p141
F1.0
sg15
I0
sS'aggregation'
p142
S'sum'
p143
sbsI1
g0
(g134
g2
Ntp144
Rp145
(dp146
g138
g139
sg140
F-10.223260000042128
sg141
F1.0
sg15
I1
sg142
g143
sbsI2
g0
(g134
g2
Ntp147
Rp148
(dp149
g138
g139
sg140
F-3.8764741958758635
sg141
F1.0
sg15
I2
sg142
g143
sbsI3
g0
(g134
g2
Ntp150
Rp151
(dp152
g138
g139
sg140
F-6.336021100869004
sg141
F1.0
sg15
I3
sg142
g143
sbsI4
g0
(g134
g2
Ntp153
Rp154
(dp155
g138
g139
sg140
F2.620975383939943
sg141
F1.0
sg15
I4
sg142
g143
sbsI5
g0
(g134
g2
Ntp156
Rp157
(dp158
g138
g139
sg140
F-12.774237815160102
sg141
F1.0
sg15
I5
sg142
g143
sbsI6
g0
(g134
g2
Ntp159
Rp160
(dp161
g138
g139
sg140
F7.946860432425536
sg141
F1.0
sg15
I6
sg142
g143
sbsI7
g0
(g134
g2
Ntp162
Rp163
(dp164
g138
g139
sg140
F-6.666700298567944
sg141
F1.0
sg15
I7
sg142
g143
sbsI8
g0
(g134
g2
Ntp165
Rp166
(dp167
g138
g139
sg140
F5.616614314749263
sg141
F1.0
sg15
I8
sg142
g143
sbsI9
g0
(g134
g2
Ntp168
Rp169
(dp170
g138
g139
sg140
F-3.4295290603244126
sg141
F1.0
sg15
I9
sg142
g143
sbsI36
g0
(g134
g2
Ntp171
Rp172
(dp173
g138
g139
sg140
F-7.53799156087339
sg141
F1.0
sg15
I36
sg142
g143
sbssg15
I27
sS'fitness'
p174
F0.1108958994097806
sb.