ccopy_reg
_reconstructor
p0
(cneat.genome
DefaultGenome
p1
c__builtin__
object
p2
Ntp3
Rp4
(dp5
S'connections'
p6
(dp7
(I-8
I327
tp8
g0
(cneat.genes
DefaultConnectionGene
p9
g2
Ntp10
Rp11
(dp12
S'enabled'
p13
I01
sS'weight'
p14
F-0.5318605644567687
sS'key'
p15
g8
sbs(I328
I7
tp16
g0
(g9
g2
Ntp17
Rp18
(dp19
g13
I01
sg14
F-0.035964680300680674
sg15
g16
sbs(I-5
I328
tp20
g0
(g9
g2
Ntp21
Rp22
(dp23
g13
I01
sg14
F-0.6854887717998958
sg15
g20
sbs(I327
I4
tp24
g0
(g9
g2
Ntp25
Rp26
(dp27
g13
I01
sg14
F1.6494218866637305
sg15
g24
sbs(I3
I3
tp28
g0
(g9
g2
Ntp29
Rp30
(dp31
g13
I00
sg14
F-1.20031014597077
sg15
g28
sbs(I-9
I328
tp32
g0
(g9
g2
Ntp33
Rp34
(dp35
g13
I00
sg14
F1.5138789715858953
sg15
g32
sbs(I-2
I328
tp36
g0
(g9
g2
Ntp37
Rp38
(dp39
g13
I01
sg14
F-0.0004948605889529556
sg15
g36
sbs(I3
I328
tp40
g0
(g9
g2
Ntp41
Rp42
(dp43
g13
I00
sg14
F2.13763633840301
sg15
g40
sbs(I328
I8
tp44
g0
(g9
g2
Ntp45
Rp46
(dp47
g13
I00
sg14
F1.1726233277397569
sg15
g44
sbs(I2
I2
tp48
g0
(g9
g2
Ntp49
Rp50
(dp51
g13
I01
sg14
F0.7020915998601899
sg15
g48
sbs(I327
I8
tp52
g0
(g9
g2
Ntp53
Rp54
(dp55
g13
I01
sg14
F-2.3280188070145513
sg15
g52
sbs(I1
I1
tp56
g0
(g9
g2
Ntp57
Rp58
(dp59
g13
I01
sg14
F1.2903276230086869
sg15
g56
sbs(I327
I3
tp60
g0
(g9
g2
Ntp61
Rp62
(dp63
g13
I01
sg14
F3.7512048685828425
sg15
g60
sbs(I0
I0
tp64
g0
(g9
g2
Ntp65
Rp66
(dp67
g13
I01
sg14
F-0.6547748554537041
sg15
g64
sbs(I327
I7
tp68
g0
(g9
g2
Ntp69
Rp70
(dp71
g13
I01
sg14
F1.5343341521209184
sg15
g68
sbs(I328
I9
tp72
g0
(g9
g2
Ntp73
Rp74
(dp75
g13
I01
sg14
F-0.746393762808047
sg15
g72
sbs(I-6
I328
tp76
g0
(g9
g2
Ntp77
Rp78
(dp79
g13
I01
sg14
F0.3529388396725054
sg15
g76
sbs(I-10
I327
tp80
g0
(g9
g2
Ntp81
Rp82
(dp83
g13
I01
sg14
F0.034322482857998104
sg15
g80
sbs(I328
I5
tp84
g0
(g9
g2
Ntp85
Rp86
(dp87
g13
I01
sg14
F-0.004935949535733619
sg15
g84
sbs(I327
I2
tp88
g0
(g9
g2
Ntp89
Rp90
(dp91
g13
I01
sg14
F0.01970695391065827
sg15
g88
sbs(I-3
I327
tp92
g0
(g9
g2
Ntp93
Rp94
(dp95
g13
I01
sg14
F-0.46036822879953687
sg15
g92
sbs(I328
I1
tp96
g0
(g9
g2
Ntp97
Rp98
(dp99
g13
I01
sg14
F-1.1056478853091054
sg15
g96
sbs(I327
I6
tp100
g0
(g9
g2
Ntp101
Rp102
(dp103
g13
I00
sg14
F-0.014570104402725437
sg15
g100
sbs(I8
I8
tp104
g0
(g9
g2
Ntp105
Rp106
(dp107
g13
I01
sg14
F-2.0298022309658696
sg15
g104
sbs(I-4
I327
tp108
g0
(g9
g2
Ntp109
Rp110
(dp111
g13
I01
sg14
F2.229382746657039
sg15
g108
sbs(I327
I328
tp112
g0
(g9
g2
Ntp113
Rp114
(dp115
g13
I01
sg14
F0.8551571185360095
sg15
g112
sbssS'nodes'
p116
(dp117
I0
g0
(cneat.genes
DefaultNodeGene
p118
g2
Ntp119
Rp120
(dp121
S'activation'
p122
S'tanh'
p123
sS'bias'
p124
F-0.7356411447072182
sS'response'
p125
F1.0
sg15
I0
sS'aggregation'
p126
S'sum'
p127
sbsI1
g0
(g118
g2
Ntp128
Rp129
(dp130
g122
g123
sg124
F-7.4172697926192726
sg125
F1.0
sg15
I1
sg126
g127
sbsI2
g0
(g118
g2
Ntp131
Rp132
(dp133
g122
g123
sg124
F-1.5226919162019008
sg125
F1.0
sg15
I2
sg126
g127
sbsI3
g0
(g118
g2
Ntp134
Rp135
(dp136
g122
g123
sg124
F-5.007928206000391
sg125
F1.0
sg15
I3
sg126
g127
sbsI4
g0
(g118
g2
Ntp137
Rp138
(dp139
g122
g123
sg124
F3.9645197490987707
sg125
F1.0
sg15
I4
sg126
g127
sbsI5
g0
(g118
g2
Ntp140
Rp141
(dp142
g122
g123
sg124
F-0.4472414770428985
sg125
F1.0
sg15
I5
sg126
g127
sbsI6
g0
(g118
g2
Ntp143
Rp144
(dp145
g122
g123
sg124
F-7.407866094927314
sg125
F1.0
sg15
I6
sg126
g127
sbsI7
g0
(g118
g2
Ntp146
Rp147
(dp148
g122
S'relu'
p149
sg124
F-10.016862992129898
sg125
F1.0
sg15
I7
sg126
g127
sbsI8
g0
(g118
g2
Ntp150
Rp151
(dp152
g122
g123
sg124
F-5.531834177606843
sg125
F1.0
sg15
I8
sg126
g127
sbsI9
g0
(g118
g2
Ntp153
Rp154
(dp155
g122
g123
sg124
F4.253741669320529
sg125
F1.0
sg15
I9
sg126
g127
sbsI327
g0
(g118
g2
Ntp156
Rp157
(dp158
g122
g123
sg124
F-5.132938772675238
sg125
F1.0
sg15
I327
sg126
g127
sbsI328
g0
(g118
g2
Ntp159
Rp160
(dp161
g122
g123
sg124
F0.4526719749544794
sg125
F1.0
sg15
I328
sg126
g127
sbssg15
I28
sS'fitness'
p162
Nsb.