ccopy_reg
_reconstructor
p0
(cneat.genome
DefaultGenome
p1
c__builtin__
object
p2
Ntp3
Rp4
(dp5
S'connections'
p6
(dp7
(I-7
I37
tp8
g0
(cneat.genes
DefaultConnectionGene
p9
g2
Ntp10
Rp11
(dp12
S'enabled'
p13
I01
sS'weight'
p14
F0.09369995047397336
sS'key'
p15
g8
sbs(I37
I7
tp16
g0
(g9
g2
Ntp17
Rp18
(dp19
g13
I01
sg14
F0.6783050410572513
sg15
g16
sbs(I-12
I37
tp20
g0
(g9
g2
Ntp21
Rp22
(dp23
g13
I01
sg14
F0.0677755057586104
sg15
g20
sbs(I-17
I37
tp24
g0
(g9
g2
Ntp25
Rp26
(dp27
g13
I01
sg14
F-0.2854299662200786
sg15
g24
sbs(I37
I2
tp28
g0
(g9
g2
Ntp29
Rp30
(dp31
g13
I01
sg14
F0.9515159968869629
sg15
g28
sbs(I37
I5
tp32
g0
(g9
g2
Ntp33
Rp34
(dp35
g13
I01
sg14
F0.1304413154794368
sg15
g32
sbs(I-4
I37
tp36
g0
(g9
g2
Ntp37
Rp38
(dp39
g13
I01
sg14
F3.4538699748265413
sg15
g36
sbs(I37
I9
tp40
g0
(g9
g2
Ntp41
Rp42
(dp43
g13
I01
sg14
F0.8929015667845817
sg15
g40
sbs(I-9
I37
tp44
g0
(g9
g2
Ntp45
Rp46
(dp47
g13
I01
sg14
F0.5510968453801935
sg15
g44
sbs(I-18
I37
tp48
g0
(g9
g2
Ntp49
Rp50
(dp51
g13
I01
sg14
F-0.6085300148285598
sg15
g48
sbs(I37
I6
tp52
g0
(g9
g2
Ntp53
Rp54
(dp55
g13
I01
sg14
F-1.4566076839314135
sg15
g52
sbs(I-14
I37
tp56
g0
(g9
g2
Ntp57
Rp58
(dp59
g13
I01
sg14
F0.39780752721961454
sg15
g56
sbs(I-8
I37
tp60
g0
(g9
g2
Ntp61
Rp62
(dp63
g13
I01
sg14
F-1.417388840749043
sg15
g60
sbs(I-19
I37
tp64
g0
(g9
g2
Ntp65
Rp66
(dp67
g13
I01
sg14
F0.8430398261039893
sg15
g64
sbs(I-10
I37
tp68
g0
(g9
g2
Ntp69
Rp70
(dp71
g13
I01
sg14
F1.7120103790448595
sg15
g68
sbs(I-13
I37
tp72
g0
(g9
g2
Ntp73
Rp74
(dp75
g13
I01
sg14
F-1.300537237060417
sg15
g72
sbs(I-1
I37
tp76
g0
(g9
g2
Ntp77
Rp78
(dp79
g13
I01
sg14
F-0.09818174986356192
sg15
g76
sbs(I-5
I37
tp80
g0
(g9
g2
Ntp81
Rp82
(dp83
g13
I01
sg14
F0.7840518422246125
sg15
g80
sbs(I37
I1
tp84
g0
(g9
g2
Ntp85
Rp86
(dp87
g13
I01
sg14
F0.47471328813252367
sg15
g84
sbs(I37
I8
tp88
g0
(g9
g2
Ntp89
Rp90
(dp91
g13
I01
sg14
F0.6527466345182854
sg15
g88
sbs(I-15
I37
tp92
g0
(g9
g2
Ntp93
Rp94
(dp95
g13
I01
sg14
F-0.28288704246724894
sg15
g92
sbs(I-2
I37
tp96
g0
(g9
g2
Ntp97
Rp98
(dp99
g13
I01
sg14
F-0.5129820061228763
sg15
g96
sbs(I-20
I37
tp100
g0
(g9
g2
Ntp101
Rp102
(dp103
g13
I01
sg14
F0.04580495143251221
sg15
g100
sbs(I37
I0
tp104
g0
(g9
g2
Ntp105
Rp106
(dp107
g13
I01
sg14
F-0.17117510418835985
sg15
g104
sbs(I37
I4
tp108
g0
(g9
g2
Ntp109
Rp110
(dp111
g13
I01
sg14
F-0.36037636417666435
sg15
g108
sbs(I-16
I37
tp112
g0
(g9
g2
Ntp113
Rp114
(dp115
g13
I01
sg14
F-0.006718703304710791
sg15
g112
sbs(I-6
I37
tp116
g0
(g9
g2
Ntp117
Rp118
(dp119
g13
I01
sg14
F-0.23428445091124955
sg15
g116
sbs(I-11
I37
tp120
g0
(g9
g2
Ntp121
Rp122
(dp123
g13
I01
sg14
F1.347342075517938
sg15
g120
sbs(I-3
I37
tp124
g0
(g9
g2
Ntp125
Rp126
(dp127
g13
I01
sg14
F1.4165296445187876
sg15
g124
sbs(I37
I3
tp128
g0
(g9
g2
Ntp129
Rp130
(dp131
g13
I01
sg14
F-0.8094409054285497
sg15
g128
sbssS'nodes'
p132
(dp133
I0
g0
(cneat.genes
DefaultNodeGene
p134
g2
Ntp135
Rp136
(dp137
S'activation'
p138
S'relu'
p139
sS'bias'
p140
F-7.4029004668917615
sS'response'
p141
F1.0
sg15
I0
sS'aggregation'
p142
S'sum'
p143
sbsI1
g0
(g134
g2
Ntp144
Rp145
(dp146
g138
g139
sg140
F7.859833516018929
sg141
F1.0
sg15
I1
sg142
g143
sbsI2
g0
(g134
g2
Ntp147
Rp148
(dp149
g138
g139
sg140
F18.16839882519324
sg141
F1.0
sg15
I2
sg142
g143
sbsI3
g0
(g134
g2
Ntp150
Rp151
(dp152
g138
g139
sg140
F0.530687158321639
sg141
F1.0
sg15
I3
sg142
g143
sbsI4
g0
(g134
g2
Ntp153
Rp154
(dp155
g138
g139
sg140
F-6.753284374326092
sg141
F1.0
sg15
I4
sg142
g143
sbsI5
g0
(g134
g2
Ntp156
Rp157
(dp158
g138
g139
sg140
F3.8404282129717364
sg141
F1.0
sg15
I5
sg142
g143
sbsI6
g0
(g134
g2
Ntp159
Rp160
(dp161
g138
g139
sg140
F0.9983691101777823
sg141
F1.0
sg15
I6
sg142
g143
sbsI7
g0
(g134
g2
Ntp162
Rp163
(dp164
g138
g139
sg140
F4.7387910512484925
sg141
F1.0
sg15
I7
sg142
g143
sbsI8
g0
(g134
g2
Ntp165
Rp166
(dp167
g138
g139
sg140
F1.8051340506340243
sg141
F1.0
sg15
I8
sg142
g143
sbsI9
g0
(g134
g2
Ntp168
Rp169
(dp170
g138
g139
sg140
F-13.447512482496684
sg141
F1.0
sg15
I9
sg142
g143
sbsI37
g0
(g134
g2
Ntp171
Rp172
(dp173
g138
g139
sg140
F12.834060066390924
sg141
F1.0
sg15
I37
sg142
g143
sbssg15
I28
sS'fitness'
p174
Nsb.