ccopy_reg
_reconstructor
p0
(cneat.genome
DefaultGenome
p1
c__builtin__
object
p2
Ntp3
Rp4
(dp5
S'connections'
p6
(dp7
(I-3
I38
tp8
g0
(cneat.genes
DefaultConnectionGene
p9
g2
Ntp10
Rp11
(dp12
S'enabled'
p13
I01
sS'weight'
p14
F-0.0026600785381639554
sS'key'
p15
g8
sbs(I38
I4
tp16
g0
(g9
g2
Ntp17
Rp18
(dp19
g13
I01
sg14
F-0.24829311548076421
sg15
g16
sbs(I38
I9
tp20
g0
(g9
g2
Ntp21
Rp22
(dp23
g13
I01
sg14
F-0.11977694407869324
sg15
g20
sbs(I38
I7
tp24
g0
(g9
g2
Ntp25
Rp26
(dp27
g13
I01
sg14
F2.4629857660365984
sg15
g24
sbs(I38
I8
tp28
g0
(g9
g2
Ntp29
Rp30
(dp31
g13
I01
sg14
F-0.20278275245346422
sg15
g28
sbs(I38
I6
tp32
g0
(g9
g2
Ntp33
Rp34
(dp35
g13
I01
sg14
F-0.3812782960039594
sg15
g32
sbs(I-8
I38
tp36
g0
(g9
g2
Ntp37
Rp38
(dp39
g13
I01
sg14
F2.1771564304887594
sg15
g36
sbs(I38
I1
tp40
g0
(g9
g2
Ntp41
Rp42
(dp43
g13
I01
sg14
F-0.13840087997150413
sg15
g40
sbs(I-7
I38
tp44
g0
(g9
g2
Ntp45
Rp46
(dp47
g13
I01
sg14
F0.08158937019313547
sg15
g44
sbs(I38
I0
tp48
g0
(g9
g2
Ntp49
Rp50
(dp51
g13
I01
sg14
F-0.3030324806611391
sg15
g48
sbs(I-5
I38
tp52
g0
(g9
g2
Ntp53
Rp54
(dp55
g13
I01
sg14
F0.47381170341819495
sg15
g52
sbs(I38
I3
tp56
g0
(g9
g2
Ntp57
Rp58
(dp59
g13
I01
sg14
F-1.9280918221064498
sg15
g56
sbs(I38
I2
tp60
g0
(g9
g2
Ntp61
Rp62
(dp63
g13
I01
sg14
F0.3830261782561853
sg15
g60
sbs(I38
I5
tp64
g0
(g9
g2
Ntp65
Rp66
(dp67
g13
I01
sg14
F0.06167094902885653
sg15
g64
sbs(I-10
I38
tp68
g0
(g9
g2
Ntp69
Rp70
(dp71
g13
I01
sg14
F0.105322066616834
sg15
g68
sbs(I-9
I38
tp72
g0
(g9
g2
Ntp73
Rp74
(dp75
g13
I01
sg14
F0.03876113134788543
sg15
g72
sbs(I-6
I38
tp76
g0
(g9
g2
Ntp77
Rp78
(dp79
g13
I01
sg14
F0.9264624666907828
sg15
g76
sbs(I-4
I38
tp80
g0
(g9
g2
Ntp81
Rp82
(dp83
g13
I01
sg14
F0.29675346357542115
sg15
g80
sbs(I-1
I38
tp84
g0
(g9
g2
Ntp85
Rp86
(dp87
g13
I01
sg14
F-1.494912255156664
sg15
g84
sbs(I-2
I38
tp88
g0
(g9
g2
Ntp89
Rp90
(dp91
g13
I01
sg14
F-0.8597284667261084
sg15
g88
sbssS'nodes'
p92
(dp93
I0
g0
(cneat.genes
DefaultNodeGene
p94
g2
Ntp95
Rp96
(dp97
S'activation'
p98
S'relu'
p99
sS'bias'
p100
F2.393139169677609
sS'response'
p101
F1.0
sg15
I0
sS'aggregation'
p102
S'sum'
p103
sbsI1
g0
(g94
g2
Ntp104
Rp105
(dp106
g98
g99
sg100
F4.305777408140507
sg101
F1.0
sg15
I1
sg102
g103
sbsI2
g0
(g94
g2
Ntp107
Rp108
(dp109
g98
g99
sg100
F5.889503815232673
sg101
F1.0
sg15
I2
sg102
g103
sbsI3
g0
(g94
g2
Ntp110
Rp111
(dp112
g98
g99
sg100
F4.277175247156656
sg101
F1.0
sg15
I3
sg102
g103
sbsI4
g0
(g94
g2
Ntp113
Rp114
(dp115
g98
g99
sg100
F1.586028259674674
sg101
F1.0
sg15
I4
sg102
g103
sbsI5
g0
(g94
g2
Ntp116
Rp117
(dp118
g98
g99
sg100
F-2.7502628368161677
sg101
F1.0
sg15
I5
sg102
g103
sbsI6
g0
(g94
g2
Ntp119
Rp120
(dp121
g98
g99
sg100
F-16.9340162911432
sg101
F1.0
sg15
I6
sg102
g103
sbsI7
g0
(g94
g2
Ntp122
Rp123
(dp124
g98
g99
sg100
F10.221921084164173
sg101
F1.0
sg15
I7
sg102
g103
sbsI8
g0
(g94
g2
Ntp125
Rp126
(dp127
g98
g99
sg100
F-10.234023742089683
sg101
F1.0
sg15
I8
sg102
g103
sbsI9
g0
(g94
g2
Ntp128
Rp129
(dp130
g98
g99
sg100
F10.86792467090621
sg101
F1.0
sg15
I9
sg102
g103
sbsI38
g0
(g94
g2
Ntp131
Rp132
(dp133
g98
g99
sg100
F12.15086492445414
sg101
F1.0
sg15
I38
sg102
g103
sbssg15
I29
sS'fitness'
p134
F-0.14665342617144228
sb.