ccopy_reg
_reconstructor
p0
(cneat.genome
DefaultGenome
p1
c__builtin__
object
p2
Ntp3
Rp4
(dp5
S'connections'
p6
(dp7
(I-8
I752
tp8
g0
(cneat.genes
DefaultConnectionGene
p9
g2
Ntp10
Rp11
(dp12
S'enabled'
p13
I01
sS'weight'
p14
F0.6418934431449782
sS'key'
p15
g8
sbs(I-8
I327
tp16
g0
(g9
g2
Ntp17
Rp18
(dp19
g13
I00
sg14
F0.6559383453884772
sg15
g16
sbs(I328
I7
tp20
g0
(g9
g2
Ntp21
Rp22
(dp23
g13
I01
sg14
F0.931923495156623
sg15
g20
sbs(I-5
I328
tp24
g0
(g9
g2
Ntp25
Rp26
(dp27
g13
I01
sg14
F0.7530988086621017
sg15
g24
sbs(I327
I9
tp28
g0
(g9
g2
Ntp29
Rp30
(dp31
g13
I01
sg14
F-1.6470432782185451
sg15
g28
sbs(I327
I4
tp32
g0
(g9
g2
Ntp33
Rp34
(dp35
g13
I01
sg14
F2.141946270081644
sg15
g32
sbs(I3
I3
tp36
g0
(g9
g2
Ntp37
Rp38
(dp39
g13
I01
sg14
F-1.0974875315275907
sg15
g36
sbs(I4
I4
tp40
g0
(g9
g2
Ntp41
Rp42
(dp43
g13
I01
sg14
F0.3997303508649874
sg15
g40
sbs(I-9
I328
tp44
g0
(g9
g2
Ntp45
Rp46
(dp47
g13
I00
sg14
F-1.45319812893841
sg15
g44
sbs(I-2
I328
tp48
g0
(g9
g2
Ntp49
Rp50
(dp51
g13
I00
sg14
F-2.187369567253373
sg15
g48
sbs(I-4
I3
tp52
g0
(g9
g2
Ntp53
Rp54
(dp55
g13
I01
sg14
F2.829724093882981
sg15
g52
sbs(I3
I328
tp56
g0
(g9
g2
Ntp57
Rp58
(dp59
g13
I00
sg14
F0.609961863539101
sg15
g56
sbs(I328
I8
tp60
g0
(g9
g2
Ntp61
Rp62
(dp63
g13
I00
sg14
F3.0464994902402305
sg15
g60
sbs(I2
I2
tp64
g0
(g9
g2
Ntp65
Rp66
(dp67
g13
I01
sg14
F0.91238471130467
sg15
g64
sbs(I327
I8
tp68
g0
(g9
g2
Ntp69
Rp70
(dp71
g13
I01
sg14
F0.13674728345098897
sg15
g68
sbs(I1
I1
tp72
g0
(g9
g2
Ntp73
Rp74
(dp75
g13
I01
sg14
F1.308773138826177
sg15
g72
sbs(I752
I327
tp76
g0
(g9
g2
Ntp77
Rp78
(dp79
g13
I01
sg14
F0.14070939516952258
sg15
g76
sbs(I327
I3
tp80
g0
(g9
g2
Ntp81
Rp82
(dp83
g13
I01
sg14
F1.0183477137878914
sg15
g80
sbs(I4
I327
tp84
g0
(g9
g2
Ntp85
Rp86
(dp87
g13
I00
sg14
F-0.6899427464378228
sg15
g84
sbs(I0
I0
tp88
g0
(g9
g2
Ntp89
Rp90
(dp91
g13
I00
sg14
F-0.8526263108225275
sg15
g88
sbs(I-8
I7
tp92
g0
(g9
g2
Ntp93
Rp94
(dp95
g13
I01
sg14
F0.9247034657374389
sg15
g92
sbs(I328
I9
tp96
g0
(g9
g2
Ntp97
Rp98
(dp99
g13
I01
sg14
F0.9628435619285194
sg15
g96
sbs(I-6
I328
tp100
g0
(g9
g2
Ntp101
Rp102
(dp103
g13
I01
sg14
F0.600109313269281
sg15
g100
sbs(I-8
I3
tp104
g0
(g9
g2
Ntp105
Rp106
(dp107
g13
I01
sg14
F-0.867127924892709
sg15
g104
sbs(I-10
I327
tp108
g0
(g9
g2
Ntp109
Rp110
(dp111
g13
I01
sg14
F1.0617878813172956
sg15
g108
sbs(I327
I2
tp112
g0
(g9
g2
Ntp113
Rp114
(dp115
g13
I01
sg14
F-0.807121160522585
sg15
g112
sbs(I-3
I327
tp116
g0
(g9
g2
Ntp117
Rp118
(dp119
g13
I00
sg14
F-1.225304059623996
sg15
g116
sbs(I328
I1
tp120
g0
(g9
g2
Ntp121
Rp122
(dp123
g13
I01
sg14
F0.5007028496299359
sg15
g120
sbs(I327
I6
tp124
g0
(g9
g2
Ntp125
Rp126
(dp127
g13
I00
sg14
F-2.2618603159842836
sg15
g124
sbs(I8
I8
tp128
g0
(g9
g2
Ntp129
Rp130
(dp131
g13
I00
sg14
F0.7961682496769209
sg15
g128
sbs(I-4
I327
tp132
g0
(g9
g2
Ntp133
Rp134
(dp135
g13
I01
sg14
F0.7486042317239017
sg15
g132
sbssS'nodes'
p136
(dp137
I0
g0
(cneat.genes
DefaultNodeGene
p138
g2
Ntp139
Rp140
(dp141
S'activation'
p142
S'tanh'
p143
sS'bias'
p144
F-15.396413024951638
sS'response'
p145
F1.0
sg15
I0
sS'aggregation'
p146
S'sum'
p147
sbsI1
g0
(g138
g2
Ntp148
Rp149
(dp150
g142
g143
sg144
F-15.030018077808249
sg145
F1.0
sg15
I1
sg146
g147
sbsI2
g0
(g138
g2
Ntp151
Rp152
(dp153
g142
g143
sg144
F-3.11383210625532
sg145
F1.0
sg15
I2
sg146
g147
sbsI3
g0
(g138
g2
Ntp154
Rp155
(dp156
g142
g143
sg144
F-6.0385667125719245
sg145
F1.0
sg15
I3
sg146
g147
sbsI4
g0
(g138
g2
Ntp157
Rp158
(dp159
g142
g143
sg144
F-3.169253207383081
sg145
F1.0
sg15
I4
sg146
g147
sbsI5
g0
(g138
g2
Ntp160
Rp161
(dp162
g142
g143
sg144
F2.1910024659968
sg145
F1.0
sg15
I5
sg146
g147
sbsI6
g0
(g138
g2
Ntp163
Rp164
(dp165
g142
g143
sg144
F-4.580207655782215
sg145
F1.0
sg15
I6
sg146
g147
sbsI7
g0
(g138
g2
Ntp166
Rp167
(dp168
g142
g143
sg144
F-9.743046462953213
sg145
F1.0
sg15
I7
sg146
g147
sbsI8
g0
(g138
g2
Ntp169
Rp170
(dp171
g142
g143
sg144
F1.171547683451787
sg145
F1.0
sg15
I8
sg146
g147
sbsI9
g0
(g138
g2
Ntp172
Rp173
(dp174
g142
g143
sg144
F18.95141753867191
sg145
F1.0
sg15
I9
sg146
g147
sbsI327
g0
(g138
g2
Ntp175
Rp176
(dp177
g142
g143
sg144
F-2.882408373012345
sg145
F1.0
sg15
I327
sg146
g147
sbsI752
g0
(g138
g2
Ntp178
Rp179
(dp180
g142
g143
sg144
F11.22799361913416
sg145
F1.0
sg15
I752
sg146
g147
sbsI328
g0
(g138
g2
Ntp181
Rp182
(dp183
g142
g143
sg144
F-2.529201049656391
sg145
F1.0
sg15
I328
sg146
g147
sbssg15
I3
sS'fitness'
p184
F0.14453908055971332
sb.