ccopy_reg
_reconstructor
p0
(cneat.genome
DefaultGenome
p1
c__builtin__
object
p2
Ntp3
Rp4
(dp5
S'connections'
p6
(dp7
(I-5
I64
tp8
g0
(cneat.genes
DefaultConnectionGene
p9
g2
Ntp10
Rp11
(dp12
S'enabled'
p13
I01
sS'weight'
p14
F-0.4197735709244228
sS'key'
p15
g8
sbs(I64
I0
tp16
g0
(g9
g2
Ntp17
Rp18
(dp19
g13
I01
sg14
F-0.4879237384471232
sg15
g16
sbs(I64
I113
tp20
g0
(g9
g2
Ntp21
Rp22
(dp23
g13
I01
sg14
F-0.1514060611108827
sg15
g20
sbs(I-9
I64
tp24
g0
(g9
g2
Ntp25
Rp26
(dp27
g13
I01
sg14
F0.26967257797799926
sg15
g24
sbs(I-4
I64
tp28
g0
(g9
g2
Ntp29
Rp30
(dp31
g13
I01
sg14
F-0.23954025750156993
sg15
g28
sbs(I64
I8
tp32
g0
(g9
g2
Ntp33
Rp34
(dp35
g13
I01
sg14
F7.594596819277093
sg15
g32
sbs(I-2
I64
tp36
g0
(g9
g2
Ntp37
Rp38
(dp39
g13
I01
sg14
F1.6592983960291785
sg15
g36
sbs(I64
I1
tp40
g0
(g9
g2
Ntp41
Rp42
(dp43
g13
I01
sg14
F-1.1813440539586582
sg15
g40
sbs(I-3
I64
tp44
g0
(g9
g2
Ntp45
Rp46
(dp47
g13
I01
sg14
F-0.1680746072662939
sg15
g44
sbs(I64
I6
tp48
g0
(g9
g2
Ntp49
Rp50
(dp51
g13
I01
sg14
F0.9039365111638501
sg15
g48
sbs(I64
I9
tp52
g0
(g9
g2
Ntp53
Rp54
(dp55
g13
I01
sg14
F-0.6152487091713419
sg15
g52
sbs(I-8
I64
tp56
g0
(g9
g2
Ntp57
Rp58
(dp59
g13
I01
sg14
F-1.101470944824853
sg15
g56
sbs(I64
I2
tp60
g0
(g9
g2
Ntp61
Rp62
(dp63
g13
I00
sg14
F0.37369884108173945
sg15
g60
sbs(I-1
I64
tp64
g0
(g9
g2
Ntp65
Rp66
(dp67
g13
I01
sg14
F-0.0016165653149353143
sg15
g64
sbs(I64
I7
tp68
g0
(g9
g2
Ntp69
Rp70
(dp71
g13
I01
sg14
F-1.0949785114024717
sg15
g68
sbs(I-7
I64
tp72
g0
(g9
g2
Ntp73
Rp74
(dp75
g13
I01
sg14
F1.3781811395529708
sg15
g72
sbs(I64
I3
tp76
g0
(g9
g2
Ntp77
Rp78
(dp79
g13
I00
sg14
F0.7650094706739383
sg15
g76
sbs(I113
I2
tp80
g0
(g9
g2
Ntp81
Rp82
(dp83
g13
I01
sg14
F-2.284305388531767
sg15
g80
sbs(I-6
I64
tp84
g0
(g9
g2
Ntp85
Rp86
(dp87
g13
I01
sg14
F-1.2902878618660947
sg15
g84
sbs(I-9
I7
tp88
g0
(g9
g2
Ntp89
Rp90
(dp91
g13
I01
sg14
F-0.2649474973997915
sg15
g88
sbs(I64
I4
tp92
g0
(g9
g2
Ntp93
Rp94
(dp95
g13
I01
sg14
F0.5719527688431763
sg15
g92
sbs(I64
I5
tp96
g0
(g9
g2
Ntp97
Rp98
(dp99
g13
I01
sg14
F-1.0851329558227296
sg15
g96
sbs(I-10
I64
tp100
g0
(g9
g2
Ntp101
Rp102
(dp103
g13
I01
sg14
F2.3735339137803155
sg15
g100
sbssS'nodes'
p104
(dp105
I0
g0
(cneat.genes
DefaultNodeGene
p106
g2
Ntp107
Rp108
(dp109
S'activation'
p110
S'relu'
p111
sS'bias'
p112
F-1.6101949780590128
sS'response'
p113
F1.0
sg15
I0
sS'aggregation'
p114
S'sum'
p115
sbsI1
g0
(g106
g2
Ntp116
Rp117
(dp118
g110
g111
sg112
F-3.2626365586097212
sg113
F1.0
sg15
I1
sg114
g115
sbsI2
g0
(g106
g2
Ntp119
Rp120
(dp121
g110
S'tanh'
p122
sg112
F-14.433811378094594
sg113
F1.0
sg15
I2
sg114
g115
sbsI3
g0
(g106
g2
Ntp123
Rp124
(dp125
g110
g122
sg112
F16.105294490075146
sg113
F1.0
sg15
I3
sg114
g115
sbsI4
g0
(g106
g2
Ntp126
Rp127
(dp128
g110
g111
sg112
F-5.91460887804076
sg113
F1.0
sg15
I4
sg114
g115
sbsI5
g0
(g106
g2
Ntp129
Rp130
(dp131
g110
g111
sg112
F-17.188622371921163
sg113
F1.0
sg15
I5
sg114
g115
sbsI6
g0
(g106
g2
Ntp132
Rp133
(dp134
g110
g111
sg112
F11.944161818837891
sg113
F1.0
sg15
I6
sg114
g115
sbsI7
g0
(g106
g2
Ntp135
Rp136
(dp137
g110
g111
sg112
F14.246911952294058
sg113
F1.0
sg15
I7
sg114
g115
sbsI8
g0
(g106
g2
Ntp138
Rp139
(dp140
g110
g111
sg112
F13.646035047238952
sg113
F1.0
sg15
I8
sg114
g115
sbsI9
g0
(g106
g2
Ntp141
Rp142
(dp143
g110
g111
sg112
F-6.319384748531459
sg113
F1.0
sg15
I9
sg114
g115
sbsI64
g0
(g106
g2
Ntp144
Rp145
(dp146
g110
g111
sg112
F16.311921457519336
sg113
F1.0
sg15
I64
sg114
g115
sbsI113
g0
(g106
g2
Ntp147
Rp148
(dp149
g110
g111
sg112
F-4.905675097287979
sg113
F1.0
sg15
I113
sg114
g115
sbssg15
I983
sS'fitness'
p150
F5.4245829673757395
sb.