ccopy_reg
_reconstructor
p0
(cneat.genome
DefaultGenome
p1
c__builtin__
object
p2
Ntp3
Rp4
(dp5
S'connections'
p6
(dp7
(I-17
I12
tp8
g0
(cneat.genes
DefaultConnectionGene
p9
g2
Ntp10
Rp11
(dp12
S'enabled'
p13
I01
sS'weight'
p14
F0.9679265271691457
sS'key'
p15
g8
sbs(I-19
I12
tp16
g0
(g9
g2
Ntp17
Rp18
(dp19
g13
I01
sg14
F0.9560790278797737
sg15
g16
sbs(I-12
I12
tp20
g0
(g9
g2
Ntp21
Rp22
(dp23
g13
I01
sg14
F1.0281842864414386
sg15
g20
sbs(I12
I1
tp24
g0
(g9
g2
Ntp25
Rp26
(dp27
g13
I01
sg14
F-0.5437164591116257
sg15
g24
sbs(I-14
I12
tp28
g0
(g9
g2
Ntp29
Rp30
(dp31
g13
I01
sg14
F-0.6713671800150153
sg15
g28
sbs(I12
I5
tp32
g0
(g9
g2
Ntp33
Rp34
(dp35
g13
I01
sg14
F-0.8644265536904105
sg15
g32
sbs(I-3
I12
tp36
g0
(g9
g2
Ntp37
Rp38
(dp39
g13
I01
sg14
F-1.0871473128683509
sg15
g36
sbs(I-11
I12
tp40
g0
(g9
g2
Ntp41
Rp42
(dp43
g13
I01
sg14
F-0.24729387705519276
sg15
g40
sbs(I12
I9
tp44
g0
(g9
g2
Ntp45
Rp46
(dp47
g13
I01
sg14
F1.8885154648916807
sg15
g44
sbs(I-6
I12
tp48
g0
(g9
g2
Ntp49
Rp50
(dp51
g13
I01
sg14
F1.2503617529849163
sg15
g48
sbs(I12
I2
tp52
g0
(g9
g2
Ntp53
Rp54
(dp55
g13
I01
sg14
F1.2414786608092532
sg15
g52
sbs(I12
I6
tp56
g0
(g9
g2
Ntp57
Rp58
(dp59
g13
I01
sg14
F0.7483461722188033
sg15
g56
sbs(I12
I3
tp60
g0
(g9
g2
Ntp61
Rp62
(dp63
g13
I01
sg14
F-0.27438801003308355
sg15
g60
sbs(I-16
I12
tp64
g0
(g9
g2
Ntp65
Rp66
(dp67
g13
I01
sg14
F-0.7900563374810177
sg15
g64
sbs(I-2
I12
tp68
g0
(g9
g2
Ntp69
Rp70
(dp71
g13
I01
sg14
F0.03553755871929296
sg15
g68
sbs(I-10
I12
tp72
g0
(g9
g2
Ntp73
Rp74
(dp75
g13
I01
sg14
F-0.8274303034186621
sg15
g72
sbs(I12
I7
tp76
g0
(g9
g2
Ntp77
Rp78
(dp79
g13
I01
sg14
F0.3166542928280836
sg15
g76
sbs(I-5
I12
tp80
g0
(g9
g2
Ntp81
Rp82
(dp83
g13
I01
sg14
F-0.737296611609535
sg15
g80
sbs(I-18
I12
tp84
g0
(g9
g2
Ntp85
Rp86
(dp87
g13
I01
sg14
F-0.7777515413303733
sg15
g84
sbs(I-13
I12
tp88
g0
(g9
g2
Ntp89
Rp90
(dp91
g13
I01
sg14
F1.2377149931344111
sg15
g88
sbs(I-15
I12
tp92
g0
(g9
g2
Ntp93
Rp94
(dp95
g13
I01
sg14
F-1.06346205751924
sg15
g92
sbs(I-8
I12
tp96
g0
(g9
g2
Ntp97
Rp98
(dp99
g13
I01
sg14
F-0.09154697649670321
sg15
g96
sbs(I-1
I12
tp100
g0
(g9
g2
Ntp101
Rp102
(dp103
g13
I01
sg14
F1.4853872962668198
sg15
g100
sbs(I12
I0
tp104
g0
(g9
g2
Ntp105
Rp106
(dp107
g13
I01
sg14
F-1.8432989070333423
sg15
g104
sbs(I-20
I12
tp108
g0
(g9
g2
Ntp109
Rp110
(dp111
g13
I01
sg14
F0.9207321452645785
sg15
g108
sbs(I-7
I12
tp112
g0
(g9
g2
Ntp113
Rp114
(dp115
g13
I01
sg14
F0.11491344159042749
sg15
g112
sbs(I12
I4
tp116
g0
(g9
g2
Ntp117
Rp118
(dp119
g13
I01
sg14
F-1.0124149151352546
sg15
g116
sbs(I-9
I12
tp120
g0
(g9
g2
Ntp121
Rp122
(dp123
g13
I01
sg14
F-0.6031024766975024
sg15
g120
sbs(I-4
I12
tp124
g0
(g9
g2
Ntp125
Rp126
(dp127
g13
I01
sg14
F0.612220393861466
sg15
g124
sbs(I12
I8
tp128
g0
(g9
g2
Ntp129
Rp130
(dp131
g13
I01
sg14
F-0.3865382381111587
sg15
g128
sbssS'nodes'
p132
(dp133
I0
g0
(cneat.genes
DefaultNodeGene
p134
g2
Ntp135
Rp136
(dp137
S'activation'
p138
S'relu'
p139
sS'bias'
p140
F3.7249318618202167
sS'response'
p141
F1.0
sg15
I0
sS'aggregation'
p142
S'sum'
p143
sbsI1
g0
(g134
g2
Ntp144
Rp145
(dp146
g138
g139
sg140
F-1.5072506568460489
sg141
F1.0
sg15
I1
sg142
g143
sbsI2
g0
(g134
g2
Ntp147
Rp148
(dp149
g138
g139
sg140
F17.19715539586234
sg141
F1.0
sg15
I2
sg142
g143
sbsI3
g0
(g134
g2
Ntp150
Rp151
(dp152
g138
g139
sg140
F7.8512887700081135
sg141
F1.0
sg15
I3
sg142
g143
sbsI4
g0
(g134
g2
Ntp153
Rp154
(dp155
g138
g139
sg140
F9.605032749514738
sg141
F1.0
sg15
I4
sg142
g143
sbsI5
g0
(g134
g2
Ntp156
Rp157
(dp158
g138
g139
sg140
F5.561491278148637
sg141
F1.0
sg15
I5
sg142
g143
sbsI6
g0
(g134
g2
Ntp159
Rp160
(dp161
g138
g139
sg140
F-6.675274984817074
sg141
F1.0
sg15
I6
sg142
g143
sbsI7
g0
(g134
g2
Ntp162
Rp163
(dp164
g138
g139
sg140
F-2.8370590179368294
sg141
F1.0
sg15
I7
sg142
g143
sbsI8
g0
(g134
g2
Ntp165
Rp166
(dp167
g138
g139
sg140
F-4.475432257450251
sg141
F1.0
sg15
I8
sg142
g143
sbsI9
g0
(g134
g2
Ntp168
Rp169
(dp170
g138
g139
sg140
F1.944481666917792
sg141
F1.0
sg15
I9
sg142
g143
sbsI12
g0
(g134
g2
Ntp171
Rp172
(dp173
g138
g139
sg140
F3.9275778552810796
sg141
F1.0
sg15
I12
sg142
g143
sbssg15
I3
sS'fitness'
p174
Nsb.