ccopy_reg
_reconstructor
p0
(cneat.genome
DefaultGenome
p1
c__builtin__
object
p2
Ntp3
Rp4
(dp5
S'connections'
p6
(dp7
(I-1
I12
tp8
g0
(cneat.genes
DefaultConnectionGene
p9
g2
Ntp10
Rp11
(dp12
S'enabled'
p13
I01
sS'weight'
p14
F-0.8143702843311776
sS'key'
p15
g8
sbs(I12
I1
tp16
g0
(g9
g2
Ntp17
Rp18
(dp19
g13
I01
sg14
F-0.0988979257317879
sg15
g16
sbs(I-2
I12
tp20
g0
(g9
g2
Ntp21
Rp22
(dp23
g13
I01
sg14
F0.024039885898717563
sg15
g20
sbs(I-10
I12
tp24
g0
(g9
g2
Ntp25
Rp26
(dp27
g13
I01
sg14
F-0.38475275520769814
sg15
g24
sbs(I12
I7
tp28
g0
(g9
g2
Ntp29
Rp30
(dp31
g13
I01
sg14
F-1.853834634706866
sg15
g28
sbs(I12
I0
tp32
g0
(g9
g2
Ntp33
Rp34
(dp35
g13
I01
sg14
F0.13751693899332698
sg15
g32
sbs(I-5
I12
tp36
g0
(g9
g2
Ntp37
Rp38
(dp39
g13
I01
sg14
F1.050131024546618
sg15
g36
sbs(I12
I6
tp40
g0
(g9
g2
Ntp41
Rp42
(dp43
g13
I01
sg14
F1.6393153783641237
sg15
g40
sbs(I-7
I12
tp44
g0
(g9
g2
Ntp45
Rp46
(dp47
g13
I01
sg14
F-0.8955953773304592
sg15
g44
sbs(I12
I5
tp48
g0
(g9
g2
Ntp49
Rp50
(dp51
g13
I01
sg14
F0.6621090234058807
sg15
g48
sbs(I-3
I12
tp52
g0
(g9
g2
Ntp53
Rp54
(dp55
g13
I01
sg14
F0.2478013334757008
sg15
g52
sbs(I12
I4
tp56
g0
(g9
g2
Ntp57
Rp58
(dp59
g13
I01
sg14
F0.2716553099477389
sg15
g56
sbs(I-8
I12
tp60
g0
(g9
g2
Ntp61
Rp62
(dp63
g13
I01
sg14
F0.3723157026437885
sg15
g60
sbs(I-9
I12
tp64
g0
(g9
g2
Ntp65
Rp66
(dp67
g13
I01
sg14
F-0.12654278734058486
sg15
g64
sbs(I12
I2
tp68
g0
(g9
g2
Ntp69
Rp70
(dp71
g13
I01
sg14
F-0.31910018907216237
sg15
g68
sbs(I-4
I12
tp72
g0
(g9
g2
Ntp73
Rp74
(dp75
g13
I01
sg14
F0.2417426725207765
sg15
g72
sbs(I12
I9
tp76
g0
(g9
g2
Ntp77
Rp78
(dp79
g13
I01
sg14
F-1.4013725866614748
sg15
g76
sbs(I-6
I12
tp80
g0
(g9
g2
Ntp81
Rp82
(dp83
g13
I01
sg14
F0.243693218825131
sg15
g80
sbs(I12
I3
tp84
g0
(g9
g2
Ntp85
Rp86
(dp87
g13
I01
sg14
F0.5774129945831371
sg15
g84
sbs(I12
I8
tp88
g0
(g9
g2
Ntp89
Rp90
(dp91
g13
I01
sg14
F-0.9878155493939823
sg15
g88
sbssS'nodes'
p92
(dp93
I0
g0
(cneat.genes
DefaultNodeGene
p94
g2
Ntp95
Rp96
(dp97
S'activation'
p98
S'relu'
p99
sS'bias'
p100
F13.78760535509564
sS'response'
p101
F1.0
sg15
I0
sS'aggregation'
p102
S'sum'
p103
sbsI1
g0
(g94
g2
Ntp104
Rp105
(dp106
g98
g99
sg100
F-12.832696640810887
sg101
F1.0
sg15
I1
sg102
g103
sbsI2
g0
(g94
g2
Ntp107
Rp108
(dp109
g98
g99
sg100
F0.9995520596149411
sg101
F1.0
sg15
I2
sg102
g103
sbsI3
g0
(g94
g2
Ntp110
Rp111
(dp112
g98
g99
sg100
F-10.021221104726294
sg101
F1.0
sg15
I3
sg102
g103
sbsI4
g0
(g94
g2
Ntp113
Rp114
(dp115
g98
g99
sg100
F-5.174335623659805
sg101
F1.0
sg15
I4
sg102
g103
sbsI5
g0
(g94
g2
Ntp116
Rp117
(dp118
g98
g99
sg100
F-0.5767091055549227
sg101
F1.0
sg15
I5
sg102
g103
sbsI6
g0
(g94
g2
Ntp119
Rp120
(dp121
g98
g99
sg100
F-11.221418810352038
sg101
F1.0
sg15
I6
sg102
g103
sbsI7
g0
(g94
g2
Ntp122
Rp123
(dp124
g98
g99
sg100
F-7.905710133378815
sg101
F1.0
sg15
I7
sg102
g103
sbsI8
g0
(g94
g2
Ntp125
Rp126
(dp127
g98
g99
sg100
F-1.4520395675235063
sg101
F1.0
sg15
I8
sg102
g103
sbsI9
g0
(g94
g2
Ntp128
Rp129
(dp130
g98
g99
sg100
F6.020204520179348
sg101
F1.0
sg15
I9
sg102
g103
sbsI12
g0
(g94
g2
Ntp131
Rp132
(dp133
g98
g99
sg100
F3.7183026588331862
sg101
F1.0
sg15
I12
sg102
g103
sbssg15
I3
sS'fitness'
p134
F0.1285059375027342
sb.