ccopy_reg
_reconstructor
p0
(cneat.genome
DefaultGenome
p1
c__builtin__
object
p2
Ntp3
Rp4
(dp5
S'connections'
p6
(dp7
(I-17
I12
tp8
g0
(cneat.genes
DefaultConnectionGene
p9
g2
Ntp10
Rp11
(dp12
S'enabled'
p13
I01
sS'weight'
p14
F-0.7227027493085458
sS'key'
p15
g8
sbs(I-19
I12
tp16
g0
(g9
g2
Ntp17
Rp18
(dp19
g13
I01
sg14
F0.7450863529844459
sg15
g16
sbs(I-12
I12
tp20
g0
(g9
g2
Ntp21
Rp22
(dp23
g13
I01
sg14
F-0.5600818778963259
sg15
g20
sbs(I12
I1
tp24
g0
(g9
g2
Ntp25
Rp26
(dp27
g13
I01
sg14
F0.5345449125780011
sg15
g24
sbs(I-14
I12
tp28
g0
(g9
g2
Ntp29
Rp30
(dp31
g13
I01
sg14
F0.4471246786953161
sg15
g28
sbs(I12
I5
tp32
g0
(g9
g2
Ntp33
Rp34
(dp35
g13
I01
sg14
F3.246646022962701
sg15
g32
sbs(I-3
I12
tp36
g0
(g9
g2
Ntp37
Rp38
(dp39
g13
I01
sg14
F-0.5815485426560298
sg15
g36
sbs(I-11
I12
tp40
g0
(g9
g2
Ntp41
Rp42
(dp43
g13
I01
sg14
F-1.4240968184017277
sg15
g40
sbs(I12
I9
tp44
g0
(g9
g2
Ntp45
Rp46
(dp47
g13
I01
sg14
F-1.0966124497249592
sg15
g44
sbs(I-6
I12
tp48
g0
(g9
g2
Ntp49
Rp50
(dp51
g13
I01
sg14
F0.42742646745293306
sg15
g48
sbs(I12
I2
tp52
g0
(g9
g2
Ntp53
Rp54
(dp55
g13
I01
sg14
F-0.19775936657995172
sg15
g52
sbs(I12
I6
tp56
g0
(g9
g2
Ntp57
Rp58
(dp59
g13
I01
sg14
F1.111370546681267
sg15
g56
sbs(I12
I3
tp60
g0
(g9
g2
Ntp61
Rp62
(dp63
g13
I01
sg14
F0.41793723107093117
sg15
g60
sbs(I-16
I12
tp64
g0
(g9
g2
Ntp65
Rp66
(dp67
g13
I01
sg14
F0.661879166300346
sg15
g64
sbs(I-2
I12
tp68
g0
(g9
g2
Ntp69
Rp70
(dp71
g13
I01
sg14
F-0.06331882354505311
sg15
g68
sbs(I-10
I12
tp72
g0
(g9
g2
Ntp73
Rp74
(dp75
g13
I01
sg14
F-1.077081093305362
sg15
g72
sbs(I12
I7
tp76
g0
(g9
g2
Ntp77
Rp78
(dp79
g13
I01
sg14
F-0.030559945145016573
sg15
g76
sbs(I-5
I12
tp80
g0
(g9
g2
Ntp81
Rp82
(dp83
g13
I01
sg14
F0.36677020960717344
sg15
g80
sbs(I-18
I12
tp84
g0
(g9
g2
Ntp85
Rp86
(dp87
g13
I01
sg14
F1.0811619583766414
sg15
g84
sbs(I-13
I12
tp88
g0
(g9
g2
Ntp89
Rp90
(dp91
g13
I01
sg14
F-1.018324584564799
sg15
g88
sbs(I-15
I12
tp92
g0
(g9
g2
Ntp93
Rp94
(dp95
g13
I01
sg14
F-0.12746521479346104
sg15
g92
sbs(I-8
I12
tp96
g0
(g9
g2
Ntp97
Rp98
(dp99
g13
I01
sg14
F0.3764777518347044
sg15
g96
sbs(I-1
I12
tp100
g0
(g9
g2
Ntp101
Rp102
(dp103
g13
I01
sg14
F-0.784096790634727
sg15
g100
sbs(I12
I0
tp104
g0
(g9
g2
Ntp105
Rp106
(dp107
g13
I01
sg14
F-0.3171372791939338
sg15
g104
sbs(I-20
I12
tp108
g0
(g9
g2
Ntp109
Rp110
(dp111
g13
I01
sg14
F-0.1679022352543743
sg15
g108
sbs(I-7
I12
tp112
g0
(g9
g2
Ntp113
Rp114
(dp115
g13
I01
sg14
F-1.0344717521962432
sg15
g112
sbs(I12
I4
tp116
g0
(g9
g2
Ntp117
Rp118
(dp119
g13
I01
sg14
F0.16957563026082337
sg15
g116
sbs(I-9
I12
tp120
g0
(g9
g2
Ntp121
Rp122
(dp123
g13
I01
sg14
F1.8022358334510244
sg15
g120
sbs(I-4
I12
tp124
g0
(g9
g2
Ntp125
Rp126
(dp127
g13
I01
sg14
F-0.7020531587544209
sg15
g124
sbs(I12
I8
tp128
g0
(g9
g2
Ntp129
Rp130
(dp131
g13
I01
sg14
F0.959798928904297
sg15
g128
sbssS'nodes'
p132
(dp133
I0
g0
(cneat.genes
DefaultNodeGene
p134
g2
Ntp135
Rp136
(dp137
S'activation'
p138
S'relu'
p139
sS'bias'
p140
F-1.3898745169650517
sS'response'
p141
F1.0
sg15
I0
sS'aggregation'
p142
S'sum'
p143
sbsI1
g0
(g134
g2
Ntp144
Rp145
(dp146
g138
g139
sg140
F3.736632637792299
sg141
F1.0
sg15
I1
sg142
g143
sbsI2
g0
(g134
g2
Ntp147
Rp148
(dp149
g138
g139
sg140
F-16.971464890662226
sg141
F1.0
sg15
I2
sg142
g143
sbsI3
g0
(g134
g2
Ntp150
Rp151
(dp152
g138
g139
sg140
F8.709364630913889
sg141
F1.0
sg15
I3
sg142
g143
sbsI4
g0
(g134
g2
Ntp153
Rp154
(dp155
g138
g139
sg140
F-4.342472958079291
sg141
F1.0
sg15
I4
sg142
g143
sbsI5
g0
(g134
g2
Ntp156
Rp157
(dp158
g138
g139
sg140
F1.2328829565851473
sg141
F1.0
sg15
I5
sg142
g143
sbsI6
g0
(g134
g2
Ntp159
Rp160
(dp161
g138
g139
sg140
F3.25449738872619
sg141
F1.0
sg15
I6
sg142
g143
sbsI7
g0
(g134
g2
Ntp162
Rp163
(dp164
g138
g139
sg140
F7.615526972535251
sg141
F1.0
sg15
I7
sg142
g143
sbsI8
g0
(g134
g2
Ntp165
Rp166
(dp167
g138
g139
sg140
F-1.0764184412657032
sg141
F1.0
sg15
I8
sg142
g143
sbsI9
g0
(g134
g2
Ntp168
Rp169
(dp170
g138
g139
sg140
F7.381173238414895
sg141
F1.0
sg15
I9
sg142
g143
sbsI12
g0
(g134
g2
Ntp171
Rp172
(dp173
g138
g139
sg140
F6.340363895584856
sg141
F1.0
sg15
I12
sg142
g143
sbssg15
I3
sS'fitness'
p174
F0.10284139784396079
sb.