ccopy_reg
_reconstructor
p0
(cneat.genome
DefaultGenome
p1
c__builtin__
object
p2
Ntp3
Rp4
(dp5
S'connections'
p6
(dp7
(I-8
I327
tp8
g0
(cneat.genes
DefaultConnectionGene
p9
g2
Ntp10
Rp11
(dp12
S'enabled'
p13
I01
sS'weight'
p14
F0.41356319542363207
sS'key'
p15
g8
sbs(I328
I7
tp16
g0
(g9
g2
Ntp17
Rp18
(dp19
g13
I01
sg14
F1.0336038052265177
sg15
g16
sbs(I-5
I328
tp20
g0
(g9
g2
Ntp21
Rp22
(dp23
g13
I00
sg14
F-0.2073936325023355
sg15
g20
sbs(I327
I9
tp24
g0
(g9
g2
Ntp25
Rp26
(dp27
g13
I01
sg14
F-1.5768067474649228
sg15
g24
sbs(I327
I4
tp28
g0
(g9
g2
Ntp29
Rp30
(dp31
g13
I01
sg14
F0.37692783009265296
sg15
g28
sbs(I3
I3
tp32
g0
(g9
g2
Ntp33
Rp34
(dp35
g13
I01
sg14
F-0.3549366285799114
sg15
g32
sbs(I-3
I552
tp36
g0
(g9
g2
Ntp37
Rp38
(dp39
g13
I01
sg14
F0.7838454156096163
sg15
g36
sbs(I-9
I328
tp40
g0
(g9
g2
Ntp41
Rp42
(dp43
g13
I00
sg14
F0.4392412740540561
sg15
g40
sbs(I-2
I328
tp44
g0
(g9
g2
Ntp45
Rp46
(dp47
g13
I00
sg14
F-2.3713714397015493
sg15
g44
sbs(I-4
I3
tp48
g0
(g9
g2
Ntp49
Rp50
(dp51
g13
I01
sg14
F1.1241235744026707
sg15
g48
sbs(I3
I328
tp52
g0
(g9
g2
Ntp53
Rp54
(dp55
g13
I00
sg14
F0.03202007430963858
sg15
g52
sbs(I328
I8
tp56
g0
(g9
g2
Ntp57
Rp58
(dp59
g13
I00
sg14
F2.5411607503659015
sg15
g56
sbs(I552
I327
tp60
g0
(g9
g2
Ntp61
Rp62
(dp63
g13
I01
sg14
F0.2368991687015149
sg15
g60
sbs(I2
I2
tp64
g0
(g9
g2
Ntp65
Rp66
(dp67
g13
I00
sg14
F-2.0390175559252133
sg15
g64
sbs(I327
I573
tp68
g0
(g9
g2
Ntp69
Rp70
(dp71
g13
I01
sg14
F0.506390631110401
sg15
g68
sbs(I327
I8
tp72
g0
(g9
g2
Ntp73
Rp74
(dp75
g13
I00
sg14
F0.22618691570646526
sg15
g72
sbs(I1
I1
tp76
g0
(g9
g2
Ntp77
Rp78
(dp79
g13
I01
sg14
F0.23159570609198657
sg15
g76
sbs(I327
I3
tp80
g0
(g9
g2
Ntp81
Rp82
(dp83
g13
I01
sg14
F0.5930503052564413
sg15
g80
sbs(I0
I0
tp84
g0
(g9
g2
Ntp85
Rp86
(dp87
g13
I00
sg14
F-1.275282060591247
sg15
g84
sbs(I573
I8
tp88
g0
(g9
g2
Ntp89
Rp90
(dp91
g13
I01
sg14
F1.023287489394895
sg15
g88
sbs(I327
I7
tp92
g0
(g9
g2
Ntp93
Rp94
(dp95
g13
I01
sg14
F-0.7192755088869132
sg15
g92
sbs(I328
I9
tp96
g0
(g9
g2
Ntp97
Rp98
(dp99
g13
I01
sg14
F-1.15562100248285
sg15
g96
sbs(I-6
I328
tp100
g0
(g9
g2
Ntp101
Rp102
(dp103
g13
I01
sg14
F0.9570654751804372
sg15
g100
sbs(I-8
I3
tp104
g0
(g9
g2
Ntp105
Rp106
(dp107
g13
I01
sg14
F0.17025653833471444
sg15
g104
sbs(I-10
I327
tp108
g0
(g9
g2
Ntp109
Rp110
(dp111
g13
I01
sg14
F3.3010616580374177
sg15
g108
sbs(I327
I2
tp112
g0
(g9
g2
Ntp113
Rp114
(dp115
g13
I01
sg14
F1.150619674949917
sg15
g112
sbs(I-3
I327
tp116
g0
(g9
g2
Ntp117
Rp118
(dp119
g13
I00
sg14
F-1.9416541352257808
sg15
g116
sbs(I328
I1
tp120
g0
(g9
g2
Ntp121
Rp122
(dp123
g13
I01
sg14
F-1.1309952731757824
sg15
g120
sbs(I327
I6
tp124
g0
(g9
g2
Ntp125
Rp126
(dp127
g13
I00
sg14
F-3.202853754735317
sg15
g124
sbs(I8
I8
tp128
g0
(g9
g2
Ntp129
Rp130
(dp131
g13
I00
sg14
F2.3068919367686753
sg15
g128
sbs(I-4
I327
tp132
g0
(g9
g2
Ntp133
Rp134
(dp135
g13
I01
sg14
F1.304146979514204
sg15
g132
sbssS'nodes'
p136
(dp137
I0
g0
(cneat.genes
DefaultNodeGene
p138
g2
Ntp139
Rp140
(dp141
S'activation'
p142
S'tanh'
p143
sS'bias'
p144
F-12.505568114028756
sS'response'
p145
F1.0
sg15
I0
sS'aggregation'
p146
S'sum'
p147
sbsI1
g0
(g138
g2
Ntp148
Rp149
(dp150
g142
g143
sg144
F9.50164205284617
sg145
F1.0
sg15
I1
sg146
g147
sbsI2
g0
(g138
g2
Ntp151
Rp152
(dp153
g142
g143
sg144
F-1.7256359122637763
sg145
F1.0
sg15
I2
sg146
g147
sbsI3
g0
(g138
g2
Ntp154
Rp155
(dp156
g142
g143
sg144
F-6.3898543670203205
sg145
F1.0
sg15
I3
sg146
g147
sbsI4
g0
(g138
g2
Ntp157
Rp158
(dp159
g142
g143
sg144
F14.232647536578535
sg145
F1.0
sg15
I4
sg146
g147
sbsI5
g0
(g138
g2
Ntp160
Rp161
(dp162
g142
g143
sg144
F2.5558672319773668
sg145
F1.0
sg15
I5
sg146
g147
sbsI6
g0
(g138
g2
Ntp163
Rp164
(dp165
g142
S'relu'
p166
sg144
F-14.645891807158801
sg145
F1.0
sg15
I6
sg146
g147
sbsI7
g0
(g138
g2
Ntp167
Rp168
(dp169
g142
g166
sg144
F-9.166744041038335
sg145
F1.0
sg15
I7
sg146
g147
sbsI8
g0
(g138
g2
Ntp170
Rp171
(dp172
g142
g143
sg144
F0.2501140683514058
sg145
F1.0
sg15
I8
sg146
g147
sbsI9
g0
(g138
g2
Ntp173
Rp174
(dp175
g142
g166
sg144
F5.97152499961169
sg145
F1.0
sg15
I9
sg146
g147
sbsI327
g0
(g138
g2
Ntp176
Rp177
(dp178
g142
g143
sg144
F13.164641099085795
sg145
F1.0
sg15
I327
sg146
g147
sbsI328
g0
(g138
g2
Ntp179
Rp180
(dp181
g142
g143
sg144
F4.170600969209035
sg145
F1.0
sg15
I328
sg146
g147
sbsI552
g0
(g138
g2
Ntp182
Rp183
(dp184
g142
g143
sg144
F-21.36257475940788
sg145
F1.0
sg15
I552
sg146
g147
sbsI573
g0
(g138
g2
Ntp185
Rp186
(dp187
g142
g166
sg144
F5.381557560786826
sg145
F1.0
sg15
I573
sg146
g147
sbssg15
I3
sS'fitness'
p188
Nsb.