ccopy_reg
_reconstructor
p0
(cneat.genome
DefaultGenome
p1
c__builtin__
object
p2
Ntp3
Rp4
(dp5
S'connections'
p6
(dp7
(I23
I4
tp8
g0
(cneat.genes
DefaultConnectionGene
p9
g2
Ntp10
Rp11
(dp12
S'enabled'
p13
I01
sS'weight'
p14
F-2.2677131280838063
sS'key'
p15
g8
sbs(I-2
I521
tp16
g0
(g9
g2
Ntp17
Rp18
(dp19
g13
I01
sg14
F1.1130790435735884
sg15
g16
sbs(I-2
I23
tp20
g0
(g9
g2
Ntp21
Rp22
(dp23
g13
I01
sg14
F2.3478398253746624
sg15
g20
sbs(I7
I7
tp24
g0
(g9
g2
Ntp25
Rp26
(dp27
g13
I01
sg14
F2.169617893200657
sg15
g24
sbs(I9
I9
tp28
g0
(g9
g2
Ntp29
Rp30
(dp31
g13
I01
sg14
F1.1270458041468463
sg15
g28
sbs(I23
I3
tp32
g0
(g9
g2
Ntp33
Rp34
(dp35
g13
I01
sg14
F1.0399489153944388
sg15
g32
sbs(I-2
I22
tp36
g0
(g9
g2
Ntp37
Rp38
(dp39
g13
I01
sg14
F2.2108989952421463
sg15
g36
sbs(I-3
I3
tp40
g0
(g9
g2
Ntp41
Rp42
(dp43
g13
I01
sg14
F-0.8096126876172847
sg15
g40
sbs(I-1
I22
tp44
g0
(g9
g2
Ntp45
Rp46
(dp47
g13
I00
sg14
F0.42068329188253817
sg15
g44
sbs(I-7
I22
tp48
g0
(g9
g2
Ntp49
Rp50
(dp51
g13
I01
sg14
F1.5219860962020224
sg15
g48
sbs(I23
I7
tp52
g0
(g9
g2
Ntp53
Rp54
(dp55
g13
I01
sg14
F-0.22161486622347487
sg15
g52
sbs(I-5
I23
tp56
g0
(g9
g2
Ntp57
Rp58
(dp59
g13
I00
sg14
F0.6533677499228968
sg15
g56
sbs(I-1
I1
tp60
g0
(g9
g2
Ntp61
Rp62
(dp63
g13
I01
sg14
F0.10376929042839494
sg15
g60
sbs(I22
I7
tp64
g0
(g9
g2
Ntp65
Rp66
(dp67
g13
I01
sg14
F-1.9129288982356472
sg15
g64
sbs(I2
I2
tp68
g0
(g9
g2
Ntp69
Rp70
(dp71
g13
I00
sg14
F-2.2658871645132614
sg15
g68
sbs(I-5
I22
tp72
g0
(g9
g2
Ntp73
Rp74
(dp75
g13
I01
sg14
F-0.10176851308276724
sg15
g72
sbs(I2
I551
tp76
g0
(g9
g2
Ntp77
Rp78
(dp79
g13
I01
sg14
F-0.5326196318906019
sg15
g76
sbs(I-6
I22
tp80
g0
(g9
g2
Ntp81
Rp82
(dp83
g13
I01
sg14
F0.028543668197449523
sg15
g80
sbs(I559
I0
tp84
g0
(g9
g2
Ntp85
Rp86
(dp87
g13
I01
sg14
F-0.664530218293672
sg15
g84
sbs(I22
I4
tp88
g0
(g9
g2
Ntp89
Rp90
(dp91
g13
I01
sg14
F2.2695654274320733
sg15
g88
sbs(I23
I1
tp92
g0
(g9
g2
Ntp93
Rp94
(dp95
g13
I01
sg14
F0.4461168050756607
sg15
g92
sbs(I22
I0
tp96
g0
(g9
g2
Ntp97
Rp98
(dp99
g13
I00
sg14
F0.3049948496871417
sg15
g96
sbs(I23
I5
tp100
g0
(g9
g2
Ntp101
Rp102
(dp103
g13
I01
sg14
F0.25251565609258286
sg15
g100
sbs(I-10
I23
tp104
g0
(g9
g2
Ntp105
Rp106
(dp107
g13
I01
sg14
F-1.3242610884118582
sg15
g104
sbs(I22
I559
tp108
g0
(g9
g2
Ntp109
Rp110
(dp111
g13
I01
sg14
F1.0
sg15
g108
sbs(I-4
I22
tp112
g0
(g9
g2
Ntp113
Rp114
(dp115
g13
I01
sg14
F-0.9662514221722527
sg15
g112
sbs(I23
I9
tp116
g0
(g9
g2
Ntp117
Rp118
(dp119
g13
I00
sg14
F3.2018855240882833
sg15
g116
sbs(I8
I8
tp120
g0
(g9
g2
Ntp121
Rp122
(dp123
g13
I01
sg14
F0.5774994919335451
sg15
g120
sbs(I22
I8
tp124
g0
(g9
g2
Ntp125
Rp126
(dp127
g13
I01
sg14
F-0.9462728064948436
sg15
g124
sbs(I-7
I23
tp128
g0
(g9
g2
Ntp129
Rp130
(dp131
g13
I01
sg14
F-1.7057509031475846
sg15
g128
sbssS'nodes'
p132
(dp133
I0
g0
(cneat.genes
DefaultNodeGene
p134
g2
Ntp135
Rp136
(dp137
S'activation'
p138
S'tanh'
p139
sS'bias'
p140
F4.6891829392525475
sS'response'
p141
F1.0
sg15
I0
sS'aggregation'
p142
S'sum'
p143
sbsI1
g0
(g134
g2
Ntp144
Rp145
(dp146
g138
g139
sg140
F-15.53965836322043
sg141
F1.0
sg15
I1
sg142
g143
sbsI2
g0
(g134
g2
Ntp147
Rp148
(dp149
g138
g139
sg140
F0.4719360332017828
sg141
F1.0
sg15
I2
sg142
g143
sbsI3
g0
(g134
g2
Ntp150
Rp151
(dp152
g138
g139
sg140
F-20.309800711502334
sg141
F1.0
sg15
I3
sg142
g143
sbsI4
g0
(g134
g2
Ntp153
Rp154
(dp155
g138
S'relu'
p156
sg140
F22.894080942639338
sg141
F1.0
sg15
I4
sg142
g143
sbsI5
g0
(g134
g2
Ntp157
Rp158
(dp159
g138
g139
sg140
F9.151940892053497
sg141
F1.0
sg15
I5
sg142
g143
sbsI6
g0
(g134
g2
Ntp160
Rp161
(dp162
g138
g139
sg140
F18.06418037372047
sg141
F1.0
sg15
I6
sg142
g143
sbsI7
g0
(g134
g2
Ntp163
Rp164
(dp165
g138
g139
sg140
F5.6113993827629365
sg141
F1.0
sg15
I7
sg142
g143
sbsI8
g0
(g134
g2
Ntp166
Rp167
(dp168
g138
g139
sg140
F-7.209483304838856
sg141
F1.0
sg15
I8
sg142
g143
sbsI9
g0
(g134
g2
Ntp169
Rp170
(dp171
g138
g156
sg140
F13.69954982987089
sg141
F1.0
sg15
I9
sg142
g143
sbsI551
g0
(g134
g2
Ntp172
Rp173
(dp174
g138
g156
sg140
F-2.148426496377895
sg141
F1.0
sg15
I551
sg142
g143
sbsI559
g0
(g134
g2
Ntp175
Rp176
(dp177
g138
g139
sg140
F10.584715493288513
sg141
F1.0
sg15
I559
sg142
g143
sbsI22
g0
(g134
g2
Ntp178
Rp179
(dp180
g138
g139
sg140
F-14.163487647288015
sg141
F1.0
sg15
I22
sg142
g143
sbsI521
g0
(g134
g2
Ntp181
Rp182
(dp183
g138
g139
sg140
F12.000499130308793
sg141
F1.0
sg15
I521
sg142
g143
sbsI23
g0
(g134
g2
Ntp184
Rp185
(dp186
g138
g139
sg140
F-1.8277094509252758
sg141
F1.0
sg15
I23
sg142
g143
sbssg15
I30
sS'fitness'
p187
F0.13551311738534189
sb.