ccopy_reg
_reconstructor
p0
(cneat.genome
DefaultGenome
p1
c__builtin__
object
p2
Ntp3
Rp4
(dp5
S'connections'
p6
(dp7
(I94
I1
tp8
g0
(cneat.genes
DefaultConnectionGene
p9
g2
Ntp10
Rp11
(dp12
S'enabled'
p13
I01
sS'weight'
p14
F-0.7150533622292573
sS'key'
p15
g8
sbs(I-10
I90
tp16
g0
(g9
g2
Ntp17
Rp18
(dp19
g13
I01
sg14
F-0.4280412652791967
sg15
g16
sbs(I-6
I91
tp20
g0
(g9
g2
Ntp21
Rp22
(dp23
g13
I01
sg14
F0.4024346249873513
sg15
g20
sbs(I90
I3
tp24
g0
(g9
g2
Ntp25
Rp26
(dp27
g13
I01
sg14
F-0.8976591902487712
sg15
g24
sbs(I-2
I94
tp28
g0
(g9
g2
Ntp29
Rp30
(dp31
g13
I01
sg14
F-1.0186297506718724
sg15
g28
sbs(I90
I9
tp32
g0
(g9
g2
Ntp33
Rp34
(dp35
g13
I01
sg14
F-0.6560656426304786
sg15
g32
sbs(I436
I3
tp36
g0
(g9
g2
Ntp37
Rp38
(dp39
g13
I01
sg14
F2.282681555927971
sg15
g36
sbs(I-9
I93
tp40
g0
(g9
g2
Ntp41
Rp42
(dp43
g13
I01
sg14
F1.7622023665142343
sg15
g40
sbs(I91
I4
tp44
g0
(g9
g2
Ntp45
Rp46
(dp47
g13
I01
sg14
F-0.1447387892416442
sg15
g44
sbs(I-2
I93
tp48
g0
(g9
g2
Ntp49
Rp50
(dp51
g13
I01
sg14
F1.7338071541401563
sg15
g48
sbs(I-5
I94
tp52
g0
(g9
g2
Ntp53
Rp54
(dp55
g13
I01
sg14
F0.438138493456885
sg15
g52
sbs(I-1
I94
tp56
g0
(g9
g2
Ntp57
Rp58
(dp59
g13
I01
sg14
F-0.6964471960408468
sg15
g56
sbs(I-9
I91
tp60
g0
(g9
g2
Ntp61
Rp62
(dp63
g13
I01
sg14
F-2.141914031501092
sg15
g60
sbs(I91
I9
tp64
g0
(g9
g2
Ntp65
Rp66
(dp67
g13
I01
sg14
F-0.9733095929227061
sg15
g64
sbs(I-10
I94
tp68
g0
(g9
g2
Ntp69
Rp70
(dp71
g13
I01
sg14
F-1.1204619972953065
sg15
g68
sbs(I91
I0
tp72
g0
(g9
g2
Ntp73
Rp74
(dp75
g13
I01
sg14
F0.8938030933758843
sg15
g72
sbs(I-5
I90
tp76
g0
(g9
g2
Ntp77
Rp78
(dp79
g13
I01
sg14
F-0.16416170916374934
sg15
g76
sbs(I-2
I90
tp80
g0
(g9
g2
Ntp81
Rp82
(dp83
g13
I01
sg14
F-1.1525846099857833
sg15
g80
sbs(I3
I3
tp84
g0
(g9
g2
Ntp85
Rp86
(dp87
g13
I01
sg14
F-1.2198377564650622
sg15
g84
sbs(I90
I1
tp88
g0
(g9
g2
Ntp89
Rp90
(dp91
g13
I01
sg14
F-0.4892196892441009
sg15
g88
sbs(I90
I8
tp92
g0
(g9
g2
Ntp93
Rp94
(dp95
g13
I01
sg14
F-0.04240845268914628
sg15
g92
sbs(I-4
I93
tp96
g0
(g9
g2
Ntp97
Rp98
(dp99
g13
I01
sg14
F-0.2736328151154587
sg15
g96
sbs(I94
I2
tp100
g0
(g9
g2
Ntp101
Rp102
(dp103
g13
I01
sg14
F-0.1772928449228814
sg15
g100
sbs(I93
I1
tp104
g0
(g9
g2
Ntp105
Rp106
(dp107
g13
I01
sg14
F0.5617039587522507
sg15
g104
sbs(I8
I8
tp108
g0
(g9
g2
Ntp109
Rp110
(dp111
g13
I01
sg14
F0.6273412380409891
sg15
g108
sbs(I-9
I90
tp112
g0
(g9
g2
Ntp113
Rp114
(dp115
g13
I01
sg14
F-1.634219018232161
sg15
g112
sbs(I92
I0
tp116
g0
(g9
g2
Ntp117
Rp118
(dp119
g13
I01
sg14
F0.914297177159713
sg15
g116
sbs(I-4
I90
tp120
g0
(g9
g2
Ntp121
Rp122
(dp123
g13
I01
sg14
F-1.0923047899196487
sg15
g120
sbs(I93
I5
tp124
g0
(g9
g2
Ntp125
Rp126
(dp127
g13
I01
sg14
F0.017580922722528834
sg15
g124
sbs(I-3
I91
tp128
g0
(g9
g2
Ntp129
Rp130
(dp131
g13
I00
sg14
F0.794616587878997
sg15
g128
sbs(I-2
I91
tp132
g0
(g9
g2
Ntp133
Rp134
(dp135
g13
I01
sg14
F0.7877920616909773
sg15
g132
sbs(I-4
I92
tp136
g0
(g9
g2
Ntp137
Rp138
(dp139
g13
I01
sg14
F0.8195305089679079
sg15
g136
sbs(I-7
I94
tp140
g0
(g9
g2
Ntp141
Rp142
(dp143
g13
I01
sg14
F1.1378316937169137
sg15
g140
sbs(I90
I90
tp144
g0
(g9
g2
Ntp145
Rp146
(dp147
g13
I01
sg14
F1.172215840578403
sg15
g144
sbs(I-10
I91
tp148
g0
(g9
g2
Ntp149
Rp150
(dp151
g13
I01
sg14
F1.713647906329188
sg15
g148
sbs(I93
I9
tp152
g0
(g9
g2
Ntp153
Rp154
(dp155
g13
I01
sg14
F-2.397969056888011
sg15
g152
sbs(I-3
I92
tp156
g0
(g9
g2
Ntp157
Rp158
(dp159
g13
I01
sg14
F0.3163473369689809
sg15
g156
sbs(I91
I6
tp160
g0
(g9
g2
Ntp161
Rp162
(dp163
g13
I01
sg14
F0.668667009714855
sg15
g160
sbs(I92
I8
tp164
g0
(g9
g2
Ntp165
Rp166
(dp167
g13
I01
sg14
F-0.23314890344783
sg15
g164
sbs(I-7
I90
tp168
g0
(g9
g2
Ntp169
Rp170
(dp171
g13
I01
sg14
F0.840039775514317
sg15
g168
sbs(I-2
I92
tp172
g0
(g9
g2
Ntp173
Rp174
(dp175
g13
I01
sg14
F-0.17794938470075372
sg15
g172
sbs(I92
I3
tp176
g0
(g9
g2
Ntp177
Rp178
(dp179
g13
I00
sg14
F0.0769901424918881
sg15
g176
sbs(I94
I4
tp180
g0
(g9
g2
Ntp181
Rp182
(dp183
g13
I01
sg14
F0.1778042832879217
sg15
g180
sbs(I91
I2
tp184
g0
(g9
g2
Ntp185
Rp186
(dp187
g13
I01
sg14
F-0.8920471333758728
sg15
g184
sbs(I92
I436
tp188
g0
(g9
g2
Ntp189
Rp190
(dp191
g13
I01
sg14
F1.2646986511142329
sg15
g188
sbs(I-3
I90
tp192
g0
(g9
g2
Ntp193
Rp194
(dp195
g13
I01
sg14
F0.19366776262925833
sg15
g192
sbs(I93
I93
tp196
g0
(g9
g2
Ntp197
Rp198
(dp199
g13
I01
sg14
F-0.8494676286764246
sg15
g196
sbs(I92
I5
tp200
g0
(g9
g2
Ntp201
Rp202
(dp203
g13
I01
sg14
F-0.2493680819376638
sg15
g200
sbs(I-7
I93
tp204
g0
(g9
g2
Ntp205
Rp206
(dp207
g13
I01
sg14
F0.16697102488226764
sg15
g204
sbs(I94
I0
tp208
g0
(g9
g2
Ntp209
Rp210
(dp211
g13
I01
sg14
F0.9059525656458188
sg15
g208
sbs(I-1
I92
tp212
g0
(g9
g2
Ntp213
Rp214
(dp215
g13
I01
sg14
F-2.096765497407149
sg15
g212
sbs(I-3
I94
tp216
g0
(g9
g2
Ntp217
Rp218
(dp219
g13
I01
sg14
F-0.6357819137663406
sg15
g216
sbs(I5
I5
tp220
g0
(g9
g2
Ntp221
Rp222
(dp223
g13
I01
sg14
F-0.22565574197330707
sg15
g220
sbs(I92
I92
tp224
g0
(g9
g2
Ntp225
Rp226
(dp227
g13
I01
sg14
F0.48017127769732254
sg15
g224
sbs(I92
I9
tp228
g0
(g9
g2
Ntp229
Rp230
(dp231
g13
I01
sg14
F-0.43343753063058993
sg15
g228
sbs(I-1
I93
tp232
g0
(g9
g2
Ntp233
Rp234
(dp235
g13
I01
sg14
F0.7473091494832942
sg15
g232
sbs(I92
I2
tp236
g0
(g9
g2
Ntp237
Rp238
(dp239
g13
I01
sg14
F-1.374478306895607
sg15
g236
sbs(I-6
I94
tp240
g0
(g9
g2
Ntp241
Rp242
(dp243
g13
I01
sg14
F-2.3141157583401286
sg15
g240
sbs(I94
I3
tp244
g0
(g9
g2
Ntp245
Rp246
(dp247
g13
I01
sg14
F2.8945626207522683
sg15
g244
sbs(I90
I7
tp248
g0
(g9
g2
Ntp249
Rp250
(dp251
g13
I01
sg14
F-0.9397043156567213
sg15
g248
sbs(I93
I2
tp252
g0
(g9
g2
Ntp253
Rp254
(dp255
g13
I01
sg14
F2.147350519769565
sg15
g252
sbssS'nodes'
p256
(dp257
I0
g0
(cneat.genes
DefaultNodeGene
p258
g2
Ntp259
Rp260
(dp261
S'activation'
p262
S'relu'
p263
sS'bias'
p264
F-8.163543522084954
sS'response'
p265
F1.0
sg15
I0
sS'aggregation'
p266
S'sum'
p267
sbsI1
g0
(g258
g2
Ntp268
Rp269
(dp270
g262
S'tanh'
p271
sg264
F1.7888014308274478
sg265
F1.0
sg15
I1
sg266
g267
sbsI2
g0
(g258
g2
Ntp272
Rp273
(dp274
g262
g271
sg264
F1.906207022281904
sg265
F1.0
sg15
I2
sg266
g267
sbsI3
g0
(g258
g2
Ntp275
Rp276
(dp277
g262
g271
sg264
F3.615913818412883
sg265
F1.0
sg15
I3
sg266
g267
sbsI4
g0
(g258
g2
Ntp278
Rp279
(dp280
g262
g263
sg264
F-2.404788851840266
sg265
F1.0
sg15
I4
sg266
g267
sbsI5
g0
(g258
g2
Ntp281
Rp282
(dp283
g262
g263
sg264
F7.508250191458892
sg265
F1.0
sg15
I5
sg266
g267
sbsI6
g0
(g258
g2
Ntp284
Rp285
(dp286
g262
g263
sg264
F-15.233166651424392
sg265
F1.0
sg15
I6
sg266
g267
sbsI7
g0
(g258
g2
Ntp287
Rp288
(dp289
g262
g271
sg264
F-8.079809549601748
sg265
F1.0
sg15
I7
sg266
g267
sbsI8
g0
(g258
g2
Ntp290
Rp291
(dp292
g262
g263
sg264
F-9.711732492287126
sg265
F1.0
sg15
I8
sg266
g267
sbsI9
g0
(g258
g2
Ntp293
Rp294
(dp295
g262
g263
sg264
F-2.9652559850219693
sg265
F1.0
sg15
I9
sg266
g267
sbsI436
g0
(g258
g2
Ntp296
Rp297
(dp298
g262
g271
sg264
F1.807139210090413
sg265
F1.0
sg15
I436
sg266
g267
sbsI90
g0
(g258
g2
Ntp299
Rp300
(dp301
g262
g263
sg264
F-1.6749732865824687
sg265
F1.0
sg15
I90
sg266
g267
sbsI91
g0
(g258
g2
Ntp302
Rp303
(dp304
g262
g263
sg264
F-4.629657944688108
sg265
F1.0
sg15
I91
sg266
g267
sbsI92
g0
(g258
g2
Ntp305
Rp306
(dp307
g262
g271
sg264
F10.671307788356534
sg265
F1.0
sg15
I92
sg266
g267
sbsI93
g0
(g258
g2
Ntp308
Rp309
(dp310
g262
g263
sg264
F-13.932539455990693
sg265
F1.0
sg15
I93
sg266
g267
sbsI94
g0
(g258
g2
Ntp311
Rp312
(dp313
g262
g263
sg264
F3.531270692339005
sg265
F1.0
sg15
I94
sg266
g267
sbssg15
I30
sS'fitness'
p314
Nsb.