ccopy_reg
_reconstructor
p0
(cneat.genome
DefaultGenome
p1
c__builtin__
object
p2
Ntp3
Rp4
(dp5
S'connections'
p6
(dp7
(I39
I0
tp8
g0
(cneat.genes
DefaultConnectionGene
p9
g2
Ntp10
Rp11
(dp12
S'enabled'
p13
I01
sS'weight'
p14
F0.6538928834250237
sS'key'
p15
g8
sbs(I-15
I39
tp16
g0
(g9
g2
Ntp17
Rp18
(dp19
g13
I01
sg14
F-0.3257918035743057
sg15
g16
sbs(I-20
I39
tp20
g0
(g9
g2
Ntp21
Rp22
(dp23
g13
I01
sg14
F0.1580444548878744
sg15
g20
sbs(I39
I4
tp24
g0
(g9
g2
Ntp25
Rp26
(dp27
g13
I01
sg14
F-1.1552520288640749
sg15
g24
sbs(I39
I8
tp28
g0
(g9
g2
Ntp29
Rp30
(dp31
g13
I01
sg14
F-0.9038942145266413
sg15
g28
sbs(I-16
I39
tp32
g0
(g9
g2
Ntp33
Rp34
(dp35
g13
I01
sg14
F-0.33558279819058223
sg15
g32
sbs(I39
I3
tp36
g0
(g9
g2
Ntp37
Rp38
(dp39
g13
I01
sg14
F-0.9174102892311338
sg15
g36
sbs(I-2
I39
tp40
g0
(g9
g2
Ntp41
Rp42
(dp43
g13
I01
sg14
F-1.1403507291831247
sg15
g40
sbs(I39
I7
tp44
g0
(g9
g2
Ntp45
Rp46
(dp47
g13
I01
sg14
F-0.4483384029279841
sg15
g44
sbs(I39
I5
tp48
g0
(g9
g2
Ntp49
Rp50
(dp51
g13
I01
sg14
F-2.393871910327772
sg15
g48
sbs(I-6
I39
tp52
g0
(g9
g2
Ntp53
Rp54
(dp55
g13
I01
sg14
F-1.0545057801660442
sg15
g52
sbs(I-11
I39
tp56
g0
(g9
g2
Ntp57
Rp58
(dp59
g13
I01
sg14
F-0.0012976418198633588
sg15
g56
sbs(I39
I2
tp60
g0
(g9
g2
Ntp61
Rp62
(dp63
g13
I01
sg14
F-1.4618353116988858
sg15
g60
sbs(I-3
I39
tp64
g0
(g9
g2
Ntp65
Rp66
(dp67
g13
I01
sg14
F0.38385452941429715
sg15
g64
sbs(I39
I6
tp68
g0
(g9
g2
Ntp69
Rp70
(dp71
g13
I01
sg14
F0.6811424688252258
sg15
g68
sbs(I-7
I39
tp72
g0
(g9
g2
Ntp73
Rp74
(dp75
g13
I01
sg14
F-0.12050379807619943
sg15
g72
sbs(I-12
I39
tp76
g0
(g9
g2
Ntp77
Rp78
(dp79
g13
I01
sg14
F-0.2135456635802394
sg15
g76
sbs(I-17
I39
tp80
g0
(g9
g2
Ntp81
Rp82
(dp83
g13
I01
sg14
F-2.725041051409559
sg15
g80
sbs(I-4
I39
tp84
g0
(g9
g2
Ntp85
Rp86
(dp87
g13
I01
sg14
F-1.0376212819658834
sg15
g84
sbs(I-9
I39
tp88
g0
(g9
g2
Ntp89
Rp90
(dp91
g13
I01
sg14
F0.4630192568737592
sg15
g88
sbs(I-8
I39
tp92
g0
(g9
g2
Ntp93
Rp94
(dp95
g13
I01
sg14
F0.6812163814415761
sg15
g92
sbs(I39
I1
tp96
g0
(g9
g2
Ntp97
Rp98
(dp99
g13
I01
sg14
F0.9899258053915588
sg15
g96
sbs(I-13
I39
tp100
g0
(g9
g2
Ntp101
Rp102
(dp103
g13
I01
sg14
F-0.6061053881561269
sg15
g100
sbs(I-18
I39
tp104
g0
(g9
g2
Ntp105
Rp106
(dp107
g13
I01
sg14
F-0.4578657293244258
sg15
g104
sbs(I-14
I39
tp108
g0
(g9
g2
Ntp109
Rp110
(dp111
g13
I01
sg14
F-0.4857386986460718
sg15
g108
sbs(I-5
I39
tp112
g0
(g9
g2
Ntp113
Rp114
(dp115
g13
I01
sg14
F-1.4648953470860273
sg15
g112
sbs(I-19
I39
tp116
g0
(g9
g2
Ntp117
Rp118
(dp119
g13
I01
sg14
F0.05973265075668558
sg15
g116
sbs(I-10
I39
tp120
g0
(g9
g2
Ntp121
Rp122
(dp123
g13
I01
sg14
F-1.672515506163013
sg15
g120
sbs(I-1
I39
tp124
g0
(g9
g2
Ntp125
Rp126
(dp127
g13
I01
sg14
F-1.1985734076567822
sg15
g124
sbs(I39
I9
tp128
g0
(g9
g2
Ntp129
Rp130
(dp131
g13
I01
sg14
F-1.218069353543052
sg15
g128
sbssS'nodes'
p132
(dp133
I0
g0
(cneat.genes
DefaultNodeGene
p134
g2
Ntp135
Rp136
(dp137
S'activation'
p138
S'relu'
p139
sS'bias'
p140
F-12.235007744976569
sS'response'
p141
F1.0
sg15
I0
sS'aggregation'
p142
S'sum'
p143
sbsI1
g0
(g134
g2
Ntp144
Rp145
(dp146
g138
g139
sg140
F1.0729104763814734
sg141
F1.0
sg15
I1
sg142
g143
sbsI2
g0
(g134
g2
Ntp147
Rp148
(dp149
g138
g139
sg140
F10.514221804794461
sg141
F1.0
sg15
I2
sg142
g143
sbsI3
g0
(g134
g2
Ntp150
Rp151
(dp152
g138
g139
sg140
F12.564606298079504
sg141
F1.0
sg15
I3
sg142
g143
sbsI4
g0
(g134
g2
Ntp153
Rp154
(dp155
g138
g139
sg140
F-11.848040854847707
sg141
F1.0
sg15
I4
sg142
g143
sbsI5
g0
(g134
g2
Ntp156
Rp157
(dp158
g138
g139
sg140
F-3.7316757876247086
sg141
F1.0
sg15
I5
sg142
g143
sbsI6
g0
(g134
g2
Ntp159
Rp160
(dp161
g138
g139
sg140
F-14.962638415623655
sg141
F1.0
sg15
I6
sg142
g143
sbsI7
g0
(g134
g2
Ntp162
Rp163
(dp164
g138
g139
sg140
F-1.8811084485734684
sg141
F1.0
sg15
I7
sg142
g143
sbsI8
g0
(g134
g2
Ntp165
Rp166
(dp167
g138
g139
sg140
F11.157114318594104
sg141
F1.0
sg15
I8
sg142
g143
sbsI9
g0
(g134
g2
Ntp168
Rp169
(dp170
g138
g139
sg140
F7.003186879592968
sg141
F1.0
sg15
I9
sg142
g143
sbsI39
g0
(g134
g2
Ntp171
Rp172
(dp173
g138
g139
sg140
F9.851988589655837
sg141
F1.0
sg15
I39
sg142
g143
sbssg15
I30
sS'fitness'
p174
Nsb.