ccopy_reg
_reconstructor
p0
(cneat.genome
DefaultGenome
p1
c__builtin__
object
p2
Ntp3
Rp4
(dp5
S'connections'
p6
(dp7
(I-8
I327
tp8
g0
(cneat.genes
DefaultConnectionGene
p9
g2
Ntp10
Rp11
(dp12
S'enabled'
p13
I00
sS'weight'
p14
F-0.19030597427141416
sS'key'
p15
g8
sbs(I328
I7
tp16
g0
(g9
g2
Ntp17
Rp18
(dp19
g13
I00
sg14
F-0.12781894761190438
sg15
g16
sbs(I-5
I328
tp20
g0
(g9
g2
Ntp21
Rp22
(dp23
g13
I01
sg14
F0.7080051075456677
sg15
g20
sbs(I327
I9
tp24
g0
(g9
g2
Ntp25
Rp26
(dp27
g13
I01
sg14
F0.4810155888401434
sg15
g24
sbs(I327
I4
tp28
g0
(g9
g2
Ntp29
Rp30
(dp31
g13
I01
sg14
F1.7167554790423134
sg15
g28
sbs(I3
I3
tp32
g0
(g9
g2
Ntp33
Rp34
(dp35
g13
I00
sg14
F-1.7651019367143228
sg15
g32
sbs(I-9
I328
tp36
g0
(g9
g2
Ntp37
Rp38
(dp39
g13
I00
sg14
F1.7259385239129457
sg15
g36
sbs(I-2
I328
tp40
g0
(g9
g2
Ntp41
Rp42
(dp43
g13
I01
sg14
F-0.21088168126426673
sg15
g40
sbs(I3
I328
tp44
g0
(g9
g2
Ntp45
Rp46
(dp47
g13
I00
sg14
F2.8483854457472773
sg15
g44
sbs(I328
I8
tp48
g0
(g9
g2
Ntp49
Rp50
(dp51
g13
I00
sg14
F1.4032429997109865
sg15
g48
sbs(I2
I2
tp52
g0
(g9
g2
Ntp53
Rp54
(dp55
g13
I01
sg14
F1.1103036479694544
sg15
g52
sbs(I327
I8
tp56
g0
(g9
g2
Ntp57
Rp58
(dp59
g13
I01
sg14
F-1.9540459336785008
sg15
g56
sbs(I1
I1
tp60
g0
(g9
g2
Ntp61
Rp62
(dp63
g13
I01
sg14
F2.080979311654136
sg15
g60
sbs(I327
I3
tp64
g0
(g9
g2
Ntp65
Rp66
(dp67
g13
I01
sg14
F2.3911559390994506
sg15
g64
sbs(I0
I0
tp68
g0
(g9
g2
Ntp69
Rp70
(dp71
g13
I01
sg14
F-0.8740179421947394
sg15
g68
sbs(I327
I7
tp72
g0
(g9
g2
Ntp73
Rp74
(dp75
g13
I01
sg14
F1.5393492732454799
sg15
g72
sbs(I328
I9
tp76
g0
(g9
g2
Ntp77
Rp78
(dp79
g13
I01
sg14
F-1.583005742776033
sg15
g76
sbs(I-6
I328
tp80
g0
(g9
g2
Ntp81
Rp82
(dp83
g13
I01
sg14
F1.4769705870423453
sg15
g80
sbs(I-10
I327
tp84
g0
(g9
g2
Ntp85
Rp86
(dp87
g13
I01
sg14
F0.26904840648290573
sg15
g84
sbs(I328
I5
tp88
g0
(g9
g2
Ntp89
Rp90
(dp91
g13
I01
sg14
F-0.474923122091324
sg15
g88
sbs(I327
I2
tp92
g0
(g9
g2
Ntp93
Rp94
(dp95
g13
I01
sg14
F-0.7220069249393926
sg15
g92
sbs(I-3
I327
tp96
g0
(g9
g2
Ntp97
Rp98
(dp99
g13
I01
sg14
F-0.8075774398873634
sg15
g96
sbs(I328
I1
tp100
g0
(g9
g2
Ntp101
Rp102
(dp103
g13
I01
sg14
F-0.8692247393661032
sg15
g100
sbs(I327
I6
tp104
g0
(g9
g2
Ntp105
Rp106
(dp107
g13
I00
sg14
F0.8037994176319966
sg15
g104
sbs(I8
I8
tp108
g0
(g9
g2
Ntp109
Rp110
(dp111
g13
I01
sg14
F-2.5255705113319182
sg15
g108
sbs(I-4
I327
tp112
g0
(g9
g2
Ntp113
Rp114
(dp115
g13
I01
sg14
F-1.1994878719703919
sg15
g112
sbssS'nodes'
p116
(dp117
I0
g0
(cneat.genes
DefaultNodeGene
p118
g2
Ntp119
Rp120
(dp121
S'activation'
p122
S'tanh'
p123
sS'bias'
p124
F-0.29383399643543684
sS'response'
p125
F1.0
sg15
I0
sS'aggregation'
p126
S'sum'
p127
sbsI1
g0
(g118
g2
Ntp128
Rp129
(dp130
g122
g123
sg124
F-7.669247767120465
sg125
F1.0
sg15
I1
sg126
g127
sbsI2
g0
(g118
g2
Ntp131
Rp132
(dp133
g122
g123
sg124
F-1.8271385520231018
sg125
F1.0
sg15
I2
sg126
g127
sbsI3
g0
(g118
g2
Ntp134
Rp135
(dp136
g122
g123
sg124
F-4.786209160622335
sg125
F1.0
sg15
I3
sg126
g127
sbsI4
g0
(g118
g2
Ntp137
Rp138
(dp139
g122
g123
sg124
F4.138919952960419
sg125
F1.0
sg15
I4
sg126
g127
sbsI5
g0
(g118
g2
Ntp140
Rp141
(dp142
g122
g123
sg124
F-0.4964606262763078
sg125
F1.0
sg15
I5
sg126
g127
sbsI6
g0
(g118
g2
Ntp143
Rp144
(dp145
g122
g123
sg124
F-7.6248323675263725
sg125
F1.0
sg15
I6
sg126
g127
sbsI7
g0
(g118
g2
Ntp146
Rp147
(dp148
g122
g123
sg124
F-11.107540404263164
sg125
F1.0
sg15
I7
sg126
g127
sbsI8
g0
(g118
g2
Ntp149
Rp150
(dp151
g122
g123
sg124
F-5.330904586881102
sg125
F1.0
sg15
I8
sg126
g127
sbsI9
g0
(g118
g2
Ntp152
Rp153
(dp154
g122
g123
sg124
F3.4002791182699603
sg125
F1.0
sg15
I9
sg126
g127
sbsI327
g0
(g118
g2
Ntp155
Rp156
(dp157
g122
g123
sg124
F-5.7993644131145565
sg125
F1.0
sg15
I327
sg126
g127
sbsI328
g0
(g118
g2
Ntp158
Rp159
(dp160
g122
g123
sg124
F-0.08086300874735275
sg125
F1.0
sg15
I328
sg126
g127
sbssg15
I30
sS'fitness'
p161
Nsb.