ccopy_reg
_reconstructor
p0
(cneat.genome
DefaultGenome
p1
c__builtin__
object
p2
Ntp3
Rp4
(dp5
S'connections'
p6
(dp7
(I39
I0
tp8
g0
(cneat.genes
DefaultConnectionGene
p9
g2
Ntp10
Rp11
(dp12
S'enabled'
p13
I01
sS'weight'
p14
F-0.9550444864361131
sS'key'
p15
g8
sbs(I-15
I39
tp16
g0
(g9
g2
Ntp17
Rp18
(dp19
g13
I01
sg14
F-0.033771197320337835
sg15
g16
sbs(I-20
I39
tp20
g0
(g9
g2
Ntp21
Rp22
(dp23
g13
I01
sg14
F0.6178699965260542
sg15
g20
sbs(I39
I4
tp24
g0
(g9
g2
Ntp25
Rp26
(dp27
g13
I01
sg14
F-0.3041022131760515
sg15
g24
sbs(I39
I8
tp28
g0
(g9
g2
Ntp29
Rp30
(dp31
g13
I01
sg14
F0.37502242985738526
sg15
g28
sbs(I-16
I39
tp32
g0
(g9
g2
Ntp33
Rp34
(dp35
g13
I01
sg14
F-0.2901738255693101
sg15
g32
sbs(I39
I3
tp36
g0
(g9
g2
Ntp37
Rp38
(dp39
g13
I01
sg14
F0.26194771897783314
sg15
g36
sbs(I-2
I39
tp40
g0
(g9
g2
Ntp41
Rp42
(dp43
g13
I01
sg14
F-0.5521395837332237
sg15
g40
sbs(I39
I7
tp44
g0
(g9
g2
Ntp45
Rp46
(dp47
g13
I01
sg14
F0.8078939951328802
sg15
g44
sbs(I39
I5
tp48
g0
(g9
g2
Ntp49
Rp50
(dp51
g13
I01
sg14
F0.2778768298710914
sg15
g48
sbs(I-6
I39
tp52
g0
(g9
g2
Ntp53
Rp54
(dp55
g13
I01
sg14
F1.2008922026341062
sg15
g52
sbs(I-11
I39
tp56
g0
(g9
g2
Ntp57
Rp58
(dp59
g13
I01
sg14
F-1.202745552233929
sg15
g56
sbs(I39
I2
tp60
g0
(g9
g2
Ntp61
Rp62
(dp63
g13
I01
sg14
F-1.2907946796352183
sg15
g60
sbs(I-3
I39
tp64
g0
(g9
g2
Ntp65
Rp66
(dp67
g13
I01
sg14
F-1.0998687449110571
sg15
g64
sbs(I39
I6
tp68
g0
(g9
g2
Ntp69
Rp70
(dp71
g13
I01
sg14
F-0.2384399256261092
sg15
g68
sbs(I-7
I39
tp72
g0
(g9
g2
Ntp73
Rp74
(dp75
g13
I01
sg14
F0.8014249614613838
sg15
g72
sbs(I-12
I39
tp76
g0
(g9
g2
Ntp77
Rp78
(dp79
g13
I01
sg14
F-0.43016063083111267
sg15
g76
sbs(I-17
I39
tp80
g0
(g9
g2
Ntp81
Rp82
(dp83
g13
I01
sg14
F-0.39612994105998495
sg15
g80
sbs(I-4
I39
tp84
g0
(g9
g2
Ntp85
Rp86
(dp87
g13
I01
sg14
F-2.553919938063802
sg15
g84
sbs(I-9
I39
tp88
g0
(g9
g2
Ntp89
Rp90
(dp91
g13
I01
sg14
F-0.7851760741183461
sg15
g88
sbs(I-8
I39
tp92
g0
(g9
g2
Ntp93
Rp94
(dp95
g13
I01
sg14
F0.9347657267130828
sg15
g92
sbs(I39
I1
tp96
g0
(g9
g2
Ntp97
Rp98
(dp99
g13
I01
sg14
F-0.002611633020823123
sg15
g96
sbs(I-13
I39
tp100
g0
(g9
g2
Ntp101
Rp102
(dp103
g13
I01
sg14
F0.37107944604122417
sg15
g100
sbs(I-18
I39
tp104
g0
(g9
g2
Ntp105
Rp106
(dp107
g13
I01
sg14
F-0.38262661457233943
sg15
g104
sbs(I-14
I39
tp108
g0
(g9
g2
Ntp109
Rp110
(dp111
g13
I01
sg14
F0.035106146423486105
sg15
g108
sbs(I-5
I39
tp112
g0
(g9
g2
Ntp113
Rp114
(dp115
g13
I01
sg14
F1.246238314620756
sg15
g112
sbs(I-19
I39
tp116
g0
(g9
g2
Ntp117
Rp118
(dp119
g13
I01
sg14
F1.0573755246559433
sg15
g116
sbs(I-10
I39
tp120
g0
(g9
g2
Ntp121
Rp122
(dp123
g13
I01
sg14
F0.5459284875241434
sg15
g120
sbs(I-1
I39
tp124
g0
(g9
g2
Ntp125
Rp126
(dp127
g13
I01
sg14
F0.9526062279674866
sg15
g124
sbs(I39
I9
tp128
g0
(g9
g2
Ntp129
Rp130
(dp131
g13
I01
sg14
F0.3671382611577513
sg15
g128
sbssS'nodes'
p132
(dp133
I0
g0
(cneat.genes
DefaultNodeGene
p134
g2
Ntp135
Rp136
(dp137
S'activation'
p138
S'relu'
p139
sS'bias'
p140
F-23.786431420803122
sS'response'
p141
F1.0
sg15
I0
sS'aggregation'
p142
S'sum'
p143
sbsI1
g0
(g134
g2
Ntp144
Rp145
(dp146
g138
g139
sg140
F-5.606815504558709
sg141
F1.0
sg15
I1
sg142
g143
sbsI2
g0
(g134
g2
Ntp147
Rp148
(dp149
g138
g139
sg140
F0.33256271271880367
sg141
F1.0
sg15
I2
sg142
g143
sbsI3
g0
(g134
g2
Ntp150
Rp151
(dp152
g138
g139
sg140
F5.6695653570115665
sg141
F1.0
sg15
I3
sg142
g143
sbsI4
g0
(g134
g2
Ntp153
Rp154
(dp155
g138
g139
sg140
F-33.46265501728246
sg141
F1.0
sg15
I4
sg142
g143
sbsI5
g0
(g134
g2
Ntp156
Rp157
(dp158
g138
g139
sg140
F10.39221426499262
sg141
F1.0
sg15
I5
sg142
g143
sbsI6
g0
(g134
g2
Ntp159
Rp160
(dp161
g138
g139
sg140
F5.787837703384174
sg141
F1.0
sg15
I6
sg142
g143
sbsI7
g0
(g134
g2
Ntp162
Rp163
(dp164
g138
g139
sg140
F-6.019847074397406
sg141
F1.0
sg15
I7
sg142
g143
sbsI8
g0
(g134
g2
Ntp165
Rp166
(dp167
g138
g139
sg140
F-11.444233290726071
sg141
F1.0
sg15
I8
sg142
g143
sbsI9
g0
(g134
g2
Ntp168
Rp169
(dp170
g138
g139
sg140
F13.20786335328352
sg141
F1.0
sg15
I9
sg142
g143
sbsI39
g0
(g134
g2
Ntp171
Rp172
(dp173
g138
g139
sg140
F-2.150340232348866
sg141
F1.0
sg15
I39
sg142
g143
sbssg15
I30
sS'fitness'
p174
F0.07718202164839408
sb.