ccopy_reg
_reconstructor
p0
(cneat.genome
DefaultGenome
p1
c__builtin__
object
p2
Ntp3
Rp4
(dp5
S'connections'
p6
(dp7
(I-15
I40
tp8
g0
(cneat.genes
DefaultConnectionGene
p9
g2
Ntp10
Rp11
(dp12
S'enabled'
p13
I01
sS'weight'
p14
F0.35637065454627265
sS'key'
p15
g8
sbs(I-8
I40
tp16
g0
(g9
g2
Ntp17
Rp18
(dp19
g13
I01
sg14
F-0.7616789192793184
sg15
g16
sbs(I-2
I40
tp20
g0
(g9
g2
Ntp21
Rp22
(dp23
g13
I01
sg14
F0.11105537040916634
sg15
g20
sbs(I-4
I40
tp24
g0
(g9
g2
Ntp25
Rp26
(dp27
g13
I01
sg14
F0.6859376265721857
sg15
g24
sbs(I40
I8
tp28
g0
(g9
g2
Ntp29
Rp30
(dp31
g13
I01
sg14
F-0.9368993396732054
sg15
g28
sbs(I-17
I40
tp32
g0
(g9
g2
Ntp33
Rp34
(dp35
g13
I01
sg14
F0.5457978075750958
sg15
g32
sbs(I-14
I40
tp36
g0
(g9
g2
Ntp37
Rp38
(dp39
g13
I01
sg14
F-1.6956147309927798
sg15
g36
sbs(I-7
I40
tp40
g0
(g9
g2
Ntp41
Rp42
(dp43
g13
I01
sg14
F-0.42919104791306095
sg15
g40
sbs(I40
I4
tp44
g0
(g9
g2
Ntp45
Rp46
(dp47
g13
I01
sg14
F-0.6262793961135967
sg15
g44
sbs(I40
I3
tp48
g0
(g9
g2
Ntp49
Rp50
(dp51
g13
I01
sg14
F0.24684670287628677
sg15
g48
sbs(I-3
I40
tp52
g0
(g9
g2
Ntp53
Rp54
(dp55
g13
I01
sg14
F0.03903804387204621
sg15
g52
sbs(I40
I0
tp56
g0
(g9
g2
Ntp57
Rp58
(dp59
g13
I01
sg14
F-0.2025842176770137
sg15
g56
sbs(I40
I9
tp60
g0
(g9
g2
Ntp61
Rp62
(dp63
g13
I01
sg14
F-0.743247641266828
sg15
g60
sbs(I-6
I40
tp64
g0
(g9
g2
Ntp65
Rp66
(dp67
g13
I01
sg14
F-1.1112043059853423
sg15
g64
sbs(I-10
I40
tp68
g0
(g9
g2
Ntp69
Rp70
(dp71
g13
I01
sg14
F-1.2132617258634197
sg15
g68
sbs(I40
I5
tp72
g0
(g9
g2
Ntp73
Rp74
(dp75
g13
I01
sg14
F-0.9704037242112498
sg15
g72
sbs(I-20
I40
tp76
g0
(g9
g2
Ntp77
Rp78
(dp79
g13
I01
sg14
F1.5278159462351832
sg15
g76
sbs(I-13
I40
tp80
g0
(g9
g2
Ntp81
Rp82
(dp83
g13
I01
sg14
F-0.5180327682338095
sg15
g80
sbs(I40
I1
tp84
g0
(g9
g2
Ntp85
Rp86
(dp87
g13
I01
sg14
F0.7416117906678262
sg15
g84
sbs(I-9
I40
tp88
g0
(g9
g2
Ntp89
Rp90
(dp91
g13
I01
sg14
F0.3492686103482698
sg15
g88
sbs(I-1
I40
tp92
g0
(g9
g2
Ntp93
Rp94
(dp95
g13
I01
sg14
F-1.5560792603174138
sg15
g92
sbs(I-19
I40
tp96
g0
(g9
g2
Ntp97
Rp98
(dp99
g13
I01
sg14
F-0.5074224634841809
sg15
g96
sbs(I-12
I40
tp100
g0
(g9
g2
Ntp101
Rp102
(dp103
g13
I01
sg14
F0.00998587773277645
sg15
g100
sbs(I40
I6
tp104
g0
(g9
g2
Ntp105
Rp106
(dp107
g13
I01
sg14
F-1.4475860190142986
sg15
g104
sbs(I40
I2
tp108
g0
(g9
g2
Ntp109
Rp110
(dp111
g13
I01
sg14
F1.5621616698501188
sg15
g108
sbs(I-16
I40
tp112
g0
(g9
g2
Ntp113
Rp114
(dp115
g13
I01
sg14
F0.8393457434751195
sg15
g112
sbs(I-11
I40
tp116
g0
(g9
g2
Ntp117
Rp118
(dp119
g13
I01
sg14
F0.7613476445199197
sg15
g116
sbs(I40
I7
tp120
g0
(g9
g2
Ntp121
Rp122
(dp123
g13
I01
sg14
F0.031490736093902814
sg15
g120
sbs(I-5
I40
tp124
g0
(g9
g2
Ntp125
Rp126
(dp127
g13
I01
sg14
F0.12101268942503068
sg15
g124
sbs(I-18
I40
tp128
g0
(g9
g2
Ntp129
Rp130
(dp131
g13
I01
sg14
F1.0325726243574285
sg15
g128
sbssS'nodes'
p132
(dp133
I0
g0
(cneat.genes
DefaultNodeGene
p134
g2
Ntp135
Rp136
(dp137
S'activation'
p138
S'relu'
p139
sS'bias'
p140
F-5.588368219970027
sS'response'
p141
F1.0
sg15
I0
sS'aggregation'
p142
S'sum'
p143
sbsI1
g0
(g134
g2
Ntp144
Rp145
(dp146
g138
g139
sg140
F-22.840468558275138
sg141
F1.0
sg15
I1
sg142
g143
sbsI2
g0
(g134
g2
Ntp147
Rp148
(dp149
g138
g139
sg140
F-2.669248423791835
sg141
F1.0
sg15
I2
sg142
g143
sbsI3
g0
(g134
g2
Ntp150
Rp151
(dp152
g138
g139
sg140
F6.54916257058488
sg141
F1.0
sg15
I3
sg142
g143
sbsI4
g0
(g134
g2
Ntp153
Rp154
(dp155
g138
g139
sg140
F-0.567714341046281
sg141
F1.0
sg15
I4
sg142
g143
sbsI5
g0
(g134
g2
Ntp156
Rp157
(dp158
g138
g139
sg140
F0.7274096925833285
sg141
F1.0
sg15
I5
sg142
g143
sbsI6
g0
(g134
g2
Ntp159
Rp160
(dp161
g138
g139
sg140
F10.077227143320496
sg141
F1.0
sg15
I6
sg142
g143
sbsI7
g0
(g134
g2
Ntp162
Rp163
(dp164
g138
g139
sg140
F-0.31314543686263085
sg141
F1.0
sg15
I7
sg142
g143
sbsI8
g0
(g134
g2
Ntp165
Rp166
(dp167
g138
g139
sg140
F14.99768823892075
sg141
F1.0
sg15
I8
sg142
g143
sbsI9
g0
(g134
g2
Ntp168
Rp169
(dp170
g138
g139
sg140
F4.038218694753939
sg141
F1.0
sg15
I9
sg142
g143
sbsI40
g0
(g134
g2
Ntp171
Rp172
(dp173
g138
g139
sg140
F3.374729884352028
sg141
F1.0
sg15
I40
sg142
g143
sbssg15
I31
sS'fitness'
p174
F0.11583531280112194
sb.