ccopy_reg
_reconstructor
p0
(cneat.genome
DefaultGenome
p1
c__builtin__
object
p2
Ntp3
Rp4
(dp5
S'connections'
p6
(dp7
(I-15
I40
tp8
g0
(cneat.genes
DefaultConnectionGene
p9
g2
Ntp10
Rp11
(dp12
S'enabled'
p13
I01
sS'weight'
p14
F-0.1621078951847292
sS'key'
p15
g8
sbs(I-8
I40
tp16
g0
(g9
g2
Ntp17
Rp18
(dp19
g13
I01
sg14
F-0.7178327281464766
sg15
g16
sbs(I-2
I40
tp20
g0
(g9
g2
Ntp21
Rp22
(dp23
g13
I01
sg14
F0.29301949200570127
sg15
g20
sbs(I-4
I40
tp24
g0
(g9
g2
Ntp25
Rp26
(dp27
g13
I01
sg14
F-0.16210254308791658
sg15
g24
sbs(I40
I8
tp28
g0
(g9
g2
Ntp29
Rp30
(dp31
g13
I01
sg14
F-0.6082201339649094
sg15
g28
sbs(I-17
I40
tp32
g0
(g9
g2
Ntp33
Rp34
(dp35
g13
I01
sg14
F-0.6268203498770463
sg15
g32
sbs(I-14
I40
tp36
g0
(g9
g2
Ntp37
Rp38
(dp39
g13
I01
sg14
F1.5549768561711093
sg15
g36
sbs(I-7
I40
tp40
g0
(g9
g2
Ntp41
Rp42
(dp43
g13
I01
sg14
F0.8446283583022524
sg15
g40
sbs(I40
I4
tp44
g0
(g9
g2
Ntp45
Rp46
(dp47
g13
I01
sg14
F-1.4999848904309265
sg15
g44
sbs(I40
I3
tp48
g0
(g9
g2
Ntp49
Rp50
(dp51
g13
I01
sg14
F-2.1341551696300587
sg15
g48
sbs(I-3
I40
tp52
g0
(g9
g2
Ntp53
Rp54
(dp55
g13
I01
sg14
F-0.033187295800297834
sg15
g52
sbs(I40
I0
tp56
g0
(g9
g2
Ntp57
Rp58
(dp59
g13
I01
sg14
F0.5293896328477349
sg15
g56
sbs(I40
I9
tp60
g0
(g9
g2
Ntp61
Rp62
(dp63
g13
I01
sg14
F0.8725929539826839
sg15
g60
sbs(I-6
I40
tp64
g0
(g9
g2
Ntp65
Rp66
(dp67
g13
I01
sg14
F-0.11340823906146248
sg15
g64
sbs(I-10
I40
tp68
g0
(g9
g2
Ntp69
Rp70
(dp71
g13
I01
sg14
F-1.484114226686625
sg15
g68
sbs(I40
I5
tp72
g0
(g9
g2
Ntp73
Rp74
(dp75
g13
I01
sg14
F0.06287776464815636
sg15
g72
sbs(I-20
I40
tp76
g0
(g9
g2
Ntp77
Rp78
(dp79
g13
I01
sg14
F-0.16295441094035562
sg15
g76
sbs(I-13
I40
tp80
g0
(g9
g2
Ntp81
Rp82
(dp83
g13
I01
sg14
F1.0274626498940846
sg15
g80
sbs(I40
I1
tp84
g0
(g9
g2
Ntp85
Rp86
(dp87
g13
I01
sg14
F-1.0631251776233972
sg15
g84
sbs(I-9
I40
tp88
g0
(g9
g2
Ntp89
Rp90
(dp91
g13
I01
sg14
F-0.4226886173524533
sg15
g88
sbs(I-1
I40
tp92
g0
(g9
g2
Ntp93
Rp94
(dp95
g13
I01
sg14
F-2.2780355984749563
sg15
g92
sbs(I-19
I40
tp96
g0
(g9
g2
Ntp97
Rp98
(dp99
g13
I01
sg14
F1.727088270543915
sg15
g96
sbs(I-12
I40
tp100
g0
(g9
g2
Ntp101
Rp102
(dp103
g13
I01
sg14
F-0.7659499444449753
sg15
g100
sbs(I40
I6
tp104
g0
(g9
g2
Ntp105
Rp106
(dp107
g13
I01
sg14
F0.8158108813439439
sg15
g104
sbs(I40
I2
tp108
g0
(g9
g2
Ntp109
Rp110
(dp111
g13
I01
sg14
F1.2430745183748946
sg15
g108
sbs(I-16
I40
tp112
g0
(g9
g2
Ntp113
Rp114
(dp115
g13
I01
sg14
F-2.2946828041170737
sg15
g112
sbs(I-11
I40
tp116
g0
(g9
g2
Ntp117
Rp118
(dp119
g13
I01
sg14
F1.359904228809074
sg15
g116
sbs(I40
I7
tp120
g0
(g9
g2
Ntp121
Rp122
(dp123
g13
I01
sg14
F0.48648050912625773
sg15
g120
sbs(I-5
I40
tp124
g0
(g9
g2
Ntp125
Rp126
(dp127
g13
I01
sg14
F-0.8207191400506716
sg15
g124
sbs(I-18
I40
tp128
g0
(g9
g2
Ntp129
Rp130
(dp131
g13
I01
sg14
F-0.36189548837832375
sg15
g128
sbssS'nodes'
p132
(dp133
I0
g0
(cneat.genes
DefaultNodeGene
p134
g2
Ntp135
Rp136
(dp137
S'activation'
p138
S'relu'
p139
sS'bias'
p140
F-5.000180383824556
sS'response'
p141
F1.0
sg15
I0
sS'aggregation'
p142
S'sum'
p143
sbsI1
g0
(g134
g2
Ntp144
Rp145
(dp146
g138
g139
sg140
F-0.8304840706922434
sg141
F1.0
sg15
I1
sg142
g143
sbsI2
g0
(g134
g2
Ntp147
Rp148
(dp149
g138
g139
sg140
F-18.140779509744956
sg141
F1.0
sg15
I2
sg142
g143
sbsI3
g0
(g134
g2
Ntp150
Rp151
(dp152
g138
g139
sg140
F1.1808243828410376
sg141
F1.0
sg15
I3
sg142
g143
sbsI4
g0
(g134
g2
Ntp153
Rp154
(dp155
g138
g139
sg140
F2.0202540733101912
sg141
F1.0
sg15
I4
sg142
g143
sbsI5
g0
(g134
g2
Ntp156
Rp157
(dp158
g138
g139
sg140
F-1.5161120766735148
sg141
F1.0
sg15
I5
sg142
g143
sbsI6
g0
(g134
g2
Ntp159
Rp160
(dp161
g138
g139
sg140
F0.37113666233709475
sg141
F1.0
sg15
I6
sg142
g143
sbsI7
g0
(g134
g2
Ntp162
Rp163
(dp164
g138
g139
sg140
F-9.341445034717161
sg141
F1.0
sg15
I7
sg142
g143
sbsI8
g0
(g134
g2
Ntp165
Rp166
(dp167
g138
g139
sg140
F11.315569571861001
sg141
F1.0
sg15
I8
sg142
g143
sbsI9
g0
(g134
g2
Ntp168
Rp169
(dp170
g138
g139
sg140
F-13.020986283113125
sg141
F1.0
sg15
I9
sg142
g143
sbsI40
g0
(g134
g2
Ntp171
Rp172
(dp173
g138
g139
sg140
F-9.693035028520727
sg141
F1.0
sg15
I40
sg142
g143
sbssg15
I31
sS'fitness'
p174
Nsb.