ccopy_reg
_reconstructor
p0
(cneat.genome
DefaultGenome
p1
c__builtin__
object
p2
Ntp3
Rp4
(dp5
S'connections'
p6
(dp7
(I-2
I40
tp8
g0
(cneat.genes
DefaultConnectionGene
p9
g2
Ntp10
Rp11
(dp12
S'enabled'
p13
I01
sS'weight'
p14
F0.9410164769967351
sS'key'
p15
g8
sbs(I40
I3
tp16
g0
(g9
g2
Ntp17
Rp18
(dp19
g13
I01
sg14
F0.10129798455864897
sg15
g16
sbs(I-8
I40
tp20
g0
(g9
g2
Ntp21
Rp22
(dp23
g13
I01
sg14
F-0.5777282071388998
sg15
g20
sbs(I40
I2
tp24
g0
(g9
g2
Ntp25
Rp26
(dp27
g13
I01
sg14
F0.7996815556257586
sg15
g24
sbs(I-3
I40
tp28
g0
(g9
g2
Ntp29
Rp30
(dp31
g13
I01
sg14
F-1.5926060292778113
sg15
g28
sbs(I40
I1
tp32
g0
(g9
g2
Ntp33
Rp34
(dp35
g13
I01
sg14
F1.1979613982445532
sg15
g32
sbs(I40
I0
tp36
g0
(g9
g2
Ntp37
Rp38
(dp39
g13
I01
sg14
F-2.488000927056464
sg15
g36
sbs(I-9
I40
tp40
g0
(g9
g2
Ntp41
Rp42
(dp43
g13
I01
sg14
F0.7289164918806891
sg15
g40
sbs(I-1
I40
tp44
g0
(g9
g2
Ntp45
Rp46
(dp47
g13
I01
sg14
F-0.18354704490261964
sg15
g44
sbs(I-4
I40
tp48
g0
(g9
g2
Ntp49
Rp50
(dp51
g13
I01
sg14
F0.008770922816210822
sg15
g48
sbs(I40
I9
tp52
g0
(g9
g2
Ntp53
Rp54
(dp55
g13
I01
sg14
F1.371854039511295
sg15
g52
sbs(I-6
I40
tp56
g0
(g9
g2
Ntp57
Rp58
(dp59
g13
I01
sg14
F-0.8611231429438204
sg15
g56
sbs(I40
I8
tp60
g0
(g9
g2
Ntp61
Rp62
(dp63
g13
I01
sg14
F1.3285740902195418
sg15
g60
sbs(I-10
I40
tp64
g0
(g9
g2
Ntp65
Rp66
(dp67
g13
I01
sg14
F-0.6079006842555809
sg15
g64
sbs(I40
I7
tp68
g0
(g9
g2
Ntp69
Rp70
(dp71
g13
I01
sg14
F0.24385405511319097
sg15
g68
sbs(I-5
I40
tp72
g0
(g9
g2
Ntp73
Rp74
(dp75
g13
I01
sg14
F2.200105862496467
sg15
g72
sbs(I40
I6
tp76
g0
(g9
g2
Ntp77
Rp78
(dp79
g13
I01
sg14
F-0.19007646521710964
sg15
g76
sbs(I-7
I40
tp80
g0
(g9
g2
Ntp81
Rp82
(dp83
g13
I01
sg14
F1.3907108023370245
sg15
g80
sbs(I40
I5
tp84
g0
(g9
g2
Ntp85
Rp86
(dp87
g13
I01
sg14
F-0.12178141634190144
sg15
g84
sbs(I40
I4
tp88
g0
(g9
g2
Ntp89
Rp90
(dp91
g13
I01
sg14
F-0.1632812494691344
sg15
g88
sbssS'nodes'
p92
(dp93
I0
g0
(cneat.genes
DefaultNodeGene
p94
g2
Ntp95
Rp96
(dp97
S'activation'
p98
S'relu'
p99
sS'bias'
p100
F-5.516511131607402
sS'response'
p101
F1.0
sg15
I0
sS'aggregation'
p102
S'sum'
p103
sbsI1
g0
(g94
g2
Ntp104
Rp105
(dp106
g98
g99
sg100
F-10.378384690058342
sg101
F1.0
sg15
I1
sg102
g103
sbsI2
g0
(g94
g2
Ntp107
Rp108
(dp109
g98
g99
sg100
F14.127940437392983
sg101
F1.0
sg15
I2
sg102
g103
sbsI3
g0
(g94
g2
Ntp110
Rp111
(dp112
g98
g99
sg100
F24.79461001288773
sg101
F1.0
sg15
I3
sg102
g103
sbsI4
g0
(g94
g2
Ntp113
Rp114
(dp115
g98
g99
sg100
F3.0680869821200254
sg101
F1.0
sg15
I4
sg102
g103
sbsI5
g0
(g94
g2
Ntp116
Rp117
(dp118
g98
g99
sg100
F-3.4325176878912753
sg101
F1.0
sg15
I5
sg102
g103
sbsI6
g0
(g94
g2
Ntp119
Rp120
(dp121
g98
g99
sg100
F-8.93021149603205
sg101
F1.0
sg15
I6
sg102
g103
sbsI7
g0
(g94
g2
Ntp122
Rp123
(dp124
g98
g99
sg100
F13.245054101103289
sg101
F1.0
sg15
I7
sg102
g103
sbsI8
g0
(g94
g2
Ntp125
Rp126
(dp127
g98
g99
sg100
F-9.91042539501118
sg101
F1.0
sg15
I8
sg102
g103
sbsI9
g0
(g94
g2
Ntp128
Rp129
(dp130
g98
g99
sg100
F-0.8140179114119489
sg101
F1.0
sg15
I9
sg102
g103
sbsI40
g0
(g94
g2
Ntp131
Rp132
(dp133
g98
g99
sg100
F-4.041755047996174
sg101
F1.0
sg15
I40
sg102
g103
sbssg15
I31
sS'fitness'
p134
F-0.178374271128088
sb.