ccopy_reg
_reconstructor
p0
(cneat.genome
DefaultGenome
p1
c__builtin__
object
p2
Ntp3
Rp4
(dp5
S'connections'
p6
(dp7
(I23
I4
tp8
g0
(cneat.genes
DefaultConnectionGene
p9
g2
Ntp10
Rp11
(dp12
S'enabled'
p13
I01
sS'weight'
p14
F-1.4827489037997728
sS'key'
p15
g8
sbs(I-2
I23
tp16
g0
(g9
g2
Ntp17
Rp18
(dp19
g13
I01
sg14
F0.4865526755937649
sg15
g16
sbs(I7
I7
tp20
g0
(g9
g2
Ntp21
Rp22
(dp23
g13
I01
sg14
F0.5740965152488259
sg15
g20
sbs(I9
I9
tp24
g0
(g9
g2
Ntp25
Rp26
(dp27
g13
I00
sg14
F0.22087498831222607
sg15
g24
sbs(I23
I3
tp28
g0
(g9
g2
Ntp29
Rp30
(dp31
g13
I00
sg14
F-0.35238399828814215
sg15
g28
sbs(I-1
I22
tp32
g0
(g9
g2
Ntp33
Rp34
(dp35
g13
I00
sg14
F0.31005918661535314
sg15
g32
sbs(I-3
I3
tp36
g0
(g9
g2
Ntp37
Rp38
(dp39
g13
I01
sg14
F0.529401354344645
sg15
g36
sbs(I-2
I22
tp40
g0
(g9
g2
Ntp41
Rp42
(dp43
g13
I01
sg14
F1.2203694205584352
sg15
g40
sbs(I-7
I22
tp44
g0
(g9
g2
Ntp45
Rp46
(dp47
g13
I00
sg14
F-0.2788901163194172
sg15
g44
sbs(I23
I7
tp48
g0
(g9
g2
Ntp49
Rp50
(dp51
g13
I01
sg14
F0.11243910385682365
sg15
g48
sbs(I-10
I21
tp52
g0
(g9
g2
Ntp53
Rp54
(dp55
g13
I01
sg14
F0.9465129418061342
sg15
g52
sbs(I-5
I23
tp56
g0
(g9
g2
Ntp57
Rp58
(dp59
g13
I00
sg14
F1.7440546438321909
sg15
g56
sbs(I-6
I21
tp60
g0
(g9
g2
Ntp61
Rp62
(dp63
g13
I01
sg14
F1.4039308453913801
sg15
g60
sbs(I21
I0
tp64
g0
(g9
g2
Ntp65
Rp66
(dp67
g13
I00
sg14
F-0.6505466864605829
sg15
g64
sbs(I22
I7
tp68
g0
(g9
g2
Ntp69
Rp70
(dp71
g13
I01
sg14
F-2.003533339418862
sg15
g68
sbs(I2
I2
tp72
g0
(g9
g2
Ntp73
Rp74
(dp75
g13
I00
sg14
F-2.1337818304109177
sg15
g72
sbs(I-7
I21
tp76
g0
(g9
g2
Ntp77
Rp78
(dp79
g13
I01
sg14
F-1.1339391583594196
sg15
g76
sbs(I-5
I22
tp80
g0
(g9
g2
Ntp81
Rp82
(dp83
g13
I00
sg14
F0.6830547576431648
sg15
g80
sbs(I568
I9
tp84
g0
(g9
g2
Ntp85
Rp86
(dp87
g13
I01
sg14
F0.8196046752402336
sg15
g84
sbs(I-2
I21
tp88
g0
(g9
g2
Ntp89
Rp90
(dp91
g13
I00
sg14
F-0.6867836711331092
sg15
g88
sbs(I-6
I22
tp92
g0
(g9
g2
Ntp93
Rp94
(dp95
g13
I01
sg14
F2.067409187032097
sg15
g92
sbs(I22
I4
tp96
g0
(g9
g2
Ntp97
Rp98
(dp99
g13
I01
sg14
F0.7446876308282127
sg15
g96
sbs(I21
I4
tp100
g0
(g9
g2
Ntp101
Rp102
(dp103
g13
I01
sg14
F-0.6704946574251427
sg15
g100
sbs(I23
I1
tp104
g0
(g9
g2
Ntp105
Rp106
(dp107
g13
I00
sg14
F0.6240134290582605
sg15
g104
sbs(I9
I568
tp108
g0
(g9
g2
Ntp109
Rp110
(dp111
g13
I01
sg14
F1.758658853339809
sg15
g108
sbs(I-8
I21
tp112
g0
(g9
g2
Ntp113
Rp114
(dp115
g13
I01
sg14
F-0.685962197607859
sg15
g112
sbs(I22
I0
tp116
g0
(g9
g2
Ntp117
Rp118
(dp119
g13
I00
sg14
F-2.1749643918402417
sg15
g116
sbs(I23
I5
tp120
g0
(g9
g2
Ntp121
Rp122
(dp123
g13
I01
sg14
F-0.5373918840443537
sg15
g120
sbs(I-10
I23
tp124
g0
(g9
g2
Ntp125
Rp126
(dp127
g13
I01
sg14
F0.9686062563898321
sg15
g124
sbs(I21
I9
tp128
g0
(g9
g2
Ntp129
Rp130
(dp131
g13
I00
sg14
F1.201154875790832
sg15
g128
sbs(I-1
I21
tp132
g0
(g9
g2
Ntp133
Rp134
(dp135
g13
I00
sg14
F0.8935882747287963
sg15
g132
sbs(I-4
I22
tp136
g0
(g9
g2
Ntp137
Rp138
(dp139
g13
I01
sg14
F-3.363626878228171
sg15
g136
sbs(I23
I9
tp140
g0
(g9
g2
Ntp141
Rp142
(dp143
g13
I00
sg14
F1.5813157108003333
sg15
g140
sbs(I8
I8
tp144
g0
(g9
g2
Ntp145
Rp146
(dp147
g13
I01
sg14
F-1.2440110633668446
sg15
g144
sbs(I22
I8
tp148
g0
(g9
g2
Ntp149
Rp150
(dp151
g13
I01
sg14
F-1.5610138204228636
sg15
g148
sbs(I-7
I23
tp152
g0
(g9
g2
Ntp153
Rp154
(dp155
g13
I00
sg14
F-2.485545406519325
sg15
g152
sbssS'nodes'
p156
(dp157
I0
g0
(cneat.genes
DefaultNodeGene
p158
g2
Ntp159
Rp160
(dp161
S'activation'
p162
S'tanh'
p163
sS'bias'
p164
F2.7382481818408753
sS'response'
p165
F1.0
sg15
I0
sS'aggregation'
p166
S'sum'
p167
sbsI1
g0
(g158
g2
Ntp168
Rp169
(dp170
g162
g163
sg164
F-15.270166998333693
sg165
F1.0
sg15
I1
sg166
g167
sbsI2
g0
(g158
g2
Ntp171
Rp172
(dp173
g162
g163
sg164
F1.1464817365884363
sg165
F1.0
sg15
I2
sg166
g167
sbsI3
g0
(g158
g2
Ntp174
Rp175
(dp176
g162
g163
sg164
F-20.16224779751782
sg165
F1.0
sg15
I3
sg166
g167
sbsI4
g0
(g158
g2
Ntp177
Rp178
(dp179
g162
S'relu'
p180
sg164
F24.48470684565788
sg165
F1.0
sg15
I4
sg166
g167
sbsI5
g0
(g158
g2
Ntp181
Rp182
(dp183
g162
g163
sg164
F8.377638118733492
sg165
F1.0
sg15
I5
sg166
g167
sbsI6
g0
(g158
g2
Ntp184
Rp185
(dp186
g162
g163
sg164
F17.36192567861505
sg165
F1.0
sg15
I6
sg166
g167
sbsI7
g0
(g158
g2
Ntp187
Rp188
(dp189
g162
g163
sg164
F5.764177159398693
sg165
F1.0
sg15
I7
sg166
g167
sbsI8
g0
(g158
g2
Ntp190
Rp191
(dp192
g162
g163
sg164
F-6.668240274672813
sg165
F1.0
sg15
I8
sg166
g167
sbsI9
g0
(g158
g2
Ntp193
Rp194
(dp195
g162
g180
sg164
F1.577834357049226
sg165
F1.0
sg15
I9
sg166
g167
sbsI21
g0
(g158
g2
Ntp196
Rp197
(dp198
g162
g163
sg164
F-2.300916496339417
sg165
F1.0
sg15
I21
sg166
g167
sbsI22
g0
(g158
g2
Ntp199
Rp200
(dp201
g162
g163
sg164
F-14.479695011168783
sg165
F1.0
sg15
I22
sg166
g167
sbsI23
g0
(g158
g2
Ntp202
Rp203
(dp204
g162
g163
sg164
F-1.9914356751383933
sg165
F1.0
sg15
I23
sg166
g167
sbsI568
g0
(g158
g2
Ntp205
Rp206
(dp207
g162
g163
sg164
F-0.8058765173124454
sg165
F1.0
sg15
I568
sg166
g167
sbssg15
I31
sS'fitness'
p208
F0.1385096326183095
sb.