ccopy_reg
_reconstructor
p0
(cneat.genome
DefaultGenome
p1
c__builtin__
object
p2
Ntp3
Rp4
(dp5
S'connections'
p6
(dp7
(I-8
I327
tp8
g0
(cneat.genes
DefaultConnectionGene
p9
g2
Ntp10
Rp11
(dp12
S'enabled'
p13
I00
sS'weight'
p14
F0.00916476701291176
sS'key'
p15
g8
sbs(I327
I4
tp16
g0
(g9
g2
Ntp17
Rp18
(dp19
g13
I01
sg14
F-1.4715885726476077
sg15
g16
sbs(I3
I3
tp20
g0
(g9
g2
Ntp21
Rp22
(dp23
g13
I00
sg14
F-1.1905660899454613
sg15
g20
sbs(I2
I2
tp24
g0
(g9
g2
Ntp25
Rp26
(dp27
g13
I01
sg14
F0.7634936567276215
sg15
g24
sbs(I327
I8
tp28
g0
(g9
g2
Ntp29
Rp30
(dp31
g13
I01
sg14
F-0.5739953307975654
sg15
g28
sbs(I1
I1
tp32
g0
(g9
g2
Ntp33
Rp34
(dp35
g13
I01
sg14
F1.1278582987798254
sg15
g32
sbs(I327
I3
tp36
g0
(g9
g2
Ntp37
Rp38
(dp39
g13
I01
sg14
F-0.6234698663109322
sg15
g36
sbs(I0
I0
tp40
g0
(g9
g2
Ntp41
Rp42
(dp43
g13
I01
sg14
F-1.6382489754328926
sg15
g40
sbs(I327
I7
tp44
g0
(g9
g2
Ntp45
Rp46
(dp47
g13
I01
sg14
F-1.118109096578211
sg15
g44
sbs(I-10
I327
tp48
g0
(g9
g2
Ntp49
Rp50
(dp51
g13
I01
sg14
F-0.015809527944051355
sg15
g48
sbs(I327
I2
tp52
g0
(g9
g2
Ntp53
Rp54
(dp55
g13
I01
sg14
F-0.02644583817629234
sg15
g52
sbs(I-3
I327
tp56
g0
(g9
g2
Ntp57
Rp58
(dp59
g13
I01
sg14
F0.38984819761004946
sg15
g56
sbs(I327
I6
tp60
g0
(g9
g2
Ntp61
Rp62
(dp63
g13
I00
sg14
F0.6149960937281016
sg15
g60
sbs(I8
I8
tp64
g0
(g9
g2
Ntp65
Rp66
(dp67
g13
I01
sg14
F-2.4275239214676954
sg15
g64
sbs(I-4
I327
tp68
g0
(g9
g2
Ntp69
Rp70
(dp71
g13
I01
sg14
F-1.4922398975849545
sg15
g68
sbssS'nodes'
p72
(dp73
I0
g0
(cneat.genes
DefaultNodeGene
p74
g2
Ntp75
Rp76
(dp77
S'activation'
p78
S'tanh'
p79
sS'bias'
p80
F0.4191238439565408
sS'response'
p81
F1.0
sg15
I0
sS'aggregation'
p82
S'sum'
p83
sbsI1
g0
(g74
g2
Ntp84
Rp85
(dp86
g78
g79
sg80
F-6.3337235679714015
sg81
F1.0
sg15
I1
sg82
g83
sbsI2
g0
(g74
g2
Ntp87
Rp88
(dp89
g78
g79
sg80
F-1.6989865516636584
sg81
F1.0
sg15
I2
sg82
g83
sbsI3
g0
(g74
g2
Ntp90
Rp91
(dp92
g78
g79
sg80
F-4.1939801079564845
sg81
F1.0
sg15
I3
sg82
g83
sbsI4
g0
(g74
g2
Ntp93
Rp94
(dp95
g78
g79
sg80
F4.290978294892322
sg81
F1.0
sg15
I4
sg82
g83
sbsI5
g0
(g74
g2
Ntp96
Rp97
(dp98
g78
g79
sg80
F-1.0372025988367042
sg81
F1.0
sg15
I5
sg82
g83
sbsI6
g0
(g74
g2
Ntp99
Rp100
(dp101
g78
g79
sg80
F-7.313501195124444
sg81
F1.0
sg15
I6
sg82
g83
sbsI7
g0
(g74
g2
Ntp102
Rp103
(dp104
g78
S'relu'
p105
sg80
F-10.29096098852833
sg81
F1.0
sg15
I7
sg82
g83
sbsI8
g0
(g74
g2
Ntp106
Rp107
(dp108
g78
g79
sg80
F-4.882250301899874
sg81
F1.0
sg15
I8
sg82
g83
sbsI9
g0
(g74
g2
Ntp109
Rp110
(dp111
g78
g79
sg80
F3.67633250242566
sg81
F1.0
sg15
I9
sg82
g83
sbsI327
g0
(g74
g2
Ntp112
Rp113
(dp114
g78
g79
sg80
F-6.158153110644808
sg81
F1.0
sg15
I327
sg82
g83
sbssg15
I32
sS'fitness'
p115
Nsb.