ccopy_reg
_reconstructor
p0
(cneat.genome
DefaultGenome
p1
c__builtin__
object
p2
Ntp3
Rp4
(dp5
S'connections'
p6
(dp7
(I41
I3
tp8
g0
(cneat.genes
DefaultConnectionGene
p9
g2
Ntp10
Rp11
(dp12
S'enabled'
p13
I01
sS'weight'
p14
F0.5399977963202216
sS'key'
p15
g8
sbs(I-16
I41
tp16
g0
(g9
g2
Ntp17
Rp18
(dp19
g13
I01
sg14
F-0.9871335877692933
sg15
g16
sbs(I-3
I41
tp20
g0
(g9
g2
Ntp21
Rp22
(dp23
g13
I01
sg14
F-0.215818416676829
sg15
g20
sbs(I41
I9
tp24
g0
(g9
g2
Ntp25
Rp26
(dp27
g13
I01
sg14
F-1.7029055389596435
sg15
g24
sbs(I41
I5
tp28
g0
(g9
g2
Ntp29
Rp30
(dp31
g13
I01
sg14
F-0.03426756809326565
sg15
g28
sbs(I-18
I41
tp32
g0
(g9
g2
Ntp33
Rp34
(dp35
g13
I01
sg14
F-0.2655096761783399
sg15
g32
sbs(I-8
I41
tp36
g0
(g9
g2
Ntp37
Rp38
(dp39
g13
I01
sg14
F-1.3461308396618064
sg15
g36
sbs(I-13
I41
tp40
g0
(g9
g2
Ntp41
Rp42
(dp43
g13
I01
sg14
F-1.926603143900454
sg15
g40
sbs(I41
I1
tp44
g0
(g9
g2
Ntp45
Rp46
(dp47
g13
I01
sg14
F1.5845722806874598
sg15
g44
sbs(I-1
I41
tp48
g0
(g9
g2
Ntp49
Rp50
(dp51
g13
I01
sg14
F-0.13078031068368282
sg15
g48
sbs(I-4
I41
tp52
g0
(g9
g2
Ntp53
Rp54
(dp55
g13
I01
sg14
F0.28369570053995824
sg15
g52
sbs(I-9
I41
tp56
g0
(g9
g2
Ntp57
Rp58
(dp59
g13
I01
sg14
F0.1847055504623807
sg15
g56
sbs(I41
I2
tp60
g0
(g9
g2
Ntp61
Rp62
(dp63
g13
I01
sg14
F0.4276903637112738
sg15
g60
sbs(I-14
I41
tp64
g0
(g9
g2
Ntp65
Rp66
(dp67
g13
I01
sg14
F0.13167174689660502
sg15
g64
sbs(I-19
I41
tp68
g0
(g9
g2
Ntp69
Rp70
(dp71
g13
I01
sg14
F-0.925416740573683
sg15
g68
sbs(I41
I0
tp72
g0
(g9
g2
Ntp73
Rp74
(dp75
g13
I01
sg14
F0.035937619316381196
sg15
g72
sbs(I41
I4
tp76
g0
(g9
g2
Ntp77
Rp78
(dp79
g13
I01
sg14
F-1.4522721896778772
sg15
g76
sbs(I-6
I41
tp80
g0
(g9
g2
Ntp81
Rp82
(dp83
g13
I01
sg14
F0.34875559482208635
sg15
g80
sbs(I-11
I41
tp84
g0
(g9
g2
Ntp85
Rp86
(dp87
g13
I01
sg14
F-0.13665991802842595
sg15
g84
sbs(I-10
I41
tp88
g0
(g9
g2
Ntp89
Rp90
(dp91
g13
I01
sg14
F0.9006162788247584
sg15
g88
sbs(I-5
I41
tp92
g0
(g9
g2
Ntp93
Rp94
(dp95
g13
I01
sg14
F-0.5472402462053826
sg15
g92
sbs(I-20
I41
tp96
g0
(g9
g2
Ntp97
Rp98
(dp99
g13
I01
sg14
F-0.6519813685803556
sg15
g96
sbs(I41
I7
tp100
g0
(g9
g2
Ntp101
Rp102
(dp103
g13
I01
sg14
F-0.4426872788180384
sg15
g100
sbs(I-15
I41
tp104
g0
(g9
g2
Ntp105
Rp106
(dp107
g13
I01
sg14
F-0.498346015813652
sg15
g104
sbs(I-2
I41
tp108
g0
(g9
g2
Ntp109
Rp110
(dp111
g13
I01
sg14
F-0.31133081955635067
sg15
g108
sbs(I41
I8
tp112
g0
(g9
g2
Ntp113
Rp114
(dp115
g13
I01
sg14
F-0.048418906330946365
sg15
g112
sbs(I-12
I41
tp116
g0
(g9
g2
Ntp117
Rp118
(dp119
g13
I01
sg14
F-0.7946333164654186
sg15
g116
sbs(I-17
I41
tp120
g0
(g9
g2
Ntp121
Rp122
(dp123
g13
I01
sg14
F0.11826972869780301
sg15
g120
sbs(I41
I6
tp124
g0
(g9
g2
Ntp125
Rp126
(dp127
g13
I01
sg14
F-0.3635006907842289
sg15
g124
sbs(I-7
I41
tp128
g0
(g9
g2
Ntp129
Rp130
(dp131
g13
I01
sg14
F1.715753033010674
sg15
g128
sbssS'nodes'
p132
(dp133
I0
g0
(cneat.genes
DefaultNodeGene
p134
g2
Ntp135
Rp136
(dp137
S'activation'
p138
S'relu'
p139
sS'bias'
p140
F-7.636811444490239
sS'response'
p141
F1.0
sg15
I0
sS'aggregation'
p142
S'sum'
p143
sbsI1
g0
(g134
g2
Ntp144
Rp145
(dp146
g138
g139
sg140
F-35.385625692225936
sg141
F1.0
sg15
I1
sg142
g143
sbsI2
g0
(g134
g2
Ntp147
Rp148
(dp149
g138
g139
sg140
F-0.9649769438349786
sg141
F1.0
sg15
I2
sg142
g143
sbsI3
g0
(g134
g2
Ntp150
Rp151
(dp152
g138
g139
sg140
F-5.5745582886893486
sg141
F1.0
sg15
I3
sg142
g143
sbsI4
g0
(g134
g2
Ntp153
Rp154
(dp155
g138
g139
sg140
F10.745282814784211
sg141
F1.0
sg15
I4
sg142
g143
sbsI5
g0
(g134
g2
Ntp156
Rp157
(dp158
g138
g139
sg140
F-15.064699378826187
sg141
F1.0
sg15
I5
sg142
g143
sbsI6
g0
(g134
g2
Ntp159
Rp160
(dp161
g138
g139
sg140
F0.030586393134809115
sg141
F1.0
sg15
I6
sg142
g143
sbsI7
g0
(g134
g2
Ntp162
Rp163
(dp164
g138
g139
sg140
F-13.360490067797542
sg141
F1.0
sg15
I7
sg142
g143
sbsI8
g0
(g134
g2
Ntp165
Rp166
(dp167
g138
g139
sg140
F1.2913382091143764
sg141
F1.0
sg15
I8
sg142
g143
sbsI9
g0
(g134
g2
Ntp168
Rp169
(dp170
g138
g139
sg140
F6.22369152887072
sg141
F1.0
sg15
I9
sg142
g143
sbsI41
g0
(g134
g2
Ntp171
Rp172
(dp173
g138
g139
sg140
F-17.415606163354422
sg141
F1.0
sg15
I41
sg142
g143
sbssg15
I32
sS'fitness'
p174
F0.0019641478389477857
sb.