ccopy_reg
_reconstructor
p0
(cneat.genome
DefaultGenome
p1
c__builtin__
object
p2
Ntp3
Rp4
(dp5
S'connections'
p6
(dp7
(I-8
I327
tp8
g0
(cneat.genes
DefaultConnectionGene
p9
g2
Ntp10
Rp11
(dp12
S'enabled'
p13
I00
sS'weight'
p14
F-0.2220722305820384
sS'key'
p15
g8
sbs(I328
I328
tp16
g0
(g9
g2
Ntp17
Rp18
(dp19
g13
I01
sg14
F-0.22984781660019404
sg15
g16
sbs(I328
I7
tp20
g0
(g9
g2
Ntp21
Rp22
(dp23
g13
I01
sg14
F-0.33880983936239606
sg15
g20
sbs(I-5
I328
tp24
g0
(g9
g2
Ntp25
Rp26
(dp27
g13
I01
sg14
F0.7518963631729777
sg15
g24
sbs(I327
I9
tp28
g0
(g9
g2
Ntp29
Rp30
(dp31
g13
I01
sg14
F0.1725295822299422
sg15
g28
sbs(I327
I4
tp32
g0
(g9
g2
Ntp33
Rp34
(dp35
g13
I01
sg14
F1.2971436573734025
sg15
g32
sbs(I3
I3
tp36
g0
(g9
g2
Ntp37
Rp38
(dp39
g13
I00
sg14
F-1.761200451576042
sg15
g36
sbs(I-9
I328
tp40
g0
(g9
g2
Ntp41
Rp42
(dp43
g13
I00
sg14
F1.17403461767054
sg15
g40
sbs(I-2
I328
tp44
g0
(g9
g2
Ntp45
Rp46
(dp47
g13
I01
sg14
F-0.1832417703113708
sg15
g44
sbs(I3
I328
tp48
g0
(g9
g2
Ntp49
Rp50
(dp51
g13
I00
sg14
F2.4717290137100805
sg15
g48
sbs(I328
I8
tp52
g0
(g9
g2
Ntp53
Rp54
(dp55
g13
I00
sg14
F0.8177505227722738
sg15
g52
sbs(I2
I2
tp56
g0
(g9
g2
Ntp57
Rp58
(dp59
g13
I00
sg14
F0.27295375251076576
sg15
g56
sbs(I327
I8
tp60
g0
(g9
g2
Ntp61
Rp62
(dp63
g13
I01
sg14
F-1.7338546983646603
sg15
g60
sbs(I1
I1
tp64
g0
(g9
g2
Ntp65
Rp66
(dp67
g13
I01
sg14
F0.9261510228314589
sg15
g64
sbs(I327
I3
tp68
g0
(g9
g2
Ntp69
Rp70
(dp71
g13
I01
sg14
F4.128976929694506
sg15
g68
sbs(I0
I0
tp72
g0
(g9
g2
Ntp73
Rp74
(dp75
g13
I01
sg14
F-1.6684635178913174
sg15
g72
sbs(I327
I7
tp76
g0
(g9
g2
Ntp77
Rp78
(dp79
g13
I01
sg14
F0.8932691431481661
sg15
g76
sbs(I328
I9
tp80
g0
(g9
g2
Ntp81
Rp82
(dp83
g13
I01
sg14
F-0.9311898944677895
sg15
g80
sbs(I-6
I328
tp84
g0
(g9
g2
Ntp85
Rp86
(dp87
g13
I01
sg14
F0.303885497082103
sg15
g84
sbs(I-10
I327
tp88
g0
(g9
g2
Ntp89
Rp90
(dp91
g13
I01
sg14
F-0.35142720658504406
sg15
g88
sbs(I328
I5
tp92
g0
(g9
g2
Ntp93
Rp94
(dp95
g13
I01
sg14
F-0.7608597503049752
sg15
g92
sbs(I327
I2
tp96
g0
(g9
g2
Ntp97
Rp98
(dp99
g13
I01
sg14
F-0.39498273027772446
sg15
g96
sbs(I-3
I327
tp100
g0
(g9
g2
Ntp101
Rp102
(dp103
g13
I01
sg14
F-0.46153073847879766
sg15
g100
sbs(I328
I1
tp104
g0
(g9
g2
Ntp105
Rp106
(dp107
g13
I01
sg14
F0.492945435465888
sg15
g104
sbs(I327
I6
tp108
g0
(g9
g2
Ntp109
Rp110
(dp111
g13
I00
sg14
F0.799798022590274
sg15
g108
sbs(I8
I8
tp112
g0
(g9
g2
Ntp113
Rp114
(dp115
g13
I01
sg14
F-2.3284154355984814
sg15
g112
sbs(I-4
I327
tp116
g0
(g9
g2
Ntp117
Rp118
(dp119
g13
I01
sg14
F-0.8298352498667318
sg15
g116
sbssS'nodes'
p120
(dp121
I0
g0
(cneat.genes
DefaultNodeGene
p122
g2
Ntp123
Rp124
(dp125
S'activation'
p126
S'tanh'
p127
sS'bias'
p128
F-0.19481974758267728
sS'response'
p129
F1.0
sg15
I0
sS'aggregation'
p130
S'sum'
p131
sbsI1
g0
(g122
g2
Ntp132
Rp133
(dp134
g126
g127
sg128
F-7.717829428208835
sg129
F1.0
sg15
I1
sg130
g131
sbsI2
g0
(g122
g2
Ntp135
Rp136
(dp137
g126
g127
sg128
F-2.0006541063556424
sg129
F1.0
sg15
I2
sg130
g131
sbsI3
g0
(g122
g2
Ntp138
Rp139
(dp140
g126
g127
sg128
F-5.848967359024937
sg129
F1.0
sg15
I3
sg130
g131
sbsI4
g0
(g122
g2
Ntp141
Rp142
(dp143
g126
g127
sg128
F4.951920982369065
sg129
F1.0
sg15
I4
sg130
g131
sbsI5
g0
(g122
g2
Ntp144
Rp145
(dp146
g126
g127
sg128
F0.3771195969286312
sg129
F1.0
sg15
I5
sg130
g131
sbsI6
g0
(g122
g2
Ntp147
Rp148
(dp149
g126
g127
sg128
F-7.801122326431394
sg129
F1.0
sg15
I6
sg130
g131
sbsI7
g0
(g122
g2
Ntp150
Rp151
(dp152
g126
S'relu'
p153
sg128
F-10.960766619540259
sg129
F1.0
sg15
I7
sg130
g131
sbsI8
g0
(g122
g2
Ntp154
Rp155
(dp156
g126
g127
sg128
F-5.092620454639729
sg129
F1.0
sg15
I8
sg130
g131
sbsI9
g0
(g122
g2
Ntp157
Rp158
(dp159
g126
g127
sg128
F4.711875406516104
sg129
F1.0
sg15
I9
sg130
g131
sbsI327
g0
(g122
g2
Ntp160
Rp161
(dp162
g126
g127
sg128
F-6.013469330523818
sg129
F1.0
sg15
I327
sg130
g131
sbsI328
g0
(g122
g2
Ntp163
Rp164
(dp165
g126
g127
sg128
F-0.6190567332327681
sg129
F1.0
sg15
I328
sg130
g131
sbssg15
I33
sS'fitness'
p166
Nsb.