ccopy_reg
_reconstructor
p0
(cneat.genome
DefaultGenome
p1
c__builtin__
object
p2
Ntp3
Rp4
(dp5
S'connections'
p6
(dp7
(I42
I5
tp8
g0
(cneat.genes
DefaultConnectionGene
p9
g2
Ntp10
Rp11
(dp12
S'enabled'
p13
I01
sS'weight'
p14
F-0.1521628509488806
sS'key'
p15
g8
sbs(I-9
I42
tp16
g0
(g9
g2
Ntp17
Rp18
(dp19
g13
I01
sg14
F0.12382006295077881
sg15
g16
sbs(I-12
I42
tp20
g0
(g9
g2
Ntp21
Rp22
(dp23
g13
I01
sg14
F-0.2797132320654162
sg15
g20
sbs(I-19
I42
tp24
g0
(g9
g2
Ntp25
Rp26
(dp27
g13
I01
sg14
F-0.6152517896086611
sg15
g24
sbs(I42
I2
tp28
g0
(g9
g2
Ntp29
Rp30
(dp31
g13
I01
sg14
F-0.31210028826985003
sg15
g28
sbs(I-16
I42
tp32
g0
(g9
g2
Ntp33
Rp34
(dp35
g13
I01
sg14
F-0.7306401043942798
sg15
g32
sbs(I42
I6
tp36
g0
(g9
g2
Ntp37
Rp38
(dp39
g13
I01
sg14
F-0.7089995583662023
sg15
g36
sbs(I42
I7
tp40
g0
(g9
g2
Ntp41
Rp42
(dp43
g13
I01
sg14
F-0.024457501013815917
sg15
g40
sbs(I-5
I42
tp44
g0
(g9
g2
Ntp45
Rp46
(dp47
g13
I01
sg14
F-0.19005380809344585
sg15
g44
sbs(I-11
I42
tp48
g0
(g9
g2
Ntp49
Rp50
(dp51
g13
I01
sg14
F-1.1997733599394707
sg15
g48
sbs(I42
I3
tp52
g0
(g9
g2
Ntp53
Rp54
(dp55
g13
I01
sg14
F-0.9856294929024918
sg15
g52
sbs(I-8
I42
tp56
g0
(g9
g2
Ntp57
Rp58
(dp59
g13
I01
sg14
F2.4646145396113837
sg15
g56
sbs(I42
I8
tp60
g0
(g9
g2
Ntp61
Rp62
(dp63
g13
I01
sg14
F-0.5729540000184882
sg15
g60
sbs(I-18
I42
tp64
g0
(g9
g2
Ntp65
Rp66
(dp67
g13
I01
sg14
F-0.6090976443988769
sg15
g64
sbs(I-15
I42
tp68
g0
(g9
g2
Ntp69
Rp70
(dp71
g13
I01
sg14
F0.8803174690822128
sg15
g68
sbs(I-4
I42
tp72
g0
(g9
g2
Ntp73
Rp74
(dp75
g13
I01
sg14
F0.3159311655945424
sg15
g72
sbs(I-17
I42
tp76
g0
(g9
g2
Ntp77
Rp78
(dp79
g13
I01
sg14
F0.7426994820741911
sg15
g76
sbs(I-1
I42
tp80
g0
(g9
g2
Ntp81
Rp82
(dp83
g13
I01
sg14
F0.12739952700976342
sg15
g80
sbs(I42
I0
tp84
g0
(g9
g2
Ntp85
Rp86
(dp87
g13
I01
sg14
F-0.2640688196181148
sg15
g84
sbs(I42
I9
tp88
g0
(g9
g2
Ntp89
Rp90
(dp91
g13
I01
sg14
F0.9574468651574314
sg15
g88
sbs(I-14
I42
tp92
g0
(g9
g2
Ntp93
Rp94
(dp95
g13
I01
sg14
F-0.13873964376520503
sg15
g92
sbs(I-7
I42
tp96
g0
(g9
g2
Ntp97
Rp98
(dp99
g13
I01
sg14
F-0.521882880771741
sg15
g96
sbs(I42
I4
tp100
g0
(g9
g2
Ntp101
Rp102
(dp103
g13
I01
sg14
F-1.1425695544014376
sg15
g100
sbs(I-3
I42
tp104
g0
(g9
g2
Ntp105
Rp106
(dp107
g13
I01
sg14
F-0.06913218360490457
sg15
g104
sbs(I-2
I42
tp108
g0
(g9
g2
Ntp109
Rp110
(dp111
g13
I01
sg14
F1.206303524353316
sg15
g108
sbs(I42
I1
tp112
g0
(g9
g2
Ntp113
Rp114
(dp115
g13
I01
sg14
F-0.19361705397933635
sg15
g112
sbs(I-6
I42
tp116
g0
(g9
g2
Ntp117
Rp118
(dp119
g13
I01
sg14
F-0.5937406434451574
sg15
g116
sbs(I-20
I42
tp120
g0
(g9
g2
Ntp121
Rp122
(dp123
g13
I01
sg14
F-0.28811603971298927
sg15
g120
sbs(I-13
I42
tp124
g0
(g9
g2
Ntp125
Rp126
(dp127
g13
I01
sg14
F-1.453222339751533
sg15
g124
sbs(I-10
I42
tp128
g0
(g9
g2
Ntp129
Rp130
(dp131
g13
I01
sg14
F-1.0554300552013542
sg15
g128
sbssS'nodes'
p132
(dp133
I0
g0
(cneat.genes
DefaultNodeGene
p134
g2
Ntp135
Rp136
(dp137
S'activation'
p138
S'relu'
p139
sS'bias'
p140
F-19.61678450635395
sS'response'
p141
F1.0
sg15
I0
sS'aggregation'
p142
S'sum'
p143
sbsI1
g0
(g134
g2
Ntp144
Rp145
(dp146
g138
g139
sg140
F-0.010868208379413867
sg141
F1.0
sg15
I1
sg142
g143
sbsI2
g0
(g134
g2
Ntp147
Rp148
(dp149
g138
g139
sg140
F7.829586241479738
sg141
F1.0
sg15
I2
sg142
g143
sbsI3
g0
(g134
g2
Ntp150
Rp151
(dp152
g138
g139
sg140
F3.286961104241884
sg141
F1.0
sg15
I3
sg142
g143
sbsI4
g0
(g134
g2
Ntp153
Rp154
(dp155
g138
g139
sg140
F13.10097851480953
sg141
F1.0
sg15
I4
sg142
g143
sbsI5
g0
(g134
g2
Ntp156
Rp157
(dp158
g138
g139
sg140
F-0.7668096393246995
sg141
F1.0
sg15
I5
sg142
g143
sbsI6
g0
(g134
g2
Ntp159
Rp160
(dp161
g138
g139
sg140
F0.2640052042363583
sg141
F1.0
sg15
I6
sg142
g143
sbsI7
g0
(g134
g2
Ntp162
Rp163
(dp164
g138
g139
sg140
F6.667392436985003
sg141
F1.0
sg15
I7
sg142
g143
sbsI8
g0
(g134
g2
Ntp165
Rp166
(dp167
g138
g139
sg140
F-1.349987679974146
sg141
F1.0
sg15
I8
sg142
g143
sbsI9
g0
(g134
g2
Ntp168
Rp169
(dp170
g138
g139
sg140
F18.56235090576431
sg141
F1.0
sg15
I9
sg142
g143
sbsI42
g0
(g134
g2
Ntp171
Rp172
(dp173
g138
g139
sg140
F4.895478152888558
sg141
F1.0
sg15
I42
sg142
g143
sbssg15
I33
sS'fitness'
p174
Nsb.