ccopy_reg
_reconstructor
p0
(cneat.genome
DefaultGenome
p1
c__builtin__
object
p2
Ntp3
Rp4
(dp5
S'connections'
p6
(dp7
(I-1
I44
tp8
g0
(cneat.genes
DefaultConnectionGene
p9
g2
Ntp10
Rp11
(dp12
S'enabled'
p13
I01
sS'weight'
p14
F0.0784646081273422
sS'key'
p15
g8
sbs(I-2
I44
tp16
g0
(g9
g2
Ntp17
Rp18
(dp19
g13
I01
sg14
F-0.2236464207216581
sg15
g16
sbs(I-7
I44
tp20
g0
(g9
g2
Ntp21
Rp22
(dp23
g13
I01
sg14
F-2.5395073640014925
sg15
g20
sbs(I44
I4
tp24
g0
(g9
g2
Ntp25
Rp26
(dp27
g13
I01
sg14
F0.1010553363585002
sg15
g24
sbs(I-4
I44
tp28
g0
(g9
g2
Ntp29
Rp30
(dp31
g13
I01
sg14
F-0.5795888926836478
sg15
g28
sbs(I44
I8
tp32
g0
(g9
g2
Ntp33
Rp34
(dp35
g13
I01
sg14
F0.9514742157499939
sg15
g32
sbs(I-17
I44
tp36
g0
(g9
g2
Ntp37
Rp38
(dp39
g13
I01
sg14
F-0.04610458953709108
sg15
g36
sbs(I44
I1
tp40
g0
(g9
g2
Ntp41
Rp42
(dp43
g13
I01
sg14
F-0.25013514320830066
sg15
g40
sbs(I-14
I44
tp44
g0
(g9
g2
Ntp45
Rp46
(dp47
g13
I01
sg14
F-0.411181560796571
sg15
g44
sbs(I-10
I44
tp48
g0
(g9
g2
Ntp49
Rp50
(dp51
g13
I01
sg14
F-1.5958319742369407
sg15
g48
sbs(I44
I0
tp52
g0
(g9
g2
Ntp53
Rp54
(dp55
g13
I01
sg14
F-1.6815182380940321
sg15
g52
sbs(I44
I5
tp56
g0
(g9
g2
Ntp57
Rp58
(dp59
g13
I01
sg14
F0.011296679294085453
sg15
g56
sbs(I-3
I44
tp60
g0
(g9
g2
Ntp61
Rp62
(dp63
g13
I01
sg14
F0.05231435684182958
sg15
g60
sbs(I-13
I44
tp64
g0
(g9
g2
Ntp65
Rp66
(dp67
g13
I01
sg14
F-0.35261505777217317
sg15
g64
sbs(I44
I9
tp68
g0
(g9
g2
Ntp69
Rp70
(dp71
g13
I01
sg14
F-1.0028473795588109
sg15
g68
sbs(I-6
I44
tp72
g0
(g9
g2
Ntp73
Rp74
(dp75
g13
I01
sg14
F0.48777263430839873
sg15
g72
sbs(I44
I2
tp76
g0
(g9
g2
Ntp77
Rp78
(dp79
g13
I01
sg14
F-0.7193935365098185
sg15
g76
sbs(I-20
I44
tp80
g0
(g9
g2
Ntp81
Rp82
(dp83
g13
I01
sg14
F0.45864018037485915
sg15
g80
sbs(I44
I6
tp84
g0
(g9
g2
Ntp85
Rp86
(dp87
g13
I01
sg14
F-0.8856037289576694
sg15
g84
sbs(I-9
I44
tp88
g0
(g9
g2
Ntp89
Rp90
(dp91
g13
I01
sg14
F0.3524849763473743
sg15
g88
sbs(I44
I3
tp92
g0
(g9
g2
Ntp93
Rp94
(dp95
g13
I01
sg14
F-0.7049071498982347
sg15
g92
sbs(I-16
I44
tp96
g0
(g9
g2
Ntp97
Rp98
(dp99
g13
I01
sg14
F-0.2528826647550772
sg15
g96
sbs(I-19
I44
tp100
g0
(g9
g2
Ntp101
Rp102
(dp103
g13
I01
sg14
F0.49096654412901614
sg15
g100
sbs(I-12
I44
tp104
g0
(g9
g2
Ntp105
Rp106
(dp107
g13
I01
sg14
F0.0017334218820816366
sg15
g104
sbs(I44
I7
tp108
g0
(g9
g2
Ntp109
Rp110
(dp111
g13
I01
sg14
F-2.1566890154882667
sg15
g108
sbs(I-5
I44
tp112
g0
(g9
g2
Ntp113
Rp114
(dp115
g13
I01
sg14
F0.1477492471176981
sg15
g112
sbs(I-18
I44
tp116
g0
(g9
g2
Ntp117
Rp118
(dp119
g13
I01
sg14
F-0.8349327704083348
sg15
g116
sbs(I-15
I44
tp120
g0
(g9
g2
Ntp121
Rp122
(dp123
g13
I01
sg14
F1.4090094427848652
sg15
g120
sbs(I-8
I44
tp124
g0
(g9
g2
Ntp125
Rp126
(dp127
g13
I01
sg14
F-1.2066117011272437
sg15
g124
sbs(I-11
I44
tp128
g0
(g9
g2
Ntp129
Rp130
(dp131
g13
I01
sg14
F-1.2109296912296326
sg15
g128
sbssS'nodes'
p132
(dp133
I0
g0
(cneat.genes
DefaultNodeGene
p134
g2
Ntp135
Rp136
(dp137
S'activation'
p138
S'relu'
p139
sS'bias'
p140
F9.015607153337298
sS'response'
p141
F1.0
sg15
I0
sS'aggregation'
p142
S'sum'
p143
sbsI1
g0
(g134
g2
Ntp144
Rp145
(dp146
g138
g139
sg140
F7.18841336054745
sg141
F1.0
sg15
I1
sg142
g143
sbsI2
g0
(g134
g2
Ntp147
Rp148
(dp149
g138
g139
sg140
F-3.5029188731778715
sg141
F1.0
sg15
I2
sg142
g143
sbsI3
g0
(g134
g2
Ntp150
Rp151
(dp152
g138
g139
sg140
F-1.2988084373311082
sg141
F1.0
sg15
I3
sg142
g143
sbsI4
g0
(g134
g2
Ntp153
Rp154
(dp155
g138
g139
sg140
F5.432053752381524
sg141
F1.0
sg15
I4
sg142
g143
sbsI5
g0
(g134
g2
Ntp156
Rp157
(dp158
g138
g139
sg140
F-0.933795579737059
sg141
F1.0
sg15
I5
sg142
g143
sbsI6
g0
(g134
g2
Ntp159
Rp160
(dp161
g138
g139
sg140
F-7.992219838176134
sg141
F1.0
sg15
I6
sg142
g143
sbsI7
g0
(g134
g2
Ntp162
Rp163
(dp164
g138
g139
sg140
F4.1738723722894875
sg141
F1.0
sg15
I7
sg142
g143
sbsI8
g0
(g134
g2
Ntp165
Rp166
(dp167
g138
g139
sg140
F-1.991436868596291
sg141
F1.0
sg15
I8
sg142
g143
sbsI9
g0
(g134
g2
Ntp168
Rp169
(dp170
g138
g139
sg140
F3.0976402736999424
sg141
F1.0
sg15
I9
sg142
g143
sbsI44
g0
(g134
g2
Ntp171
Rp172
(dp173
g138
g139
sg140
F8.982186749517421
sg141
F1.0
sg15
I44
sg142
g143
sbssg15
I35
sS'fitness'
p174
Nsb.