ccopy_reg
_reconstructor
p0
(cneat.genome
DefaultGenome
p1
c__builtin__
object
p2
Ntp3
Rp4
(dp5
S'connections'
p6
(dp7
(I-1
I44
tp8
g0
(cneat.genes
DefaultConnectionGene
p9
g2
Ntp10
Rp11
(dp12
S'enabled'
p13
I01
sS'weight'
p14
F-0.26932942525377535
sS'key'
p15
g8
sbs(I-2
I44
tp16
g0
(g9
g2
Ntp17
Rp18
(dp19
g13
I01
sg14
F0.4105890203740986
sg15
g16
sbs(I-7
I44
tp20
g0
(g9
g2
Ntp21
Rp22
(dp23
g13
I01
sg14
F-0.09994171989580766
sg15
g20
sbs(I44
I4
tp24
g0
(g9
g2
Ntp25
Rp26
(dp27
g13
I01
sg14
F-0.21522904451435115
sg15
g24
sbs(I-4
I44
tp28
g0
(g9
g2
Ntp29
Rp30
(dp31
g13
I01
sg14
F1.3407173163376829
sg15
g28
sbs(I44
I8
tp32
g0
(g9
g2
Ntp33
Rp34
(dp35
g13
I01
sg14
F-0.2248815723528804
sg15
g32
sbs(I-17
I44
tp36
g0
(g9
g2
Ntp37
Rp38
(dp39
g13
I01
sg14
F1.2831269224010897
sg15
g36
sbs(I44
I1
tp40
g0
(g9
g2
Ntp41
Rp42
(dp43
g13
I01
sg14
F0.3222374864795414
sg15
g40
sbs(I-14
I44
tp44
g0
(g9
g2
Ntp45
Rp46
(dp47
g13
I01
sg14
F1.455999988867299
sg15
g44
sbs(I-10
I44
tp48
g0
(g9
g2
Ntp49
Rp50
(dp51
g13
I01
sg14
F0.04613733591944456
sg15
g48
sbs(I44
I0
tp52
g0
(g9
g2
Ntp53
Rp54
(dp55
g13
I01
sg14
F-2.007241987714698
sg15
g52
sbs(I44
I5
tp56
g0
(g9
g2
Ntp57
Rp58
(dp59
g13
I01
sg14
F2.011210508956055
sg15
g56
sbs(I-3
I44
tp60
g0
(g9
g2
Ntp61
Rp62
(dp63
g13
I01
sg14
F0.6624536265379745
sg15
g60
sbs(I-13
I44
tp64
g0
(g9
g2
Ntp65
Rp66
(dp67
g13
I01
sg14
F-1.0580038657789075
sg15
g64
sbs(I44
I9
tp68
g0
(g9
g2
Ntp69
Rp70
(dp71
g13
I01
sg14
F-0.2912616465683105
sg15
g68
sbs(I-6
I44
tp72
g0
(g9
g2
Ntp73
Rp74
(dp75
g13
I01
sg14
F-0.6523806869033192
sg15
g72
sbs(I44
I2
tp76
g0
(g9
g2
Ntp77
Rp78
(dp79
g13
I01
sg14
F0.8894052747072542
sg15
g76
sbs(I-20
I44
tp80
g0
(g9
g2
Ntp81
Rp82
(dp83
g13
I01
sg14
F1.772511873457201
sg15
g80
sbs(I44
I6
tp84
g0
(g9
g2
Ntp85
Rp86
(dp87
g13
I01
sg14
F0.160119349102816
sg15
g84
sbs(I-9
I44
tp88
g0
(g9
g2
Ntp89
Rp90
(dp91
g13
I01
sg14
F-2.83335161283041
sg15
g88
sbs(I44
I3
tp92
g0
(g9
g2
Ntp93
Rp94
(dp95
g13
I01
sg14
F1.50407679154066
sg15
g92
sbs(I-16
I44
tp96
g0
(g9
g2
Ntp97
Rp98
(dp99
g13
I01
sg14
F-0.8443443765735327
sg15
g96
sbs(I-19
I44
tp100
g0
(g9
g2
Ntp101
Rp102
(dp103
g13
I01
sg14
F0.8144066104487998
sg15
g100
sbs(I-12
I44
tp104
g0
(g9
g2
Ntp105
Rp106
(dp107
g13
I01
sg14
F-0.287907004076927
sg15
g104
sbs(I44
I7
tp108
g0
(g9
g2
Ntp109
Rp110
(dp111
g13
I01
sg14
F-1.6513906317577094
sg15
g108
sbs(I-5
I44
tp112
g0
(g9
g2
Ntp113
Rp114
(dp115
g13
I01
sg14
F-0.6534817883125311
sg15
g112
sbs(I-18
I44
tp116
g0
(g9
g2
Ntp117
Rp118
(dp119
g13
I01
sg14
F0.5622906012709904
sg15
g116
sbs(I-15
I44
tp120
g0
(g9
g2
Ntp121
Rp122
(dp123
g13
I01
sg14
F-0.2545488553281586
sg15
g120
sbs(I-8
I44
tp124
g0
(g9
g2
Ntp125
Rp126
(dp127
g13
I01
sg14
F1.253641776433521
sg15
g124
sbs(I-11
I44
tp128
g0
(g9
g2
Ntp129
Rp130
(dp131
g13
I01
sg14
F1.418377570962833
sg15
g128
sbssS'nodes'
p132
(dp133
I0
g0
(cneat.genes
DefaultNodeGene
p134
g2
Ntp135
Rp136
(dp137
S'activation'
p138
S'relu'
p139
sS'bias'
p140
F1.4247146107903552
sS'response'
p141
F1.0
sg15
I0
sS'aggregation'
p142
S'sum'
p143
sbsI1
g0
(g134
g2
Ntp144
Rp145
(dp146
g138
g139
sg140
F-13.532559846577994
sg141
F1.0
sg15
I1
sg142
g143
sbsI2
g0
(g134
g2
Ntp147
Rp148
(dp149
g138
g139
sg140
F12.465472138273997
sg141
F1.0
sg15
I2
sg142
g143
sbsI3
g0
(g134
g2
Ntp150
Rp151
(dp152
g138
g139
sg140
F6.409162421566204
sg141
F1.0
sg15
I3
sg142
g143
sbsI4
g0
(g134
g2
Ntp153
Rp154
(dp155
g138
g139
sg140
F-5.501091165601471
sg141
F1.0
sg15
I4
sg142
g143
sbsI5
g0
(g134
g2
Ntp156
Rp157
(dp158
g138
g139
sg140
F-2.3195030601374866
sg141
F1.0
sg15
I5
sg142
g143
sbsI6
g0
(g134
g2
Ntp159
Rp160
(dp161
g138
g139
sg140
F5.824492988469623
sg141
F1.0
sg15
I6
sg142
g143
sbsI7
g0
(g134
g2
Ntp162
Rp163
(dp164
g138
g139
sg140
F-21.088183812499906
sg141
F1.0
sg15
I7
sg142
g143
sbsI8
g0
(g134
g2
Ntp165
Rp166
(dp167
g138
g139
sg140
F3.1845519674536438
sg141
F1.0
sg15
I8
sg142
g143
sbsI9
g0
(g134
g2
Ntp168
Rp169
(dp170
g138
g139
sg140
F9.955729128085311
sg141
F1.0
sg15
I9
sg142
g143
sbsI44
g0
(g134
g2
Ntp171
Rp172
(dp173
g138
g139
sg140
F-2.377049004423638
sg141
F1.0
sg15
I44
sg142
g143
sbssg15
I35
sS'fitness'
p174
F0.055014185814179585
sb.