ccopy_reg
_reconstructor
p0
(cneat.genome
DefaultGenome
p1
c__builtin__
object
p2
Ntp3
Rp4
(dp5
S'connections'
p6
(dp7
(I23
I4
tp8
g0
(cneat.genes
DefaultConnectionGene
p9
g2
Ntp10
Rp11
(dp12
S'enabled'
p13
I00
sS'weight'
p14
F-0.42623167842966964
sS'key'
p15
g8
sbs(I-2
I521
tp16
g0
(g9
g2
Ntp17
Rp18
(dp19
g13
I01
sg14
F-0.49435776916247914
sg15
g16
sbs(I-2
I23
tp20
g0
(g9
g2
Ntp21
Rp22
(dp23
g13
I01
sg14
F1.7792443568864347
sg15
g20
sbs(I7
I7
tp24
g0
(g9
g2
Ntp25
Rp26
(dp27
g13
I01
sg14
F1.4036746028879865
sg15
g24
sbs(I23
I3
tp28
g0
(g9
g2
Ntp29
Rp30
(dp31
g13
I00
sg14
F0.9966296973145062
sg15
g28
sbs(I712
I7
tp32
g0
(g9
g2
Ntp33
Rp34
(dp35
g13
I01
sg14
F0.9944077920215955
sg15
g32
sbs(I-3
I3
tp36
g0
(g9
g2
Ntp37
Rp38
(dp39
g13
I01
sg14
F-0.4870941319926495
sg15
g36
sbs(I23
I7
tp40
g0
(g9
g2
Ntp41
Rp42
(dp43
g13
I00
sg14
F-0.9948309543960152
sg15
g40
sbs(I-10
I3
tp44
g0
(g9
g2
Ntp45
Rp46
(dp47
g13
I01
sg14
F-0.6367283577678333
sg15
g44
sbs(I-5
I23
tp48
g0
(g9
g2
Ntp49
Rp50
(dp51
g13
I00
sg14
F-0.17988517868627768
sg15
g48
sbs(I-1
I1
tp52
g0
(g9
g2
Ntp53
Rp54
(dp55
g13
I01
sg14
F-1.1496377761464918
sg15
g52
sbs(I694
I23
tp56
g0
(g9
g2
Ntp57
Rp58
(dp59
g13
I00
sg14
F2.222291747928299
sg15
g56
sbs(I2
I2
tp60
g0
(g9
g2
Ntp61
Rp62
(dp63
g13
I00
sg14
F-1.3318047838833447
sg15
g60
sbs(I-7
I694
tp64
g0
(g9
g2
Ntp65
Rp66
(dp67
g13
I01
sg14
F-0.4552556400272931
sg15
g64
sbs(I559
I0
tp68
g0
(g9
g2
Ntp69
Rp70
(dp71
g13
I00
sg14
F-2.1262021752830007
sg15
g68
sbs(I23
I712
tp72
g0
(g9
g2
Ntp73
Rp74
(dp75
g13
I01
sg14
F1.0765212677765144
sg15
g72
sbs(I23
I1
tp76
g0
(g9
g2
Ntp77
Rp78
(dp79
g13
I01
sg14
F-0.15852259059916396
sg15
g76
sbs(I-5
I694
tp80
g0
(g9
g2
Ntp81
Rp82
(dp83
g13
I00
sg14
F-0.7347559685223201
sg15
g80
sbs(I23
I5
tp84
g0
(g9
g2
Ntp85
Rp86
(dp87
g13
I01
sg14
F1.2626959505822009
sg15
g84
sbs(I-1
I559
tp88
g0
(g9
g2
Ntp89
Rp90
(dp91
g13
I00
sg14
F1.2708665442624199
sg15
g88
sbs(I617
I559
tp92
g0
(g9
g2
Ntp93
Rp94
(dp95
g13
I00
sg14
F0.7628251325729577
sg15
g92
sbs(I-1
I617
tp96
g0
(g9
g2
Ntp97
Rp98
(dp99
g13
I00
sg14
F-0.04719306406050083
sg15
g96
sbs(I9
I9
tp100
g0
(g9
g2
Ntp101
Rp102
(dp103
g13
I01
sg14
F0.16198524578828047
sg15
g100
sbs(I8
I8
tp104
g0
(g9
g2
Ntp105
Rp106
(dp107
g13
I00
sg14
F-2.2410868859175235
sg15
g104
sbs(I694
I735
tp108
g0
(g9
g2
Ntp109
Rp110
(dp111
g13
I01
sg14
F0.9714648931267126
sg15
g108
sbs(I-7
I23
tp112
g0
(g9
g2
Ntp113
Rp114
(dp115
g13
I00
sg14
F-0.5038112569727154
sg15
g112
sbssS'nodes'
p116
(dp117
I0
g0
(cneat.genes
DefaultNodeGene
p118
g2
Ntp119
Rp120
(dp121
S'activation'
p122
S'tanh'
p123
sS'bias'
p124
F2.091140454382079
sS'response'
p125
F1.0
sg15
I0
sS'aggregation'
p126
S'sum'
p127
sbsI1
g0
(g118
g2
Ntp128
Rp129
(dp130
g122
g123
sg124
F-15.989138960391783
sg125
F1.0
sg15
I1
sg126
g127
sbsI2
g0
(g118
g2
Ntp131
Rp132
(dp133
g122
g123
sg124
F11.347272539235298
sg125
F1.0
sg15
I2
sg126
g127
sbsI3
g0
(g118
g2
Ntp134
Rp135
(dp136
g122
g123
sg124
F1.2082900918773036
sg125
F1.0
sg15
I3
sg126
g127
sbsI4
g0
(g118
g2
Ntp137
Rp138
(dp139
g122
g123
sg124
F6.184419434516123
sg125
F1.0
sg15
I4
sg126
g127
sbsI5
g0
(g118
g2
Ntp140
Rp141
(dp142
g122
g123
sg124
F-3.1457962061735354
sg125
F1.0
sg15
I5
sg126
g127
sbsI6
g0
(g118
g2
Ntp143
Rp144
(dp145
g122
g123
sg124
F20.757648907497828
sg125
F1.0
sg15
I6
sg126
g127
sbsI7
g0
(g118
g2
Ntp146
Rp147
(dp148
g122
g123
sg124
F4.6352666068377255
sg125
F1.0
sg15
I7
sg126
g127
sbsI8
g0
(g118
g2
Ntp149
Rp150
(dp151
g122
g123
sg124
F-10.876860922492929
sg125
F1.0
sg15
I8
sg126
g127
sbsI9
g0
(g118
g2
Ntp152
Rp153
(dp154
g122
g123
sg124
F-0.5613464740028299
sg125
F1.0
sg15
I9
sg126
g127
sbsI551
g0
(g118
g2
Ntp155
Rp156
(dp157
g122
g123
sg124
F-2.499222353190515
sg125
F1.0
sg15
I551
sg126
g127
sbsI559
g0
(g118
g2
Ntp158
Rp159
(dp160
g122
g123
sg124
F-6.702082028687682
sg125
F1.0
sg15
I559
sg126
g127
sbsI712
g0
(g118
g2
Ntp161
Rp162
(dp163
g122
g123
sg124
F6.788059243919704
sg125
F1.0
sg15
I712
sg126
g127
sbsI521
g0
(g118
g2
Ntp164
Rp165
(dp166
g122
g123
sg124
F-2.2424721768554536
sg125
F1.0
sg15
I521
sg126
g127
sbsI694
g0
(g118
g2
Ntp167
Rp168
(dp169
g122
g123
sg124
F-1.16796948648747
sg125
F1.0
sg15
I694
sg126
g127
sbsI617
g0
(g118
g2
Ntp170
Rp171
(dp172
g122
g123
sg124
F6.050791500501311
sg125
F1.0
sg15
I617
sg126
g127
sbsI23
g0
(g118
g2
Ntp173
Rp174
(dp175
g122
g123
sg124
F4.845783429168403
sg125
F1.0
sg15
I23
sg126
g127
sbsI735
g0
(g118
g2
Ntp176
Rp177
(dp178
g122
g123
sg124
F-0.5697817240835771
sg125
F1.0
sg15
I735
sg126
g127
sbssg15
I35
sS'fitness'
p179
F0.12190497123731414
sb.