ccopy_reg
_reconstructor
p0
(cneat.genome
DefaultGenome
p1
c__builtin__
object
p2
Ntp3
Rp4
(dp5
S'connections'
p6
(dp7
(I-12
I45
tp8
g0
(cneat.genes
DefaultConnectionGene
p9
g2
Ntp10
Rp11
(dp12
S'enabled'
p13
I01
sS'weight'
p14
F-1.027953137796856
sS'key'
p15
g8
sbs(I45
I1
tp16
g0
(g9
g2
Ntp17
Rp18
(dp19
g13
I01
sg14
F-0.030616136449634526
sg15
g16
sbs(I-17
I45
tp20
g0
(g9
g2
Ntp21
Rp22
(dp23
g13
I01
sg14
F-0.027350678311699676
sg15
g20
sbs(I45
I5
tp24
g0
(g9
g2
Ntp25
Rp26
(dp27
g13
I01
sg14
F1.5790545195813424
sg15
g24
sbs(I-18
I45
tp28
g0
(g9
g2
Ntp29
Rp30
(dp31
g13
I01
sg14
F-1.020755216575418
sg15
g28
sbs(I-8
I45
tp32
g0
(g9
g2
Ntp33
Rp34
(dp35
g13
I01
sg14
F-1.0346107086543053
sg15
g32
sbs(I-3
I45
tp36
g0
(g9
g2
Ntp37
Rp38
(dp39
g13
I01
sg14
F0.14829785401302845
sg15
g36
sbs(I-2
I45
tp40
g0
(g9
g2
Ntp41
Rp42
(dp43
g13
I01
sg14
F-0.9438588277623
sg15
g40
sbs(I-13
I45
tp44
g0
(g9
g2
Ntp45
Rp46
(dp47
g13
I01
sg14
F-0.7592032085933997
sg15
g44
sbs(I45
I9
tp48
g0
(g9
g2
Ntp49
Rp50
(dp51
g13
I01
sg14
F0.7003573797712989
sg15
g48
sbs(I-1
I45
tp52
g0
(g9
g2
Ntp53
Rp54
(dp55
g13
I01
sg14
F-2.446308312070085
sg15
g52
sbs(I45
I4
tp56
g0
(g9
g2
Ntp57
Rp58
(dp59
g13
I01
sg14
F-1.7885978742938684
sg15
g56
sbs(I45
I0
tp60
g0
(g9
g2
Ntp61
Rp62
(dp63
g13
I01
sg14
F-2.2847304778174644
sg15
g60
sbs(I45
I8
tp64
g0
(g9
g2
Ntp65
Rp66
(dp67
g13
I01
sg14
F1.45689408722437
sg15
g64
sbs(I-4
I45
tp68
g0
(g9
g2
Ntp69
Rp70
(dp71
g13
I01
sg14
F-0.30041923502799717
sg15
g68
sbs(I-9
I45
tp72
g0
(g9
g2
Ntp73
Rp74
(dp75
g13
I01
sg14
F-0.4786355677892263
sg15
g72
sbs(I-14
I45
tp76
g0
(g9
g2
Ntp77
Rp78
(dp79
g13
I01
sg14
F-0.387424822676742
sg15
g76
sbs(I-19
I45
tp80
g0
(g9
g2
Ntp81
Rp82
(dp83
g13
I01
sg14
F0.1734325875082869
sg15
g80
sbs(I-10
I45
tp84
g0
(g9
g2
Ntp85
Rp86
(dp87
g13
I01
sg14
F-0.25828512544522225
sg15
g84
sbs(I45
I3
tp88
g0
(g9
g2
Ntp89
Rp90
(dp91
g13
I01
sg14
F-0.4510979246295526
sg15
g88
sbs(I-5
I45
tp92
g0
(g9
g2
Ntp93
Rp94
(dp95
g13
I01
sg14
F0.3440276656519234
sg15
g92
sbs(I45
I7
tp96
g0
(g9
g2
Ntp97
Rp98
(dp99
g13
I01
sg14
F1.3387242142854756
sg15
g96
sbs(I-15
I45
tp100
g0
(g9
g2
Ntp101
Rp102
(dp103
g13
I01
sg14
F0.32250963725517545
sg15
g100
sbs(I-6
I45
tp104
g0
(g9
g2
Ntp105
Rp106
(dp107
g13
I01
sg14
F0.15961471918025377
sg15
g104
sbs(I-11
I45
tp108
g0
(g9
g2
Ntp109
Rp110
(dp111
g13
I01
sg14
F1.2756512849014965
sg15
g108
sbs(I45
I2
tp112
g0
(g9
g2
Ntp113
Rp114
(dp115
g13
I01
sg14
F-1.0721619995736873
sg15
g112
sbs(I-20
I45
tp116
g0
(g9
g2
Ntp117
Rp118
(dp119
g13
I01
sg14
F0.09111124342153508
sg15
g116
sbs(I45
I6
tp120
g0
(g9
g2
Ntp121
Rp122
(dp123
g13
I01
sg14
F-0.9321133773545868
sg15
g120
sbs(I-7
I45
tp124
g0
(g9
g2
Ntp125
Rp126
(dp127
g13
I01
sg14
F0.7277382779370422
sg15
g124
sbs(I-16
I45
tp128
g0
(g9
g2
Ntp129
Rp130
(dp131
g13
I01
sg14
F-0.0006986527556185688
sg15
g128
sbssS'nodes'
p132
(dp133
I0
g0
(cneat.genes
DefaultNodeGene
p134
g2
Ntp135
Rp136
(dp137
S'activation'
p138
S'relu'
p139
sS'bias'
p140
F19.34266275628968
sS'response'
p141
F1.0
sg15
I0
sS'aggregation'
p142
S'sum'
p143
sbsI1
g0
(g134
g2
Ntp144
Rp145
(dp146
g138
g139
sg140
F14.592719539410082
sg141
F1.0
sg15
I1
sg142
g143
sbsI2
g0
(g134
g2
Ntp147
Rp148
(dp149
g138
g139
sg140
F-11.134787786015155
sg141
F1.0
sg15
I2
sg142
g143
sbsI3
g0
(g134
g2
Ntp150
Rp151
(dp152
g138
g139
sg140
F-2.9154802831768
sg141
F1.0
sg15
I3
sg142
g143
sbsI4
g0
(g134
g2
Ntp153
Rp154
(dp155
g138
g139
sg140
F9.079634606872402
sg141
F1.0
sg15
I4
sg142
g143
sbsI5
g0
(g134
g2
Ntp156
Rp157
(dp158
g138
g139
sg140
F-6.357628183494224
sg141
F1.0
sg15
I5
sg142
g143
sbsI6
g0
(g134
g2
Ntp159
Rp160
(dp161
g138
g139
sg140
F-0.9355788056353866
sg141
F1.0
sg15
I6
sg142
g143
sbsI7
g0
(g134
g2
Ntp162
Rp163
(dp164
g138
g139
sg140
F1.9623660449536002
sg141
F1.0
sg15
I7
sg142
g143
sbsI8
g0
(g134
g2
Ntp165
Rp166
(dp167
g138
g139
sg140
F-10.400836087420693
sg141
F1.0
sg15
I8
sg142
g143
sbsI9
g0
(g134
g2
Ntp168
Rp169
(dp170
g138
g139
sg140
F3.162008950491346
sg141
F1.0
sg15
I9
sg142
g143
sbsI45
g0
(g134
g2
Ntp171
Rp172
(dp173
g138
g139
sg140
F-9.385969275610414
sg141
F1.0
sg15
I45
sg142
g143
sbssg15
I36
sS'fitness'
p174
Nsb.