ccopy_reg
_reconstructor
p0
(cneat.genome
DefaultGenome
p1
c__builtin__
object
p2
Ntp3
Rp4
(dp5
S'connections'
p6
(dp7
(I-12
I45
tp8
g0
(cneat.genes
DefaultConnectionGene
p9
g2
Ntp10
Rp11
(dp12
S'enabled'
p13
I01
sS'weight'
p14
F-0.18635853158044074
sS'key'
p15
g8
sbs(I45
I1
tp16
g0
(g9
g2
Ntp17
Rp18
(dp19
g13
I01
sg14
F-0.4802876934192093
sg15
g16
sbs(I-17
I45
tp20
g0
(g9
g2
Ntp21
Rp22
(dp23
g13
I01
sg14
F-0.4506583316525627
sg15
g20
sbs(I45
I5
tp24
g0
(g9
g2
Ntp25
Rp26
(dp27
g13
I01
sg14
F1.2432836538941612
sg15
g24
sbs(I-18
I45
tp28
g0
(g9
g2
Ntp29
Rp30
(dp31
g13
I01
sg14
F-0.11466250413648094
sg15
g28
sbs(I-8
I45
tp32
g0
(g9
g2
Ntp33
Rp34
(dp35
g13
I01
sg14
F0.10186080391975677
sg15
g32
sbs(I-3
I45
tp36
g0
(g9
g2
Ntp37
Rp38
(dp39
g13
I01
sg14
F0.871493313086809
sg15
g36
sbs(I-2
I45
tp40
g0
(g9
g2
Ntp41
Rp42
(dp43
g13
I01
sg14
F-1.2643410787889273
sg15
g40
sbs(I-13
I45
tp44
g0
(g9
g2
Ntp45
Rp46
(dp47
g13
I01
sg14
F-0.25915888280707977
sg15
g44
sbs(I45
I9
tp48
g0
(g9
g2
Ntp49
Rp50
(dp51
g13
I01
sg14
F-0.3674947851519761
sg15
g48
sbs(I-1
I45
tp52
g0
(g9
g2
Ntp53
Rp54
(dp55
g13
I01
sg14
F-0.6944129760330751
sg15
g52
sbs(I45
I4
tp56
g0
(g9
g2
Ntp57
Rp58
(dp59
g13
I01
sg14
F-0.2922968325799226
sg15
g56
sbs(I45
I0
tp60
g0
(g9
g2
Ntp61
Rp62
(dp63
g13
I01
sg14
F-1.097768554658359
sg15
g60
sbs(I45
I8
tp64
g0
(g9
g2
Ntp65
Rp66
(dp67
g13
I01
sg14
F-1.5183752470571064
sg15
g64
sbs(I-4
I45
tp68
g0
(g9
g2
Ntp69
Rp70
(dp71
g13
I01
sg14
F0.6321128837746625
sg15
g68
sbs(I-9
I45
tp72
g0
(g9
g2
Ntp73
Rp74
(dp75
g13
I01
sg14
F0.9593623735291035
sg15
g72
sbs(I-14
I45
tp76
g0
(g9
g2
Ntp77
Rp78
(dp79
g13
I01
sg14
F1.565738775111342
sg15
g76
sbs(I-19
I45
tp80
g0
(g9
g2
Ntp81
Rp82
(dp83
g13
I01
sg14
F-0.9205498664269153
sg15
g80
sbs(I-10
I45
tp84
g0
(g9
g2
Ntp85
Rp86
(dp87
g13
I01
sg14
F-0.6060978907081574
sg15
g84
sbs(I45
I3
tp88
g0
(g9
g2
Ntp89
Rp90
(dp91
g13
I01
sg14
F0.6489227117160427
sg15
g88
sbs(I-5
I45
tp92
g0
(g9
g2
Ntp93
Rp94
(dp95
g13
I01
sg14
F0.9614991981391902
sg15
g92
sbs(I45
I7
tp96
g0
(g9
g2
Ntp97
Rp98
(dp99
g13
I01
sg14
F0.7704159144025202
sg15
g96
sbs(I-15
I45
tp100
g0
(g9
g2
Ntp101
Rp102
(dp103
g13
I01
sg14
F-0.14454502236368658
sg15
g100
sbs(I-6
I45
tp104
g0
(g9
g2
Ntp105
Rp106
(dp107
g13
I01
sg14
F-1.0093114843998767
sg15
g104
sbs(I-11
I45
tp108
g0
(g9
g2
Ntp109
Rp110
(dp111
g13
I01
sg14
F0.7003817882907998
sg15
g108
sbs(I45
I2
tp112
g0
(g9
g2
Ntp113
Rp114
(dp115
g13
I01
sg14
F1.4147128481530582
sg15
g112
sbs(I-20
I45
tp116
g0
(g9
g2
Ntp117
Rp118
(dp119
g13
I01
sg14
F1.638721641774405
sg15
g116
sbs(I45
I6
tp120
g0
(g9
g2
Ntp121
Rp122
(dp123
g13
I01
sg14
F-0.4533550964179268
sg15
g120
sbs(I-7
I45
tp124
g0
(g9
g2
Ntp125
Rp126
(dp127
g13
I01
sg14
F-1.236803062729151
sg15
g124
sbs(I-16
I45
tp128
g0
(g9
g2
Ntp129
Rp130
(dp131
g13
I01
sg14
F-1.2423949589767578
sg15
g128
sbssS'nodes'
p132
(dp133
I0
g0
(cneat.genes
DefaultNodeGene
p134
g2
Ntp135
Rp136
(dp137
S'activation'
p138
S'relu'
p139
sS'bias'
p140
F-1.9164966715896203
sS'response'
p141
F1.0
sg15
I0
sS'aggregation'
p142
S'sum'
p143
sbsI1
g0
(g134
g2
Ntp144
Rp145
(dp146
g138
g139
sg140
F-11.58533138884499
sg141
F1.0
sg15
I1
sg142
g143
sbsI2
g0
(g134
g2
Ntp147
Rp148
(dp149
g138
g139
sg140
F6.480108568891793
sg141
F1.0
sg15
I2
sg142
g143
sbsI3
g0
(g134
g2
Ntp150
Rp151
(dp152
g138
g139
sg140
F2.680673103367566
sg141
F1.0
sg15
I3
sg142
g143
sbsI4
g0
(g134
g2
Ntp153
Rp154
(dp155
g138
g139
sg140
F-12.245995869937563
sg141
F1.0
sg15
I4
sg142
g143
sbsI5
g0
(g134
g2
Ntp156
Rp157
(dp158
g138
g139
sg140
F1.6476491566287585
sg141
F1.0
sg15
I5
sg142
g143
sbsI6
g0
(g134
g2
Ntp159
Rp160
(dp161
g138
g139
sg140
F2.981358436804378
sg141
F1.0
sg15
I6
sg142
g143
sbsI7
g0
(g134
g2
Ntp162
Rp163
(dp164
g138
g139
sg140
F-12.316311469777402
sg141
F1.0
sg15
I7
sg142
g143
sbsI8
g0
(g134
g2
Ntp165
Rp166
(dp167
g138
g139
sg140
F3.3573147901523366
sg141
F1.0
sg15
I8
sg142
g143
sbsI9
g0
(g134
g2
Ntp168
Rp169
(dp170
g138
g139
sg140
F-10.94032311279217
sg141
F1.0
sg15
I9
sg142
g143
sbsI45
g0
(g134
g2
Ntp171
Rp172
(dp173
g138
g139
sg140
F15.296857874304791
sg141
F1.0
sg15
I45
sg142
g143
sbssg15
I36
sS'fitness'
p174
F0.04268430284742017
sb.