ccopy_reg
_reconstructor
p0
(cneat.genome
DefaultGenome
p1
c__builtin__
object
p2
Ntp3
Rp4
(dp5
S'connections'
p6
(dp7
(I-6
I46
tp8
g0
(cneat.genes
DefaultConnectionGene
p9
g2
Ntp10
Rp11
(dp12
S'enabled'
p13
I01
sS'weight'
p14
F0.8231189671840002
sS'key'
p15
g8
sbs(I-20
I46
tp16
g0
(g9
g2
Ntp17
Rp18
(dp19
g13
I01
sg14
F-1.0167467806977522
sg15
g16
sbs(I46
I7
tp20
g0
(g9
g2
Ntp21
Rp22
(dp23
g13
I01
sg14
F-2.5278181033902962
sg15
g20
sbs(I-9
I46
tp24
g0
(g9
g2
Ntp25
Rp26
(dp27
g13
I01
sg14
F0.8138620281793947
sg15
g24
sbs(I46
I3
tp28
g0
(g9
g2
Ntp29
Rp30
(dp31
g13
I01
sg14
F-0.47471628879078454
sg15
g28
sbs(I-16
I46
tp32
g0
(g9
g2
Ntp33
Rp34
(dp35
g13
I01
sg14
F1.1290166217239312
sg15
g32
sbs(I46
I6
tp36
g0
(g9
g2
Ntp37
Rp38
(dp39
g13
I01
sg14
F-2.2814961394503124
sg15
g36
sbs(I-12
I46
tp40
g0
(g9
g2
Ntp41
Rp42
(dp43
g13
I01
sg14
F-0.8193581766753273
sg15
g40
sbs(I-5
I46
tp44
g0
(g9
g2
Ntp45
Rp46
(dp47
g13
I01
sg14
F-0.903207410257717
sg15
g44
sbs(I-19
I46
tp48
g0
(g9
g2
Ntp49
Rp50
(dp51
g13
I01
sg14
F-0.1743366349171271
sg15
g48
sbs(I46
I4
tp52
g0
(g9
g2
Ntp53
Rp54
(dp55
g13
I01
sg14
F0.5765827544635026
sg15
g52
sbs(I-1
I46
tp56
g0
(g9
g2
Ntp57
Rp58
(dp59
g13
I01
sg14
F-1.1869177766984644
sg15
g56
sbs(I46
I8
tp60
g0
(g9
g2
Ntp61
Rp62
(dp63
g13
I01
sg14
F-2.121910592895619
sg15
g60
sbs(I-8
I46
tp64
g0
(g9
g2
Ntp65
Rp66
(dp67
g13
I01
sg14
F1.3173197790012299
sg15
g64
sbs(I46
I0
tp68
g0
(g9
g2
Ntp69
Rp70
(dp71
g13
I01
sg14
F0.6719501882950788
sg15
g68
sbs(I-18
I46
tp72
g0
(g9
g2
Ntp73
Rp74
(dp75
g13
I01
sg14
F-0.9574577677847687
sg15
g72
sbs(I46
I9
tp76
g0
(g9
g2
Ntp77
Rp78
(dp79
g13
I01
sg14
F1.0742229472202482
sg15
g76
sbs(I-15
I46
tp80
g0
(g9
g2
Ntp81
Rp82
(dp83
g13
I01
sg14
F-0.9045970403930548
sg15
g80
sbs(I-11
I46
tp84
g0
(g9
g2
Ntp85
Rp86
(dp87
g13
I01
sg14
F0.015503417074600154
sg15
g84
sbs(I46
I5
tp88
g0
(g9
g2
Ntp89
Rp90
(dp91
g13
I01
sg14
F-1.2281130449813873
sg15
g88
sbs(I-2
I46
tp92
g0
(g9
g2
Ntp93
Rp94
(dp95
g13
I01
sg14
F0.6171320306062957
sg15
g92
sbs(I46
I1
tp96
g0
(g9
g2
Ntp97
Rp98
(dp99
g13
I01
sg14
F-1.6510549822229317
sg15
g96
sbs(I-7
I46
tp100
g0
(g9
g2
Ntp101
Rp102
(dp103
g13
I01
sg14
F-1.0068906311361785
sg15
g100
sbs(I-4
I46
tp104
g0
(g9
g2
Ntp105
Rp106
(dp107
g13
I01
sg14
F-0.1022638582548224
sg15
g104
sbs(I-17
I46
tp108
g0
(g9
g2
Ntp109
Rp110
(dp111
g13
I01
sg14
F-1.491873852899627
sg15
g108
sbs(I-14
I46
tp112
g0
(g9
g2
Ntp113
Rp114
(dp115
g13
I01
sg14
F0.16536976843389914
sg15
g112
sbs(I-13
I46
tp116
g0
(g9
g2
Ntp117
Rp118
(dp119
g13
I01
sg14
F0.6547733651491684
sg15
g116
sbs(I-10
I46
tp120
g0
(g9
g2
Ntp121
Rp122
(dp123
g13
I01
sg14
F1.8014899339705293
sg15
g120
sbs(I-3
I46
tp124
g0
(g9
g2
Ntp125
Rp126
(dp127
g13
I01
sg14
F-0.32711500992113174
sg15
g124
sbs(I46
I2
tp128
g0
(g9
g2
Ntp129
Rp130
(dp131
g13
I01
sg14
F0.5323747878925894
sg15
g128
sbssS'nodes'
p132
(dp133
I0
g0
(cneat.genes
DefaultNodeGene
p134
g2
Ntp135
Rp136
(dp137
S'activation'
p138
S'relu'
p139
sS'bias'
p140
F-2.181058503823602
sS'response'
p141
F1.0
sg15
I0
sS'aggregation'
p142
S'sum'
p143
sbsI1
g0
(g134
g2
Ntp144
Rp145
(dp146
g138
g139
sg140
F-0.34551317553531513
sg141
F1.0
sg15
I1
sg142
g143
sbsI2
g0
(g134
g2
Ntp147
Rp148
(dp149
g138
g139
sg140
F4.262647157724306
sg141
F1.0
sg15
I2
sg142
g143
sbsI3
g0
(g134
g2
Ntp150
Rp151
(dp152
g138
g139
sg140
F11.107773391227765
sg141
F1.0
sg15
I3
sg142
g143
sbsI4
g0
(g134
g2
Ntp153
Rp154
(dp155
g138
g139
sg140
F18.540459995506552
sg141
F1.0
sg15
I4
sg142
g143
sbsI5
g0
(g134
g2
Ntp156
Rp157
(dp158
g138
g139
sg140
F13.153946095574984
sg141
F1.0
sg15
I5
sg142
g143
sbsI6
g0
(g134
g2
Ntp159
Rp160
(dp161
g138
g139
sg140
F-13.456918178943397
sg141
F1.0
sg15
I6
sg142
g143
sbsI7
g0
(g134
g2
Ntp162
Rp163
(dp164
g138
g139
sg140
F5.532759346565415
sg141
F1.0
sg15
I7
sg142
g143
sbsI8
g0
(g134
g2
Ntp165
Rp166
(dp167
g138
g139
sg140
F-9.240857990980103
sg141
F1.0
sg15
I8
sg142
g143
sbsI9
g0
(g134
g2
Ntp168
Rp169
(dp170
g138
g139
sg140
F-14.210023964258191
sg141
F1.0
sg15
I9
sg142
g143
sbsI46
g0
(g134
g2
Ntp171
Rp172
(dp173
g138
g139
sg140
F-3.6937755905270606
sg141
F1.0
sg15
I46
sg142
g143
sbssg15
I37
sS'fitness'
p174
F0.052742427591975366
sb.