ccopy_reg
_reconstructor
p0
(cneat.genome
DefaultGenome
p1
c__builtin__
object
p2
Ntp3
Rp4
(dp5
S'connections'
p6
(dp7
(I-8
I327
tp8
g0
(cneat.genes
DefaultConnectionGene
p9
g2
Ntp10
Rp11
(dp12
S'enabled'
p13
I00
sS'weight'
p14
F0.051694103338141326
sS'key'
p15
g8
sbs(I327
I9
tp16
g0
(g9
g2
Ntp17
Rp18
(dp19
g13
I01
sg14
F0.46696592479900007
sg15
g16
sbs(I327
I4
tp20
g0
(g9
g2
Ntp21
Rp22
(dp23
g13
I01
sg14
F1.5138518977433144
sg15
g20
sbs(I3
I3
tp24
g0
(g9
g2
Ntp25
Rp26
(dp27
g13
I00
sg14
F-1.5905856252968011
sg15
g24
sbs(I2
I2
tp28
g0
(g9
g2
Ntp29
Rp30
(dp31
g13
I01
sg14
F0.7824910763931083
sg15
g28
sbs(I327
I8
tp32
g0
(g9
g2
Ntp33
Rp34
(dp35
g13
I01
sg14
F-2.2087426075856964
sg15
g32
sbs(I1
I1
tp36
g0
(g9
g2
Ntp37
Rp38
(dp39
g13
I01
sg14
F1.420532265947996
sg15
g36
sbs(I327
I3
tp40
g0
(g9
g2
Ntp41
Rp42
(dp43
g13
I01
sg14
F3.306190562925326
sg15
g40
sbs(I0
I0
tp44
g0
(g9
g2
Ntp45
Rp46
(dp47
g13
I01
sg14
F-1.5951729182068555
sg15
g44
sbs(I327
I7
tp48
g0
(g9
g2
Ntp49
Rp50
(dp51
g13
I01
sg14
F1.5658017335515373
sg15
g48
sbs(I-10
I327
tp52
g0
(g9
g2
Ntp53
Rp54
(dp55
g13
I01
sg14
F1.7205369693387405
sg15
g52
sbs(I327
I2
tp56
g0
(g9
g2
Ntp57
Rp58
(dp59
g13
I01
sg14
F-0.6225578641106235
sg15
g56
sbs(I-3
I327
tp60
g0
(g9
g2
Ntp61
Rp62
(dp63
g13
I01
sg14
F-0.5827005275002125
sg15
g60
sbs(I-9
I327
tp64
g0
(g9
g2
Ntp65
Rp66
(dp67
g13
I01
sg14
F0.2171022151687499
sg15
g64
sbs(I8
I8
tp68
g0
(g9
g2
Ntp69
Rp70
(dp71
g13
I01
sg14
F1.7753453419077867
sg15
g68
sbs(I-4
I327
tp72
g0
(g9
g2
Ntp73
Rp74
(dp75
g13
I01
sg14
F-1.5557774491471985
sg15
g72
sbssS'nodes'
p76
(dp77
I0
g0
(cneat.genes
DefaultNodeGene
p78
g2
Ntp79
Rp80
(dp81
S'activation'
p82
S'tanh'
p83
sS'bias'
p84
F-0.7878599093677826
sS'response'
p85
F1.0
sg15
I0
sS'aggregation'
p86
S'sum'
p87
sbsI1
g0
(g78
g2
Ntp88
Rp89
(dp90
g82
g83
sg84
F-6.882751399574142
sg85
F1.0
sg15
I1
sg86
g87
sbsI2
g0
(g78
g2
Ntp91
Rp92
(dp93
g82
g83
sg84
F-3.9811641191463556
sg85
F1.0
sg15
I2
sg86
g87
sbsI3
g0
(g78
g2
Ntp94
Rp95
(dp96
g82
g83
sg84
F5.31224660151111
sg85
F1.0
sg15
I3
sg86
g87
sbsI4
g0
(g78
g2
Ntp97
Rp98
(dp99
g82
g83
sg84
F3.9580922061969614
sg85
F1.0
sg15
I4
sg86
g87
sbsI5
g0
(g78
g2
Ntp100
Rp101
(dp102
g82
g83
sg84
F-0.37880589818666843
sg85
F1.0
sg15
I5
sg86
g87
sbsI6
g0
(g78
g2
Ntp103
Rp104
(dp105
g82
g83
sg84
F-7.157687770657054
sg85
F1.0
sg15
I6
sg86
g87
sbsI7
g0
(g78
g2
Ntp106
Rp107
(dp108
g82
S'relu'
p109
sg84
F-9.147555975061728
sg85
F1.0
sg15
I7
sg86
g87
sbsI8
g0
(g78
g2
Ntp110
Rp111
(dp112
g82
g83
sg84
F-5.05372219026204
sg85
F1.0
sg15
I8
sg86
g87
sbsI9
g0
(g78
g2
Ntp113
Rp114
(dp115
g82
g83
sg84
F3.25275719062276
sg85
F1.0
sg15
I9
sg86
g87
sbsI327
g0
(g78
g2
Ntp116
Rp117
(dp118
g82
g83
sg84
F-5.331341355736217
sg85
F1.0
sg15
I327
sg86
g87
sbssg15
I37
sS'fitness'
p119
Nsb.