ccopy_reg
_reconstructor
p0
(cneat.genome
DefaultGenome
p1
c__builtin__
object
p2
Ntp3
Rp4
(dp5
S'connections'
p6
(dp7
(I-6
I46
tp8
g0
(cneat.genes
DefaultConnectionGene
p9
g2
Ntp10
Rp11
(dp12
S'enabled'
p13
I01
sS'weight'
p14
F-0.3733493647271192
sS'key'
p15
g8
sbs(I-20
I46
tp16
g0
(g9
g2
Ntp17
Rp18
(dp19
g13
I01
sg14
F-1.1291282277564862
sg15
g16
sbs(I46
I7
tp20
g0
(g9
g2
Ntp21
Rp22
(dp23
g13
I01
sg14
F0.3298843939491093
sg15
g20
sbs(I-9
I46
tp24
g0
(g9
g2
Ntp25
Rp26
(dp27
g13
I01
sg14
F-0.49890159011861546
sg15
g24
sbs(I46
I3
tp28
g0
(g9
g2
Ntp29
Rp30
(dp31
g13
I01
sg14
F-2.2472961438851233
sg15
g28
sbs(I-16
I46
tp32
g0
(g9
g2
Ntp33
Rp34
(dp35
g13
I01
sg14
F-0.3193696272324388
sg15
g32
sbs(I46
I6
tp36
g0
(g9
g2
Ntp37
Rp38
(dp39
g13
I01
sg14
F-0.2888355831687593
sg15
g36
sbs(I-12
I46
tp40
g0
(g9
g2
Ntp41
Rp42
(dp43
g13
I01
sg14
F1.22359727510736
sg15
g40
sbs(I-5
I46
tp44
g0
(g9
g2
Ntp45
Rp46
(dp47
g13
I01
sg14
F-1.2245235540299537
sg15
g44
sbs(I-19
I46
tp48
g0
(g9
g2
Ntp49
Rp50
(dp51
g13
I01
sg14
F-0.8361842166607265
sg15
g48
sbs(I46
I4
tp52
g0
(g9
g2
Ntp53
Rp54
(dp55
g13
I01
sg14
F1.5689176293115055
sg15
g52
sbs(I-1
I46
tp56
g0
(g9
g2
Ntp57
Rp58
(dp59
g13
I01
sg14
F-0.7427112800502944
sg15
g56
sbs(I46
I8
tp60
g0
(g9
g2
Ntp61
Rp62
(dp63
g13
I01
sg14
F0.23420907405151695
sg15
g60
sbs(I-8
I46
tp64
g0
(g9
g2
Ntp65
Rp66
(dp67
g13
I01
sg14
F-0.948488771823902
sg15
g64
sbs(I46
I0
tp68
g0
(g9
g2
Ntp69
Rp70
(dp71
g13
I01
sg14
F0.9290666170163424
sg15
g68
sbs(I-18
I46
tp72
g0
(g9
g2
Ntp73
Rp74
(dp75
g13
I01
sg14
F1.644176088896468
sg15
g72
sbs(I46
I9
tp76
g0
(g9
g2
Ntp77
Rp78
(dp79
g13
I01
sg14
F0.9504343993901911
sg15
g76
sbs(I-15
I46
tp80
g0
(g9
g2
Ntp81
Rp82
(dp83
g13
I01
sg14
F0.409061002881058
sg15
g80
sbs(I-11
I46
tp84
g0
(g9
g2
Ntp85
Rp86
(dp87
g13
I01
sg14
F0.44976100992095963
sg15
g84
sbs(I46
I5
tp88
g0
(g9
g2
Ntp89
Rp90
(dp91
g13
I01
sg14
F0.6673365308866683
sg15
g88
sbs(I-2
I46
tp92
g0
(g9
g2
Ntp93
Rp94
(dp95
g13
I01
sg14
F0.26754781572550135
sg15
g92
sbs(I46
I1
tp96
g0
(g9
g2
Ntp97
Rp98
(dp99
g13
I01
sg14
F0.5440451628433848
sg15
g96
sbs(I-7
I46
tp100
g0
(g9
g2
Ntp101
Rp102
(dp103
g13
I01
sg14
F-1.3069084735078242
sg15
g100
sbs(I-4
I46
tp104
g0
(g9
g2
Ntp105
Rp106
(dp107
g13
I01
sg14
F-0.40943526096473165
sg15
g104
sbs(I-17
I46
tp108
g0
(g9
g2
Ntp109
Rp110
(dp111
g13
I01
sg14
F-0.18208115287526402
sg15
g108
sbs(I-14
I46
tp112
g0
(g9
g2
Ntp113
Rp114
(dp115
g13
I01
sg14
F0.21804402327467462
sg15
g112
sbs(I-13
I46
tp116
g0
(g9
g2
Ntp117
Rp118
(dp119
g13
I01
sg14
F0.09296304679257894
sg15
g116
sbs(I-10
I46
tp120
g0
(g9
g2
Ntp121
Rp122
(dp123
g13
I01
sg14
F-0.11871965339163573
sg15
g120
sbs(I-3
I46
tp124
g0
(g9
g2
Ntp125
Rp126
(dp127
g13
I01
sg14
F-0.30003769791550444
sg15
g124
sbs(I46
I2
tp128
g0
(g9
g2
Ntp129
Rp130
(dp131
g13
I01
sg14
F-0.8387152922741203
sg15
g128
sbssS'nodes'
p132
(dp133
I0
g0
(cneat.genes
DefaultNodeGene
p134
g2
Ntp135
Rp136
(dp137
S'activation'
p138
S'relu'
p139
sS'bias'
p140
F-2.3416188346694797
sS'response'
p141
F1.0
sg15
I0
sS'aggregation'
p142
S'sum'
p143
sbsI1
g0
(g134
g2
Ntp144
Rp145
(dp146
g138
g139
sg140
F29.35559774191667
sg141
F1.0
sg15
I1
sg142
g143
sbsI2
g0
(g134
g2
Ntp147
Rp148
(dp149
g138
g139
sg140
F-9.214586660979855
sg141
F1.0
sg15
I2
sg142
g143
sbsI3
g0
(g134
g2
Ntp150
Rp151
(dp152
g138
g139
sg140
F-11.738063527933262
sg141
F1.0
sg15
I3
sg142
g143
sbsI4
g0
(g134
g2
Ntp153
Rp154
(dp155
g138
g139
sg140
F6.847242165143622
sg141
F1.0
sg15
I4
sg142
g143
sbsI5
g0
(g134
g2
Ntp156
Rp157
(dp158
g138
g139
sg140
F12.615276756951186
sg141
F1.0
sg15
I5
sg142
g143
sbsI6
g0
(g134
g2
Ntp159
Rp160
(dp161
g138
g139
sg140
F-8.354752393786843
sg141
F1.0
sg15
I6
sg142
g143
sbsI7
g0
(g134
g2
Ntp162
Rp163
(dp164
g138
g139
sg140
F2.9963748367213086
sg141
F1.0
sg15
I7
sg142
g143
sbsI8
g0
(g134
g2
Ntp165
Rp166
(dp167
g138
g139
sg140
F-10.527392711015295
sg141
F1.0
sg15
I8
sg142
g143
sbsI9
g0
(g134
g2
Ntp168
Rp169
(dp170
g138
g139
sg140
F-6.5982948201405005
sg141
F1.0
sg15
I9
sg142
g143
sbsI46
g0
(g134
g2
Ntp171
Rp172
(dp173
g138
g139
sg140
F-10.259983705475266
sg141
F1.0
sg15
I46
sg142
g143
sbssg15
I37
sS'fitness'
p174
Nsb.