ccopy_reg
_reconstructor
p0
(cneat.genome
DefaultGenome
p1
c__builtin__
object
p2
Ntp3
Rp4
(dp5
S'connections'
p6
(dp7
(I47
I2
tp8
g0
(cneat.genes
DefaultConnectionGene
p9
g2
Ntp10
Rp11
(dp12
S'enabled'
p13
I01
sS'weight'
p14
F0.9123681013112964
sS'key'
p15
g8
sbs(I-14
I47
tp16
g0
(g9
g2
Ntp17
Rp18
(dp19
g13
I01
sg14
F0.9673259348233627
sg15
g16
sbs(I-5
I47
tp20
g0
(g9
g2
Ntp21
Rp22
(dp23
g13
I01
sg14
F0.7155880476022475
sg15
g20
sbs(I-19
I47
tp24
g0
(g9
g2
Ntp25
Rp26
(dp27
g13
I01
sg14
F-0.2683980948062139
sg15
g24
sbs(I-10
I47
tp28
g0
(g9
g2
Ntp29
Rp30
(dp31
g13
I01
sg14
F-0.609698669982249
sg15
g28
sbs(I47
I6
tp32
g0
(g9
g2
Ntp33
Rp34
(dp35
g13
I01
sg14
F1.286763348784537
sg15
g32
sbs(I47
I9
tp36
g0
(g9
g2
Ntp37
Rp38
(dp39
g13
I01
sg14
F0.20445835834519915
sg15
g36
sbs(I-15
I47
tp40
g0
(g9
g2
Ntp41
Rp42
(dp43
g13
I01
sg14
F0.06744433700272134
sg15
g40
sbs(I-6
I47
tp44
g0
(g9
g2
Ntp45
Rp46
(dp47
g13
I01
sg14
F-0.03817684574136691
sg15
g44
sbs(I-20
I47
tp48
g0
(g9
g2
Ntp49
Rp50
(dp51
g13
I01
sg14
F0.6428246359720189
sg15
g48
sbs(I-11
I47
tp52
g0
(g9
g2
Ntp53
Rp54
(dp55
g13
I01
sg14
F0.2958906834147989
sg15
g52
sbs(I47
I1
tp56
g0
(g9
g2
Ntp57
Rp58
(dp59
g13
I01
sg14
F-0.5516321369277413
sg15
g56
sbs(I47
I8
tp60
g0
(g9
g2
Ntp61
Rp62
(dp63
g13
I01
sg14
F0.16943187951330807
sg15
g60
sbs(I-16
I47
tp64
g0
(g9
g2
Ntp65
Rp66
(dp67
g13
I01
sg14
F1.3582176685638796
sg15
g64
sbs(I-7
I47
tp68
g0
(g9
g2
Ntp69
Rp70
(dp71
g13
I01
sg14
F0.5385840747975584
sg15
g68
sbs(I-12
I47
tp72
g0
(g9
g2
Ntp73
Rp74
(dp75
g13
I01
sg14
F0.5809478980418348
sg15
g72
sbs(I47
I5
tp76
g0
(g9
g2
Ntp77
Rp78
(dp79
g13
I01
sg14
F-0.9862881868725731
sg15
g76
sbs(I-17
I47
tp80
g0
(g9
g2
Ntp81
Rp82
(dp83
g13
I01
sg14
F1.6430770366281535
sg15
g80
sbs(I47
I7
tp84
g0
(g9
g2
Ntp85
Rp86
(dp87
g13
I01
sg14
F2.0153589283770796
sg15
g84
sbs(I47
I0
tp88
g0
(g9
g2
Ntp89
Rp90
(dp91
g13
I01
sg14
F0.6373248424836124
sg15
g88
sbs(I-8
I47
tp92
g0
(g9
g2
Ntp93
Rp94
(dp95
g13
I01
sg14
F0.7723020576460555
sg15
g92
sbs(I-13
I47
tp96
g0
(g9
g2
Ntp97
Rp98
(dp99
g13
I01
sg14
F0.639799831425082
sg15
g96
sbs(I-18
I47
tp100
g0
(g9
g2
Ntp101
Rp102
(dp103
g13
I01
sg14
F0.4607469630533171
sg15
g100
sbs(I47
I4
tp104
g0
(g9
g2
Ntp105
Rp106
(dp107
g13
I01
sg14
F0.09179477715887914
sg15
g104
sbs(I-1
I47
tp108
g0
(g9
g2
Ntp109
Rp110
(dp111
g13
I01
sg14
F-0.37312974136702887
sg15
g108
sbs(I-3
I47
tp112
g0
(g9
g2
Ntp113
Rp114
(dp115
g13
I01
sg14
F-1.2122593614234274
sg15
g112
sbs(I-2
I47
tp116
g0
(g9
g2
Ntp117
Rp118
(dp119
g13
I01
sg14
F-0.1422141085528332
sg15
g116
sbs(I47
I3
tp120
g0
(g9
g2
Ntp121
Rp122
(dp123
g13
I01
sg14
F0.11640023862104155
sg15
g120
sbs(I-4
I47
tp124
g0
(g9
g2
Ntp125
Rp126
(dp127
g13
I01
sg14
F1.8807703357419283
sg15
g124
sbs(I-9
I47
tp128
g0
(g9
g2
Ntp129
Rp130
(dp131
g13
I01
sg14
F1.092564092884218
sg15
g128
sbssS'nodes'
p132
(dp133
I0
g0
(cneat.genes
DefaultNodeGene
p134
g2
Ntp135
Rp136
(dp137
S'activation'
p138
S'relu'
p139
sS'bias'
p140
F-9.567308502689933
sS'response'
p141
F1.0
sg15
I0
sS'aggregation'
p142
S'sum'
p143
sbsI1
g0
(g134
g2
Ntp144
Rp145
(dp146
g138
g139
sg140
F-21.394778752137334
sg141
F1.0
sg15
I1
sg142
g143
sbsI2
g0
(g134
g2
Ntp147
Rp148
(dp149
g138
g139
sg140
F-4.07057086715035
sg141
F1.0
sg15
I2
sg142
g143
sbsI3
g0
(g134
g2
Ntp150
Rp151
(dp152
g138
g139
sg140
F10.967764915767706
sg141
F1.0
sg15
I3
sg142
g143
sbsI4
g0
(g134
g2
Ntp153
Rp154
(dp155
g138
g139
sg140
F-6.781262312796448
sg141
F1.0
sg15
I4
sg142
g143
sbsI5
g0
(g134
g2
Ntp156
Rp157
(dp158
g138
g139
sg140
F-12.679638984820478
sg141
F1.0
sg15
I5
sg142
g143
sbsI6
g0
(g134
g2
Ntp159
Rp160
(dp161
g138
g139
sg140
F-19.659479951262743
sg141
F1.0
sg15
I6
sg142
g143
sbsI7
g0
(g134
g2
Ntp162
Rp163
(dp164
g138
g139
sg140
F13.270715910344464
sg141
F1.0
sg15
I7
sg142
g143
sbsI8
g0
(g134
g2
Ntp165
Rp166
(dp167
g138
g139
sg140
F-5.31353405116484
sg141
F1.0
sg15
I8
sg142
g143
sbsI9
g0
(g134
g2
Ntp168
Rp169
(dp170
g138
g139
sg140
F1.7614131629077858
sg141
F1.0
sg15
I9
sg142
g143
sbsI47
g0
(g134
g2
Ntp171
Rp172
(dp173
g138
g139
sg140
F-1.0455002946053975
sg141
F1.0
sg15
I47
sg142
g143
sbssg15
I38
sS'fitness'
p174
F0.04212088452343248
sb.