ccopy_reg
_reconstructor
p0
(cneat.genome
DefaultGenome
p1
c__builtin__
object
p2
Ntp3
Rp4
(dp5
S'connections'
p6
(dp7
(I47
I2
tp8
g0
(cneat.genes
DefaultConnectionGene
p9
g2
Ntp10
Rp11
(dp12
S'enabled'
p13
I01
sS'weight'
p14
F0.13563315397128745
sS'key'
p15
g8
sbs(I-14
I47
tp16
g0
(g9
g2
Ntp17
Rp18
(dp19
g13
I01
sg14
F0.7665690485377369
sg15
g16
sbs(I-5
I47
tp20
g0
(g9
g2
Ntp21
Rp22
(dp23
g13
I01
sg14
F2.025088139021616
sg15
g20
sbs(I-19
I47
tp24
g0
(g9
g2
Ntp25
Rp26
(dp27
g13
I01
sg14
F0.44350851625283927
sg15
g24
sbs(I-10
I47
tp28
g0
(g9
g2
Ntp29
Rp30
(dp31
g13
I01
sg14
F0.44365271337886214
sg15
g28
sbs(I47
I6
tp32
g0
(g9
g2
Ntp33
Rp34
(dp35
g13
I01
sg14
F-0.22022480286017507
sg15
g32
sbs(I47
I9
tp36
g0
(g9
g2
Ntp37
Rp38
(dp39
g13
I01
sg14
F0.09744893198338345
sg15
g36
sbs(I-15
I47
tp40
g0
(g9
g2
Ntp41
Rp42
(dp43
g13
I01
sg14
F0.22930340168331878
sg15
g40
sbs(I-6
I47
tp44
g0
(g9
g2
Ntp45
Rp46
(dp47
g13
I01
sg14
F1.7578758819063847
sg15
g44
sbs(I-20
I47
tp48
g0
(g9
g2
Ntp49
Rp50
(dp51
g13
I01
sg14
F-0.026841729488588973
sg15
g48
sbs(I-11
I47
tp52
g0
(g9
g2
Ntp53
Rp54
(dp55
g13
I01
sg14
F1.3564547024836349
sg15
g52
sbs(I47
I1
tp56
g0
(g9
g2
Ntp57
Rp58
(dp59
g13
I01
sg14
F1.1188932753645224
sg15
g56
sbs(I47
I8
tp60
g0
(g9
g2
Ntp61
Rp62
(dp63
g13
I01
sg14
F-1.2844240756718435
sg15
g60
sbs(I-16
I47
tp64
g0
(g9
g2
Ntp65
Rp66
(dp67
g13
I01
sg14
F0.8719526843803853
sg15
g64
sbs(I-7
I47
tp68
g0
(g9
g2
Ntp69
Rp70
(dp71
g13
I01
sg14
F0.46547008150914043
sg15
g68
sbs(I-12
I47
tp72
g0
(g9
g2
Ntp73
Rp74
(dp75
g13
I01
sg14
F-0.8726219794504262
sg15
g72
sbs(I47
I5
tp76
g0
(g9
g2
Ntp77
Rp78
(dp79
g13
I01
sg14
F0.8847192376988651
sg15
g76
sbs(I-17
I47
tp80
g0
(g9
g2
Ntp81
Rp82
(dp83
g13
I01
sg14
F-0.14686240609156379
sg15
g80
sbs(I47
I7
tp84
g0
(g9
g2
Ntp85
Rp86
(dp87
g13
I01
sg14
F-0.39345848650100695
sg15
g84
sbs(I47
I0
tp88
g0
(g9
g2
Ntp89
Rp90
(dp91
g13
I01
sg14
F-0.16332610221214441
sg15
g88
sbs(I-8
I47
tp92
g0
(g9
g2
Ntp93
Rp94
(dp95
g13
I01
sg14
F-0.21621950779959428
sg15
g92
sbs(I-13
I47
tp96
g0
(g9
g2
Ntp97
Rp98
(dp99
g13
I01
sg14
F0.854206620212325
sg15
g96
sbs(I-18
I47
tp100
g0
(g9
g2
Ntp101
Rp102
(dp103
g13
I01
sg14
F-0.5405280670114185
sg15
g100
sbs(I47
I4
tp104
g0
(g9
g2
Ntp105
Rp106
(dp107
g13
I01
sg14
F0.030938156462354555
sg15
g104
sbs(I-1
I47
tp108
g0
(g9
g2
Ntp109
Rp110
(dp111
g13
I01
sg14
F0.0664092065206666
sg15
g108
sbs(I-3
I47
tp112
g0
(g9
g2
Ntp113
Rp114
(dp115
g13
I01
sg14
F0.46516615715281445
sg15
g112
sbs(I-2
I47
tp116
g0
(g9
g2
Ntp117
Rp118
(dp119
g13
I01
sg14
F-0.6407042764599375
sg15
g116
sbs(I47
I3
tp120
g0
(g9
g2
Ntp121
Rp122
(dp123
g13
I01
sg14
F-0.1942884831070724
sg15
g120
sbs(I-4
I47
tp124
g0
(g9
g2
Ntp125
Rp126
(dp127
g13
I01
sg14
F-0.5719768702028498
sg15
g124
sbs(I-9
I47
tp128
g0
(g9
g2
Ntp129
Rp130
(dp131
g13
I01
sg14
F-1.0416254064218626
sg15
g128
sbssS'nodes'
p132
(dp133
I0
g0
(cneat.genes
DefaultNodeGene
p134
g2
Ntp135
Rp136
(dp137
S'activation'
p138
S'relu'
p139
sS'bias'
p140
F-28.967004234333412
sS'response'
p141
F1.0
sg15
I0
sS'aggregation'
p142
S'sum'
p143
sbsI1
g0
(g134
g2
Ntp144
Rp145
(dp146
g138
g139
sg140
F7.741038317844861
sg141
F1.0
sg15
I1
sg142
g143
sbsI2
g0
(g134
g2
Ntp147
Rp148
(dp149
g138
g139
sg140
F-22.607613334447606
sg141
F1.0
sg15
I2
sg142
g143
sbsI3
g0
(g134
g2
Ntp150
Rp151
(dp152
g138
g139
sg140
F-0.2828371667224414
sg141
F1.0
sg15
I3
sg142
g143
sbsI4
g0
(g134
g2
Ntp153
Rp154
(dp155
g138
g139
sg140
F-3.522858425657573
sg141
F1.0
sg15
I4
sg142
g143
sbsI5
g0
(g134
g2
Ntp156
Rp157
(dp158
g138
g139
sg140
F14.132131578979937
sg141
F1.0
sg15
I5
sg142
g143
sbsI6
g0
(g134
g2
Ntp159
Rp160
(dp161
g138
g139
sg140
F5.796088486143867
sg141
F1.0
sg15
I6
sg142
g143
sbsI7
g0
(g134
g2
Ntp162
Rp163
(dp164
g138
g139
sg140
F2.039224256384723
sg141
F1.0
sg15
I7
sg142
g143
sbsI8
g0
(g134
g2
Ntp165
Rp166
(dp167
g138
g139
sg140
F-27.352562068781246
sg141
F1.0
sg15
I8
sg142
g143
sbsI9
g0
(g134
g2
Ntp168
Rp169
(dp170
g138
g139
sg140
F10.89742221896447
sg141
F1.0
sg15
I9
sg142
g143
sbsI47
g0
(g134
g2
Ntp171
Rp172
(dp173
g138
g139
sg140
F5.588980728692128
sg141
F1.0
sg15
I47
sg142
g143
sbssg15
I38
sS'fitness'
p174
Nsb.