ccopy_reg
_reconstructor
p0
(cneat.genome
DefaultGenome
p1
c__builtin__
object
p2
Ntp3
Rp4
(dp5
S'connections'
p6
(dp7
(I-6
I47
tp8
g0
(cneat.genes
DefaultConnectionGene
p9
g2
Ntp10
Rp11
(dp12
S'enabled'
p13
I01
sS'weight'
p14
F-0.72054798944112
sS'key'
p15
g8
sbs(I47
I3
tp16
g0
(g9
g2
Ntp17
Rp18
(dp19
g13
I01
sg14
F-0.0548005082192932
sg15
g16
sbs(I-2
I47
tp20
g0
(g9
g2
Ntp21
Rp22
(dp23
g13
I01
sg14
F-0.09058716487426481
sg15
g20
sbs(I47
I2
tp24
g0
(g9
g2
Ntp25
Rp26
(dp27
g13
I01
sg14
F-0.8304443934353853
sg15
g24
sbs(I47
I5
tp28
g0
(g9
g2
Ntp29
Rp30
(dp31
g13
I01
sg14
F-0.8178318923282123
sg15
g28
sbs(I-5
I47
tp32
g0
(g9
g2
Ntp33
Rp34
(dp35
g13
I01
sg14
F0.8815673815799971
sg15
g32
sbs(I47
I0
tp36
g0
(g9
g2
Ntp37
Rp38
(dp39
g13
I01
sg14
F1.2498043299039086
sg15
g36
sbs(I47
I9
tp40
g0
(g9
g2
Ntp41
Rp42
(dp43
g13
I01
sg14
F0.7814553557860282
sg15
g40
sbs(I-10
I47
tp44
g0
(g9
g2
Ntp45
Rp46
(dp47
g13
I01
sg14
F0.9790307991577584
sg15
g44
sbs(I47
I6
tp48
g0
(g9
g2
Ntp49
Rp50
(dp51
g13
I01
sg14
F0.29706098718673063
sg15
g48
sbs(I-8
I47
tp52
g0
(g9
g2
Ntp53
Rp54
(dp55
g13
I01
sg14
F-1.445900584511264
sg15
g52
sbs(I47
I1
tp56
g0
(g9
g2
Ntp57
Rp58
(dp59
g13
I01
sg14
F0.6815129229946072
sg15
g56
sbs(I-4
I47
tp60
g0
(g9
g2
Ntp61
Rp62
(dp63
g13
I01
sg14
F-2.0413830554152255
sg15
g60
sbs(I47
I8
tp64
g0
(g9
g2
Ntp65
Rp66
(dp67
g13
I01
sg14
F-1.2637601302407147
sg15
g64
sbs(I-9
I47
tp68
g0
(g9
g2
Ntp69
Rp70
(dp71
g13
I01
sg14
F1.5534865420844122
sg15
g68
sbs(I-7
I47
tp72
g0
(g9
g2
Ntp73
Rp74
(dp75
g13
I01
sg14
F-1.1039975588207152
sg15
g72
sbs(I47
I4
tp76
g0
(g9
g2
Ntp77
Rp78
(dp79
g13
I01
sg14
F0.6416559168847443
sg15
g76
sbs(I-1
I47
tp80
g0
(g9
g2
Ntp81
Rp82
(dp83
g13
I01
sg14
F1.8226924620835923
sg15
g80
sbs(I-3
I47
tp84
g0
(g9
g2
Ntp85
Rp86
(dp87
g13
I01
sg14
F1.8991222828362224
sg15
g84
sbs(I47
I7
tp88
g0
(g9
g2
Ntp89
Rp90
(dp91
g13
I01
sg14
F1.717701015410127
sg15
g88
sbssS'nodes'
p92
(dp93
I0
g0
(cneat.genes
DefaultNodeGene
p94
g2
Ntp95
Rp96
(dp97
S'activation'
p98
S'relu'
p99
sS'bias'
p100
F14.16850155572191
sS'response'
p101
F1.0
sg15
I0
sS'aggregation'
p102
S'sum'
p103
sbsI1
g0
(g94
g2
Ntp104
Rp105
(dp106
g98
g99
sg100
F-1.797452489903201
sg101
F1.0
sg15
I1
sg102
g103
sbsI2
g0
(g94
g2
Ntp107
Rp108
(dp109
g98
g99
sg100
F6.139699811976001
sg101
F1.0
sg15
I2
sg102
g103
sbsI3
g0
(g94
g2
Ntp110
Rp111
(dp112
g98
g99
sg100
F-8.545300106671387
sg101
F1.0
sg15
I3
sg102
g103
sbsI4
g0
(g94
g2
Ntp113
Rp114
(dp115
g98
g99
sg100
F-16.69979815100209
sg101
F1.0
sg15
I4
sg102
g103
sbsI5
g0
(g94
g2
Ntp116
Rp117
(dp118
g98
g99
sg100
F11.253263983343418
sg101
F1.0
sg15
I5
sg102
g103
sbsI6
g0
(g94
g2
Ntp119
Rp120
(dp121
g98
g99
sg100
F-2.1999954975288305
sg101
F1.0
sg15
I6
sg102
g103
sbsI7
g0
(g94
g2
Ntp122
Rp123
(dp124
g98
g99
sg100
F6.379897976431435
sg101
F1.0
sg15
I7
sg102
g103
sbsI8
g0
(g94
g2
Ntp125
Rp126
(dp127
g98
g99
sg100
F-5.622329948650169
sg101
F1.0
sg15
I8
sg102
g103
sbsI9
g0
(g94
g2
Ntp128
Rp129
(dp130
g98
g99
sg100
F11.302309533326396
sg101
F1.0
sg15
I9
sg102
g103
sbsI47
g0
(g94
g2
Ntp131
Rp132
(dp133
g98
g99
sg100
F-7.262205349713449
sg101
F1.0
sg15
I47
sg102
g103
sbssg15
I38
sS'fitness'
p134
F-0.08642987280714842
sb.