ccopy_reg
_reconstructor
p0
(cneat.genome
DefaultGenome
p1
c__builtin__
object
p2
Ntp3
Rp4
(dp5
S'connections'
p6
(dp7
(I-7
I48
tp8
g0
(cneat.genes
DefaultConnectionGene
p9
g2
Ntp10
Rp11
(dp12
S'enabled'
p13
I01
sS'weight'
p14
F-0.7660024388012937
sS'key'
p15
g8
sbs(I-16
I48
tp16
g0
(g9
g2
Ntp17
Rp18
(dp19
g13
I01
sg14
F-0.5427857455071927
sg15
g16
sbs(I-9
I48
tp20
g0
(g9
g2
Ntp21
Rp22
(dp23
g13
I01
sg14
F1.5124266157163133
sg15
g20
sbs(I48
I8
tp24
g0
(g9
g2
Ntp25
Rp26
(dp27
g13
I01
sg14
F0.7281351815588191
sg15
g24
sbs(I48
I1
tp28
g0
(g9
g2
Ntp29
Rp30
(dp31
g13
I01
sg14
F-1.1833617354495187
sg15
g28
sbs(I-6
I48
tp32
g0
(g9
g2
Ntp33
Rp34
(dp35
g13
I01
sg14
F1.3150021959454514
sg15
g32
sbs(I-15
I48
tp36
g0
(g9
g2
Ntp37
Rp38
(dp39
g13
I01
sg14
F-1.0504666797698765
sg15
g36
sbs(I48
I6
tp40
g0
(g9
g2
Ntp41
Rp42
(dp43
g13
I01
sg14
F0.06793000484785534
sg15
g40
sbs(I-13
I48
tp44
g0
(g9
g2
Ntp45
Rp46
(dp47
g13
I01
sg14
F2.028904897759371
sg15
g44
sbs(I48
I2
tp48
g0
(g9
g2
Ntp49
Rp50
(dp51
g13
I01
sg14
F0.7415521826052431
sg15
g48
sbs(I-5
I48
tp52
g0
(g9
g2
Ntp53
Rp54
(dp55
g13
I01
sg14
F1.209150093508445
sg15
g52
sbs(I-14
I48
tp56
g0
(g9
g2
Ntp57
Rp58
(dp59
g13
I01
sg14
F0.8280213907139213
sg15
g56
sbs(I48
I7
tp60
g0
(g9
g2
Ntp61
Rp62
(dp63
g13
I01
sg14
F-0.090161164096009
sg15
g60
sbs(I-12
I48
tp64
g0
(g9
g2
Ntp65
Rp66
(dp67
g13
I01
sg14
F0.7983092599023563
sg15
g64
sbs(I-4
I48
tp68
g0
(g9
g2
Ntp69
Rp70
(dp71
g13
I01
sg14
F0.6013360604625323
sg15
g68
sbs(I48
I3
tp72
g0
(g9
g2
Ntp73
Rp74
(dp75
g13
I01
sg14
F0.3142181686916208
sg15
g72
sbs(I-1
I48
tp76
g0
(g9
g2
Ntp77
Rp78
(dp79
g13
I01
sg14
F-0.05061035075766917
sg15
g76
sbs(I-11
I48
tp80
g0
(g9
g2
Ntp81
Rp82
(dp83
g13
I01
sg14
F-0.35356103297515523
sg15
g80
sbs(I-20
I48
tp84
g0
(g9
g2
Ntp85
Rp86
(dp87
g13
I01
sg14
F0.8393850097336998
sg15
g84
sbs(I-3
I48
tp88
g0
(g9
g2
Ntp89
Rp90
(dp91
g13
I01
sg14
F0.13053702595158395
sg15
g88
sbs(I48
I5
tp92
g0
(g9
g2
Ntp93
Rp94
(dp95
g13
I01
sg14
F0.5117520416294669
sg15
g92
sbs(I-18
I48
tp96
g0
(g9
g2
Ntp97
Rp98
(dp99
g13
I01
sg14
F0.5081410532624088
sg15
g96
sbs(I48
I4
tp100
g0
(g9
g2
Ntp101
Rp102
(dp103
g13
I01
sg14
F-0.8986891687693596
sg15
g100
sbs(I-8
I48
tp104
g0
(g9
g2
Ntp105
Rp106
(dp107
g13
I01
sg14
F1.0075603902414525
sg15
g104
sbs(I-10
I48
tp108
g0
(g9
g2
Ntp109
Rp110
(dp111
g13
I01
sg14
F-0.6073028321452572
sg15
g108
sbs(I-19
I48
tp112
g0
(g9
g2
Ntp113
Rp114
(dp115
g13
I01
sg14
F-0.5146604602870215
sg15
g112
sbs(I48
I9
tp116
g0
(g9
g2
Ntp117
Rp118
(dp119
g13
I01
sg14
F-0.021841513103238105
sg15
g116
sbs(I48
I0
tp120
g0
(g9
g2
Ntp121
Rp122
(dp123
g13
I01
sg14
F0.16769431199280585
sg15
g120
sbs(I-17
I48
tp124
g0
(g9
g2
Ntp125
Rp126
(dp127
g13
I01
sg14
F1.6563166651983796
sg15
g124
sbs(I-2
I48
tp128
g0
(g9
g2
Ntp129
Rp130
(dp131
g13
I01
sg14
F0.037805399035261596
sg15
g128
sbssS'nodes'
p132
(dp133
I0
g0
(cneat.genes
DefaultNodeGene
p134
g2
Ntp135
Rp136
(dp137
S'activation'
p138
S'relu'
p139
sS'bias'
p140
F0.17692641779976637
sS'response'
p141
F1.0
sg15
I0
sS'aggregation'
p142
S'sum'
p143
sbsI1
g0
(g134
g2
Ntp144
Rp145
(dp146
g138
g139
sg140
F-19.05784121074102
sg141
F1.0
sg15
I1
sg142
g143
sbsI2
g0
(g134
g2
Ntp147
Rp148
(dp149
g138
g139
sg140
F7.20511910267691
sg141
F1.0
sg15
I2
sg142
g143
sbsI3
g0
(g134
g2
Ntp150
Rp151
(dp152
g138
g139
sg140
F-3.305358869632852
sg141
F1.0
sg15
I3
sg142
g143
sbsI4
g0
(g134
g2
Ntp153
Rp154
(dp155
g138
g139
sg140
F3.553548500950696
sg141
F1.0
sg15
I4
sg142
g143
sbsI5
g0
(g134
g2
Ntp156
Rp157
(dp158
g138
g139
sg140
F4.259231099907509
sg141
F1.0
sg15
I5
sg142
g143
sbsI6
g0
(g134
g2
Ntp159
Rp160
(dp161
g138
g139
sg140
F1.8994060015138334
sg141
F1.0
sg15
I6
sg142
g143
sbsI7
g0
(g134
g2
Ntp162
Rp163
(dp164
g138
g139
sg140
F19.070190200299802
sg141
F1.0
sg15
I7
sg142
g143
sbsI8
g0
(g134
g2
Ntp165
Rp166
(dp167
g138
g139
sg140
F15.721436795276349
sg141
F1.0
sg15
I8
sg142
g143
sbsI9
g0
(g134
g2
Ntp168
Rp169
(dp170
g138
g139
sg140
F-10.981074932849706
sg141
F1.0
sg15
I9
sg142
g143
sbsI48
g0
(g134
g2
Ntp171
Rp172
(dp173
g138
g139
sg140
F-3.806384926710773
sg141
F1.0
sg15
I48
sg142
g143
sbssg15
I39
sS'fitness'
p174
F0.04687033521153658
sb.