ccopy_reg
_reconstructor
p0
(cneat.genome
DefaultGenome
p1
c__builtin__
object
p2
Ntp3
Rp4
(dp5
S'connections'
p6
(dp7
(I23
I4
tp8
g0
(cneat.genes
DefaultConnectionGene
p9
g2
Ntp10
Rp11
(dp12
S'enabled'
p13
I01
sS'weight'
p14
F0.9637425948925553
sS'key'
p15
g8
sbs(I7
I21
tp16
g0
(g9
g2
Ntp17
Rp18
(dp19
g13
I01
sg14
F1.1757481112254435
sg15
g16
sbs(I-2
I23
tp20
g0
(g9
g2
Ntp21
Rp22
(dp23
g13
I01
sg14
F0.4865526755937649
sg15
g20
sbs(I7
I7
tp24
g0
(g9
g2
Ntp25
Rp26
(dp27
g13
I01
sg14
F-0.44372049254709267
sg15
g24
sbs(I-4
I22
tp28
g0
(g9
g2
Ntp29
Rp30
(dp31
g13
I01
sg14
F-3.0105058801238678
sg15
g28
sbs(I23
I3
tp32
g0
(g9
g2
Ntp33
Rp34
(dp35
g13
I00
sg14
F0.4638019849369439
sg15
g32
sbs(I-3
I3
tp36
g0
(g9
g2
Ntp37
Rp38
(dp39
g13
I01
sg14
F0.529401354344645
sg15
g36
sbs(I-1
I22
tp40
g0
(g9
g2
Ntp41
Rp42
(dp43
g13
I00
sg14
F-0.054818328004053896
sg15
g40
sbs(I-7
I22
tp44
g0
(g9
g2
Ntp45
Rp46
(dp47
g13
I00
sg14
F-0.8665389689753557
sg15
g44
sbs(I23
I7
tp48
g0
(g9
g2
Ntp49
Rp50
(dp51
g13
I01
sg14
F-0.8115402837501738
sg15
g48
sbs(I-10
I21
tp52
g0
(g9
g2
Ntp53
Rp54
(dp55
g13
I01
sg14
F1.47057330954935
sg15
g52
sbs(I-5
I23
tp56
g0
(g9
g2
Ntp57
Rp58
(dp59
g13
I00
sg14
F2.860487538612841
sg15
g56
sbs(I-6
I21
tp60
g0
(g9
g2
Ntp61
Rp62
(dp63
g13
I01
sg14
F1.4456421945739397
sg15
g60
sbs(I21
I0
tp64
g0
(g9
g2
Ntp65
Rp66
(dp67
g13
I00
sg14
F-0.7904618837929983
sg15
g64
sbs(I22
I7
tp68
g0
(g9
g2
Ntp69
Rp70
(dp71
g13
I01
sg14
F-2.2376206522264366
sg15
g68
sbs(I23
I9
tp72
g0
(g9
g2
Ntp73
Rp74
(dp75
g13
I00
sg14
F0.8899251448919421
sg15
g72
sbs(I2
I2
tp76
g0
(g9
g2
Ntp77
Rp78
(dp79
g13
I00
sg14
F-1.6072900803167787
sg15
g76
sbs(I-7
I21
tp80
g0
(g9
g2
Ntp81
Rp82
(dp83
g13
I01
sg14
F-0.5660645346324543
sg15
g80
sbs(I-5
I22
tp84
g0
(g9
g2
Ntp85
Rp86
(dp87
g13
I00
sg14
F-5.337874558625923e-05
sg15
g84
sbs(I568
I9
tp88
g0
(g9
g2
Ntp89
Rp90
(dp91
g13
I00
sg14
F0.19003328146193454
sg15
g88
sbs(I-2
I21
tp92
g0
(g9
g2
Ntp93
Rp94
(dp95
g13
I00
sg14
F-0.1284796900903199
sg15
g92
sbs(I-6
I22
tp96
g0
(g9
g2
Ntp97
Rp98
(dp99
g13
I01
sg14
F2.555153556620261
sg15
g96
sbs(I22
I4
tp100
g0
(g9
g2
Ntp101
Rp102
(dp103
g13
I01
sg14
F0.38038910980617874
sg15
g100
sbs(I21
I4
tp104
g0
(g9
g2
Ntp105
Rp106
(dp107
g13
I01
sg14
F-1.1763796902259784
sg15
g104
sbs(I23
I1
tp108
g0
(g9
g2
Ntp109
Rp110
(dp111
g13
I00
sg14
F0.9705368236265333
sg15
g108
sbs(I9
I568
tp112
g0
(g9
g2
Ntp113
Rp114
(dp115
g13
I00
sg14
F1.1722127052572808
sg15
g112
sbs(I-8
I21
tp116
g0
(g9
g2
Ntp117
Rp118
(dp119
g13
I01
sg14
F-0.8633269217984616
sg15
g116
sbs(I22
I0
tp120
g0
(g9
g2
Ntp121
Rp122
(dp123
g13
I00
sg14
F-2.4168221545986586
sg15
g120
sbs(I-10
I23
tp124
g0
(g9
g2
Ntp125
Rp126
(dp127
g13
I00
sg14
F0.4018542686760265
sg15
g124
sbs(I21
I9
tp128
g0
(g9
g2
Ntp129
Rp130
(dp131
g13
I00
sg14
F1.2771908492742565
sg15
g128
sbs(I-1
I21
tp132
g0
(g9
g2
Ntp133
Rp134
(dp135
g13
I00
sg14
F1.2312964547747873
sg15
g132
sbs(I9
I9
tp136
g0
(g9
g2
Ntp137
Rp138
(dp139
g13
I00
sg14
F0.8142442362582923
sg15
g136
sbs(I-2
I22
tp140
g0
(g9
g2
Ntp141
Rp142
(dp143
g13
I01
sg14
F1.2203694205584352
sg15
g140
sbs(I8
I8
tp144
g0
(g9
g2
Ntp145
Rp146
(dp147
g13
I00
sg14
F1.8764726748535854
sg15
g144
sbs(I22
I8
tp148
g0
(g9
g2
Ntp149
Rp150
(dp151
g13
I01
sg14
F-1.149289511080152
sg15
g148
sbs(I-7
I23
tp152
g0
(g9
g2
Ntp153
Rp154
(dp155
g13
I00
sg14
F-2.753917315490851
sg15
g152
sbssS'nodes'
p156
(dp157
I0
g0
(cneat.genes
DefaultNodeGene
p158
g2
Ntp159
Rp160
(dp161
S'activation'
p162
S'tanh'
p163
sS'bias'
p164
F2.935981263840097
sS'response'
p165
F1.0
sg15
I0
sS'aggregation'
p166
S'sum'
p167
sbsI1
g0
(g158
g2
Ntp168
Rp169
(dp170
g162
g163
sg164
F-16.460933699024263
sg165
F1.0
sg15
I1
sg166
g167
sbsI2
g0
(g158
g2
Ntp171
Rp172
(dp173
g162
g163
sg164
F0.48102361534870897
sg165
F1.0
sg15
I2
sg166
g167
sbsI3
g0
(g158
g2
Ntp174
Rp175
(dp176
g162
g163
sg164
F11.02201056056403
sg165
F1.0
sg15
I3
sg166
g167
sbsI4
g0
(g158
g2
Ntp177
Rp178
(dp179
g162
g163
sg164
F23.817807531509505
sg165
F1.0
sg15
I4
sg166
g167
sbsI5
g0
(g158
g2
Ntp180
Rp181
(dp182
g162
g163
sg164
F8.539709268928506
sg165
F1.0
sg15
I5
sg166
g167
sbsI6
g0
(g158
g2
Ntp183
Rp184
(dp185
g162
g163
sg164
F17.148956594622792
sg165
F1.0
sg15
I6
sg166
g167
sbsI7
g0
(g158
g2
Ntp186
Rp187
(dp188
g162
g163
sg164
F5.150176642802486
sg165
F1.0
sg15
I7
sg166
g167
sbsI8
g0
(g158
g2
Ntp189
Rp190
(dp191
g162
g163
sg164
F-5.545773184933294
sg165
F1.0
sg15
I8
sg166
g167
sbsI9
g0
(g158
g2
Ntp192
Rp193
(dp194
g162
S'relu'
p195
sg164
F1.0287498564964952
sg165
F1.0
sg15
I9
sg166
g167
sbsI21
g0
(g158
g2
Ntp196
Rp197
(dp198
g162
g163
sg164
F-2.170154513110597
sg165
F1.0
sg15
I21
sg166
g167
sbsI22
g0
(g158
g2
Ntp199
Rp200
(dp201
g162
g163
sg164
F-11.218208406164596
sg165
F1.0
sg15
I22
sg166
g167
sbsI23
g0
(g158
g2
Ntp202
Rp203
(dp204
g162
g163
sg164
F-2.5961627687522464
sg165
F1.0
sg15
I23
sg166
g167
sbsI568
g0
(g158
g2
Ntp205
Rp206
(dp207
g162
g163
sg164
F-1.291019801083818
sg165
F1.0
sg15
I568
sg166
g167
sbssg15
I39
sS'fitness'
p208
Nsb.