ccopy_reg
_reconstructor
p0
(cneat.genome
DefaultGenome
p1
c__builtin__
object
p2
Ntp3
Rp4
(dp5
S'connections'
p6
(dp7
(I-7
I48
tp8
g0
(cneat.genes
DefaultConnectionGene
p9
g2
Ntp10
Rp11
(dp12
S'enabled'
p13
I01
sS'weight'
p14
F0.3013360516044473
sS'key'
p15
g8
sbs(I-16
I48
tp16
g0
(g9
g2
Ntp17
Rp18
(dp19
g13
I01
sg14
F-0.7540889862537012
sg15
g16
sbs(I-9
I48
tp20
g0
(g9
g2
Ntp21
Rp22
(dp23
g13
I01
sg14
F-0.634417414053129
sg15
g20
sbs(I48
I8
tp24
g0
(g9
g2
Ntp25
Rp26
(dp27
g13
I01
sg14
F0.762330592132419
sg15
g24
sbs(I48
I1
tp28
g0
(g9
g2
Ntp29
Rp30
(dp31
g13
I01
sg14
F0.43923133494843364
sg15
g28
sbs(I-6
I48
tp32
g0
(g9
g2
Ntp33
Rp34
(dp35
g13
I01
sg14
F-0.4502722421281922
sg15
g32
sbs(I-15
I48
tp36
g0
(g9
g2
Ntp37
Rp38
(dp39
g13
I01
sg14
F-0.549094619640148
sg15
g36
sbs(I48
I6
tp40
g0
(g9
g2
Ntp41
Rp42
(dp43
g13
I01
sg14
F-1.3581759218683167
sg15
g40
sbs(I-13
I48
tp44
g0
(g9
g2
Ntp45
Rp46
(dp47
g13
I01
sg14
F-0.7415078376955654
sg15
g44
sbs(I48
I2
tp48
g0
(g9
g2
Ntp49
Rp50
(dp51
g13
I01
sg14
F-0.4912846211623309
sg15
g48
sbs(I-5
I48
tp52
g0
(g9
g2
Ntp53
Rp54
(dp55
g13
I01
sg14
F-0.3306800273541677
sg15
g52
sbs(I-14
I48
tp56
g0
(g9
g2
Ntp57
Rp58
(dp59
g13
I01
sg14
F-0.9442298433294665
sg15
g56
sbs(I48
I7
tp60
g0
(g9
g2
Ntp61
Rp62
(dp63
g13
I01
sg14
F-0.876038461103608
sg15
g60
sbs(I-12
I48
tp64
g0
(g9
g2
Ntp65
Rp66
(dp67
g13
I01
sg14
F0.7395407301801147
sg15
g64
sbs(I-4
I48
tp68
g0
(g9
g2
Ntp69
Rp70
(dp71
g13
I01
sg14
F2.0424067695575934
sg15
g68
sbs(I48
I3
tp72
g0
(g9
g2
Ntp73
Rp74
(dp75
g13
I01
sg14
F-1.7149702924695067
sg15
g72
sbs(I-1
I48
tp76
g0
(g9
g2
Ntp77
Rp78
(dp79
g13
I01
sg14
F-0.23748565002098007
sg15
g76
sbs(I-11
I48
tp80
g0
(g9
g2
Ntp81
Rp82
(dp83
g13
I01
sg14
F-0.7870163906687909
sg15
g80
sbs(I-20
I48
tp84
g0
(g9
g2
Ntp85
Rp86
(dp87
g13
I01
sg14
F1.672679155259489
sg15
g84
sbs(I-3
I48
tp88
g0
(g9
g2
Ntp89
Rp90
(dp91
g13
I01
sg14
F-1.651939064544675
sg15
g88
sbs(I48
I5
tp92
g0
(g9
g2
Ntp93
Rp94
(dp95
g13
I01
sg14
F-0.9599690906370687
sg15
g92
sbs(I-18
I48
tp96
g0
(g9
g2
Ntp97
Rp98
(dp99
g13
I01
sg14
F-0.128120340689391
sg15
g96
sbs(I48
I4
tp100
g0
(g9
g2
Ntp101
Rp102
(dp103
g13
I01
sg14
F-0.2472670799692498
sg15
g100
sbs(I-8
I48
tp104
g0
(g9
g2
Ntp105
Rp106
(dp107
g13
I01
sg14
F-0.3102740426068129
sg15
g104
sbs(I-10
I48
tp108
g0
(g9
g2
Ntp109
Rp110
(dp111
g13
I01
sg14
F-1.9198059990617518
sg15
g108
sbs(I-19
I48
tp112
g0
(g9
g2
Ntp113
Rp114
(dp115
g13
I01
sg14
F2.3684407100276714
sg15
g112
sbs(I48
I9
tp116
g0
(g9
g2
Ntp117
Rp118
(dp119
g13
I01
sg14
F-0.09662685261966147
sg15
g116
sbs(I48
I0
tp120
g0
(g9
g2
Ntp121
Rp122
(dp123
g13
I01
sg14
F-0.8365050367466842
sg15
g120
sbs(I-17
I48
tp124
g0
(g9
g2
Ntp125
Rp126
(dp127
g13
I01
sg14
F-0.9604388263820832
sg15
g124
sbs(I-2
I48
tp128
g0
(g9
g2
Ntp129
Rp130
(dp131
g13
I01
sg14
F-0.9578106721910482
sg15
g128
sbssS'nodes'
p132
(dp133
I0
g0
(cneat.genes
DefaultNodeGene
p134
g2
Ntp135
Rp136
(dp137
S'activation'
p138
S'relu'
p139
sS'bias'
p140
F-7.547713959950155
sS'response'
p141
F1.0
sg15
I0
sS'aggregation'
p142
S'sum'
p143
sbsI1
g0
(g134
g2
Ntp144
Rp145
(dp146
g138
g139
sg140
F-9.658702692877952
sg141
F1.0
sg15
I1
sg142
g143
sbsI2
g0
(g134
g2
Ntp147
Rp148
(dp149
g138
g139
sg140
F-10.850583884622276
sg141
F1.0
sg15
I2
sg142
g143
sbsI3
g0
(g134
g2
Ntp150
Rp151
(dp152
g138
g139
sg140
F6.07112713529752
sg141
F1.0
sg15
I3
sg142
g143
sbsI4
g0
(g134
g2
Ntp153
Rp154
(dp155
g138
g139
sg140
F-1.3194075473575002
sg141
F1.0
sg15
I4
sg142
g143
sbsI5
g0
(g134
g2
Ntp156
Rp157
(dp158
g138
g139
sg140
F-5.160834883909549
sg141
F1.0
sg15
I5
sg142
g143
sbsI6
g0
(g134
g2
Ntp159
Rp160
(dp161
g138
g139
sg140
F10.599603214164915
sg141
F1.0
sg15
I6
sg142
g143
sbsI7
g0
(g134
g2
Ntp162
Rp163
(dp164
g138
g139
sg140
F3.333666965294227
sg141
F1.0
sg15
I7
sg142
g143
sbsI8
g0
(g134
g2
Ntp165
Rp166
(dp167
g138
g139
sg140
F-5.947755133194283
sg141
F1.0
sg15
I8
sg142
g143
sbsI9
g0
(g134
g2
Ntp168
Rp169
(dp170
g138
g139
sg140
F-13.365017963496648
sg141
F1.0
sg15
I9
sg142
g143
sbsI48
g0
(g134
g2
Ntp171
Rp172
(dp173
g138
g139
sg140
F1.7667022221973718
sg141
F1.0
sg15
I48
sg142
g143
sbssg15
I39
sS'fitness'
p174
Nsb.