ccopy_reg
_reconstructor
p0
(cneat.genome
DefaultGenome
p1
c__builtin__
object
p2
Ntp3
Rp4
(dp5
S'connections'
p6
(dp7
(I-8
I327
tp8
g0
(cneat.genes
DefaultConnectionGene
p9
g2
Ntp10
Rp11
(dp12
S'enabled'
p13
I00
sS'weight'
p14
F0.24119294074627057
sS'key'
p15
g8
sbs(I622
I327
tp16
g0
(g9
g2
Ntp17
Rp18
(dp19
g13
I01
sg14
F-0.8078385056644479
sg15
g16
sbs(I328
I7
tp20
g0
(g9
g2
Ntp21
Rp22
(dp23
g13
I01
sg14
F0.6111188545833117
sg15
g20
sbs(I-5
I328
tp24
g0
(g9
g2
Ntp25
Rp26
(dp27
g13
I01
sg14
F0.611828785722905
sg15
g24
sbs(I327
I9
tp28
g0
(g9
g2
Ntp29
Rp30
(dp31
g13
I01
sg14
F0.9396298591395962
sg15
g28
sbs(I327
I4
tp32
g0
(g9
g2
Ntp33
Rp34
(dp35
g13
I01
sg14
F1.8063933852805232
sg15
g32
sbs(I3
I3
tp36
g0
(g9
g2
Ntp37
Rp38
(dp39
g13
I00
sg14
F-1.1934635874775985
sg15
g36
sbs(I-9
I328
tp40
g0
(g9
g2
Ntp41
Rp42
(dp43
g13
I00
sg14
F-0.13790315789792632
sg15
g40
sbs(I-2
I328
tp44
g0
(g9
g2
Ntp45
Rp46
(dp47
g13
I01
sg14
F0.22264784982360364
sg15
g44
sbs(I3
I328
tp48
g0
(g9
g2
Ntp49
Rp50
(dp51
g13
I00
sg14
F2.5866846099913423
sg15
g48
sbs(I328
I8
tp52
g0
(g9
g2
Ntp53
Rp54
(dp55
g13
I00
sg14
F0.9587526044637822
sg15
g52
sbs(I2
I2
tp56
g0
(g9
g2
Ntp57
Rp58
(dp59
g13
I01
sg14
F-0.15150822885444315
sg15
g56
sbs(I-3
I622
tp60
g0
(g9
g2
Ntp61
Rp62
(dp63
g13
I01
sg14
F1.2573722019401063
sg15
g60
sbs(I327
I8
tp64
g0
(g9
g2
Ntp65
Rp66
(dp67
g13
I01
sg14
F-2.297300276243027
sg15
g64
sbs(I1
I1
tp68
g0
(g9
g2
Ntp69
Rp70
(dp71
g13
I01
sg14
F1.091064691285959
sg15
g68
sbs(I327
I3
tp72
g0
(g9
g2
Ntp73
Rp74
(dp75
g13
I01
sg14
F3.8116484961527033
sg15
g72
sbs(I0
I0
tp76
g0
(g9
g2
Ntp77
Rp78
(dp79
g13
I01
sg14
F-1.3685298394358407
sg15
g76
sbs(I1
I622
tp80
g0
(g9
g2
Ntp81
Rp82
(dp83
g13
I01
sg14
F-0.8538124896202794
sg15
g80
sbs(I327
I7
tp84
g0
(g9
g2
Ntp85
Rp86
(dp87
g13
I01
sg14
F-1.0727262447884096
sg15
g84
sbs(I328
I9
tp88
g0
(g9
g2
Ntp89
Rp90
(dp91
g13
I01
sg14
F-1.489865102488427
sg15
g88
sbs(I-6
I328
tp92
g0
(g9
g2
Ntp93
Rp94
(dp95
g13
I01
sg14
F-0.5858676211607011
sg15
g92
sbs(I-10
I327
tp96
g0
(g9
g2
Ntp97
Rp98
(dp99
g13
I01
sg14
F0.530297905537134
sg15
g96
sbs(I328
I5
tp100
g0
(g9
g2
Ntp101
Rp102
(dp103
g13
I01
sg14
F-0.6217441345539678
sg15
g100
sbs(I327
I2
tp104
g0
(g9
g2
Ntp105
Rp106
(dp107
g13
I01
sg14
F-0.18110705424028756
sg15
g104
sbs(I-3
I327
tp108
g0
(g9
g2
Ntp109
Rp110
(dp111
g13
I00
sg14
F-1.203160905720161
sg15
g108
sbs(I328
I1
tp112
g0
(g9
g2
Ntp113
Rp114
(dp115
g13
I01
sg14
F-0.6305456561394772
sg15
g112
sbs(I327
I6
tp116
g0
(g9
g2
Ntp117
Rp118
(dp119
g13
I00
sg14
F0.6927884180205851
sg15
g116
sbs(I8
I8
tp120
g0
(g9
g2
Ntp121
Rp122
(dp123
g13
I01
sg14
F-2.059212313100361
sg15
g120
sbs(I-4
I327
tp124
g0
(g9
g2
Ntp125
Rp126
(dp127
g13
I01
sg14
F-0.3793482333773213
sg15
g124
sbssS'nodes'
p128
(dp129
I0
g0
(cneat.genes
DefaultNodeGene
p130
g2
Ntp131
Rp132
(dp133
S'activation'
p134
S'tanh'
p135
sS'bias'
p136
F0.17106220297667007
sS'response'
p137
F1.0
sg15
I0
sS'aggregation'
p138
S'sum'
p139
sbsI1
g0
(g130
g2
Ntp140
Rp141
(dp142
g134
g135
sg136
F-6.75468736618127
sg137
F1.0
sg15
I1
sg138
g139
sbsI2
g0
(g130
g2
Ntp143
Rp144
(dp145
g134
g135
sg136
F-2.2924175129714746
sg137
F1.0
sg15
I2
sg138
g139
sbsI3
g0
(g130
g2
Ntp146
Rp147
(dp148
g134
g135
sg136
F-4.740213675313188
sg137
F1.0
sg15
I3
sg138
g139
sbsI4
g0
(g130
g2
Ntp149
Rp150
(dp151
g134
g135
sg136
F4.482962630336613
sg137
F1.0
sg15
I4
sg138
g139
sbsI5
g0
(g130
g2
Ntp152
Rp153
(dp154
g134
g135
sg136
F11.984650983575973
sg137
F1.0
sg15
I5
sg138
g139
sbsI6
g0
(g130
g2
Ntp155
Rp156
(dp157
g134
g135
sg136
F-7.946951561090865
sg137
F1.0
sg15
I6
sg138
g139
sbsI7
g0
(g130
g2
Ntp158
Rp159
(dp160
g134
g135
sg136
F-10.826775291507655
sg137
F1.0
sg15
I7
sg138
g139
sbsI8
g0
(g130
g2
Ntp161
Rp162
(dp163
g134
g135
sg136
F-5.487386033074486
sg137
F1.0
sg15
I8
sg138
g139
sbsI9
g0
(g130
g2
Ntp164
Rp165
(dp166
g134
g135
sg136
F4.756450642014475
sg137
F1.0
sg15
I9
sg138
g139
sbsI327
g0
(g130
g2
Ntp167
Rp168
(dp169
g134
g135
sg136
F-5.634374917181973
sg137
F1.0
sg15
I327
sg138
g139
sbsI622
g0
(g130
g2
Ntp170
Rp171
(dp172
g134
g135
sg136
F-1.780063353417367
sg137
F1.0
sg15
I622
sg138
g139
sbsI328
g0
(g130
g2
Ntp173
Rp174
(dp175
g134
g135
sg136
F-0.8802868795996163
sg137
F1.0
sg15
I328
sg138
g139
sbssg15
I39
sS'fitness'
p176
Nsb.