ccopy_reg
_reconstructor
p0
(cneat.genome
DefaultGenome
p1
c__builtin__
object
p2
Ntp3
Rp4
(dp5
S'connections'
p6
(dp7
(I-20
I13
tp8
g0
(cneat.genes
DefaultConnectionGene
p9
g2
Ntp10
Rp11
(dp12
S'enabled'
p13
I01
sS'weight'
p14
F0.1214124756287338
sS'key'
p15
g8
sbs(I13
I4
tp16
g0
(g9
g2
Ntp17
Rp18
(dp19
g13
I01
sg14
F0.2987433087185562
sg15
g16
sbs(I13
I8
tp20
g0
(g9
g2
Ntp21
Rp22
(dp23
g13
I01
sg14
F1.7775106760468278
sg15
g20
sbs(I-4
I13
tp24
g0
(g9
g2
Ntp25
Rp26
(dp27
g13
I01
sg14
F0.35020025530058974
sg15
g24
sbs(I-12
I13
tp28
g0
(g9
g2
Ntp29
Rp30
(dp31
g13
I01
sg14
F-0.19488193900725928
sg15
g28
sbs(I-2
I13
tp32
g0
(g9
g2
Ntp33
Rp34
(dp35
g13
I01
sg14
F-1.010399805492611
sg15
g32
sbs(I-14
I13
tp36
g0
(g9
g2
Ntp37
Rp38
(dp39
g13
I01
sg14
F-1.0860148695491552
sg15
g36
sbs(I13
I3
tp40
g0
(g9
g2
Ntp41
Rp42
(dp43
g13
I01
sg14
F-1.5130766718838178
sg15
g40
sbs(I-5
I13
tp44
g0
(g9
g2
Ntp45
Rp46
(dp47
g13
I01
sg14
F0.1481005642643527
sg15
g44
sbs(I13
I7
tp48
g0
(g9
g2
Ntp49
Rp50
(dp51
g13
I01
sg14
F1.4511145406819492
sg15
g48
sbs(I-13
I13
tp52
g0
(g9
g2
Ntp53
Rp54
(dp55
g13
I01
sg14
F0.043969498106762324
sg15
g52
sbs(I-15
I13
tp56
g0
(g9
g2
Ntp57
Rp58
(dp59
g13
I01
sg14
F-0.965861645825611
sg15
g56
sbs(I-6
I13
tp60
g0
(g9
g2
Ntp61
Rp62
(dp63
g13
I01
sg14
F0.8314164736725409
sg15
g60
sbs(I-3
I13
tp64
g0
(g9
g2
Ntp65
Rp66
(dp67
g13
I01
sg14
F0.765811215172552
sg15
g64
sbs(I13
I2
tp68
g0
(g9
g2
Ntp69
Rp70
(dp71
g13
I01
sg14
F-2.050189307769775
sg15
g68
sbs(I13
I6
tp72
g0
(g9
g2
Ntp73
Rp74
(dp75
g13
I01
sg14
F-0.5858716831705231
sg15
g72
sbs(I-7
I13
tp76
g0
(g9
g2
Ntp77
Rp78
(dp79
g13
I01
sg14
F1.1173987982822315
sg15
g76
sbs(I-9
I13
tp80
g0
(g9
g2
Ntp81
Rp82
(dp83
g13
I01
sg14
F-0.33793221731183615
sg15
g80
sbs(I-16
I13
tp84
g0
(g9
g2
Ntp85
Rp86
(dp87
g13
I01
sg14
F0.6417598736347224
sg15
g84
sbs(I13
I1
tp88
g0
(g9
g2
Ntp89
Rp90
(dp91
g13
I01
sg14
F0.007381560094154647
sg15
g88
sbs(I-17
I13
tp92
g0
(g9
g2
Ntp93
Rp94
(dp95
g13
I01
sg14
F0.981729628685008
sg15
g92
sbs(I-19
I13
tp96
g0
(g9
g2
Ntp97
Rp98
(dp99
g13
I01
sg14
F1.3428406660219592
sg15
g96
sbs(I-10
I13
tp100
g0
(g9
g2
Ntp101
Rp102
(dp103
g13
I01
sg14
F0.3052103198236076
sg15
g100
sbs(I13
I5
tp104
g0
(g9
g2
Ntp105
Rp106
(dp107
g13
I01
sg14
F-0.290269895252169
sg15
g104
sbs(I-18
I13
tp108
g0
(g9
g2
Ntp109
Rp110
(dp111
g13
I01
sg14
F-0.6008255363738263
sg15
g108
sbs(I-8
I13
tp112
g0
(g9
g2
Ntp113
Rp114
(dp115
g13
I01
sg14
F1.363443015072857
sg15
g112
sbs(I-1
I13
tp116
g0
(g9
g2
Ntp117
Rp118
(dp119
g13
I01
sg14
F0.21867372962823645
sg15
g116
sbs(I13
I9
tp120
g0
(g9
g2
Ntp121
Rp122
(dp123
g13
I01
sg14
F0.02240476910450805
sg15
g120
sbs(I-11
I13
tp124
g0
(g9
g2
Ntp125
Rp126
(dp127
g13
I01
sg14
F-0.890556029130663
sg15
g124
sbs(I13
I0
tp128
g0
(g9
g2
Ntp129
Rp130
(dp131
g13
I01
sg14
F-0.4793561034425733
sg15
g128
sbssS'nodes'
p132
(dp133
I0
g0
(cneat.genes
DefaultNodeGene
p134
g2
Ntp135
Rp136
(dp137
S'activation'
p138
S'relu'
p139
sS'bias'
p140
F4.075938654032628
sS'response'
p141
F1.0
sg15
I0
sS'aggregation'
p142
S'sum'
p143
sbsI1
g0
(g134
g2
Ntp144
Rp145
(dp146
g138
g139
sg140
F1.0088903618079026
sg141
F1.0
sg15
I1
sg142
g143
sbsI2
g0
(g134
g2
Ntp147
Rp148
(dp149
g138
g139
sg140
F-15.471704764458437
sg141
F1.0
sg15
I2
sg142
g143
sbsI3
g0
(g134
g2
Ntp150
Rp151
(dp152
g138
g139
sg140
F2.7623156897790406
sg141
F1.0
sg15
I3
sg142
g143
sbsI4
g0
(g134
g2
Ntp153
Rp154
(dp155
g138
g139
sg140
F9.993612319195856
sg141
F1.0
sg15
I4
sg142
g143
sbsI5
g0
(g134
g2
Ntp156
Rp157
(dp158
g138
g139
sg140
F-2.296600493451863
sg141
F1.0
sg15
I5
sg142
g143
sbsI6
g0
(g134
g2
Ntp159
Rp160
(dp161
g138
g139
sg140
F6.628583996754659
sg141
F1.0
sg15
I6
sg142
g143
sbsI7
g0
(g134
g2
Ntp162
Rp163
(dp164
g138
g139
sg140
F-5.082864884005272
sg141
F1.0
sg15
I7
sg142
g143
sbsI8
g0
(g134
g2
Ntp165
Rp166
(dp167
g138
g139
sg140
F-1.4424057139462352
sg141
F1.0
sg15
I8
sg142
g143
sbsI9
g0
(g134
g2
Ntp168
Rp169
(dp170
g138
g139
sg140
F-4.15203641097934
sg141
F1.0
sg15
I9
sg142
g143
sbsI13
g0
(g134
g2
Ntp171
Rp172
(dp173
g138
g139
sg140
F16.400853710810527
sg141
F1.0
sg15
I13
sg142
g143
sbssg15
I4
sS'fitness'
p174
Nsb.