ccopy_reg
_reconstructor
p0
(cneat.genome
DefaultGenome
p1
c__builtin__
object
p2
Ntp3
Rp4
(dp5
S'connections'
p6
(dp7
(I-1
I27
tp8
g0
(cneat.genes
DefaultConnectionGene
p9
g2
Ntp10
Rp11
(dp12
S'enabled'
p13
I01
sS'weight'
p14
F-2.0470683543461017
sS'key'
p15
g8
sbs(I28
I4
tp16
g0
(g9
g2
Ntp17
Rp18
(dp19
g13
I01
sg14
F-0.5210872752160399
sg15
g16
sbs(I-10
I27
tp20
g0
(g9
g2
Ntp21
Rp22
(dp23
g13
I01
sg14
F-0.7850866456096854
sg15
g20
sbs(I28
I9
tp24
g0
(g9
g2
Ntp25
Rp26
(dp27
g13
I01
sg14
F-0.5271434872157051
sg15
g24
sbs(I-5
I25
tp28
g0
(g9
g2
Ntp29
Rp30
(dp31
g13
I01
sg14
F-1.4546965357669133
sg15
g28
sbs(I29
I0
tp32
g0
(g9
g2
Ntp33
Rp34
(dp35
g13
I01
sg14
F-0.4689978266448262
sg15
g32
sbs(I9
I9
tp36
g0
(g9
g2
Ntp37
Rp38
(dp39
g13
I01
sg14
F1.573134734204807
sg15
g36
sbs(I27
I3
tp40
g0
(g9
g2
Ntp41
Rp42
(dp43
g13
I01
sg14
F0.25197075164670885
sg15
g40
sbs(I-1
I28
tp44
g0
(g9
g2
Ntp45
Rp46
(dp47
g13
I01
sg14
F-0.9131520727672126
sg15
g44
sbs(I29
I7
tp48
g0
(g9
g2
Ntp49
Rp50
(dp51
g13
I01
sg14
F-0.2661330643382395
sg15
g48
sbs(I28
I1
tp52
g0
(g9
g2
Ntp53
Rp54
(dp55
g13
I01
sg14
F0.29677718760295657
sg15
g52
sbs(I-4
I27
tp56
g0
(g9
g2
Ntp57
Rp58
(dp59
g13
I01
sg14
F-0.4053059292626064
sg15
g56
sbs(I-10
I28
tp60
g0
(g9
g2
Ntp61
Rp62
(dp63
g13
I01
sg14
F0.12713026718316697
sg15
g60
sbs(I25
I8
tp64
g0
(g9
g2
Ntp65
Rp66
(dp67
g13
I01
sg14
F0.5321913064909018
sg15
g64
sbs(I-3
I26
tp68
g0
(g9
g2
Ntp69
Rp70
(dp71
g13
I01
sg14
F-1.535363939527366
sg15
g68
sbs(I-9
I25
tp72
g0
(g9
g2
Ntp73
Rp74
(dp75
g13
I01
sg14
F-0.46227120333867644
sg15
g72
sbs(I29
I9
tp76
g0
(g9
g2
Ntp77
Rp78
(dp79
g13
I01
sg14
F-0.08184527679584915
sg15
g76
sbs(I-7
I29
tp80
g0
(g9
g2
Ntp81
Rp82
(dp83
g13
I01
sg14
F-1.9889553997822846
sg15
g80
sbs(I27
I9
tp84
g0
(g9
g2
Ntp85
Rp86
(dp87
g13
I01
sg14
F0.23739605369436115
sg15
g84
sbs(I3
I3
tp88
g0
(g9
g2
Ntp89
Rp90
(dp91
g13
I01
sg14
F0.30309091128266846
sg15
g88
sbs(I29
I8
tp92
g0
(g9
g2
Ntp93
Rp94
(dp95
g13
I01
sg14
F-0.9719946601262839
sg15
g92
sbs(I-8
I28
tp96
g0
(g9
g2
Ntp97
Rp98
(dp99
g13
I01
sg14
F0.07476299134669545
sg15
g96
sbs(I-9
I29
tp100
g0
(g9
g2
Ntp101
Rp102
(dp103
g13
I01
sg14
F-1.4544183126384835
sg15
g100
sbs(I26
I3
tp104
g0
(g9
g2
Ntp105
Rp106
(dp107
g13
I01
sg14
F-1.2572634087796823
sg15
g104
sbs(I4
I4
tp108
g0
(g9
g2
Ntp109
Rp110
(dp111
g13
I01
sg14
F0.7587754897167762
sg15
g108
sbs(I-2
I29
tp112
g0
(g9
g2
Ntp113
Rp114
(dp115
g13
I01
sg14
F2.0703689571669366
sg15
g112
sbs(I26
I8
tp116
g0
(g9
g2
Ntp117
Rp118
(dp119
g13
I01
sg14
F0.6506630777388555
sg15
g116
sbs(I-6
I26
tp120
g0
(g9
g2
Ntp121
Rp122
(dp123
g13
I01
sg14
F-2.242481841682485
sg15
g120
sbs(I27
I5
tp124
g0
(g9
g2
Ntp125
Rp126
(dp127
g13
I01
sg14
F0.9097118610054576
sg15
g124
sbs(I28
I6
tp128
g0
(g9
g2
Ntp129
Rp130
(dp131
g13
I01
sg14
F1.6113996219040803
sg15
g128
sbs(I0
I0
tp132
g0
(g9
g2
Ntp133
Rp134
(dp135
g13
I01
sg14
F-0.46251634058798635
sg15
g132
sbs(I-6
I27
tp136
g0
(g9
g2
Ntp137
Rp138
(dp139
g13
I01
sg14
F0.7108651394998713
sg15
g136
sbs(I-3
I29
tp140
g0
(g9
g2
Ntp141
Rp142
(dp143
g13
I01
sg14
F-0.1594932795669603
sg15
g140
sbs(I27
I8
tp144
g0
(g9
g2
Ntp145
Rp146
(dp147
g13
I01
sg14
F0.891714722257932
sg15
g144
sbs(I26
I0
tp148
g0
(g9
g2
Ntp149
Rp150
(dp151
g13
I01
sg14
F0.07788275746735235
sg15
g148
sbs(I-4
I28
tp152
g0
(g9
g2
Ntp153
Rp154
(dp155
g13
I01
sg14
F-1.5211154403220644
sg15
g152
sbs(I25
I2
tp156
g0
(g9
g2
Ntp157
Rp158
(dp159
g13
I01
sg14
F-0.01729383574466188
sg15
g156
sbs(I27
I4
tp160
g0
(g9
g2
Ntp161
Rp162
(dp163
g13
I01
sg14
F-0.6502077867199009
sg15
g160
sbs(I26
I4
tp164
g0
(g9
g2
Ntp165
Rp166
(dp167
g13
I01
sg14
F-0.3683894616751833
sg15
g164
sbs(I25
I3
tp168
g0
(g9
g2
Ntp169
Rp170
(dp171
g13
I01
sg14
F-1.1725469357778437
sg15
g168
sbs(I-4
I25
tp172
g0
(g9
g2
Ntp173
Rp174
(dp175
g13
I01
sg14
F1.1788628097075977
sg15
g172
sbs(I27
I0
tp176
g0
(g9
g2
Ntp177
Rp178
(dp179
g13
I01
sg14
F-1.7116898056391745
sg15
g176
sbs(I-1
I26
tp180
g0
(g9
g2
Ntp181
Rp182
(dp183
g13
I01
sg14
F1.6460992306957003
sg15
g180
sbs(I29
I29
tp184
g0
(g9
g2
Ntp185
Rp186
(dp187
g13
I01
sg14
F1.4162167684562361
sg15
g184
sbs(I28
I28
tp188
g0
(g9
g2
Ntp189
Rp190
(dp191
g13
I01
sg14
F0.9544786810449936
sg15
g188
sbs(I29
I2
tp192
g0
(g9
g2
Ntp193
Rp194
(dp195
g13
I01
sg14
F1.2647110903197065
sg15
g192
sbs(I-6
I28
tp196
g0
(g9
g2
Ntp197
Rp198
(dp199
g13
I01
sg14
F1.4385171180386893
sg15
g196
sbs(I1
I1
tp200
g0
(g9
g2
Ntp201
Rp202
(dp203
g13
I01
sg14
F-1.6199718011155237
sg15
g200
sbs(I27
I7
tp204
g0
(g9
g2
Ntp205
Rp206
(dp207
g13
I01
sg14
F0.11305803168351733
sg15
g204
sbs(I26
I5
tp208
g0
(g9
g2
Ntp209
Rp210
(dp211
g13
I01
sg14
F-0.7746021222025162
sg15
g208
sbs(I-9
I26
tp212
g0
(g9
g2
Ntp213
Rp214
(dp215
g13
I01
sg14
F-0.44495543237464236
sg15
g212
sbs(I28
I0
tp216
g0
(g9
g2
Ntp217
Rp218
(dp219
g13
I01
sg14
F0.5562864949232416
sg15
g216
sbs(I25
I5
tp220
g0
(g9
g2
Ntp221
Rp222
(dp223
g13
I01
sg14
F0.40377631435586053
sg15
g220
sbs(I-4
I26
tp224
g0
(g9
g2
Ntp225
Rp226
(dp227
g13
I01
sg14
F0.1347510051679737
sg15
g224
sbs(I-5
I29
tp228
g0
(g9
g2
Ntp229
Rp230
(dp231
g13
I01
sg14
F0.28979621080639495
sg15
g228
sbs(I29
I5
tp232
g0
(g9
g2
Ntp233
Rp234
(dp235
g13
I01
sg14
F-1.139480634987108
sg15
g232
sbs(I-6
I25
tp236
g0
(g9
g2
Ntp237
Rp238
(dp239
g13
I01
sg14
F-0.4001688843998495
sg15
g236
sbs(I-3
I27
tp240
g0
(g9
g2
Ntp241
Rp242
(dp243
g13
I01
sg14
F-1.4214076628952006
sg15
g240
sbssS'nodes'
p244
(dp245
I0
g0
(cneat.genes
DefaultNodeGene
p246
g2
Ntp247
Rp248
(dp249
S'activation'
p250
S'relu'
p251
sS'bias'
p252
F-17.02943874338866
sS'response'
p253
F1.0
sg15
I0
sS'aggregation'
p254
S'sum'
p255
sbsI1
g0
(g246
g2
Ntp256
Rp257
(dp258
g250
g251
sg252
F-16.047370025425415
sg253
F1.0
sg15
I1
sg254
g255
sbsI2
g0
(g246
g2
Ntp259
Rp260
(dp261
g250
g251
sg252
F-21.011346459435746
sg253
F1.0
sg15
I2
sg254
g255
sbsI3
g0
(g246
g2
Ntp262
Rp263
(dp264
g250
g251
sg252
F17.040780058737234
sg253
F1.0
sg15
I3
sg254
g255
sbsI4
g0
(g246
g2
Ntp265
Rp266
(dp267
g250
g251
sg252
F-0.33214135256915955
sg253
F1.0
sg15
I4
sg254
g255
sbsI5
g0
(g246
g2
Ntp268
Rp269
(dp270
g250
g251
sg252
F-6.354342611234326
sg253
F1.0
sg15
I5
sg254
g255
sbsI6
g0
(g246
g2
Ntp271
Rp272
(dp273
g250
g251
sg252
F6.174173582651936
sg253
F1.0
sg15
I6
sg254
g255
sbsI7
g0
(g246
g2
Ntp274
Rp275
(dp276
g250
g251
sg252
F14.167526500698067
sg253
F1.0
sg15
I7
sg254
g255
sbsI8
g0
(g246
g2
Ntp277
Rp278
(dp279
g250
g251
sg252
F8.255201421352806
sg253
F1.0
sg15
I8
sg254
g255
sbsI9
g0
(g246
g2
Ntp280
Rp281
(dp282
g250
g251
sg252
F-7.859232517091335
sg253
F1.0
sg15
I9
sg254
g255
sbsI25
g0
(g246
g2
Ntp283
Rp284
(dp285
g250
g251
sg252
F4.5879758249156914
sg253
F1.0
sg15
I25
sg254
g255
sbsI26
g0
(g246
g2
Ntp286
Rp287
(dp288
g250
g251
sg252
F12.664703435265757
sg253
F1.0
sg15
I26
sg254
g255
sbsI27
g0
(g246
g2
Ntp289
Rp290
(dp291
g250
g251
sg252
F-1.369739911686384
sg253
F1.0
sg15
I27
sg254
g255
sbsI28
g0
(g246
g2
Ntp292
Rp293
(dp294
g250
g251
sg252
F-1.6466388545831159
sg253
F1.0
sg15
I28
sg254
g255
sbsI29
g0
(g246
g2
Ntp295
Rp296
(dp297
g250
g251
sg252
F-15.034132146266781
sg253
F1.0
sg15
I29
sg254
g255
sbssg15
I4
sS'fitness'
p298
Nsb.