ccopy_reg
_reconstructor
p0
(cneat.genome
DefaultGenome
p1
c__builtin__
object
p2
Ntp3
Rp4
(dp5
S'connections'
p6
(dp7
(I-4
I5
tp8
g0
(cneat.genes
DefaultConnectionGene
p9
g2
Ntp10
Rp11
(dp12
S'enabled'
p13
I01
sS'weight'
p14
F1.1956240616703004
sS'key'
p15
g8
sbs(I-1
I0
tp16
g0
(g9
g2
Ntp17
Rp18
(dp19
g13
I01
sg14
F-1.7413051111895281
sg15
g16
sbs(I-3
I8
tp20
g0
(g9
g2
Ntp21
Rp22
(dp23
g13
I01
sg14
F-0.003965958257190306
sg15
g20
sbs(I13
I4
tp24
g0
(g9
g2
Ntp25
Rp26
(dp27
g13
I01
sg14
F-0.34071035731583005
sg15
g24
sbs(I-8
I1
tp28
g0
(g9
g2
Ntp29
Rp30
(dp31
g13
I01
sg14
F0.22167864676342056
sg15
g28
sbs(I-2
I0
tp32
g0
(g9
g2
Ntp33
Rp34
(dp35
g13
I01
sg14
F0.7231439446822584
sg15
g32
sbs(I-10
I3
tp36
g0
(g9
g2
Ntp37
Rp38
(dp39
g13
I01
sg14
F1.349638962905633
sg15
g36
sbs(I-5
I1
tp40
g0
(g9
g2
Ntp41
Rp42
(dp43
g13
I01
sg14
F1.205061619514881
sg15
g40
sbs(I5
I5
tp44
g0
(g9
g2
Ntp45
Rp46
(dp47
g13
I01
sg14
F-0.6132921134850664
sg15
g44
sbs(I13
I7
tp48
g0
(g9
g2
Ntp49
Rp50
(dp51
g13
I01
sg14
F1.6191977209269321
sg15
g48
sbs(I-1
I13
tp52
g0
(g9
g2
Ntp53
Rp54
(dp55
g13
I01
sg14
F2.026854774927396
sg15
g52
sbs(I1
I1
tp56
g0
(g9
g2
Ntp57
Rp58
(dp59
g13
I01
sg14
F2.3350154265070544
sg15
g56
sbs(I-6
I1
tp60
g0
(g9
g2
Ntp61
Rp62
(dp63
g13
I01
sg14
F0.664975651638919
sg15
g60
sbs(I-9
I9
tp64
g0
(g9
g2
Ntp65
Rp66
(dp67
g13
I01
sg14
F-0.7792827149765553
sg15
g64
sbs(I-3
I1
tp68
g0
(g9
g2
Ntp69
Rp70
(dp71
g13
I01
sg14
F1.4558272480903216
sg15
g68
sbs(I-8
I8
tp72
g0
(g9
g2
Ntp73
Rp74
(dp75
g13
I01
sg14
F1.2536582080674352
sg15
g72
sbs(I-7
I5
tp76
g0
(g9
g2
Ntp77
Rp78
(dp79
g13
I01
sg14
F-1.144621244910667
sg15
g76
sbs(I9
I9
tp80
g0
(g9
g2
Ntp81
Rp82
(dp83
g13
I01
sg14
F-0.5742141301308101
sg15
g80
sbs(I-5
I6
tp84
g0
(g9
g2
Ntp85
Rp86
(dp87
g13
I01
sg14
F0.09743691301306467
sg15
g84
sbs(I-6
I2
tp88
g0
(g9
g2
Ntp89
Rp90
(dp91
g13
I01
sg14
F0.0669092786513479
sg15
g88
sbs(I-2
I3
tp92
g0
(g9
g2
Ntp93
Rp94
(dp95
g13
I01
sg14
F0.8768834391493048
sg15
g92
sbs(I-10
I9
tp96
g0
(g9
g2
Ntp97
Rp98
(dp99
g13
I01
sg14
F0.2425295622959961
sg15
g96
sbs(I-9
I3
tp100
g0
(g9
g2
Ntp101
Rp102
(dp103
g13
I01
sg14
F-1.5318709329300937
sg15
g100
sbs(I-4
I1
tp104
g0
(g9
g2
Ntp105
Rp106
(dp107
g13
I01
sg14
F1.213862357056972
sg15
g104
sbs(I-2
I4
tp108
g0
(g9
g2
Ntp109
Rp110
(dp111
g13
I01
sg14
F-0.036054003185919135
sg15
g108
sbs(I-3
I4
tp112
g0
(g9
g2
Ntp113
Rp114
(dp115
g13
I01
sg14
F-0.15246589464639562
sg15
g112
sbs(I13
I0
tp116
g0
(g9
g2
Ntp117
Rp118
(dp119
g13
I01
sg14
F-0.7411270060118141
sg15
g116
sbs(I-2
I5
tp120
g0
(g9
g2
Ntp121
Rp122
(dp123
g13
I01
sg14
F1.0127566307534777
sg15
g120
sbs(I-8
I5
tp124
g0
(g9
g2
Ntp125
Rp126
(dp127
g13
I01
sg14
F1.7800895173913167
sg15
g124
sbs(I-6
I8
tp128
g0
(g9
g2
Ntp129
Rp130
(dp131
g13
I01
sg14
F-0.13504004955198767
sg15
g128
sbs(I-7
I0
tp132
g0
(g9
g2
Ntp133
Rp134
(dp135
g13
I01
sg14
F-1.8318323031285253
sg15
g132
sbs(I-9
I5
tp136
g0
(g9
g2
Ntp137
Rp138
(dp139
g13
I01
sg14
F0.8581421426023657
sg15
g136
sbs(I-10
I7
tp140
g0
(g9
g2
Ntp141
Rp142
(dp143
g13
I01
sg14
F2.5964565220949236
sg15
g140
sbs(I-5
I5
tp144
g0
(g9
g2
Ntp145
Rp146
(dp147
g13
I01
sg14
F1.7803233442506126
sg15
g144
sbs(I-6
I7
tp148
g0
(g9
g2
Ntp149
Rp150
(dp151
g13
I01
sg14
F0.9265479949038561
sg15
g148
sbs(I-9
I6
tp152
g0
(g9
g2
Ntp153
Rp154
(dp155
g13
I01
sg14
F0.2718431309040359
sg15
g152
sbs(I-4
I6
tp156
g0
(g9
g2
Ntp157
Rp158
(dp159
g13
I01
sg14
F0.31619540271210106
sg15
g156
sbs(I-1
I1
tp160
g0
(g9
g2
Ntp161
Rp162
(dp163
g13
I01
sg14
F-1.1132992616239057
sg15
g160
sbs(I-3
I7
tp164
g0
(g9
g2
Ntp165
Rp166
(dp167
g13
I01
sg14
F1.3603089525616903
sg15
g164
sbs(I13
I3
tp168
g0
(g9
g2
Ntp169
Rp170
(dp171
g13
I01
sg14
F0.9802967530327527
sg15
g168
sbs(I-8
I2
tp172
g0
(g9
g2
Ntp173
Rp174
(dp175
g13
I01
sg14
F0.5881426133197406
sg15
g172
sbs(I2
I2
tp176
g0
(g9
g2
Ntp177
Rp178
(dp179
g13
I01
sg14
F0.3013751538010055
sg15
g176
sbs(I-6
I13
tp180
g0
(g9
g2
Ntp181
Rp182
(dp183
g13
I01
sg14
F0.2854529275111132
sg15
g180
sbs(I-7
I3
tp184
g0
(g9
g2
Ntp185
Rp186
(dp187
g13
I01
sg14
F0.5427909970456003
sg15
g184
sbs(I-10
I0
tp188
g0
(g9
g2
Ntp189
Rp190
(dp191
g13
I01
sg14
F-0.6475543661945137
sg15
g188
sbs(I-5
I0
tp192
g0
(g9
g2
Ntp193
Rp194
(dp195
g13
I01
sg14
F1.0781419631888176
sg15
g192
sbs(I-1
I2
tp196
g0
(g9
g2
Ntp197
Rp198
(dp199
g13
I01
sg14
F0.8150352043106956
sg15
g196
sbs(I-2
I2
tp200
g0
(g9
g2
Ntp201
Rp202
(dp203
g13
I01
sg14
F0.49087299177458743
sg15
g200
sbs(I13
I6
tp204
g0
(g9
g2
Ntp205
Rp206
(dp207
g13
I01
sg14
F-0.012389870011788342
sg15
g204
sbs(I-1
I4
tp208
g0
(g9
g2
Ntp209
Rp210
(dp211
g13
I01
sg14
F-0.6318986697008044
sg15
g208
sbs(I-7
I9
tp212
g0
(g9
g2
Ntp213
Rp214
(dp215
g13
I01
sg14
F1.4163513864351025
sg15
g212
sbs(I-8
I0
tp216
g0
(g9
g2
Ntp217
Rp218
(dp219
g13
I01
sg14
F2.9827325943474046
sg15
g216
sbs(I-10
I13
tp220
g0
(g9
g2
Ntp221
Rp222
(dp223
g13
I01
sg14
F0.46101817432458
sg15
g220
sbs(I-9
I8
tp224
g0
(g9
g2
Ntp225
Rp226
(dp227
g13
I01
sg14
F1.3911666779149625
sg15
g224
sbs(I-2
I8
tp228
g0
(g9
g2
Ntp229
Rp230
(dp231
g13
I01
sg14
F0.23652943568654614
sg15
g228
sbs(I-3
I0
tp232
g0
(g9
g2
Ntp233
Rp234
(dp235
g13
I01
sg14
F0.8669203358384543
sg15
g232
sbs(I-4
I8
tp236
g0
(g9
g2
Ntp237
Rp238
(dp239
g13
I01
sg14
F1.296586095085303
sg15
g236
sbs(I-3
I13
tp240
g0
(g9
g2
Ntp241
Rp242
(dp243
g13
I01
sg14
F-1.0370151466178454
sg15
g240
sbs(I-8
I6
tp244
g0
(g9
g2
Ntp245
Rp246
(dp247
g13
I01
sg14
F-0.676884034256364
sg15
g244
sbs(I13
I9
tp248
g0
(g9
g2
Ntp249
Rp250
(dp251
g13
I01
sg14
F1.0382242778132145
sg15
g248
sbs(I-8
I9
tp252
g0
(g9
g2
Ntp253
Rp254
(dp255
g13
I01
sg14
F-1.283530185745693
sg15
g252
sbs(I-7
I4
tp256
g0
(g9
g2
Ntp257
Rp258
(dp259
g13
I01
sg14
F-0.20177897433437456
sg15
g256
sbs(I-6
I3
tp260
g0
(g9
g2
Ntp261
Rp262
(dp263
g13
I01
sg14
F-0.2374002637165372
sg15
g260
sbs(I-9
I2
tp264
g0
(g9
g2
Ntp265
Rp266
(dp267
g13
I01
sg14
F0.780087697777053
sg15
g264
sbs(I-4
I2
tp268
g0
(g9
g2
Ntp269
Rp270
(dp271
g13
I01
sg14
F-0.3578398634572651
sg15
g268
sbs(I-1
I5
tp272
g0
(g9
g2
Ntp273
Rp274
(dp275
g13
I01
sg14
F-0.44620819699768044
sg15
g272
sbs(I-3
I3
tp276
g0
(g9
g2
Ntp277
Rp278
(dp279
g13
I01
sg14
F-0.2538131270125503
sg15
g276
sbs(I-4
I13
tp280
g0
(g9
g2
Ntp281
Rp282
(dp283
g13
I01
sg14
F-2.252336777966458
sg15
g280
sbs(I13
I13
tp284
g0
(g9
g2
Ntp285
Rp286
(dp287
g13
I01
sg14
F-0.5442505206269962
sg15
g284
sbs(I-1
I7
tp288
g0
(g9
g2
Ntp289
Rp290
(dp291
g13
I01
sg14
F-0.5731439223334747
sg15
g288
sbs(I-6
I9
tp292
g0
(g9
g2
Ntp293
Rp294
(dp295
g13
I01
sg14
F1.2220356635721008
sg15
g292
sbs(I-7
I7
tp296
g0
(g9
g2
Ntp297
Rp298
(dp299
g13
I01
sg14
F1.6891247655467516
sg15
g296
sbs(I-10
I4
tp300
g0
(g9
g2
Ntp301
Rp302
(dp303
g13
I01
sg14
F0.41209133534691655
sg15
g300
sbs(I-5
I4
tp304
g0
(g9
g2
Ntp305
Rp306
(dp307
g13
I01
sg14
F0.7085695319608093
sg15
g304
sbs(I-6
I4
tp308
g0
(g9
g2
Ntp309
Rp310
(dp311
g13
I01
sg14
F0.1739655917254885
sg15
g308
sbs(I-9
I1
tp312
g0
(g9
g2
Ntp313
Rp314
(dp315
g13
I01
sg14
F-0.9176640565756108
sg15
g312
sbs(I-4
I7
tp316
g0
(g9
g2
Ntp317
Rp318
(dp319
g13
I01
sg14
F-1.480269465251105
sg15
g316
sbs(I-5
I9
tp320
g0
(g9
g2
Ntp321
Rp322
(dp323
g13
I01
sg14
F0.14986964441017211
sg15
g320
sbs(I-1
I9
tp324
g0
(g9
g2
Ntp325
Rp326
(dp327
g13
I01
sg14
F1.4590270105624543
sg15
g324
sbs(I-2
I6
tp328
g0
(g9
g2
Ntp329
Rp330
(dp331
g13
I01
sg14
F-0.03770021940507729
sg15
g328
sbs(I-3
I6
tp332
g0
(g9
g2
Ntp333
Rp334
(dp335
g13
I01
sg14
F-1.4170774655378349
sg15
g332
sbs(I13
I2
tp336
g0
(g9
g2
Ntp337
Rp338
(dp339
g13
I01
sg14
F-0.08716452397928963
sg15
g336
sbs(I-7
I13
tp340
g0
(g9
g2
Ntp341
Rp342
(dp343
g13
I01
sg14
F-0.7043223756388188
sg15
g340
sbs(I-8
I3
tp344
g0
(g9
g2
Ntp345
Rp346
(dp347
g13
I01
sg14
F-0.37017677261995197
sg15
g344
sbs(I-7
I2
tp348
g0
(g9
g2
Ntp349
Rp350
(dp351
g13
I01
sg14
F0.8780578053659963
sg15
g348
sbs(I-10
I1
tp352
g0
(g9
g2
Ntp353
Rp354
(dp355
g13
I01
sg14
F-0.42126083017055244
sg15
g352
sbs(I-5
I3
tp356
g0
(g9
g2
Ntp357
Rp358
(dp359
g13
I01
sg14
F1.3216176156873232
sg15
g356
sbs(I-9
I4
tp360
g0
(g9
g2
Ntp361
Rp362
(dp363
g13
I01
sg14
F0.8174854784677634
sg15
g360
sbs(I-4
I4
tp364
g0
(g9
g2
Ntp365
Rp366
(dp367
g13
I01
sg14
F-0.38610844209176637
sg15
g364
sbs(I-1
I3
tp368
g0
(g9
g2
Ntp369
Rp370
(dp371
g13
I01
sg14
F1.7378453025257046
sg15
g368
sbs(I-3
I9
tp372
g0
(g9
g2
Ntp373
Rp374
(dp375
g13
I01
sg14
F0.6576994565969561
sg15
g372
sbs(I13
I5
tp376
g0
(g9
g2
Ntp377
Rp378
(dp379
g13
I01
sg14
F-0.26169282467730465
sg15
g376
sbs(I-8
I13
tp380
g0
(g9
g2
Ntp381
Rp382
(dp383
g13
I01
sg14
F-1.9117780330007519
sg15
g380
sbs(I-7
I8
tp384
g0
(g9
g2
Ntp385
Rp386
(dp387
g13
I01
sg14
F-1.0170456742834015
sg15
g384
sbs(I-1
I6
tp388
g0
(g9
g2
Ntp389
Rp390
(dp391
g13
I01
sg14
F-2.1665606842184255
sg15
g388
sbs(I-10
I2
tp392
g0
(g9
g2
Ntp393
Rp394
(dp395
g13
I01
sg14
F-0.06855880808034506
sg15
g392
sbs(I6
I6
tp396
g0
(g9
g2
Ntp397
Rp398
(dp399
g13
I01
sg14
F0.23501998067281102
sg15
g396
sbs(I-2
I9
tp400
g0
(g9
g2
Ntp401
Rp402
(dp403
g13
I01
sg14
F-0.04770642988182088
sg15
g400
sbs(I-4
I9
tp404
g0
(g9
g2
Ntp405
Rp406
(dp407
g13
I01
sg14
F-0.172598139157767
sg15
g404
sbs(I7
I7
tp408
g0
(g9
g2
Ntp409
Rp410
(dp411
g13
I01
sg14
F0.19766620910132243
sg15
g408
sbs(I-1
I8
tp412
g0
(g9
g2
Ntp413
Rp414
(dp415
g13
I01
sg14
F0.3525072991809182
sg15
g412
sbs(I13
I8
tp416
g0
(g9
g2
Ntp417
Rp418
(dp419
g13
I01
sg14
F-0.0068321274629849675
sg15
g416
sbs(I3
I3
tp420
g0
(g9
g2
Ntp421
Rp422
(dp423
g13
I01
sg14
F0.7647877339681769
sg15
g420
sbs(I-6
I0
tp424
g0
(g9
g2
Ntp425
Rp426
(dp427
g13
I01
sg14
F0.7279352763294686
sg15
g424
sbs(I4
I4
tp428
g0
(g9
g2
Ntp429
Rp430
(dp431
g13
I01
sg14
F-1.0263323149681967
sg15
g428
sbs(I-4
I3
tp432
g0
(g9
g2
Ntp433
Rp434
(dp435
g13
I01
sg14
F0.22625062437498505
sg15
g432
sbs(I-5
I13
tp436
g0
(g9
g2
Ntp437
Rp438
(dp439
g13
I01
sg14
F-0.5496228769999558
sg15
g436
sbs(I-3
I2
tp440
g0
(g9
g2
Ntp441
Rp442
(dp443
g13
I01
sg14
F-0.9784396925360975
sg15
g440
sbs(I0
I0
tp444
g0
(g9
g2
Ntp445
Rp446
(dp447
g13
I01
sg14
F-0.3537865110199814
sg15
g444
sbs(I-8
I7
tp448
g0
(g9
g2
Ntp449
Rp450
(dp451
g13
I01
sg14
F0.30026951591290857
sg15
g448
sbs(I-7
I6
tp452
g0
(g9
g2
Ntp453
Rp454
(dp455
g13
I01
sg14
F0.868753829247296
sg15
g452
sbs(I-2
I1
tp456
g0
(g9
g2
Ntp457
Rp458
(dp459
g13
I01
sg14
F0.7731251395125647
sg15
g456
sbs(I-10
I5
tp460
g0
(g9
g2
Ntp461
Rp462
(dp463
g13
I01
sg14
F-1.1232169493379203
sg15
g460
sbs(I-5
I7
tp464
g0
(g9
g2
Ntp465
Rp466
(dp467
g13
I01
sg14
F1.0488607170746367
sg15
g464
sbs(I-6
I5
tp468
g0
(g9
g2
Ntp469
Rp470
(dp471
g13
I01
sg14
F0.2549944284135539
sg15
g468
sbs(I-9
I0
tp472
g0
(g9
g2
Ntp473
Rp474
(dp475
g13
I01
sg14
F2.1306998154888315
sg15
g472
sbs(I-10
I8
tp476
g0
(g9
g2
Ntp477
Rp478
(dp479
g13
I01
sg14
F0.1094377085915523
sg15
g476
sbs(I-4
I0
tp480
g0
(g9
g2
Ntp481
Rp482
(dp483
g13
I01
sg14
F-1.1097371835372525
sg15
g480
sbs(I-5
I8
tp484
g0
(g9
g2
Ntp485
Rp486
(dp487
g13
I01
sg14
F-0.3315490063884429
sg15
g484
sbs(I-9
I13
tp488
g0
(g9
g2
Ntp489
Rp490
(dp491
g13
I01
sg14
F-1.1474205217249362
sg15
g488
sbs(I-2
I7
tp492
g0
(g9
g2
Ntp493
Rp494
(dp495
g13
I01
sg14
F-0.25548354807409573
sg15
g492
sbs(I-3
I5
tp496
g0
(g9
g2
Ntp497
Rp498
(dp499
g13
I01
sg14
F1.0013949825455932
sg15
g496
sbs(I13
I1
tp500
g0
(g9
g2
Ntp501
Rp502
(dp503
g13
I01
sg14
F-0.6724461016916848
sg15
g500
sbs(I-8
I4
tp504
g0
(g9
g2
Ntp505
Rp506
(dp507
g13
I01
sg14
F-1.9120443783309173
sg15
g504
sbs(I8
I8
tp508
g0
(g9
g2
Ntp509
Rp510
(dp511
g13
I01
sg14
F1.5185934714767544
sg15
g508
sbs(I-7
I1
tp512
g0
(g9
g2
Ntp513
Rp514
(dp515
g13
I01
sg14
F-0.7182669458623855
sg15
g512
sbs(I-10
I6
tp516
g0
(g9
g2
Ntp517
Rp518
(dp519
g13
I01
sg14
F-0.3374541329328056
sg15
g516
sbs(I-5
I2
tp520
g0
(g9
g2
Ntp521
Rp522
(dp523
g13
I01
sg14
F0.33651717632684697
sg15
g520
sbs(I-6
I6
tp524
g0
(g9
g2
Ntp525
Rp526
(dp527
g13
I01
sg14
F0.8926820718763757
sg15
g524
sbs(I-9
I7
tp528
g0
(g9
g2
Ntp529
Rp530
(dp531
g13
I01
sg14
F-1.5476949044883967
sg15
g528
sbs(I-2
I13
tp532
g0
(g9
g2
Ntp533
Rp534
(dp535
g13
I01
sg14
F0.2529884047854874
sg15
g532
sbssS'nodes'
p536
(dp537
I0
g0
(cneat.genes
DefaultNodeGene
p538
g2
Ntp539
Rp540
(dp541
S'activation'
p542
S'relu'
p543
sS'bias'
p544
F-0.3086307946001492
sS'response'
p545
F1.0
sg15
I0
sS'aggregation'
p546
S'sum'
p547
sbsI1
g0
(g538
g2
Ntp548
Rp549
(dp550
g542
g543
sg544
F0.12496734032670906
sg545
F1.0
sg15
I1
sg546
g547
sbsI2
g0
(g538
g2
Ntp551
Rp552
(dp553
g542
g543
sg544
F11.029815774753756
sg545
F1.0
sg15
I2
sg546
g547
sbsI3
g0
(g538
g2
Ntp554
Rp555
(dp556
g542
g543
sg544
F5.588019883958289
sg545
F1.0
sg15
I3
sg546
g547
sbsI4
g0
(g538
g2
Ntp557
Rp558
(dp559
g542
g543
sg544
F-18.64411906953682
sg545
F1.0
sg15
I4
sg546
g547
sbsI5
g0
(g538
g2
Ntp560
Rp561
(dp562
g542
g543
sg544
F4.144794324580771
sg545
F1.0
sg15
I5
sg546
g547
sbsI6
g0
(g538
g2
Ntp563
Rp564
(dp565
g542
g543
sg544
F8.286178847962194
sg545
F1.0
sg15
I6
sg546
g547
sbsI7
g0
(g538
g2
Ntp566
Rp567
(dp568
g542
g543
sg544
F-3.3201653176107153
sg545
F1.0
sg15
I7
sg546
g547
sbsI8
g0
(g538
g2
Ntp569
Rp570
(dp571
g542
g543
sg544
F-0.18167094043800236
sg545
F1.0
sg15
I8
sg546
g547
sbsI9
g0
(g538
g2
Ntp572
Rp573
(dp574
g542
g543
sg544
F-11.243536758767796
sg545
F1.0
sg15
I9
sg546
g547
sbsI13
g0
(g538
g2
Ntp575
Rp576
(dp577
g542
g543
sg544
F-1.6414158861064307
sg545
F1.0
sg15
I13
sg546
g547
sbssg15
I4
sS'fitness'
p578
Nsb.