ccopy_reg
_reconstructor
p0
(cneat.genome
DefaultGenome
p1
c__builtin__
object
p2
Ntp3
Rp4
(dp5
S'connections'
p6
(dp7
(I-1
I27
tp8
g0
(cneat.genes
DefaultConnectionGene
p9
g2
Ntp10
Rp11
(dp12
S'enabled'
p13
I01
sS'weight'
p14
F-0.6414498613995309
sS'key'
p15
g8
sbs(I-2
I27
tp16
g0
(g9
g2
Ntp17
Rp18
(dp19
g13
I00
sg14
F3.9492773114510578
sg15
g16
sbs(I-6
I219
tp20
g0
(g9
g2
Ntp21
Rp22
(dp23
g13
I01
sg14
F1.200865724520796
sg15
g20
sbs(I-10
I27
tp24
g0
(g9
g2
Ntp25
Rp26
(dp27
g13
I01
sg14
F0.017942133634944457
sg15
g24
sbs(I-8
I27
tp28
g0
(g9
g2
Ntp29
Rp30
(dp31
g13
I00
sg14
F-0.8531998511388783
sg15
g28
sbs(I27
I6
tp32
g0
(g9
g2
Ntp33
Rp34
(dp35
g13
I01
sg14
F1.0744548179123667
sg15
g32
sbs(I-4
I27
tp36
g0
(g9
g2
Ntp37
Rp38
(dp39
g13
I01
sg14
F3.0655586862272175
sg15
g36
sbs(I27
I2
tp40
g0
(g9
g2
Ntp41
Rp42
(dp43
g13
I01
sg14
F-0.11340933948250993
sg15
g40
sbs(I96
I0
tp44
g0
(g9
g2
Ntp45
Rp46
(dp47
g13
I01
sg14
F5.94276718942856
sg15
g44
sbs(I219
I27
tp48
g0
(g9
g2
Ntp49
Rp50
(dp51
g13
I01
sg14
F2.313236844151304
sg15
g48
sbs(I27
I5
tp52
g0
(g9
g2
Ntp53
Rp54
(dp55
g13
I01
sg14
F0.28489201359109884
sg15
g52
sbs(I190
I27
tp56
g0
(g9
g2
Ntp57
Rp58
(dp59
g13
I01
sg14
F0.26256194040906977
sg15
g56
sbs(I27
I1
tp60
g0
(g9
g2
Ntp61
Rp62
(dp63
g13
I01
sg14
F1.6076600401918264
sg15
g60
sbs(I-6
I27
tp64
g0
(g9
g2
Ntp65
Rp66
(dp67
g13
I00
sg14
F2.4981046338953115
sg15
g64
sbs(I-5
I27
tp68
g0
(g9
g2
Ntp69
Rp70
(dp71
g13
I00
sg14
F2.7059230426725116
sg15
g68
sbs(I-3
I190
tp72
g0
(g9
g2
Ntp73
Rp74
(dp75
g13
I01
sg14
F-0.32739599281894466
sg15
g72
sbs(I27
I96
tp76
g0
(g9
g2
Ntp77
Rp78
(dp79
g13
I01
sg14
F2.8281687370347397
sg15
g76
sbs(I27
I4
tp80
g0
(g9
g2
Ntp81
Rp82
(dp83
g13
I01
sg14
F1.8690771238022297
sg15
g80
sbs(I-9
I27
tp84
g0
(g9
g2
Ntp85
Rp86
(dp87
g13
I01
sg14
F-0.17030757345296776
sg15
g84
sbs(I27
I9
tp88
g0
(g9
g2
Ntp89
Rp90
(dp91
g13
I01
sg14
F-2.310642364330822
sg15
g88
sbs(I27
I0
tp92
g0
(g9
g2
Ntp93
Rp94
(dp95
g13
I00
sg14
F0.5160156350711607
sg15
g92
sbs(I27
I7
tp96
g0
(g9
g2
Ntp97
Rp98
(dp99
g13
I00
sg14
F-3.484772929673144
sg15
g96
sbs(I-7
I27
tp100
g0
(g9
g2
Ntp101
Rp102
(dp103
g13
I01
sg14
F3.234493768621989
sg15
g100
sbs(I27
I8
tp104
g0
(g9
g2
Ntp105
Rp106
(dp107
g13
I01
sg14
F1.2662479028690714
sg15
g104
sbs(I27
I3
tp108
g0
(g9
g2
Ntp109
Rp110
(dp111
g13
I01
sg14
F1.6948368706416492
sg15
g108
sbs(I-3
I27
tp112
g0
(g9
g2
Ntp113
Rp114
(dp115
g13
I01
sg14
F0.4674876270352998
sg15
g112
sbssS'nodes'
p116
(dp117
I0
g0
(cneat.genes
DefaultNodeGene
p118
g2
Ntp119
Rp120
(dp121
S'activation'
p122
S'relu'
p123
sS'bias'
p124
F-12.911988603135063
sS'response'
p125
F1.0
sg15
I0
sS'aggregation'
p126
S'sum'
p127
sbsI1
g0
(g118
g2
Ntp128
Rp129
(dp130
g122
g123
sg124
F-2.3997219593242813
sg125
F1.0
sg15
I1
sg126
g127
sbsI2
g0
(g118
g2
Ntp131
Rp132
(dp133
g122
g123
sg124
F-22.797286394368864
sg125
F1.0
sg15
I2
sg126
g127
sbsI3
g0
(g118
g2
Ntp134
Rp135
(dp136
g122
g123
sg124
F-8.418253651630325
sg125
F1.0
sg15
I3
sg126
g127
sbsI4
g0
(g118
g2
Ntp137
Rp138
(dp139
g122
g123
sg124
F0.9017255958596797
sg125
F1.0
sg15
I4
sg126
g127
sbsI5
g0
(g118
g2
Ntp140
Rp141
(dp142
g122
g123
sg124
F3.689085064371941
sg125
F1.0
sg15
I5
sg126
g127
sbsI6
g0
(g118
g2
Ntp143
Rp144
(dp145
g122
g123
sg124
F17.415660061398803
sg125
F1.0
sg15
I6
sg126
g127
sbsI7
g0
(g118
g2
Ntp146
Rp147
(dp148
g122
g123
sg124
F10.61939492015596
sg125
F1.0
sg15
I7
sg126
g127
sbsI8
g0
(g118
g2
Ntp149
Rp150
(dp151
g122
g123
sg124
F-6.310556686398732
sg125
F1.0
sg15
I8
sg126
g127
sbsI9
g0
(g118
g2
Ntp152
Rp153
(dp154
g122
g123
sg124
F2.7441685953383517
sg125
F1.0
sg15
I9
sg126
g127
sbsI96
g0
(g118
g2
Ntp155
Rp156
(dp157
g122
g123
sg124
F12.972415431681357
sg125
F1.0
sg15
I96
sg126
g127
sbsI219
g0
(g118
g2
Ntp158
Rp159
(dp160
g122
g123
sg124
F8.837561357740444
sg125
F1.0
sg15
I219
sg126
g127
sbsI27
g0
(g118
g2
Ntp161
Rp162
(dp163
g122
g123
sg124
F0.4456403693077483
sg125
F1.0
sg15
I27
sg126
g127
sbsI190
g0
(g118
g2
Ntp164
Rp165
(dp166
g122
g123
sg124
F0.6482919673862563
sg125
F1.0
sg15
I190
sg126
g127
sbssg15
I854
sS'fitness'
p167
F4.56996487823675
sb.