ccopy_reg
_reconstructor
p0
(cneat.genome
DefaultGenome
p1
c__builtin__
object
p2
Ntp3
Rp4
(dp5
S'connections'
p6
(dp7
(I-8
I327
tp8
g0
(cneat.genes
DefaultConnectionGene
p9
g2
Ntp10
Rp11
(dp12
S'enabled'
p13
I01
sS'weight'
p14
F0.2499001526588271
sS'key'
p15
g8
sbs(I328
I7
tp16
g0
(g9
g2
Ntp17
Rp18
(dp19
g13
I01
sg14
F0.6797354025967277
sg15
g16
sbs(I-5
I328
tp20
g0
(g9
g2
Ntp21
Rp22
(dp23
g13
I00
sg14
F-1.089117285189475
sg15
g20
sbs(I327
I9
tp24
g0
(g9
g2
Ntp25
Rp26
(dp27
g13
I01
sg14
F-0.11347856708735958
sg15
g24
sbs(I327
I4
tp28
g0
(g9
g2
Ntp29
Rp30
(dp31
g13
I01
sg14
F1.3816173102905793
sg15
g28
sbs(I3
I3
tp32
g0
(g9
g2
Ntp33
Rp34
(dp35
g13
I01
sg14
F-0.3549366285799114
sg15
g32
sbs(I-9
I328
tp36
g0
(g9
g2
Ntp37
Rp38
(dp39
g13
I00
sg14
F1.4082288081830066
sg15
g36
sbs(I-2
I328
tp40
g0
(g9
g2
Ntp41
Rp42
(dp43
g13
I00
sg14
F-1.8177346238654304
sg15
g40
sbs(I-4
I3
tp44
g0
(g9
g2
Ntp45
Rp46
(dp47
g13
I01
sg14
F1.171240103194668
sg15
g44
sbs(I3
I328
tp48
g0
(g9
g2
Ntp49
Rp50
(dp51
g13
I00
sg14
F1.1499175596110105
sg15
g48
sbs(I328
I8
tp52
g0
(g9
g2
Ntp53
Rp54
(dp55
g13
I00
sg14
F2.7190786115868577
sg15
g52
sbs(I2
I2
tp56
g0
(g9
g2
Ntp57
Rp58
(dp59
g13
I00
sg14
F-2.53245789192974
sg15
g56
sbs(I327
I8
tp60
g0
(g9
g2
Ntp61
Rp62
(dp63
g13
I01
sg14
F0.7850675209512379
sg15
g60
sbs(I1
I1
tp64
g0
(g9
g2
Ntp65
Rp66
(dp67
g13
I01
sg14
F1.1310367700276185
sg15
g64
sbs(I327
I3
tp68
g0
(g9
g2
Ntp69
Rp70
(dp71
g13
I01
sg14
F-0.6230167989458923
sg15
g68
sbs(I4
I327
tp72
g0
(g9
g2
Ntp73
Rp74
(dp75
g13
I01
sg14
F-1.5901523957229775
sg15
g72
sbs(I0
I0
tp76
g0
(g9
g2
Ntp77
Rp78
(dp79
g13
I00
sg14
F-1.1763634917046972
sg15
g76
sbs(I327
I7
tp80
g0
(g9
g2
Ntp81
Rp82
(dp83
g13
I01
sg14
F-0.030991049740171417
sg15
g80
sbs(I328
I9
tp84
g0
(g9
g2
Ntp85
Rp86
(dp87
g13
I01
sg14
F-1.1348889194283802
sg15
g84
sbs(I-6
I328
tp88
g0
(g9
g2
Ntp89
Rp90
(dp91
g13
I01
sg14
F1.3034322101955578
sg15
g88
sbs(I-8
I3
tp92
g0
(g9
g2
Ntp93
Rp94
(dp95
g13
I01
sg14
F-0.655020372489781
sg15
g92
sbs(I-10
I327
tp96
g0
(g9
g2
Ntp97
Rp98
(dp99
g13
I01
sg14
F3.224241945415536
sg15
g96
sbs(I-4
I327
tp100
g0
(g9
g2
Ntp101
Rp102
(dp103
g13
I01
sg14
F0.6643275928396299
sg15
g100
sbs(I327
I2
tp104
g0
(g9
g2
Ntp105
Rp106
(dp107
g13
I01
sg14
F2.2765052152682435
sg15
g104
sbs(I-3
I327
tp108
g0
(g9
g2
Ntp109
Rp110
(dp111
g13
I00
sg14
F-3.078950106489248
sg15
g108
sbs(I328
I1
tp112
g0
(g9
g2
Ntp113
Rp114
(dp115
g13
I01
sg14
F-0.88137111959472
sg15
g112
sbs(I327
I6
tp116
g0
(g9
g2
Ntp117
Rp118
(dp119
g13
I00
sg14
F-2.8994656954304245
sg15
g116
sbs(I8
I8
tp120
g0
(g9
g2
Ntp121
Rp122
(dp123
g13
I00
sg14
F2.38877115240953
sg15
g120
sbs(I-5
I2
tp124
g0
(g9
g2
Ntp125
Rp126
(dp127
g13
I01
sg14
F-0.04368309740676374
sg15
g124
sbssS'nodes'
p128
(dp129
I0
g0
(cneat.genes
DefaultNodeGene
p130
g2
Ntp131
Rp132
(dp133
S'activation'
p134
S'tanh'
p135
sS'bias'
p136
F-13.311285790843366
sS'response'
p137
F1.0
sg15
I0
sS'aggregation'
p138
S'sum'
p139
sbsI1
g0
(g130
g2
Ntp140
Rp141
(dp142
g134
g135
sg136
F8.424734468415476
sg137
F1.0
sg15
I1
sg138
g139
sbsI2
g0
(g130
g2
Ntp143
Rp144
(dp145
g134
g135
sg136
F-2.2987399954475833
sg137
F1.0
sg15
I2
sg138
g139
sbsI3
g0
(g130
g2
Ntp146
Rp147
(dp148
g134
g135
sg136
F-6.422063888416741
sg137
F1.0
sg15
I3
sg138
g139
sbsI4
g0
(g130
g2
Ntp149
Rp150
(dp151
g134
g135
sg136
F13.483374610346813
sg137
F1.0
sg15
I4
sg138
g139
sbsI5
g0
(g130
g2
Ntp152
Rp153
(dp154
g134
g135
sg136
F2.5329773499949297
sg137
F1.0
sg15
I5
sg138
g139
sbsI6
g0
(g130
g2
Ntp155
Rp156
(dp157
g134
g135
sg136
F-15.429693270647192
sg137
F1.0
sg15
I6
sg138
g139
sbsI7
g0
(g130
g2
Ntp158
Rp159
(dp160
g134
S'relu'
p161
sg136
F-11.858022263578045
sg137
F1.0
sg15
I7
sg138
g139
sbsI8
g0
(g130
g2
Ntp162
Rp163
(dp164
g134
g135
sg136
F-0.7273330348282698
sg137
F1.0
sg15
I8
sg138
g139
sbsI9
g0
(g130
g2
Ntp165
Rp166
(dp167
g134
g135
sg136
F6.120359402802223
sg137
F1.0
sg15
I9
sg138
g139
sbsI327
g0
(g130
g2
Ntp168
Rp169
(dp170
g134
g135
sg136
F-4.336013515912876
sg137
F1.0
sg15
I327
sg138
g139
sbsI328
g0
(g130
g2
Ntp171
Rp172
(dp173
g134
g135
sg136
F4.021584417372291
sg137
F1.0
sg15
I328
sg138
g139
sbssg15
I4
sS'fitness'
p174
Nsb.