ccopy_reg
_reconstructor
p0
(cneat.genome
DefaultGenome
p1
c__builtin__
object
p2
Ntp3
Rp4
(dp5
S'connections'
p6
(dp7
(I23
I4
tp8
g0
(cneat.genes
DefaultConnectionGene
p9
g2
Ntp10
Rp11
(dp12
S'enabled'
p13
I01
sS'weight'
p14
F-2.2677131280838063
sS'key'
p15
g8
sbs(I-2
I23
tp16
g0
(g9
g2
Ntp17
Rp18
(dp19
g13
I01
sg14
F1.2196129406907816
sg15
g16
sbs(I7
I7
tp20
g0
(g9
g2
Ntp21
Rp22
(dp23
g13
I01
sg14
F0.6555757740596565
sg15
g20
sbs(I-4
I22
tp24
g0
(g9
g2
Ntp25
Rp26
(dp27
g13
I01
sg14
F-3.363626878228171
sg15
g24
sbs(I23
I3
tp28
g0
(g9
g2
Ntp29
Rp30
(dp31
g13
I00
sg14
F1.0497045721070093
sg15
g28
sbs(I-3
I3
tp32
g0
(g9
g2
Ntp33
Rp34
(dp35
g13
I01
sg14
F1.6725757688745682
sg15
g32
sbs(I-2
I22
tp36
g0
(g9
g2
Ntp37
Rp38
(dp39
g13
I01
sg14
F0.5394455709215965
sg15
g36
sbs(I-7
I22
tp40
g0
(g9
g2
Ntp41
Rp42
(dp43
g13
I01
sg14
F0.5420190995158428
sg15
g40
sbs(I23
I7
tp44
g0
(g9
g2
Ntp45
Rp46
(dp47
g13
I01
sg14
F-0.22161486622347487
sg15
g44
sbs(I-10
I21
tp48
g0
(g9
g2
Ntp49
Rp50
(dp51
g13
I01
sg14
F0.9709624739514793
sg15
g48
sbs(I-5
I23
tp52
g0
(g9
g2
Ntp53
Rp54
(dp55
g13
I00
sg14
F1.056208415138276
sg15
g52
sbs(I-6
I21
tp56
g0
(g9
g2
Ntp57
Rp58
(dp59
g13
I01
sg14
F1.7528237181736115
sg15
g56
sbs(I21
I0
tp60
g0
(g9
g2
Ntp61
Rp62
(dp63
g13
I00
sg14
F-0.13451295491760906
sg15
g60
sbs(I22
I7
tp64
g0
(g9
g2
Ntp65
Rp66
(dp67
g13
I01
sg14
F-2.167359736037836
sg15
g64
sbs(I23
I9
tp68
g0
(g9
g2
Ntp69
Rp70
(dp71
g13
I00
sg14
F2.8120435850729955
sg15
g68
sbs(I2
I2
tp72
g0
(g9
g2
Ntp73
Rp74
(dp75
g13
I00
sg14
F-2.720582531562488
sg15
g72
sbs(I-7
I21
tp76
g0
(g9
g2
Ntp77
Rp78
(dp79
g13
I01
sg14
F-1.3569724105329275
sg15
g76
sbs(I-5
I22
tp80
g0
(g9
g2
Ntp81
Rp82
(dp83
g13
I00
sg14
F1.2058624630550574
sg15
g80
sbs(I568
I9
tp84
g0
(g9
g2
Ntp85
Rp86
(dp87
g13
I01
sg14
F-0.20835917463830167
sg15
g84
sbs(I-2
I21
tp88
g0
(g9
g2
Ntp89
Rp90
(dp91
g13
I00
sg14
F-1.1994877871848613
sg15
g88
sbs(I-6
I22
tp92
g0
(g9
g2
Ntp93
Rp94
(dp95
g13
I01
sg14
F0.028543668197449523
sg15
g92
sbs(I22
I4
tp96
g0
(g9
g2
Ntp97
Rp98
(dp99
g13
I01
sg14
F1.7860937406495687
sg15
g96
sbs(I21
I4
tp100
g0
(g9
g2
Ntp101
Rp102
(dp103
g13
I01
sg14
F-1.5428464356184843
sg15
g100
sbs(I23
I1
tp104
g0
(g9
g2
Ntp105
Rp106
(dp107
g13
I01
sg14
F0.6384902891144084
sg15
g104
sbs(I9
I568
tp108
g0
(g9
g2
Ntp109
Rp110
(dp111
g13
I01
sg14
F1.4884621434429965
sg15
g108
sbs(I-8
I21
tp112
g0
(g9
g2
Ntp113
Rp114
(dp115
g13
I01
sg14
F0.8614301947850266
sg15
g112
sbs(I22
I0
tp116
g0
(g9
g2
Ntp117
Rp118
(dp119
g13
I00
sg14
F0.20509671313012173
sg15
g116
sbs(I23
I5
tp120
g0
(g9
g2
Ntp121
Rp122
(dp123
g13
I01
sg14
F-0.5118252510629308
sg15
g120
sbs(I-10
I23
tp124
g0
(g9
g2
Ntp125
Rp126
(dp127
g13
I01
sg14
F-1.356318832894946
sg15
g124
sbs(I21
I9
tp128
g0
(g9
g2
Ntp129
Rp130
(dp131
g13
I00
sg14
F1.5049635142570599
sg15
g128
sbs(I-1
I21
tp132
g0
(g9
g2
Ntp133
Rp134
(dp135
g13
I00
sg14
F0.6143392689214392
sg15
g132
sbs(I9
I9
tp136
g0
(g9
g2
Ntp137
Rp138
(dp139
g13
I01
sg14
F1.1270458041468463
sg15
g136
sbs(I-1
I22
tp140
g0
(g9
g2
Ntp141
Rp142
(dp143
g13
I00
sg14
F0.20256296651877
sg15
g140
sbs(I8
I8
tp144
g0
(g9
g2
Ntp145
Rp146
(dp147
g13
I01
sg14
F-0.5204880518580766
sg15
g144
sbs(I22
I8
tp148
g0
(g9
g2
Ntp149
Rp150
(dp151
g13
I01
sg14
F-1.0302934505028505
sg15
g148
sbs(I-7
I23
tp152
g0
(g9
g2
Ntp153
Rp154
(dp155
g13
I01
sg14
F-1.6488651088626634
sg15
g152
sbssS'nodes'
p156
(dp157
I0
g0
(cneat.genes
DefaultNodeGene
p158
g2
Ntp159
Rp160
(dp161
S'activation'
p162
S'tanh'
p163
sS'bias'
p164
F4.228230172917646
sS'response'
p165
F1.0
sg15
I0
sS'aggregation'
p166
S'sum'
p167
sbsI1
g0
(g158
g2
Ntp168
Rp169
(dp170
g162
g163
sg164
F-15.589794340712317
sg165
F1.0
sg15
I1
sg166
g167
sbsI2
g0
(g158
g2
Ntp171
Rp172
(dp173
g162
g163
sg164
F1.2729189618924324
sg165
F1.0
sg15
I2
sg166
g167
sbsI3
g0
(g158
g2
Ntp174
Rp175
(dp176
g162
g163
sg164
F-20.7454550650568
sg165
F1.0
sg15
I3
sg166
g167
sbsI4
g0
(g158
g2
Ntp177
Rp178
(dp179
g162
S'relu'
p180
sg164
F24.68062105694151
sg165
F1.0
sg15
I4
sg166
g167
sbsI5
g0
(g158
g2
Ntp181
Rp182
(dp183
g162
g163
sg164
F9.438372105987515
sg165
F1.0
sg15
I5
sg166
g167
sbsI6
g0
(g158
g2
Ntp184
Rp185
(dp186
g162
g163
sg164
F17.424461763063775
sg165
F1.0
sg15
I6
sg166
g167
sbsI7
g0
(g158
g2
Ntp187
Rp188
(dp189
g162
g163
sg164
F5.803574268468512
sg165
F1.0
sg15
I7
sg166
g167
sbsI8
g0
(g158
g2
Ntp190
Rp191
(dp192
g162
g163
sg164
F-7.862373113124072
sg165
F1.0
sg15
I8
sg166
g167
sbsI9
g0
(g158
g2
Ntp193
Rp194
(dp195
g162
g180
sg164
F-13.964869223909995
sg165
F1.0
sg15
I9
sg166
g167
sbsI21
g0
(g158
g2
Ntp196
Rp197
(dp198
g162
g163
sg164
F-2.825827200055096
sg165
F1.0
sg15
I21
sg166
g167
sbsI22
g0
(g158
g2
Ntp199
Rp200
(dp201
g162
g163
sg164
F-10.576955894268337
sg165
F1.0
sg15
I22
sg166
g167
sbsI23
g0
(g158
g2
Ntp202
Rp203
(dp204
g162
g163
sg164
F-2.1578088333549332
sg165
F1.0
sg15
I23
sg166
g167
sbsI568
g0
(g158
g2
Ntp205
Rp206
(dp207
g162
g163
sg164
F-0.9101203798876745
sg165
F1.0
sg15
I568
sg166
g167
sbssg15
I40
sS'fitness'
p208
Nsb.