ccopy_reg
_reconstructor
p0
(cneat.genome
DefaultGenome
p1
c__builtin__
object
p2
Ntp3
Rp4
(dp5
S'connections'
p6
(dp7
(I-18
I49
tp8
g0
(cneat.genes
DefaultConnectionGene
p9
g2
Ntp10
Rp11
(dp12
S'enabled'
p13
I01
sS'weight'
p14
F-2.1588443644226563
sS'key'
p15
g8
sbs(I49
I9
tp16
g0
(g9
g2
Ntp17
Rp18
(dp19
g13
I01
sg14
F0.10311522121186786
sg15
g16
sbs(I-8
I49
tp20
g0
(g9
g2
Ntp21
Rp22
(dp23
g13
I01
sg14
F-1.6782808318355413
sg15
g20
sbs(I-10
I49
tp24
g0
(g9
g2
Ntp25
Rp26
(dp27
g13
I01
sg14
F0.5274371635526808
sg15
g24
sbs(I-13
I49
tp28
g0
(g9
g2
Ntp29
Rp30
(dp31
g13
I01
sg14
F-1.959029530311627
sg15
g28
sbs(I-5
I49
tp32
g0
(g9
g2
Ntp33
Rp34
(dp35
g13
I01
sg14
F1.254230994631432
sg15
g32
sbs(I-16
I49
tp36
g0
(g9
g2
Ntp37
Rp38
(dp39
g13
I01
sg14
F-0.8576117270661937
sg15
g36
sbs(I49
I8
tp40
g0
(g9
g2
Ntp41
Rp42
(dp43
g13
I01
sg14
F0.441520988988019
sg15
g40
sbs(I49
I7
tp44
g0
(g9
g2
Ntp45
Rp46
(dp47
g13
I01
sg14
F-0.04905831961195056
sg15
g44
sbs(I-1
I49
tp48
g0
(g9
g2
Ntp49
Rp50
(dp51
g13
I01
sg14
F0.14908663591711632
sg15
g48
sbs(I49
I3
tp52
g0
(g9
g2
Ntp53
Rp54
(dp55
g13
I01
sg14
F-0.20956365689955284
sg15
g52
sbs(I-6
I49
tp56
g0
(g9
g2
Ntp57
Rp58
(dp59
g13
I01
sg14
F-0.33661438667125243
sg15
g56
sbs(I-11
I49
tp60
g0
(g9
g2
Ntp61
Rp62
(dp63
g13
I01
sg14
F0.7647706573148827
sg15
g60
sbs(I49
I0
tp64
g0
(g9
g2
Ntp65
Rp66
(dp67
g13
I01
sg14
F0.823941628433186
sg15
g64
sbs(I-3
I49
tp68
g0
(g9
g2
Ntp69
Rp70
(dp71
g13
I01
sg14
F0.5460404035510332
sg15
g68
sbs(I49
I6
tp72
g0
(g9
g2
Ntp73
Rp74
(dp75
g13
I01
sg14
F1.6662096733386234
sg15
g72
sbs(I-14
I49
tp76
g0
(g9
g2
Ntp77
Rp78
(dp79
g13
I01
sg14
F-1.474214254868871
sg15
g76
sbs(I49
I2
tp80
g0
(g9
g2
Ntp81
Rp82
(dp83
g13
I01
sg14
F-0.6283769430253585
sg15
g80
sbs(I-19
I49
tp84
g0
(g9
g2
Ntp85
Rp86
(dp87
g13
I01
sg14
F-0.7555953621448425
sg15
g84
sbs(I-12
I49
tp88
g0
(g9
g2
Ntp89
Rp90
(dp91
g13
I01
sg14
F0.6549778806836833
sg15
g88
sbs(I-17
I49
tp92
g0
(g9
g2
Ntp93
Rp94
(dp95
g13
I01
sg14
F-0.5094956592778102
sg15
g92
sbs(I49
I5
tp96
g0
(g9
g2
Ntp97
Rp98
(dp99
g13
I01
sg14
F-0.17563844494795222
sg15
g96
sbs(I-4
I49
tp100
g0
(g9
g2
Ntp101
Rp102
(dp103
g13
I01
sg14
F0.9630093530428008
sg15
g100
sbs(I-7
I49
tp104
g0
(g9
g2
Ntp105
Rp106
(dp107
g13
I01
sg14
F-0.5773067320362982
sg15
g104
sbs(I-9
I49
tp108
g0
(g9
g2
Ntp109
Rp110
(dp111
g13
I01
sg14
F-1.0307107694077073
sg15
g108
sbs(I49
I1
tp112
g0
(g9
g2
Ntp113
Rp114
(dp115
g13
I01
sg14
F-1.1564986365354313
sg15
g112
sbs(I-2
I49
tp116
g0
(g9
g2
Ntp117
Rp118
(dp119
g13
I01
sg14
F-0.36614847893284175
sg15
g116
sbs(I-20
I49
tp120
g0
(g9
g2
Ntp121
Rp122
(dp123
g13
I01
sg14
F0.5888077648936847
sg15
g120
sbs(I-15
I49
tp124
g0
(g9
g2
Ntp125
Rp126
(dp127
g13
I01
sg14
F0.5413344400648801
sg15
g124
sbs(I49
I4
tp128
g0
(g9
g2
Ntp129
Rp130
(dp131
g13
I01
sg14
F0.5564580521762521
sg15
g128
sbssS'nodes'
p132
(dp133
I0
g0
(cneat.genes
DefaultNodeGene
p134
g2
Ntp135
Rp136
(dp137
S'activation'
p138
S'relu'
p139
sS'bias'
p140
F-16.310350433238455
sS'response'
p141
F1.0
sg15
I0
sS'aggregation'
p142
S'sum'
p143
sbsI1
g0
(g134
g2
Ntp144
Rp145
(dp146
g138
g139
sg140
F-12.916875095085445
sg141
F1.0
sg15
I1
sg142
g143
sbsI2
g0
(g134
g2
Ntp147
Rp148
(dp149
g138
g139
sg140
F3.482188019157518
sg141
F1.0
sg15
I2
sg142
g143
sbsI3
g0
(g134
g2
Ntp150
Rp151
(dp152
g138
g139
sg140
F-5.090521442418697
sg141
F1.0
sg15
I3
sg142
g143
sbsI4
g0
(g134
g2
Ntp153
Rp154
(dp155
g138
g139
sg140
F-5.436193255251229
sg141
F1.0
sg15
I4
sg142
g143
sbsI5
g0
(g134
g2
Ntp156
Rp157
(dp158
g138
g139
sg140
F2.4124832870239334
sg141
F1.0
sg15
I5
sg142
g143
sbsI6
g0
(g134
g2
Ntp159
Rp160
(dp161
g138
g139
sg140
F0.04752570968015248
sg141
F1.0
sg15
I6
sg142
g143
sbsI7
g0
(g134
g2
Ntp162
Rp163
(dp164
g138
g139
sg140
F-9.897351949629954
sg141
F1.0
sg15
I7
sg142
g143
sbsI8
g0
(g134
g2
Ntp165
Rp166
(dp167
g138
g139
sg140
F3.4854499659107208
sg141
F1.0
sg15
I8
sg142
g143
sbsI9
g0
(g134
g2
Ntp168
Rp169
(dp170
g138
g139
sg140
F11.356902255974042
sg141
F1.0
sg15
I9
sg142
g143
sbsI49
g0
(g134
g2
Ntp171
Rp172
(dp173
g138
g139
sg140
F-15.318842362485585
sg141
F1.0
sg15
I49
sg142
g143
sbssg15
I40
sS'fitness'
p174
F0.03384219534407448
sb.