ccopy_reg
_reconstructor
p0
(cneat.genome
DefaultGenome
p1
c__builtin__
object
p2
Ntp3
Rp4
(dp5
S'connections'
p6
(dp7
(I208
I208
tp8
g0
(cneat.genes
DefaultConnectionGene
p9
g2
Ntp10
Rp11
(dp12
S'enabled'
p13
I01
sS'weight'
p14
F-0.12711579604052714
sS'key'
p15
g8
sbs(I205
I2
tp16
g0
(g9
g2
Ntp17
Rp18
(dp19
g13
I01
sg14
F-0.4524061990942292
sg15
g16
sbs(I-7
I209
tp20
g0
(g9
g2
Ntp21
Rp22
(dp23
g13
I01
sg14
F-1.0233530785287233
sg15
g20
sbs(I207
I3
tp24
g0
(g9
g2
Ntp25
Rp26
(dp27
g13
I01
sg14
F-0.01394726548474278
sg15
g24
sbs(I7
I7
tp28
g0
(g9
g2
Ntp29
Rp30
(dp31
g13
I01
sg14
F0.09973893161377581
sg15
g28
sbs(I205
I6
tp32
g0
(g9
g2
Ntp33
Rp34
(dp35
g13
I01
sg14
F0.0721250777247304
sg15
g32
sbs(I-7
I205
tp36
g0
(g9
g2
Ntp37
Rp38
(dp39
g13
I01
sg14
F0.8811139724273341
sg15
g36
sbs(I-1
I209
tp40
g0
(g9
g2
Ntp41
Rp42
(dp43
g13
I01
sg14
F0.002435416096374464
sg15
g40
sbs(I-3
I206
tp44
g0
(g9
g2
Ntp45
Rp46
(dp47
g13
I01
sg14
F0.9067540913418233
sg15
g44
sbs(I-2
I207
tp48
g0
(g9
g2
Ntp49
Rp50
(dp51
g13
I01
sg14
F-0.3490310686625817
sg15
g48
sbs(I-9
I205
tp52
g0
(g9
g2
Ntp53
Rp54
(dp55
g13
I01
sg14
F-0.05953625398885328
sg15
g52
sbs(I-7
I208
tp56
g0
(g9
g2
Ntp57
Rp58
(dp59
g13
I01
sg14
F0.9528576247523427
sg15
g56
sbs(I-6
I206
tp60
g0
(g9
g2
Ntp61
Rp62
(dp63
g13
I01
sg14
F0.9876067827895652
sg15
g60
sbs(I208
I5
tp64
g0
(g9
g2
Ntp65
Rp66
(dp67
g13
I01
sg14
F-0.21822724955190803
sg15
g64
sbs(I5
I5
tp68
g0
(g9
g2
Ntp69
Rp70
(dp71
g13
I01
sg14
F0.014603335937312424
sg15
g68
sbs(I207
I2
tp72
g0
(g9
g2
Ntp73
Rp74
(dp75
g13
I01
sg14
F-0.4115999215413788
sg15
g72
sbs(I-8
I209
tp76
g0
(g9
g2
Ntp77
Rp78
(dp79
g13
I01
sg14
F0.005734424485492761
sg15
g76
sbs(I209
I0
tp80
g0
(g9
g2
Ntp81
Rp82
(dp83
g13
I01
sg14
F-1.1053485878468852
sg15
g80
sbs(I4
I4
tp84
g0
(g9
g2
Ntp85
Rp86
(dp87
g13
I01
sg14
F1.1202239021440594
sg15
g84
sbs(I206
I7
tp88
g0
(g9
g2
Ntp89
Rp90
(dp91
g13
I01
sg14
F-0.19022393007652846
sg15
g88
sbs(I-8
I205
tp92
g0
(g9
g2
Ntp93
Rp94
(dp95
g13
I01
sg14
F-1.2002398614175276
sg15
g92
sbs(I-2
I209
tp96
g0
(g9
g2
Ntp97
Rp98
(dp99
g13
I01
sg14
F0.3685209870414196
sg15
g96
sbs(I2
I2
tp100
g0
(g9
g2
Ntp101
Rp102
(dp103
g13
I01
sg14
F0.47582913225413737
sg15
g100
sbs(I205
I9
tp104
g0
(g9
g2
Ntp105
Rp106
(dp107
g13
I01
sg14
F-0.47651873446172044
sg15
g104
sbs(I1
I1
tp108
g0
(g9
g2
Ntp109
Rp110
(dp111
g13
I01
sg14
F-1.2254387669574414
sg15
g108
sbs(I-1
I205
tp112
g0
(g9
g2
Ntp113
Rp114
(dp115
g13
I01
sg14
F-1.8087640676376016
sg15
g112
sbs(I-4
I206
tp116
g0
(g9
g2
Ntp117
Rp118
(dp119
g13
I01
sg14
F0.5989430635459041
sg15
g116
sbs(I208
I6
tp120
g0
(g9
g2
Ntp121
Rp122
(dp123
g13
I01
sg14
F-0.6758913705177307
sg15
g120
sbs(I0
I0
tp124
g0
(g9
g2
Ntp125
Rp126
(dp127
g13
I01
sg14
F0.055537230447784414
sg15
g124
sbs(I209
I7
tp128
g0
(g9
g2
Ntp129
Rp130
(dp131
g13
I01
sg14
F0.7394693540472396
sg15
g128
sbs(I206
I4
tp132
g0
(g9
g2
Ntp133
Rp134
(dp135
g13
I01
sg14
F0.23843697446507192
sg15
g132
sbs(I205
I4
tp136
g0
(g9
g2
Ntp137
Rp138
(dp139
g13
I01
sg14
F-0.8229683421735386
sg15
g136
sbs(I208
I2
tp140
g0
(g9
g2
Ntp141
Rp142
(dp143
g13
I01
sg14
F0.3060913151181185
sg15
g140
sbs(I-5
I208
tp144
g0
(g9
g2
Ntp145
Rp146
(dp147
g13
I01
sg14
F0.29594527799247783
sg15
g144
sbs(I209
I3
tp148
g0
(g9
g2
Ntp149
Rp150
(dp151
g13
I01
sg14
F-0.6625013024832096
sg15
g148
sbs(I206
I0
tp152
g0
(g9
g2
Ntp153
Rp154
(dp155
g13
I01
sg14
F2.0829755903296467
sg15
g152
sbs(I205
I8
tp156
g0
(g9
g2
Ntp157
Rp158
(dp159
g13
I01
sg14
F0.18297310987072254
sg15
g156
sbs(I208
I8
tp160
g0
(g9
g2
Ntp161
Rp162
(dp163
g13
I01
sg14
F-0.820044489242363
sg15
g160
sbs(I205
I0
tp164
g0
(g9
g2
Ntp165
Rp166
(dp167
g13
I01
sg14
F1.0083787528390735
sg15
g164
sbs(I208
I7
tp168
g0
(g9
g2
Ntp169
Rp170
(dp171
g13
I01
sg14
F0.8618820613435682
sg15
g168
sbs(I209
I9
tp172
g0
(g9
g2
Ntp173
Rp174
(dp175
g13
I01
sg14
F1.544998085057222
sg15
g172
sbs(I-3
I209
tp176
g0
(g9
g2
Ntp177
Rp178
(dp179
g13
I01
sg14
F1.7802082294213588
sg15
g176
sbs(I209
I6
tp180
g0
(g9
g2
Ntp181
Rp182
(dp183
g13
I01
sg14
F0.44638157616363017
sg15
g180
sbs(I-10
I205
tp184
g0
(g9
g2
Ntp185
Rp186
(dp187
g13
I01
sg14
F0.1399101565306136
sg15
g184
sbs(I-1
I206
tp188
g0
(g9
g2
Ntp189
Rp190
(dp191
g13
I01
sg14
F-0.5992479755501356
sg15
g188
sbs(I-6
I209
tp192
g0
(g9
g2
Ntp193
Rp194
(dp195
g13
I01
sg14
F1.5601951210957439
sg15
g192
sbs(I-2
I206
tp196
g0
(g9
g2
Ntp197
Rp198
(dp199
g13
I01
sg14
F-0.0673945367986301
sg15
g196
sbs(I207
I0
tp200
g0
(g9
g2
Ntp201
Rp202
(dp203
g13
I01
sg14
F0.6653488523796205
sg15
g200
sbs(I-4
I207
tp204
g0
(g9
g2
Ntp205
Rp206
(dp207
g13
I01
sg14
F0.042052491451241514
sg15
g204
sbs(I206
I8
tp208
g0
(g9
g2
Ntp209
Rp210
(dp211
g13
I01
sg14
F0.4516997295023636
sg15
g208
sbs(I-9
I206
tp212
g0
(g9
g2
Ntp213
Rp214
(dp215
g13
I01
sg14
F0.39550281978246854
sg15
g212
sbs(I-7
I206
tp216
g0
(g9
g2
Ntp217
Rp218
(dp219
g13
I01
sg14
F1.5046613253806702
sg15
g216
sbs(I-2
I208
tp220
g0
(g9
g2
Ntp221
Rp222
(dp223
g13
I01
sg14
F1.0551982559473585
sg15
g220
sbs(I-6
I205
tp224
g0
(g9
g2
Ntp225
Rp226
(dp227
g13
I01
sg14
F2.927400709014829
sg15
g224
sbs(I-3
I207
tp228
g0
(g9
g2
Ntp229
Rp230
(dp231
g13
I01
sg14
F-0.5257587286278992
sg15
g228
sbs(I209
I209
tp232
g0
(g9
g2
Ntp233
Rp234
(dp235
g13
I01
sg14
F0.9136618292252917
sg15
g232
sbs(I-3
I208
tp236
g0
(g9
g2
Ntp237
Rp238
(dp239
g13
I01
sg14
F-0.2659540331081323
sg15
g236
sbs(I-9
I207
tp240
g0
(g9
g2
Ntp241
Rp242
(dp243
g13
I01
sg14
F-0.5591102269891303
sg15
g240
sbssS'nodes'
p244
(dp245
I0
g0
(cneat.genes
DefaultNodeGene
p246
g2
Ntp247
Rp248
(dp249
S'activation'
p250
S'relu'
p251
sS'bias'
p252
F0.5887861764069875
sS'response'
p253
F1.0
sg15
I0
sS'aggregation'
p254
S'sum'
p255
sbsI1
g0
(g246
g2
Ntp256
Rp257
(dp258
g250
g251
sg252
F-9.281956487448015
sg253
F1.0
sg15
I1
sg254
g255
sbsI2
g0
(g246
g2
Ntp259
Rp260
(dp261
g250
g251
sg252
F18.84902472429677
sg253
F1.0
sg15
I2
sg254
g255
sbsI3
g0
(g246
g2
Ntp262
Rp263
(dp264
g250
g251
sg252
F2.3704571805516377
sg253
F1.0
sg15
I3
sg254
g255
sbsI4
g0
(g246
g2
Ntp265
Rp266
(dp267
g250
g251
sg252
F10.03872459441935
sg253
F1.0
sg15
I4
sg254
g255
sbsI5
g0
(g246
g2
Ntp268
Rp269
(dp270
g250
g251
sg252
F-21.208614384376396
sg253
F1.0
sg15
I5
sg254
g255
sbsI6
g0
(g246
g2
Ntp271
Rp272
(dp273
g250
g251
sg252
F-2.089598116319869
sg253
F1.0
sg15
I6
sg254
g255
sbsI7
g0
(g246
g2
Ntp274
Rp275
(dp276
g250
g251
sg252
F8.007021764023666
sg253
F1.0
sg15
I7
sg254
g255
sbsI8
g0
(g246
g2
Ntp277
Rp278
(dp279
g250
g251
sg252
F-15.86962893598752
sg253
F1.0
sg15
I8
sg254
g255
sbsI9
g0
(g246
g2
Ntp280
Rp281
(dp282
g250
g251
sg252
F5.442613300462939
sg253
F1.0
sg15
I9
sg254
g255
sbsI205
g0
(g246
g2
Ntp283
Rp284
(dp285
g250
g251
sg252
F-28.166373058035397
sg253
F1.0
sg15
I205
sg254
g255
sbsI206
g0
(g246
g2
Ntp286
Rp287
(dp288
g250
g251
sg252
F-11.611283112659557
sg253
F1.0
sg15
I206
sg254
g255
sbsI207
g0
(g246
g2
Ntp289
Rp290
(dp291
g250
g251
sg252
F7.3762125027488885
sg253
F1.0
sg15
I207
sg254
g255
sbsI208
g0
(g246
g2
Ntp292
Rp293
(dp294
g250
g251
sg252
F-8.850398226786176
sg253
F1.0
sg15
I208
sg254
g255
sbsI209
g0
(g246
g2
Ntp295
Rp296
(dp297
g250
g251
sg252
F9.530945708588385
sg253
F1.0
sg15
I209
sg254
g255
sbssg15
I40
sS'fitness'
p298
Nsb.