ccopy_reg
_reconstructor
p0
(cneat.genome
DefaultGenome
p1
c__builtin__
object
p2
Ntp3
Rp4
(dp5
S'connections'
p6
(dp7
(I-8
I327
tp8
g0
(cneat.genes
DefaultConnectionGene
p9
g2
Ntp10
Rp11
(dp12
S'enabled'
p13
I00
sS'weight'
p14
F-0.02103441251228612
sS'key'
p15
g8
sbs(I327
I9
tp16
g0
(g9
g2
Ntp17
Rp18
(dp19
g13
I01
sg14
F1.0985878943189191
sg15
g16
sbs(I327
I4
tp20
g0
(g9
g2
Ntp21
Rp22
(dp23
g13
I01
sg14
F1.2971436573734025
sg15
g20
sbs(I3
I3
tp24
g0
(g9
g2
Ntp25
Rp26
(dp27
g13
I00
sg14
F-1.470867599898159
sg15
g24
sbs(I1
I623
tp28
g0
(g9
g2
Ntp29
Rp30
(dp31
g13
I01
sg14
F1.4868910727009836
sg15
g28
sbs(I2
I2
tp32
g0
(g9
g2
Ntp33
Rp34
(dp35
g13
I01
sg14
F1.3735094975481716
sg15
g32
sbs(I327
I8
tp36
g0
(g9
g2
Ntp37
Rp38
(dp39
g13
I01
sg14
F-1.9478206033802457
sg15
g36
sbs(I1
I1
tp40
g0
(g9
g2
Ntp41
Rp42
(dp43
g13
I00
sg14
F0.7074903190204144
sg15
g40
sbs(I327
I3
tp44
g0
(g9
g2
Ntp45
Rp46
(dp47
g13
I01
sg14
F2.9874535437395813
sg15
g44
sbs(I0
I0
tp48
g0
(g9
g2
Ntp49
Rp50
(dp51
g13
I01
sg14
F-2.1065022365902766
sg15
g48
sbs(I327
I7
tp52
g0
(g9
g2
Ntp53
Rp54
(dp55
g13
I01
sg14
F0.3099451802556228
sg15
g52
sbs(I-10
I327
tp56
g0
(g9
g2
Ntp57
Rp58
(dp59
g13
I01
sg14
F0.7425523125621818
sg15
g56
sbs(I327
I2
tp60
g0
(g9
g2
Ntp61
Rp62
(dp63
g13
I01
sg14
F-0.3437690181816897
sg15
g60
sbs(I-3
I327
tp64
g0
(g9
g2
Ntp65
Rp66
(dp67
g13
I01
sg14
F-0.19003162854743494
sg15
g64
sbs(I327
I6
tp68
g0
(g9
g2
Ntp69
Rp70
(dp71
g13
I00
sg14
F0.4977199262762531
sg15
g68
sbs(I623
I1
tp72
g0
(g9
g2
Ntp73
Rp74
(dp75
g13
I01
sg14
F-2.2063246503793246
sg15
g72
sbs(I8
I8
tp76
g0
(g9
g2
Ntp77
Rp78
(dp79
g13
I01
sg14
F-3.007012960888665
sg15
g76
sbs(I-4
I327
tp80
g0
(g9
g2
Ntp81
Rp82
(dp83
g13
I01
sg14
F-0.8870947874409213
sg15
g80
sbssS'nodes'
p84
(dp85
I0
g0
(cneat.genes
DefaultNodeGene
p86
g2
Ntp87
Rp88
(dp89
S'activation'
p90
S'tanh'
p91
sS'bias'
p92
F-0.5938380711323942
sS'response'
p93
F1.0
sg15
I0
sS'aggregation'
p94
S'sum'
p95
sbsI1
g0
(g86
g2
Ntp96
Rp97
(dp98
g90
g91
sg92
F-7.358818530988815
sg93
F1.0
sg15
I1
sg94
g95
sbsI2
g0
(g86
g2
Ntp99
Rp100
(dp101
g90
g91
sg92
F-1.4360177008672672
sg93
F1.0
sg15
I2
sg94
g95
sbsI3
g0
(g86
g2
Ntp102
Rp103
(dp104
g90
g91
sg92
F-4.150691568428841
sg93
F1.0
sg15
I3
sg94
g95
sbsI4
g0
(g86
g2
Ntp105
Rp106
(dp107
g90
g91
sg92
F4.554677095358207
sg93
F1.0
sg15
I4
sg94
g95
sbsI5
g0
(g86
g2
Ntp108
Rp109
(dp110
g90
g91
sg92
F-0.809532558922731
sg93
F1.0
sg15
I5
sg94
g95
sbsI6
g0
(g86
g2
Ntp111
Rp112
(dp113
g90
g91
sg92
F-7.863760711995274
sg93
F1.0
sg15
I6
sg94
g95
sbsI7
g0
(g86
g2
Ntp114
Rp115
(dp116
g90
S'relu'
p117
sg92
F-10.18022208184189
sg93
F1.0
sg15
I7
sg94
g95
sbsI8
g0
(g86
g2
Ntp118
Rp119
(dp120
g90
g91
sg92
F-4.371141184419464
sg93
F1.0
sg15
I8
sg94
g95
sbsI9
g0
(g86
g2
Ntp121
Rp122
(dp123
g90
g91
sg92
F4.506445170204005
sg93
F1.0
sg15
I9
sg94
g95
sbsI327
g0
(g86
g2
Ntp124
Rp125
(dp126
g90
g91
sg92
F-6.106829500717046
sg93
F1.0
sg15
I327
sg94
g95
sbsI623
g0
(g86
g2
Ntp127
Rp128
(dp129
g90
g117
sg92
F-11.817194269016218
sg93
F1.0
sg15
I623
sg94
g95
sbssg15
I40
sS'fitness'
p130
Nsb.