ccopy_reg
_reconstructor
p0
(cneat.genome
DefaultGenome
p1
c__builtin__
object
p2
Ntp3
Rp4
(dp5
S'connections'
p6
(dp7
(I-4
I50
tp8
g0
(cneat.genes
DefaultConnectionGene
p9
g2
Ntp10
Rp11
(dp12
S'enabled'
p13
I01
sS'weight'
p14
F0.7264164085529898
sS'key'
p15
g8
sbs(I50
I3
tp16
g0
(g9
g2
Ntp17
Rp18
(dp19
g13
I01
sg14
F1.6580282482747584
sg15
g16
sbs(I50
I7
tp20
g0
(g9
g2
Ntp21
Rp22
(dp23
g13
I01
sg14
F-0.6119076122698888
sg15
g20
sbs(I-20
I50
tp24
g0
(g9
g2
Ntp25
Rp26
(dp27
g13
I01
sg14
F2.3760963911264823
sg15
g24
sbs(I-2
I50
tp28
g0
(g9
g2
Ntp29
Rp30
(dp31
g13
I01
sg14
F-0.6630555310517576
sg15
g28
sbs(I-11
I50
tp32
g0
(g9
g2
Ntp33
Rp34
(dp35
g13
I01
sg14
F-0.936608585994666
sg15
g32
sbs(I50
I0
tp36
g0
(g9
g2
Ntp37
Rp38
(dp39
g13
I01
sg14
F-0.31213121769976565
sg15
g36
sbs(I-1
I50
tp40
g0
(g9
g2
Ntp41
Rp42
(dp43
g13
I01
sg14
F0.402913905040027
sg15
g40
sbs(I-3
I50
tp44
g0
(g9
g2
Ntp45
Rp46
(dp47
g13
I01
sg14
F0.48800915147289936
sg15
g44
sbs(I-8
I50
tp48
g0
(g9
g2
Ntp49
Rp50
(dp51
g13
I01
sg14
F0.06014187368132499
sg15
g48
sbs(I-18
I50
tp52
g0
(g9
g2
Ntp53
Rp54
(dp55
g13
I01
sg14
F-0.3913915153975945
sg15
g52
sbs(I50
I4
tp56
g0
(g9
g2
Ntp57
Rp58
(dp59
g13
I01
sg14
F-0.07177657275705354
sg15
g56
sbs(I-10
I50
tp60
g0
(g9
g2
Ntp61
Rp62
(dp63
g13
I01
sg14
F0.484414333495151
sg15
g60
sbs(I-19
I50
tp64
g0
(g9
g2
Ntp65
Rp66
(dp67
g13
I01
sg14
F-0.45884142465206695
sg15
g64
sbs(I-17
I50
tp68
g0
(g9
g2
Ntp69
Rp70
(dp71
g13
I01
sg14
F-1.3568345882760362
sg15
g68
sbs(I50
I8
tp72
g0
(g9
g2
Ntp73
Rp74
(dp75
g13
I01
sg14
F-0.35732279471080064
sg15
g72
sbs(I-16
I50
tp76
g0
(g9
g2
Ntp77
Rp78
(dp79
g13
I01
sg14
F-1.5815342548165718
sg15
g76
sbs(I50
I1
tp80
g0
(g9
g2
Ntp81
Rp82
(dp83
g13
I01
sg14
F0.44661690748901034
sg15
g80
sbs(I-7
I50
tp84
g0
(g9
g2
Ntp85
Rp86
(dp87
g13
I01
sg14
F1.5429049499508656
sg15
g84
sbs(I50
I5
tp88
g0
(g9
g2
Ntp89
Rp90
(dp91
g13
I01
sg14
F1.1780592061068673
sg15
g88
sbs(I50
I9
tp92
g0
(g9
g2
Ntp93
Rp94
(dp95
g13
I01
sg14
F-0.7641241536876641
sg15
g92
sbs(I-6
I50
tp96
g0
(g9
g2
Ntp97
Rp98
(dp99
g13
I01
sg14
F-0.9377109010811443
sg15
g96
sbs(I-15
I50
tp100
g0
(g9
g2
Ntp101
Rp102
(dp103
g13
I01
sg14
F-0.7696985770867414
sg15
g100
sbs(I-13
I50
tp104
g0
(g9
g2
Ntp105
Rp106
(dp107
g13
I01
sg14
F-0.6478186684856694
sg15
g104
sbs(I50
I2
tp108
g0
(g9
g2
Ntp109
Rp110
(dp111
g13
I01
sg14
F0.10548159662680864
sg15
g108
sbs(I-5
I50
tp112
g0
(g9
g2
Ntp113
Rp114
(dp115
g13
I01
sg14
F2.014909403954331
sg15
g112
sbs(I50
I6
tp116
g0
(g9
g2
Ntp117
Rp118
(dp119
g13
I01
sg14
F1.4552098188001716
sg15
g116
sbs(I-9
I50
tp120
g0
(g9
g2
Ntp121
Rp122
(dp123
g13
I01
sg14
F-1.40900570856493
sg15
g120
sbs(I-14
I50
tp124
g0
(g9
g2
Ntp125
Rp126
(dp127
g13
I01
sg14
F-0.5863542562029125
sg15
g124
sbs(I-12
I50
tp128
g0
(g9
g2
Ntp129
Rp130
(dp131
g13
I01
sg14
F0.13489999485771925
sg15
g128
sbssS'nodes'
p132
(dp133
I0
g0
(cneat.genes
DefaultNodeGene
p134
g2
Ntp135
Rp136
(dp137
S'activation'
p138
S'relu'
p139
sS'bias'
p140
F6.415009432188391
sS'response'
p141
F1.0
sg15
I0
sS'aggregation'
p142
S'sum'
p143
sbsI1
g0
(g134
g2
Ntp144
Rp145
(dp146
g138
g139
sg140
F-12.889513356608225
sg141
F1.0
sg15
I1
sg142
g143
sbsI2
g0
(g134
g2
Ntp147
Rp148
(dp149
g138
g139
sg140
F6.7535237277664875
sg141
F1.0
sg15
I2
sg142
g143
sbsI3
g0
(g134
g2
Ntp150
Rp151
(dp152
g138
g139
sg140
F2.6102694925704544
sg141
F1.0
sg15
I3
sg142
g143
sbsI4
g0
(g134
g2
Ntp153
Rp154
(dp155
g138
g139
sg140
F6.974983131138689
sg141
F1.0
sg15
I4
sg142
g143
sbsI5
g0
(g134
g2
Ntp156
Rp157
(dp158
g138
g139
sg140
F9.523583907742715
sg141
F1.0
sg15
I5
sg142
g143
sbsI6
g0
(g134
g2
Ntp159
Rp160
(dp161
g138
g139
sg140
F2.7814953285636372
sg141
F1.0
sg15
I6
sg142
g143
sbsI7
g0
(g134
g2
Ntp162
Rp163
(dp164
g138
g139
sg140
F-7.931527558117378
sg141
F1.0
sg15
I7
sg142
g143
sbsI8
g0
(g134
g2
Ntp165
Rp166
(dp167
g138
g139
sg140
F1.8052468708552856
sg141
F1.0
sg15
I8
sg142
g143
sbsI9
g0
(g134
g2
Ntp168
Rp169
(dp170
g138
g139
sg140
F-7.619664046249522
sg141
F1.0
sg15
I9
sg142
g143
sbsI50
g0
(g134
g2
Ntp171
Rp172
(dp173
g138
g139
sg140
F-2.8000417100897215
sg141
F1.0
sg15
I50
sg142
g143
sbssg15
I41
sS'fitness'
p174
F0.08159479347194845
sb.