ccopy_reg
_reconstructor
p0
(cneat.genome
DefaultGenome
p1
c__builtin__
object
p2
Ntp3
Rp4
(dp5
S'connections'
p6
(dp7
(I-4
I50
tp8
g0
(cneat.genes
DefaultConnectionGene
p9
g2
Ntp10
Rp11
(dp12
S'enabled'
p13
I01
sS'weight'
p14
F0.9386713712490957
sS'key'
p15
g8
sbs(I-2
I50
tp16
g0
(g9
g2
Ntp17
Rp18
(dp19
g13
I01
sg14
F0.49420158601466835
sg15
g16
sbs(I-3
I50
tp20
g0
(g9
g2
Ntp21
Rp22
(dp23
g13
I01
sg14
F0.9579786729166357
sg15
g20
sbs(I-8
I50
tp24
g0
(g9
g2
Ntp25
Rp26
(dp27
g13
I01
sg14
F0.18316608012892774
sg15
g24
sbs(I50
I0
tp28
g0
(g9
g2
Ntp29
Rp30
(dp31
g13
I01
sg14
F0.915126522205863
sg15
g28
sbs(I-7
I50
tp32
g0
(g9
g2
Ntp33
Rp34
(dp35
g13
I01
sg14
F0.45793955694869115
sg15
g32
sbs(I50
I6
tp36
g0
(g9
g2
Ntp37
Rp38
(dp39
g13
I01
sg14
F0.5588291300433413
sg15
g36
sbs(I-5
I50
tp40
g0
(g9
g2
Ntp41
Rp42
(dp43
g13
I01
sg14
F-0.8071170622583229
sg15
g40
sbs(I50
I2
tp44
g0
(g9
g2
Ntp45
Rp46
(dp47
g13
I01
sg14
F0.3043919364693923
sg15
g44
sbs(I50
I4
tp48
g0
(g9
g2
Ntp49
Rp50
(dp51
g13
I01
sg14
F0.4782898061725371
sg15
g48
sbs(I50
I7
tp52
g0
(g9
g2
Ntp53
Rp54
(dp55
g13
I01
sg14
F0.9401131693488826
sg15
g52
sbs(I-10
I50
tp56
g0
(g9
g2
Ntp57
Rp58
(dp59
g13
I01
sg14
F-0.22248627808431012
sg15
g56
sbs(I50
I1
tp60
g0
(g9
g2
Ntp61
Rp62
(dp63
g13
I01
sg14
F0.8528473878904995
sg15
g60
sbs(I50
I9
tp64
g0
(g9
g2
Ntp65
Rp66
(dp67
g13
I01
sg14
F-0.8138998413955942
sg15
g64
sbs(I50
I8
tp68
g0
(g9
g2
Ntp69
Rp70
(dp71
g13
I01
sg14
F0.08702215253032679
sg15
g68
sbs(I50
I3
tp72
g0
(g9
g2
Ntp73
Rp74
(dp75
g13
I01
sg14
F0.13837406253308582
sg15
g72
sbs(I-1
I50
tp76
g0
(g9
g2
Ntp77
Rp78
(dp79
g13
I01
sg14
F-0.2918039074451725
sg15
g76
sbs(I50
I5
tp80
g0
(g9
g2
Ntp81
Rp82
(dp83
g13
I01
sg14
F0.0007867841661300882
sg15
g80
sbs(I-9
I50
tp84
g0
(g9
g2
Ntp85
Rp86
(dp87
g13
I01
sg14
F1.1611427249422257
sg15
g84
sbs(I-6
I50
tp88
g0
(g9
g2
Ntp89
Rp90
(dp91
g13
I01
sg14
F-0.31110672993569416
sg15
g88
sbssS'nodes'
p92
(dp93
I0
g0
(cneat.genes
DefaultNodeGene
p94
g2
Ntp95
Rp96
(dp97
S'activation'
p98
S'relu'
p99
sS'bias'
p100
F-6.468007921760483
sS'response'
p101
F1.0
sg15
I0
sS'aggregation'
p102
S'sum'
p103
sbsI1
g0
(g94
g2
Ntp104
Rp105
(dp106
g98
g99
sg100
F-15.29241502083051
sg101
F1.0
sg15
I1
sg102
g103
sbsI2
g0
(g94
g2
Ntp107
Rp108
(dp109
g98
g99
sg100
F-3.014193804939977
sg101
F1.0
sg15
I2
sg102
g103
sbsI3
g0
(g94
g2
Ntp110
Rp111
(dp112
g98
g99
sg100
F-11.251453145824325
sg101
F1.0
sg15
I3
sg102
g103
sbsI4
g0
(g94
g2
Ntp113
Rp114
(dp115
g98
g99
sg100
F6.122970258685777
sg101
F1.0
sg15
I4
sg102
g103
sbsI5
g0
(g94
g2
Ntp116
Rp117
(dp118
g98
g99
sg100
F-9.412520364482301
sg101
F1.0
sg15
I5
sg102
g103
sbsI6
g0
(g94
g2
Ntp119
Rp120
(dp121
g98
g99
sg100
F3.107371911810315
sg101
F1.0
sg15
I6
sg102
g103
sbsI7
g0
(g94
g2
Ntp122
Rp123
(dp124
g98
g99
sg100
F3.626523210607707
sg101
F1.0
sg15
I7
sg102
g103
sbsI8
g0
(g94
g2
Ntp125
Rp126
(dp127
g98
g99
sg100
F2.216462848010204
sg101
F1.0
sg15
I8
sg102
g103
sbsI9
g0
(g94
g2
Ntp128
Rp129
(dp130
g98
g99
sg100
F-11.708552205637833
sg101
F1.0
sg15
I9
sg102
g103
sbsI50
g0
(g94
g2
Ntp131
Rp132
(dp133
g98
g99
sg100
F3.292342898563176
sg101
F1.0
sg15
I50
sg102
g103
sbssg15
I41
sS'fitness'
p134
F-0.374993028362419
sb.