ccopy_reg
_reconstructor
p0
(cneat.genome
DefaultGenome
p1
c__builtin__
object
p2
Ntp3
Rp4
(dp5
S'connections'
p6
(dp7
(I328
I7
tp8
g0
(cneat.genes
DefaultConnectionGene
p9
g2
Ntp10
Rp11
(dp12
S'enabled'
p13
I01
sS'weight'
p14
F0.0806035646173941
sS'key'
p15
g8
sbs(I-5
I328
tp16
g0
(g9
g2
Ntp17
Rp18
(dp19
g13
I01
sg14
F0.5469445132702853
sg15
g16
sbs(I3
I3
tp20
g0
(g9
g2
Ntp21
Rp22
(dp23
g13
I00
sg14
F-1.4130584469978893
sg15
g20
sbs(I-9
I328
tp24
g0
(g9
g2
Ntp25
Rp26
(dp27
g13
I00
sg14
F2.017617539660799
sg15
g24
sbs(I-2
I328
tp28
g0
(g9
g2
Ntp29
Rp30
(dp31
g13
I01
sg14
F-0.5949629429867898
sg15
g28
sbs(I3
I328
tp32
g0
(g9
g2
Ntp33
Rp34
(dp35
g13
I00
sg14
F1.9298035368057223
sg15
g32
sbs(I328
I8
tp36
g0
(g9
g2
Ntp37
Rp38
(dp39
g13
I00
sg14
F0.19105677386076358
sg15
g36
sbs(I2
I2
tp40
g0
(g9
g2
Ntp41
Rp42
(dp43
g13
I01
sg14
F0.22323995766698773
sg15
g40
sbs(I1
I1
tp44
g0
(g9
g2
Ntp45
Rp46
(dp47
g13
I01
sg14
F0.3249279499514124
sg15
g44
sbs(I0
I0
tp48
g0
(g9
g2
Ntp49
Rp50
(dp51
g13
I01
sg14
F-1.5501872595101753
sg15
g48
sbs(I328
I9
tp52
g0
(g9
g2
Ntp53
Rp54
(dp55
g13
I01
sg14
F-2.17504472334953
sg15
g52
sbs(I-6
I328
tp56
g0
(g9
g2
Ntp57
Rp58
(dp59
g13
I01
sg14
F0.8265864574590147
sg15
g56
sbs(I328
I5
tp60
g0
(g9
g2
Ntp61
Rp62
(dp63
g13
I01
sg14
F0.2882439234757488
sg15
g60
sbs(I328
I1
tp64
g0
(g9
g2
Ntp65
Rp66
(dp67
g13
I01
sg14
F-0.8121589946946592
sg15
g64
sbs(I8
I8
tp68
g0
(g9
g2
Ntp69
Rp70
(dp71
g13
I01
sg14
F-2.1360391895007287
sg15
g68
sbssS'nodes'
p72
(dp73
I0
g0
(cneat.genes
DefaultNodeGene
p74
g2
Ntp75
Rp76
(dp77
S'activation'
p78
S'tanh'
p79
sS'bias'
p80
F0.025803464413952537
sS'response'
p81
F1.0
sg15
I0
sS'aggregation'
p82
S'sum'
p83
sbsI1
g0
(g74
g2
Ntp84
Rp85
(dp86
g78
g79
sg80
F-8.286112199299792
sg81
F1.0
sg15
I1
sg82
g83
sbsI2
g0
(g74
g2
Ntp87
Rp88
(dp89
g78
g79
sg80
F-2.538616224318477
sg81
F1.0
sg15
I2
sg82
g83
sbsI3
g0
(g74
g2
Ntp90
Rp91
(dp92
g78
g79
sg80
F-4.865192873165293
sg81
F1.0
sg15
I3
sg82
g83
sbsI4
g0
(g74
g2
Ntp93
Rp94
(dp95
g78
g79
sg80
F4.920089474770392
sg81
F1.0
sg15
I4
sg82
g83
sbsI5
g0
(g74
g2
Ntp96
Rp97
(dp98
g78
g79
sg80
F-0.5919340224789633
sg81
F1.0
sg15
I5
sg82
g83
sbsI6
g0
(g74
g2
Ntp99
Rp100
(dp101
g78
g79
sg80
F-6.573583671121588
sg81
F1.0
sg15
I6
sg82
g83
sbsI7
g0
(g74
g2
Ntp102
Rp103
(dp104
g78
S'relu'
p105
sg80
F-10.619863299534954
sg81
F1.0
sg15
I7
sg82
g83
sbsI8
g0
(g74
g2
Ntp106
Rp107
(dp108
g78
g79
sg80
F-5.520149150364455
sg81
F1.0
sg15
I8
sg82
g83
sbsI9
g0
(g74
g2
Ntp109
Rp110
(dp111
g78
g79
sg80
F3.8308130163470206
sg81
F1.0
sg15
I9
sg82
g83
sbsI328
g0
(g74
g2
Ntp112
Rp113
(dp114
g78
g79
sg80
F0.4653780551311515
sg81
F1.0
sg15
I328
sg82
g83
sbssg15
I41
sS'fitness'
p115
Nsb.