ccopy_reg
_reconstructor
p0
(cneat.genome
DefaultGenome
p1
c__builtin__
object
p2
Ntp3
Rp4
(dp5
S'connections'
p6
(dp7
(I23
I4
tp8
g0
(cneat.genes
DefaultConnectionGene
p9
g2
Ntp10
Rp11
(dp12
S'enabled'
p13
I01
sS'weight'
p14
F-2.2666948386330956
sS'key'
p15
g8
sbs(I-2
I23
tp16
g0
(g9
g2
Ntp17
Rp18
(dp19
g13
I01
sg14
F0.09992474649126848
sg15
g16
sbs(I7
I7
tp20
g0
(g9
g2
Ntp21
Rp22
(dp23
g13
I01
sg14
F0.683881860183801
sg15
g20
sbs(I23
I3
tp24
g0
(g9
g2
Ntp25
Rp26
(dp27
g13
I00
sg14
F-0.025780165528208
sg15
g24
sbs(I-3
I3
tp28
g0
(g9
g2
Ntp29
Rp30
(dp31
g13
I01
sg14
F0.6794368008410478
sg15
g28
sbs(I-2
I22
tp32
g0
(g9
g2
Ntp33
Rp34
(dp35
g13
I01
sg14
F0.39683119948384915
sg15
g32
sbs(I-7
I22
tp36
g0
(g9
g2
Ntp37
Rp38
(dp39
g13
I00
sg14
F-0.4768702046639537
sg15
g36
sbs(I23
I7
tp40
g0
(g9
g2
Ntp41
Rp42
(dp43
g13
I01
sg14
F-0.23289659985986555
sg15
g40
sbs(I-10
I21
tp44
g0
(g9
g2
Ntp45
Rp46
(dp47
g13
I01
sg14
F0.9465129418061342
sg15
g44
sbs(I-5
I23
tp48
g0
(g9
g2
Ntp49
Rp50
(dp51
g13
I00
sg14
F0.08501019856382064
sg15
g48
sbs(I-6
I21
tp52
g0
(g9
g2
Ntp53
Rp54
(dp55
g13
I01
sg14
F1.8199947642492682
sg15
g52
sbs(I21
I0
tp56
g0
(g9
g2
Ntp57
Rp58
(dp59
g13
I00
sg14
F-1.0713532244144903
sg15
g56
sbs(I22
I7
tp60
g0
(g9
g2
Ntp61
Rp62
(dp63
g13
I01
sg14
F0.8174716845749559
sg15
g60
sbs(I23
I9
tp64
g0
(g9
g2
Ntp65
Rp66
(dp67
g13
I00
sg14
F2.8332189535167083
sg15
g64
sbs(I2
I2
tp68
g0
(g9
g2
Ntp69
Rp70
(dp71
g13
I00
sg14
F-2.082247613268854
sg15
g68
sbs(I-7
I21
tp72
g0
(g9
g2
Ntp73
Rp74
(dp75
g13
I01
sg14
F-2.3749698329588416
sg15
g72
sbs(I-5
I22
tp76
g0
(g9
g2
Ntp77
Rp78
(dp79
g13
I01
sg14
F0.6830547576431648
sg15
g76
sbs(I568
I9
tp80
g0
(g9
g2
Ntp81
Rp82
(dp83
g13
I01
sg14
F1.1804557316746829
sg15
g80
sbs(I-2
I21
tp84
g0
(g9
g2
Ntp85
Rp86
(dp87
g13
I00
sg14
F-0.21966538827714022
sg15
g84
sbs(I-6
I22
tp88
g0
(g9
g2
Ntp89
Rp90
(dp91
g13
I01
sg14
F0.31624051969328304
sg15
g88
sbs(I22
I4
tp92
g0
(g9
g2
Ntp93
Rp94
(dp95
g13
I01
sg14
F0.9712639784583701
sg15
g92
sbs(I21
I4
tp96
g0
(g9
g2
Ntp97
Rp98
(dp99
g13
I01
sg14
F0.24537199684653033
sg15
g96
sbs(I23
I1
tp100
g0
(g9
g2
Ntp101
Rp102
(dp103
g13
I00
sg14
F0.9537939044787478
sg15
g100
sbs(I9
I568
tp104
g0
(g9
g2
Ntp105
Rp106
(dp107
g13
I01
sg14
F1.8440224325988304
sg15
g104
sbs(I-8
I21
tp108
g0
(g9
g2
Ntp109
Rp110
(dp111
g13
I00
sg14
F-1.269875591625277
sg15
g108
sbs(I22
I0
tp112
g0
(g9
g2
Ntp113
Rp114
(dp115
g13
I00
sg14
F-0.23766617806783313
sg15
g112
sbs(I23
I5
tp116
g0
(g9
g2
Ntp117
Rp118
(dp119
g13
I01
sg14
F0.8797972968007335
sg15
g116
sbs(I-10
I23
tp120
g0
(g9
g2
Ntp121
Rp122
(dp123
g13
I01
sg14
F1.3022504712206604
sg15
g120
sbs(I21
I9
tp124
g0
(g9
g2
Ntp125
Rp126
(dp127
g13
I00
sg14
F1.1433101406825812
sg15
g124
sbs(I-1
I21
tp128
g0
(g9
g2
Ntp129
Rp130
(dp131
g13
I00
sg14
F1.1051219084338253
sg15
g128
sbs(I9
I9
tp132
g0
(g9
g2
Ntp133
Rp134
(dp135
g13
I00
sg14
F0.4432868114684385
sg15
g132
sbs(I-1
I22
tp136
g0
(g9
g2
Ntp137
Rp138
(dp139
g13
I00
sg14
F0.31005918661535314
sg15
g136
sbs(I8
I8
tp140
g0
(g9
g2
Ntp141
Rp142
(dp143
g13
I01
sg14
F-1.1484867150428195
sg15
g140
sbs(I22
I8
tp144
g0
(g9
g2
Ntp145
Rp146
(dp147
g13
I01
sg14
F-1.6790129562069251
sg15
g144
sbs(I-7
I23
tp148
g0
(g9
g2
Ntp149
Rp150
(dp151
g13
I01
sg14
F-2.5235033505368927
sg15
g148
sbssS'nodes'
p152
(dp153
I0
g0
(cneat.genes
DefaultNodeGene
p154
g2
Ntp155
Rp156
(dp157
S'activation'
p158
S'tanh'
p159
sS'bias'
p160
F2.740233818676623
sS'response'
p161
F1.0
sg15
I0
sS'aggregation'
p162
S'sum'
p163
sbsI1
g0
(g154
g2
Ntp164
Rp165
(dp166
g158
g159
sg160
F-14.878198098548559
sg161
F1.0
sg15
I1
sg162
g163
sbsI2
g0
(g154
g2
Ntp167
Rp168
(dp169
g158
g159
sg160
F1.11646074404329
sg161
F1.0
sg15
I2
sg162
g163
sbsI3
g0
(g154
g2
Ntp170
Rp171
(dp172
g158
g159
sg160
F-20.35441576221301
sg161
F1.0
sg15
I3
sg162
g163
sbsI4
g0
(g154
g2
Ntp173
Rp174
(dp175
g158
S'relu'
p176
sg160
F24.949950083024618
sg161
F1.0
sg15
I4
sg162
g163
sbsI5
g0
(g154
g2
Ntp177
Rp178
(dp179
g158
g159
sg160
F10.15011776799316
sg161
F1.0
sg15
I5
sg162
g163
sbsI6
g0
(g154
g2
Ntp180
Rp181
(dp182
g158
g159
sg160
F18.016127171834377
sg161
F1.0
sg15
I6
sg162
g163
sbsI7
g0
(g154
g2
Ntp183
Rp184
(dp185
g158
g159
sg160
F5.372029049631883
sg161
F1.0
sg15
I7
sg162
g163
sbsI8
g0
(g154
g2
Ntp186
Rp187
(dp188
g158
g159
sg160
F-6.613888815792104
sg161
F1.0
sg15
I8
sg162
g163
sbsI9
g0
(g154
g2
Ntp189
Rp190
(dp191
g158
g159
sg160
F14.16961327190004
sg161
F1.0
sg15
I9
sg162
g163
sbsI21
g0
(g154
g2
Ntp192
Rp193
(dp194
g158
g159
sg160
F-1.8238567337887084
sg161
F1.0
sg15
I21
sg162
g163
sbsI22
g0
(g154
g2
Ntp195
Rp196
(dp197
g158
g159
sg160
F-14.36874431618455
sg161
F1.0
sg15
I22
sg162
g163
sbsI23
g0
(g154
g2
Ntp198
Rp199
(dp200
g158
g159
sg160
F-1.8378445191593464
sg161
F1.0
sg15
I23
sg162
g163
sbsI568
g0
(g154
g2
Ntp201
Rp202
(dp203
g158
g159
sg160
F-0.38709182516108614
sg161
F1.0
sg15
I568
sg162
g163
sbssg15
I41
sS'fitness'
p204
Nsb.