ccopy_reg
_reconstructor
p0
(cneat.genome
DefaultGenome
p1
c__builtin__
object
p2
Ntp3
Rp4
(dp5
S'connections'
p6
(dp7
(I51
I9
tp8
g0
(cneat.genes
DefaultConnectionGene
p9
g2
Ntp10
Rp11
(dp12
S'enabled'
p13
I01
sS'weight'
p14
F-1.9657016002068304
sS'key'
p15
g8
sbs(I-3
I51
tp16
g0
(g9
g2
Ntp17
Rp18
(dp19
g13
I01
sg14
F-2.1203970581480998
sg15
g16
sbs(I51
I5
tp20
g0
(g9
g2
Ntp21
Rp22
(dp23
g13
I01
sg14
F-0.12447835189103618
sg15
g20
sbs(I-14
I51
tp24
g0
(g9
g2
Ntp25
Rp26
(dp27
g13
I01
sg14
F1.4291340217743829
sg15
g24
sbs(I-12
I51
tp28
g0
(g9
g2
Ntp29
Rp30
(dp31
g13
I01
sg14
F-0.3275808725875023
sg15
g28
sbs(I-19
I51
tp32
g0
(g9
g2
Ntp33
Rp34
(dp35
g13
I01
sg14
F-0.6953073483206346
sg15
g32
sbs(I-17
I51
tp36
g0
(g9
g2
Ntp37
Rp38
(dp39
g13
I01
sg14
F0.16598087803557893
sg15
g36
sbs(I51
I1
tp40
g0
(g9
g2
Ntp41
Rp42
(dp43
g13
I01
sg14
F-0.6258455233456331
sg15
g40
sbs(I-4
I51
tp44
g0
(g9
g2
Ntp45
Rp46
(dp47
g13
I01
sg14
F0.56076005196196
sg15
g44
sbs(I51
I8
tp48
g0
(g9
g2
Ntp49
Rp50
(dp51
g13
I01
sg14
F0.15957049132929702
sg15
g48
sbs(I-9
I51
tp52
g0
(g9
g2
Ntp53
Rp54
(dp55
g13
I01
sg14
F-0.10789387918761864
sg15
g52
sbs(I-7
I51
tp56
g0
(g9
g2
Ntp57
Rp58
(dp59
g13
I01
sg14
F0.5000612526125296
sg15
g56
sbs(I51
I4
tp60
g0
(g9
g2
Ntp61
Rp62
(dp63
g13
I01
sg14
F-1.784843180217386
sg15
g60
sbs(I-20
I51
tp64
g0
(g9
g2
Ntp65
Rp66
(dp67
g13
I01
sg14
F-1.9508181326916554
sg15
g64
sbs(I51
I0
tp68
g0
(g9
g2
Ntp69
Rp70
(dp71
g13
I01
sg14
F-1.6298431576075776
sg15
g68
sbs(I-8
I51
tp72
g0
(g9
g2
Ntp73
Rp74
(dp75
g13
I01
sg14
F0.4919416081010393
sg15
g72
sbs(I-15
I51
tp76
g0
(g9
g2
Ntp77
Rp78
(dp79
g13
I01
sg14
F-2.8213754692348925
sg15
g76
sbs(I-13
I51
tp80
g0
(g9
g2
Ntp81
Rp82
(dp83
g13
I01
sg14
F0.430225109544765
sg15
g80
sbs(I-18
I51
tp84
g0
(g9
g2
Ntp85
Rp86
(dp87
g13
I01
sg14
F0.5316693751996584
sg15
g84
sbs(I51
I7
tp88
g0
(g9
g2
Ntp89
Rp90
(dp91
g13
I01
sg14
F-0.2000628235627676
sg15
g88
sbs(I-5
I51
tp92
g0
(g9
g2
Ntp93
Rp94
(dp95
g13
I01
sg14
F-2.8714674786218355
sg15
g92
sbs(I-1
I51
tp96
g0
(g9
g2
Ntp97
Rp98
(dp99
g13
I01
sg14
F-0.23174440669199822
sg15
g96
sbs(I-10
I51
tp100
g0
(g9
g2
Ntp101
Rp102
(dp103
g13
I01
sg14
F-0.4706073450956008
sg15
g100
sbs(I-2
I51
tp104
g0
(g9
g2
Ntp105
Rp106
(dp107
g13
I01
sg14
F0.2902089533569667
sg15
g104
sbs(I51
I3
tp108
g0
(g9
g2
Ntp109
Rp110
(dp111
g13
I01
sg14
F-0.8103699868661106
sg15
g108
sbs(I-16
I51
tp112
g0
(g9
g2
Ntp113
Rp114
(dp115
g13
I01
sg14
F1.0600856135037575
sg15
g112
sbs(I51
I6
tp116
g0
(g9
g2
Ntp117
Rp118
(dp119
g13
I01
sg14
F0.7542684941454793
sg15
g116
sbs(I51
I2
tp120
g0
(g9
g2
Ntp121
Rp122
(dp123
g13
I01
sg14
F-0.4957993326997347
sg15
g120
sbs(I-6
I51
tp124
g0
(g9
g2
Ntp125
Rp126
(dp127
g13
I01
sg14
F-1.3553787901596073
sg15
g124
sbs(I-11
I51
tp128
g0
(g9
g2
Ntp129
Rp130
(dp131
g13
I01
sg14
F0.949427741128168
sg15
g128
sbssS'nodes'
p132
(dp133
I0
g0
(cneat.genes
DefaultNodeGene
p134
g2
Ntp135
Rp136
(dp137
S'activation'
p138
S'relu'
p139
sS'bias'
p140
F-2.1324825759357546
sS'response'
p141
F1.0
sg15
I0
sS'aggregation'
p142
S'sum'
p143
sbsI1
g0
(g134
g2
Ntp144
Rp145
(dp146
g138
g139
sg140
F3.5339049958419446
sg141
F1.0
sg15
I1
sg142
g143
sbsI2
g0
(g134
g2
Ntp147
Rp148
(dp149
g138
g139
sg140
F-3.5551776653690585
sg141
F1.0
sg15
I2
sg142
g143
sbsI3
g0
(g134
g2
Ntp150
Rp151
(dp152
g138
g139
sg140
F-6.7523414194678
sg141
F1.0
sg15
I3
sg142
g143
sbsI4
g0
(g134
g2
Ntp153
Rp154
(dp155
g138
g139
sg140
F-14.249246396687505
sg141
F1.0
sg15
I4
sg142
g143
sbsI5
g0
(g134
g2
Ntp156
Rp157
(dp158
g138
g139
sg140
F8.079699979140143
sg141
F1.0
sg15
I5
sg142
g143
sbsI6
g0
(g134
g2
Ntp159
Rp160
(dp161
g138
g139
sg140
F-6.897677119628542
sg141
F1.0
sg15
I6
sg142
g143
sbsI7
g0
(g134
g2
Ntp162
Rp163
(dp164
g138
g139
sg140
F8.88228628267776
sg141
F1.0
sg15
I7
sg142
g143
sbsI8
g0
(g134
g2
Ntp165
Rp166
(dp167
g138
g139
sg140
F-5.597480760354735
sg141
F1.0
sg15
I8
sg142
g143
sbsI9
g0
(g134
g2
Ntp168
Rp169
(dp170
g138
g139
sg140
F10.200284406996555
sg141
F1.0
sg15
I9
sg142
g143
sbsI51
g0
(g134
g2
Ntp171
Rp172
(dp173
g138
g139
sg140
F-18.496133508835577
sg141
F1.0
sg15
I51
sg142
g143
sbssg15
I42
sS'fitness'
p174
Nsb.