ccopy_reg
_reconstructor
p0
(cneat.genome
DefaultGenome
p1
c__builtin__
object
p2
Ntp3
Rp4
(dp5
S'connections'
p6
(dp7
(I23
I4
tp8
g0
(cneat.genes
DefaultConnectionGene
p9
g2
Ntp10
Rp11
(dp12
S'enabled'
p13
I01
sS'weight'
p14
F-1.928527941543324
sS'key'
p15
g8
sbs(I-2
I23
tp16
g0
(g9
g2
Ntp17
Rp18
(dp19
g13
I01
sg14
F0.4865526755937649
sg15
g16
sbs(I7
I7
tp20
g0
(g9
g2
Ntp21
Rp22
(dp23
g13
I01
sg14
F0.10461289109562744
sg15
g20
sbs(I21
I9
tp24
g0
(g9
g2
Ntp25
Rp26
(dp27
g13
I00
sg14
F-0.3655441135490241
sg15
g24
sbs(I-3
I3
tp28
g0
(g9
g2
Ntp29
Rp30
(dp31
g13
I01
sg14
F1.115997031692603
sg15
g28
sbs(I23
I7
tp32
g0
(g9
g2
Ntp33
Rp34
(dp35
g13
I01
sg14
F0.7189288806574075
sg15
g32
sbs(I-10
I21
tp36
g0
(g9
g2
Ntp37
Rp38
(dp39
g13
I01
sg14
F1.2622721622265654
sg15
g36
sbs(I-5
I23
tp40
g0
(g9
g2
Ntp41
Rp42
(dp43
g13
I00
sg14
F1.0911397411136616
sg15
g40
sbs(I-6
I21
tp44
g0
(g9
g2
Ntp45
Rp46
(dp47
g13
I01
sg14
F1.9212976688255696
sg15
g44
sbs(I21
I0
tp48
g0
(g9
g2
Ntp49
Rp50
(dp51
g13
I00
sg14
F-0.5234239826290532
sg15
g48
sbs(I-1
I21
tp52
g0
(g9
g2
Ntp53
Rp54
(dp55
g13
I00
sg14
F0.498743140774923
sg15
g52
sbs(I2
I2
tp56
g0
(g9
g2
Ntp57
Rp58
(dp59
g13
I00
sg14
F-1.9878752114356106
sg15
g56
sbs(I-7
I21
tp60
g0
(g9
g2
Ntp61
Rp62
(dp63
g13
I01
sg14
F-0.5132675459418276
sg15
g60
sbs(I568
I9
tp64
g0
(g9
g2
Ntp65
Rp66
(dp67
g13
I01
sg14
F0.8803527377032838
sg15
g64
sbs(I-2
I21
tp68
g0
(g9
g2
Ntp69
Rp70
(dp71
g13
I00
sg14
F-0.6867836711331092
sg15
g68
sbs(I23
I1
tp72
g0
(g9
g2
Ntp73
Rp74
(dp75
g13
I00
sg14
F-0.2188360134750571
sg15
g72
sbs(I9
I568
tp76
g0
(g9
g2
Ntp77
Rp78
(dp79
g13
I01
sg14
F1.818437358357782
sg15
g76
sbs(I-8
I21
tp80
g0
(g9
g2
Ntp81
Rp82
(dp83
g13
I01
sg14
F-0.8049380366413429
sg15
g80
sbs(I23
I5
tp84
g0
(g9
g2
Ntp85
Rp86
(dp87
g13
I01
sg14
F-0.2589785037497845
sg15
g84
sbs(I-10
I23
tp88
g0
(g9
g2
Ntp89
Rp90
(dp91
g13
I01
sg14
F0.19712829908780938
sg15
g88
sbs(I23
I3
tp92
g0
(g9
g2
Ntp93
Rp94
(dp95
g13
I00
sg14
F-0.35238399828814215
sg15
g92
sbs(I9
I9
tp96
g0
(g9
g2
Ntp97
Rp98
(dp99
g13
I00
sg14
F-0.34699203073528584
sg15
g96
sbs(I23
I9
tp100
g0
(g9
g2
Ntp101
Rp102
(dp103
g13
I00
sg14
F1.0747051286614164
sg15
g100
sbs(I8
I8
tp104
g0
(g9
g2
Ntp105
Rp106
(dp107
g13
I01
sg14
F-0.46886415482178606
sg15
g104
sbs(I-7
I23
tp108
g0
(g9
g2
Ntp109
Rp110
(dp111
g13
I00
sg14
F-2.485545406519325
sg15
g108
sbssS'nodes'
p112
(dp113
I0
g0
(cneat.genes
DefaultNodeGene
p114
g2
Ntp115
Rp116
(dp117
S'activation'
p118
S'tanh'
p119
sS'bias'
p120
F2.722186337040605
sS'response'
p121
F1.0
sg15
I0
sS'aggregation'
p122
S'sum'
p123
sbsI1
g0
(g114
g2
Ntp124
Rp125
(dp126
g118
g119
sg120
F-14.950517642056212
sg121
F1.0
sg15
I1
sg122
g123
sbsI2
g0
(g114
g2
Ntp127
Rp128
(dp129
g118
g119
sg120
F0.8063624554783575
sg121
F1.0
sg15
I2
sg122
g123
sbsI3
g0
(g114
g2
Ntp130
Rp131
(dp132
g118
g119
sg120
F-20.049427661107647
sg121
F1.0
sg15
I3
sg122
g123
sbsI4
g0
(g114
g2
Ntp133
Rp134
(dp135
g118
S'relu'
p136
sg120
F-4.6206263110275545
sg121
F1.0
sg15
I4
sg122
g123
sbsI5
g0
(g114
g2
Ntp137
Rp138
(dp139
g118
g119
sg120
F8.862092231916462
sg121
F1.0
sg15
I5
sg122
g123
sbsI6
g0
(g114
g2
Ntp140
Rp141
(dp142
g118
g119
sg120
F18.561342719694196
sg121
F1.0
sg15
I6
sg122
g123
sbsI7
g0
(g114
g2
Ntp143
Rp144
(dp145
g118
g119
sg120
F5.215468760695581
sg121
F1.0
sg15
I7
sg122
g123
sbsI8
g0
(g114
g2
Ntp146
Rp147
(dp148
g118
g119
sg120
F-6.647615758603499
sg121
F1.0
sg15
I8
sg122
g123
sbsI9
g0
(g114
g2
Ntp149
Rp150
(dp151
g118
g136
sg120
F0.9309250061742289
sg121
F1.0
sg15
I9
sg122
g123
sbsI21
g0
(g114
g2
Ntp152
Rp153
(dp154
g118
g119
sg120
F-2.5192753644380015
sg121
F1.0
sg15
I21
sg122
g123
sbsI23
g0
(g114
g2
Ntp155
Rp156
(dp157
g118
g119
sg120
F-2.8075402027759657
sg121
F1.0
sg15
I23
sg122
g123
sbsI568
g0
(g114
g2
Ntp158
Rp159
(dp160
g118
g119
sg120
F-0.5567927619696725
sg121
F1.0
sg15
I568
sg122
g123
sbssg15
I42
sS'fitness'
p161
Nsb.