ccopy_reg
_reconstructor
p0
(cneat.genome
DefaultGenome
p1
c__builtin__
object
p2
Ntp3
Rp4
(dp5
S'connections'
p6
(dp7
(I-8
I296
tp8
g0
(cneat.genes
DefaultConnectionGene
p9
g2
Ntp10
Rp11
(dp12
S'enabled'
p13
I01
sS'weight'
p14
F0.6177290721911161
sS'key'
p15
g8
sbs(I3
I3
tp16
g0
(g9
g2
Ntp17
Rp18
(dp19
g13
I01
sg14
F-1.6279954438530067
sg15
g16
sbs(I-3
I296
tp20
g0
(g9
g2
Ntp21
Rp22
(dp23
g13
I01
sg14
F0.583790594297828
sg15
g20
sbs(I5
I5
tp24
g0
(g9
g2
Ntp25
Rp26
(dp27
g13
I01
sg14
F-0.2007040517369274
sg15
g24
sbs(I4
I4
tp28
g0
(g9
g2
Ntp29
Rp30
(dp31
g13
I00
sg14
F0.14763176138527745
sg15
g28
sbs(I-9
I8
tp32
g0
(g9
g2
Ntp33
Rp34
(dp35
g13
I01
sg14
F0.6962363005071529
sg15
g32
sbs(I-1
I296
tp36
g0
(g9
g2
Ntp37
Rp38
(dp39
g13
I01
sg14
F1.9741937006538763
sg15
g36
sbs(I539
I6
tp40
g0
(g9
g2
Ntp41
Rp42
(dp43
g13
I00
sg14
F-1.8234343578980239
sg15
g40
sbs(I-2
I296
tp44
g0
(g9
g2
Ntp45
Rp46
(dp47
g13
I01
sg14
F-0.08672618195223625
sg15
g44
sbs(I-6
I296
tp48
g0
(g9
g2
Ntp49
Rp50
(dp51
g13
I01
sg14
F0.8441958815613135
sg15
g48
sbs(I296
I8
tp52
g0
(g9
g2
Ntp53
Rp54
(dp55
g13
I00
sg14
F-0.20863150271190153
sg15
g52
sbs(I-10
I296
tp56
g0
(g9
g2
Ntp57
Rp58
(dp59
g13
I01
sg14
F2.249421164221924
sg15
g56
sbs(I7
I7
tp60
g0
(g9
g2
Ntp61
Rp62
(dp63
g13
I00
sg14
F-1.1713563879152373
sg15
g60
sbs(I296
I6
tp64
g0
(g9
g2
Ntp65
Rp66
(dp67
g13
I01
sg14
F-1.2098124069193004
sg15
g64
sbs(I1
I1
tp68
g0
(g9
g2
Ntp69
Rp70
(dp71
g13
I01
sg14
F1.9829974760845086
sg15
g68
sbs(I-5
I3
tp72
g0
(g9
g2
Ntp73
Rp74
(dp75
g13
I01
sg14
F0.16663876943712028
sg15
g72
sbs(I296
I2
tp76
g0
(g9
g2
Ntp77
Rp78
(dp79
g13
I01
sg14
F-1.0940237059743763
sg15
g76
sbssS'nodes'
p80
(dp81
I0
g0
(cneat.genes
DefaultNodeGene
p82
g2
Ntp83
Rp84
(dp85
S'activation'
p86
S'tanh'
p87
sS'bias'
p88
F4.660876853614388
sS'response'
p89
F1.0
sg15
I0
sS'aggregation'
p90
S'sum'
p91
sbsI1
g0
(g82
g2
Ntp92
Rp93
(dp94
g86
g87
sg88
F0.02647392395756154
sg89
F1.0
sg15
I1
sg90
g91
sbsI2
g0
(g82
g2
Ntp95
Rp96
(dp97
g86
g87
sg88
F-11.810260433815534
sg89
F1.0
sg15
I2
sg90
g91
sbsI3
g0
(g82
g2
Ntp98
Rp99
(dp100
g86
g87
sg88
F-11.564340702564907
sg89
F1.0
sg15
I3
sg90
g91
sbsI4
g0
(g82
g2
Ntp101
Rp102
(dp103
g86
g87
sg88
F2.792928562863485
sg89
F1.0
sg15
I4
sg90
g91
sbsI5
g0
(g82
g2
Ntp104
Rp105
(dp106
g86
g87
sg88
F-3.9959797742922767
sg89
F1.0
sg15
I5
sg90
g91
sbsI6
g0
(g82
g2
Ntp107
Rp108
(dp109
g86
g87
sg88
F12.014398575625462
sg89
F1.0
sg15
I6
sg90
g91
sbsI7
g0
(g82
g2
Ntp110
Rp111
(dp112
g86
g87
sg88
F-3.7096978135611396
sg89
F1.0
sg15
I7
sg90
g91
sbsI8
g0
(g82
g2
Ntp113
Rp114
(dp115
g86
g87
sg88
F-11.160775179737922
sg89
F1.0
sg15
I8
sg90
g91
sbsI9
g0
(g82
g2
Ntp116
Rp117
(dp118
g86
g87
sg88
F-6.311363075898313
sg89
F1.0
sg15
I9
sg90
g91
sbsI296
g0
(g82
g2
Ntp119
Rp120
(dp121
g86
g87
sg88
F-11.437531297518404
sg89
F1.0
sg15
I296
sg90
g91
sbsI539
g0
(g82
g2
Ntp122
Rp123
(dp124
g86
g87
sg88
F11.514897939530547
sg89
F1.0
sg15
I539
sg90
g91
sbssg15
I42
sS'fitness'
p125
F-0.022712958878870593
sb.