ccopy_reg
_reconstructor
p0
(cneat.genome
DefaultGenome
p1
c__builtin__
object
p2
Ntp3
Rp4
(dp5
S'connections'
p6
(dp7
(I257
I3
tp8
g0
(cneat.genes
DefaultConnectionGene
p9
g2
Ntp10
Rp11
(dp12
S'enabled'
p13
I00
sS'weight'
p14
F-0.3085325842516953
sS'key'
p15
g8
sbs(I255
I8
tp16
g0
(g9
g2
Ntp17
Rp18
(dp19
g13
I01
sg14
F0.7327654329755637
sg15
g16
sbs(I-9
I255
tp20
g0
(g9
g2
Ntp21
Rp22
(dp23
g13
I01
sg14
F0.20114490641281352
sg15
g20
sbs(I6
I6
tp24
g0
(g9
g2
Ntp25
Rp26
(dp27
g13
I01
sg14
F-0.8222288819056307
sg15
g24
sbs(I258
I1
tp28
g0
(g9
g2
Ntp29
Rp30
(dp31
g13
I01
sg14
F-2.662004900290081
sg15
g28
sbs(I258
I4
tp32
g0
(g9
g2
Ntp33
Rp34
(dp35
g13
I00
sg14
F-0.3303011788258774
sg15
g32
sbs(I-4
I258
tp36
g0
(g9
g2
Ntp37
Rp38
(dp39
g13
I01
sg14
F-3.5752880394139743
sg15
g36
sbs(I-10
I258
tp40
g0
(g9
g2
Ntp41
Rp42
(dp43
g13
I00
sg14
F-0.9280138848513372
sg15
g40
sbs(I257
I6
tp44
g0
(g9
g2
Ntp45
Rp46
(dp47
g13
I00
sg14
F-0.4048905136391073
sg15
g44
sbs(I-5
I255
tp48
g0
(g9
g2
Ntp49
Rp50
(dp51
g13
I01
sg14
F-1.574551861207236
sg15
g48
sbs(I258
I5
tp52
g0
(g9
g2
Ntp53
Rp54
(dp55
g13
I01
sg14
F-0.7692404453861694
sg15
g52
sbs(I-10
I255
tp56
g0
(g9
g2
Ntp57
Rp58
(dp59
g13
I01
sg14
F2.584231813252707
sg15
g56
sbs(I257
I2
tp60
g0
(g9
g2
Ntp61
Rp62
(dp63
g13
I01
sg14
F0.9620224612278075
sg15
g60
sbs(I-5
I257
tp64
g0
(g9
g2
Ntp65
Rp66
(dp67
g13
I01
sg14
F0.11537264316305348
sg15
g64
sbs(I3
I3
tp68
g0
(g9
g2
Ntp69
Rp70
(dp71
g13
I00
sg14
F-1.4822837525702943
sg15
g68
sbs(I537
I4
tp72
g0
(g9
g2
Ntp73
Rp74
(dp75
g13
I01
sg14
F0.05330164415039346
sg15
g72
sbs(I255
I4
tp76
g0
(g9
g2
Ntp77
Rp78
(dp79
g13
I00
sg14
F-0.11584920335028756
sg15
g76
sbs(I255
I0
tp80
g0
(g9
g2
Ntp81
Rp82
(dp83
g13
I00
sg14
F-1.023801861988952
sg15
g80
sbs(I257
I5
tp84
g0
(g9
g2
Ntp85
Rp86
(dp87
g13
I00
sg14
F0.12821078636415967
sg15
g84
sbs(I258
I2
tp88
g0
(g9
g2
Ntp89
Rp90
(dp91
g13
I01
sg14
F-0.5621352377311878
sg15
g88
sbs(I255
I3
tp92
g0
(g9
g2
Ntp93
Rp94
(dp95
g13
I01
sg14
F-0.16093125948578457
sg15
g92
sbs(I-3
I255
tp96
g0
(g9
g2
Ntp97
Rp98
(dp99
g13
I01
sg14
F1.410010493549
sg15
g96
sbs(I257
I1
tp100
g0
(g9
g2
Ntp101
Rp102
(dp103
g13
I01
sg14
F-1.053582222951663
sg15
g100
sbs(I-1
I258
tp104
g0
(g9
g2
Ntp105
Rp106
(dp107
g13
I01
sg14
F-0.4050206550800409
sg15
g104
sbs(I-7
I255
tp108
g0
(g9
g2
Ntp109
Rp110
(dp111
g13
I00
sg14
F0.572116534800933
sg15
g108
sbs(I-2
I258
tp112
g0
(g9
g2
Ntp113
Rp114
(dp115
g13
I00
sg14
F-0.8018732946408536
sg15
g112
sbs(I257
I257
tp116
g0
(g9
g2
Ntp117
Rp118
(dp119
g13
I01
sg14
F-1.3986769599282758
sg15
g116
sbs(I255
I255
tp120
g0
(g9
g2
Ntp121
Rp122
(dp123
g13
I01
sg14
F1.33878636484902
sg15
g120
sbs(I257
I4
tp124
g0
(g9
g2
Ntp125
Rp126
(dp127
g13
I01
sg14
F-0.6156561062681769
sg15
g124
sbs(I-2
I255
tp128
g0
(g9
g2
Ntp129
Rp130
(dp131
g13
I01
sg14
F0.3898708379013692
sg15
g128
sbs(I257
I9
tp132
g0
(g9
g2
Ntp133
Rp134
(dp135
g13
I01
sg14
F-0.3906260705412447
sg15
g132
sbs(I255
I2
tp136
g0
(g9
g2
Ntp137
Rp138
(dp139
g13
I01
sg14
F0.8566960698239284
sg15
g136
sbs(I-8
I255
tp140
g0
(g9
g2
Ntp141
Rp142
(dp143
g13
I00
sg14
F1.6495142405185663
sg15
g140
sbs(I257
I411
tp144
g0
(g9
g2
Ntp145
Rp146
(dp147
g13
I01
sg14
F0.5396292480059246
sg15
g144
sbs(I2
I2
tp148
g0
(g9
g2
Ntp149
Rp150
(dp151
g13
I00
sg14
F-1.1007767488686846
sg15
g148
sbs(I-6
I258
tp152
g0
(g9
g2
Ntp153
Rp154
(dp155
g13
I01
sg14
F0.6270584000096565
sg15
g152
sbs(I258
I537
tp156
g0
(g9
g2
Ntp157
Rp158
(dp159
g13
I01
sg14
F1.6551280367236227
sg15
g156
sbs(I411
I3
tp160
g0
(g9
g2
Ntp161
Rp162
(dp163
g13
I01
sg14
F0.6879622135294556
sg15
g160
sbs(I255
I1
tp164
g0
(g9
g2
Ntp165
Rp166
(dp167
g13
I01
sg14
F-1.382446968470684
sg15
g164
sbssS'nodes'
p168
(dp169
I0
g0
(cneat.genes
DefaultNodeGene
p170
g2
Ntp171
Rp172
(dp173
S'activation'
p174
S'tanh'
p175
sS'bias'
p176
F30.867530005871398
sS'response'
p177
F1.0
sg15
I0
sS'aggregation'
p178
S'sum'
p179
sbsI1
g0
(g170
g2
Ntp180
Rp181
(dp182
g174
g175
sg176
F7.321492291458846
sg177
F1.0
sg15
I1
sg178
g179
sbsI2
g0
(g170
g2
Ntp183
Rp184
(dp185
g174
g175
sg176
F-10.890146200740835
sg177
F1.0
sg15
I2
sg178
g179
sbsI3
g0
(g170
g2
Ntp186
Rp187
(dp188
g174
g175
sg176
F7.926652757620887
sg177
F1.0
sg15
I3
sg178
g179
sbsI4
g0
(g170
g2
Ntp189
Rp190
(dp191
g174
g175
sg176
F0.0582164705891405
sg177
F1.0
sg15
I4
sg178
g179
sbsI5
g0
(g170
g2
Ntp192
Rp193
(dp194
g174
g175
sg176
F29.51222858465831
sg177
F1.0
sg15
I5
sg178
g179
sbsI6
g0
(g170
g2
Ntp195
Rp196
(dp197
g174
g175
sg176
F-14.558655570313219
sg177
F1.0
sg15
I6
sg178
g179
sbsI7
g0
(g170
g2
Ntp198
Rp199
(dp200
g174
g175
sg176
F-9.168579902388462
sg177
F1.0
sg15
I7
sg178
g179
sbsI8
g0
(g170
g2
Ntp201
Rp202
(dp203
g174
g175
sg176
F-14.004570933805843
sg177
F1.0
sg15
I8
sg178
g179
sbsI9
g0
(g170
g2
Ntp204
Rp205
(dp206
g174
g175
sg176
F8.724214809067087
sg177
F1.0
sg15
I9
sg178
g179
sbsI257
g0
(g170
g2
Ntp207
Rp208
(dp209
g174
g175
sg176
F-15.460688661160487
sg177
F1.0
sg15
I257
sg178
g179
sbsI258
g0
(g170
g2
Ntp210
Rp211
(dp212
g174
g175
sg176
F12.006053944990539
sg177
F1.0
sg15
I258
sg178
g179
sbsI537
g0
(g170
g2
Ntp213
Rp214
(dp215
g174
S'relu'
p216
sg176
F-11.976290261619756
sg177
F1.0
sg15
I537
sg178
g179
sbsI411
g0
(g170
g2
Ntp217
Rp218
(dp219
g174
g175
sg176
F2.078257117820215
sg177
F1.0
sg15
I411
sg178
g179
sbsI255
g0
(g170
g2
Ntp220
Rp221
(dp222
g174
g175
sg176
F1.4972262982732
sg177
F1.0
sg15
I255
sg178
g179
sbssg15
I43
sS'fitness'
p223
Nsb.