ccopy_reg
_reconstructor
p0
(cneat.genome
DefaultGenome
p1
c__builtin__
object
p2
Ntp3
Rp4
(dp5
S'connections'
p6
(dp7
(I-17
I52
tp8
g0
(cneat.genes
DefaultConnectionGene
p9
g2
Ntp10
Rp11
(dp12
S'enabled'
p13
I01
sS'weight'
p14
F0.7700309671498189
sS'key'
p15
g8
sbs(I52
I2
tp16
g0
(g9
g2
Ntp17
Rp18
(dp19
g13
I01
sg14
F-1.4726541990768502
sg15
g16
sbs(I-15
I52
tp20
g0
(g9
g2
Ntp21
Rp22
(dp23
g13
I01
sg14
F-0.29788018382050835
sg15
g20
sbs(I-9
I52
tp24
g0
(g9
g2
Ntp25
Rp26
(dp27
g13
I01
sg14
F1.529351879482705
sg15
g24
sbs(I52
I6
tp28
g0
(g9
g2
Ntp29
Rp30
(dp31
g13
I01
sg14
F1.3307268856255585
sg15
g28
sbs(I-13
I52
tp32
g0
(g9
g2
Ntp33
Rp34
(dp35
g13
I01
sg14
F-1.6201685641517884
sg15
g32
sbs(I-5
I52
tp36
g0
(g9
g2
Ntp37
Rp38
(dp39
g13
I01
sg14
F-1.7911369274282878
sg15
g36
sbs(I-6
I52
tp40
g0
(g9
g2
Ntp41
Rp42
(dp43
g13
I01
sg14
F-0.5896865518510157
sg15
g40
sbs(I52
I3
tp44
g0
(g9
g2
Ntp45
Rp46
(dp47
g13
I01
sg14
F-1.3906575920541746
sg15
g44
sbs(I52
I8
tp48
g0
(g9
g2
Ntp49
Rp50
(dp51
g13
I01
sg14
F0.42988639384590904
sg15
g48
sbs(I52
I7
tp52
g0
(g9
g2
Ntp53
Rp54
(dp55
g13
I01
sg14
F-0.25544857411205185
sg15
g52
sbs(I-2
I52
tp56
g0
(g9
g2
Ntp57
Rp58
(dp59
g13
I01
sg14
F1.6398357657935587
sg15
g56
sbs(I-14
I52
tp60
g0
(g9
g2
Ntp61
Rp62
(dp63
g13
I01
sg14
F-0.2620364692132268
sg15
g60
sbs(I-1
I52
tp64
g0
(g9
g2
Ntp65
Rp66
(dp67
g13
I01
sg14
F1.2891656737386894
sg15
g64
sbs(I-12
I52
tp68
g0
(g9
g2
Ntp69
Rp70
(dp71
g13
I01
sg14
F0.16202793157146939
sg15
g68
sbs(I52
I0
tp72
g0
(g9
g2
Ntp73
Rp74
(dp75
g13
I01
sg14
F0.18872329038058863
sg15
g72
sbs(I-4
I52
tp76
g0
(g9
g2
Ntp77
Rp78
(dp79
g13
I01
sg14
F-0.8637942302739108
sg15
g76
sbs(I52
I9
tp80
g0
(g9
g2
Ntp81
Rp82
(dp83
g13
I01
sg14
F1.729592872687163
sg15
g80
sbs(I-18
I52
tp84
g0
(g9
g2
Ntp85
Rp86
(dp87
g13
I01
sg14
F-1.082775357802019
sg15
g84
sbs(I52
I4
tp88
g0
(g9
g2
Ntp89
Rp90
(dp91
g13
I01
sg14
F2.973016782286303
sg15
g88
sbs(I-8
I52
tp92
g0
(g9
g2
Ntp93
Rp94
(dp95
g13
I01
sg14
F-1.0810964944620476
sg15
g92
sbs(I-10
I52
tp96
g0
(g9
g2
Ntp97
Rp98
(dp99
g13
I01
sg14
F-1.0682090360280394
sg15
g96
sbs(I-11
I52
tp100
g0
(g9
g2
Ntp101
Rp102
(dp103
g13
I01
sg14
F-1.4091452164015794
sg15
g100
sbs(I-20
I52
tp104
g0
(g9
g2
Ntp105
Rp106
(dp107
g13
I01
sg14
F-0.7349590763260316
sg15
g104
sbs(I-3
I52
tp108
g0
(g9
g2
Ntp109
Rp110
(dp111
g13
I01
sg14
F-0.10950588849994887
sg15
g108
sbs(I52
I1
tp112
g0
(g9
g2
Ntp113
Rp114
(dp115
g13
I01
sg14
F-1.3820728591157827
sg15
g112
sbs(I-7
I52
tp116
g0
(g9
g2
Ntp117
Rp118
(dp119
g13
I01
sg14
F-1.0392645799360825
sg15
g116
sbs(I-16
I52
tp120
g0
(g9
g2
Ntp121
Rp122
(dp123
g13
I01
sg14
F-0.5903193910838934
sg15
g120
sbs(I52
I5
tp124
g0
(g9
g2
Ntp125
Rp126
(dp127
g13
I01
sg14
F-1.3457590026545319
sg15
g124
sbs(I-19
I52
tp128
g0
(g9
g2
Ntp129
Rp130
(dp131
g13
I01
sg14
F1.4149372441418522
sg15
g128
sbssS'nodes'
p132
(dp133
I0
g0
(cneat.genes
DefaultNodeGene
p134
g2
Ntp135
Rp136
(dp137
S'activation'
p138
S'relu'
p139
sS'bias'
p140
F-10.938548292247356
sS'response'
p141
F1.0
sg15
I0
sS'aggregation'
p142
S'sum'
p143
sbsI1
g0
(g134
g2
Ntp144
Rp145
(dp146
g138
g139
sg140
F-2.6400791806642787
sg141
F1.0
sg15
I1
sg142
g143
sbsI2
g0
(g134
g2
Ntp147
Rp148
(dp149
g138
g139
sg140
F19.72848557076973
sg141
F1.0
sg15
I2
sg142
g143
sbsI3
g0
(g134
g2
Ntp150
Rp151
(dp152
g138
g139
sg140
F-8.635114199363452
sg141
F1.0
sg15
I3
sg142
g143
sbsI4
g0
(g134
g2
Ntp153
Rp154
(dp155
g138
g139
sg140
F8.830601697008902
sg141
F1.0
sg15
I4
sg142
g143
sbsI5
g0
(g134
g2
Ntp156
Rp157
(dp158
g138
g139
sg140
F-5.067030888417058
sg141
F1.0
sg15
I5
sg142
g143
sbsI6
g0
(g134
g2
Ntp159
Rp160
(dp161
g138
g139
sg140
F-1.3091177965095118
sg141
F1.0
sg15
I6
sg142
g143
sbsI7
g0
(g134
g2
Ntp162
Rp163
(dp164
g138
g139
sg140
F-9.790827106479247
sg141
F1.0
sg15
I7
sg142
g143
sbsI8
g0
(g134
g2
Ntp165
Rp166
(dp167
g138
g139
sg140
F4.526775554971408
sg141
F1.0
sg15
I8
sg142
g143
sbsI9
g0
(g134
g2
Ntp168
Rp169
(dp170
g138
g139
sg140
F-22.69836322455662
sg141
F1.0
sg15
I9
sg142
g143
sbsI52
g0
(g134
g2
Ntp171
Rp172
(dp173
g138
g139
sg140
F13.361327183678549
sg141
F1.0
sg15
I52
sg142
g143
sbssg15
I43
sS'fitness'
p174
F0.07242784217866807
sb.