ccopy_reg
_reconstructor
p0
(cneat.genome
DefaultGenome
p1
c__builtin__
object
p2
Ntp3
Rp4
(dp5
S'connections'
p6
(dp7
sS'nodes'
p8
(dp9
I0
g0
(cneat.genes
DefaultNodeGene
p10
g2
Ntp11
Rp12
(dp13
S'activation'
p14
S'tanh'
p15
sS'bias'
p16
F23.425769542901758
sS'response'
p17
F1.0
sS'key'
p18
I0
sS'aggregation'
p19
S'sum'
p20
sbsI1
g0
(g10
g2
Ntp21
Rp22
(dp23
g14
g15
sg16
F9.56030669805524
sg17
F1.0
sg18
I1
sg19
g20
sbsI2
g0
(g10
g2
Ntp24
Rp25
(dp26
g14
g15
sg16
F12.923998021591892
sg17
F1.0
sg18
I2
sg19
g20
sbsI3
g0
(g10
g2
Ntp27
Rp28
(dp29
g14
g15
sg16
F-0.5307160603153134
sg17
F1.0
sg18
I3
sg19
g20
sbsI4
g0
(g10
g2
Ntp30
Rp31
(dp32
g14
g15
sg16
F-7.427008741746542
sg17
F1.0
sg18
I4
sg19
g20
sbsI5
g0
(g10
g2
Ntp33
Rp34
(dp35
g14
g15
sg16
F12.739473716298567
sg17
F1.0
sg18
I5
sg19
g20
sbsI6
g0
(g10
g2
Ntp36
Rp37
(dp38
g14
g15
sg16
F1.8699814027939952
sg17
F1.0
sg18
I6
sg19
g20
sbsI7
g0
(g10
g2
Ntp39
Rp40
(dp41
g14
g15
sg16
F-6.542823492197499
sg17
F1.0
sg18
I7
sg19
g20
sbsI8
g0
(g10
g2
Ntp42
Rp43
(dp44
g14
g15
sg16
F6.594989845902385
sg17
F1.0
sg18
I8
sg19
g20
sbsI9
g0
(g10
g2
Ntp45
Rp46
(dp47
g14
g15
sg16
F10.016578744317425
sg17
F1.0
sg18
I9
sg19
g20
sbssg18
I4331
sS'fitness'
p48
F0.01583443682718877
sb.