ccopy_reg
_reconstructor
p0
(cneat.genome
DefaultGenome
p1
c__builtin__
object
p2
Ntp3
Rp4
(dp5
S'connections'
p6
(dp7
(I-8
I9
tp8
g0
(cneat.genes
DefaultConnectionGene
p9
g2
Ntp10
Rp11
(dp12
S'enabled'
p13
I00
sS'weight'
p14
F0.589196478045466
sS'key'
p15
g8
sbs(I1643
I0
tp16
g0
(g9
g2
Ntp17
Rp18
(dp19
g13
I00
sg14
F-1.0550371270687555
sg15
g16
sbs(I-8
I1737
tp20
g0
(g9
g2
Ntp21
Rp22
(dp23
g13
I01
sg14
F1.4246936850562526
sg15
g20
sbs(I-2
I0
tp24
g0
(g9
g2
Ntp25
Rp26
(dp27
g13
I00
sg14
F0.8454153675594483
sg15
g24
sbs(I-8
I7
tp28
g0
(g9
g2
Ntp29
Rp30
(dp31
g13
I00
sg14
F0.7877724358736838
sg15
g28
sbs(I-2
I1730
tp32
g0
(g9
g2
Ntp33
Rp34
(dp35
g13
I01
sg14
F1.6161494147768614
sg15
g32
sbs(I1737
I9
tp36
g0
(g9
g2
Ntp37
Rp38
(dp39
g13
I01
sg14
F-1.7158172832315581
sg15
g36
sbs(I-2
I1643
tp40
g0
(g9
g2
Ntp41
Rp42
(dp43
g13
I01
sg14
F1.3971235459706184
sg15
g40
sbs(I1730
I0
tp44
g0
(g9
g2
Ntp45
Rp46
(dp47
g13
I01
sg14
F0.9506192761178243
sg15
g44
sbs(I-8
I1699
tp48
g0
(g9
g2
Ntp49
Rp50
(dp51
g13
I01
sg14
F3.7446585251359794
sg15
g48
sbs(I-9
I0
tp52
g0
(g9
g2
Ntp53
Rp54
(dp55
g13
I00
sg14
F0.7417216692976695
sg15
g52
sbs(I1699
I7
tp56
g0
(g9
g2
Ntp57
Rp58
(dp59
g13
I01
sg14
F0.258511685531275
sg15
g56
sbssS'nodes'
p60
(dp61
I0
g0
(cneat.genes
DefaultNodeGene
p62
g2
Ntp63
Rp64
(dp65
S'activation'
p66
S'tanh'
p67
sS'bias'
p68
F6.0346150997782
sS'response'
p69
F1.0
sg15
I0
sS'aggregation'
p70
S'sum'
p71
sbsI1
g0
(g62
g2
Ntp72
Rp73
(dp74
g66
g67
sg68
F-1.6368160564792693
sg69
F1.0
sg15
I1
sg70
g71
sbsI2
g0
(g62
g2
Ntp75
Rp76
(dp77
g66
g67
sg68
F3.170578746508231
sg69
F1.0
sg15
I2
sg70
g71
sbsI3
g0
(g62
g2
Ntp78
Rp79
(dp80
g66
g67
sg68
F-9.543733542530559
sg69
F1.0
sg15
I3
sg70
g71
sbsI4
g0
(g62
g2
Ntp81
Rp82
(dp83
g66
g67
sg68
F-28.344864735689182
sg69
F1.0
sg15
I4
sg70
g71
sbsI5
g0
(g62
g2
Ntp84
Rp85
(dp86
g66
g67
sg68
F13.904165432350391
sg69
F1.0
sg15
I5
sg70
g71
sbsI6
g0
(g62
g2
Ntp87
Rp88
(dp89
g66
g67
sg68
F-6.685725384293265
sg69
F1.0
sg15
I6
sg70
g71
sbsI7
g0
(g62
g2
Ntp90
Rp91
(dp92
g66
g67
sg68
F-17.741836123596546
sg69
F1.0
sg15
I7
sg70
g71
sbsI8
g0
(g62
g2
Ntp93
Rp94
(dp95
g66
g67
sg68
F-21.651276460618664
sg69
F1.0
sg15
I8
sg70
g71
sbsI9
g0
(g62
g2
Ntp96
Rp97
(dp98
g66
g67
sg68
F-5.512752795828636
sg69
F1.0
sg15
I9
sg70
g71
sbsI1643
g0
(g62
g2
Ntp99
Rp100
(dp101
g66
g67
sg68
F16.858525806911093
sg69
F1.0
sg15
I1643
sg70
g71
sbsI1730
g0
(g62
g2
Ntp102
Rp103
(dp104
g66
g67
sg68
F5.19837213777298
sg69
F1.0
sg15
I1730
sg70
g71
sbsI1699
g0
(g62
g2
Ntp105
Rp106
(dp107
g66
g67
sg68
F-1.3961790627672777
sg69
F1.0
sg15
I1699
sg70
g71
sbsI1737
g0
(g62
g2
Ntp108
Rp109
(dp110
g66
S'relu'
p111
sg68
F-11.756773210777473
sg69
F1.0
sg15
I1737
sg70
g71
sbsI1371
g0
(g62
g2
Ntp112
Rp113
(dp114
g66
g67
sg68
F6.754678762345069
sg69
F1.0
sg15
I1371
sg70
g71
sbssg15
I4381
sS'fitness'
p115
F0.006885250124369469
sb.