ccopy_reg
_reconstructor
p0
(cneat.genome
DefaultGenome
p1
c__builtin__
object
p2
Ntp3
Rp4
(dp5
S'connections'
p6
(dp7
(I53
I0
tp8
g0
(cneat.genes
DefaultConnectionGene
p9
g2
Ntp10
Rp11
(dp12
S'enabled'
p13
I01
sS'weight'
p14
F1.0614225236742376
sS'key'
p15
g8
sbs(I-6
I53
tp16
g0
(g9
g2
Ntp17
Rp18
(dp19
g13
I01
sg14
F-2.2412430805518913
sg15
g16
sbs(I-1
I53
tp20
g0
(g9
g2
Ntp21
Rp22
(dp23
g13
I01
sg14
F-0.3546324014805855
sg15
g20
sbs(I-2
I53
tp24
g0
(g9
g2
Ntp25
Rp26
(dp27
g13
I01
sg14
F0.6716667521724144
sg15
g24
sbs(I-5
I53
tp28
g0
(g9
g2
Ntp29
Rp30
(dp31
g13
I01
sg14
F-0.2675327292644122
sg15
g28
sbs(I53
I1
tp32
g0
(g9
g2
Ntp33
Rp34
(dp35
g13
I01
sg14
F0.7447844651921708
sg15
g32
sbs(I53
I2
tp36
g0
(g9
g2
Ntp37
Rp38
(dp39
g13
I01
sg14
F-0.5741128148127911
sg15
g36
sbs(I-3
I53
tp40
g0
(g9
g2
Ntp41
Rp42
(dp43
g13
I01
sg14
F1.1222097273614107
sg15
g40
sbs(I53
I8
tp44
g0
(g9
g2
Ntp45
Rp46
(dp47
g13
I01
sg14
F1.355932682686747
sg15
g44
sbs(I53
I3
tp48
g0
(g9
g2
Ntp49
Rp50
(dp51
g13
I01
sg14
F-0.6602710440605729
sg15
g48
sbs(I-4
I53
tp52
g0
(g9
g2
Ntp53
Rp54
(dp55
g13
I01
sg14
F-0.2184560005711751
sg15
g52
sbs(I53
I9
tp56
g0
(g9
g2
Ntp57
Rp58
(dp59
g13
I01
sg14
F0.13192827171154298
sg15
g56
sbs(I53
I4
tp60
g0
(g9
g2
Ntp61
Rp62
(dp63
g13
I01
sg14
F-0.7933486769621094
sg15
g60
sbs(I-9
I53
tp64
g0
(g9
g2
Ntp65
Rp66
(dp67
g13
I01
sg14
F1.189618367462451
sg15
g64
sbs(I53
I5
tp68
g0
(g9
g2
Ntp69
Rp70
(dp71
g13
I01
sg14
F-1.5500633388136111
sg15
g68
sbs(I53
I6
tp72
g0
(g9
g2
Ntp73
Rp74
(dp75
g13
I01
sg14
F-0.1363072387825083
sg15
g72
sbs(I-7
I53
tp76
g0
(g9
g2
Ntp77
Rp78
(dp79
g13
I01
sg14
F-0.8462801494309068
sg15
g76
sbs(I53
I7
tp80
g0
(g9
g2
Ntp81
Rp82
(dp83
g13
I01
sg14
F-0.7225388969779829
sg15
g80
sbs(I-8
I53
tp84
g0
(g9
g2
Ntp85
Rp86
(dp87
g13
I01
sg14
F0.6683480259864654
sg15
g84
sbs(I-10
I53
tp88
g0
(g9
g2
Ntp89
Rp90
(dp91
g13
I01
sg14
F-0.9030301042941639
sg15
g88
sbssS'nodes'
p92
(dp93
I0
g0
(cneat.genes
DefaultNodeGene
p94
g2
Ntp95
Rp96
(dp97
S'activation'
p98
S'relu'
p99
sS'bias'
p100
F9.71713699603853
sS'response'
p101
F1.0
sg15
I0
sS'aggregation'
p102
S'sum'
p103
sbsI1
g0
(g94
g2
Ntp104
Rp105
(dp106
g98
g99
sg100
F2.2704519703616386
sg101
F1.0
sg15
I1
sg102
g103
sbsI2
g0
(g94
g2
Ntp107
Rp108
(dp109
g98
g99
sg100
F1.335642589843501
sg101
F1.0
sg15
I2
sg102
g103
sbsI3
g0
(g94
g2
Ntp110
Rp111
(dp112
g98
g99
sg100
F-5.222718406321123
sg101
F1.0
sg15
I3
sg102
g103
sbsI4
g0
(g94
g2
Ntp113
Rp114
(dp115
g98
g99
sg100
F1.6939855425164871
sg101
F1.0
sg15
I4
sg102
g103
sbsI5
g0
(g94
g2
Ntp116
Rp117
(dp118
g98
g99
sg100
F-9.510508706186933
sg101
F1.0
sg15
I5
sg102
g103
sbsI6
g0
(g94
g2
Ntp119
Rp120
(dp121
g98
g99
sg100
F-2.242421721848486
sg101
F1.0
sg15
I6
sg102
g103
sbsI7
g0
(g94
g2
Ntp122
Rp123
(dp124
g98
g99
sg100
F-19.878504561223373
sg101
F1.0
sg15
I7
sg102
g103
sbsI8
g0
(g94
g2
Ntp125
Rp126
(dp127
g98
g99
sg100
F-20.531292533245853
sg101
F1.0
sg15
I8
sg102
g103
sbsI9
g0
(g94
g2
Ntp128
Rp129
(dp130
g98
g99
sg100
F-6.7919334077731275
sg101
F1.0
sg15
I9
sg102
g103
sbsI53
g0
(g94
g2
Ntp131
Rp132
(dp133
g98
g99
sg100
F8.785135232934627
sg101
F1.0
sg15
I53
sg102
g103
sbssg15
I44
sS'fitness'
p134
F-0.06781404077001407
sb.