ccopy_reg
_reconstructor
p0
(cneat.genome
DefaultGenome
p1
c__builtin__
object
p2
Ntp3
Rp4
(dp5
S'connections'
p6
(dp7
(I23
I4
tp8
g0
(cneat.genes
DefaultConnectionGene
p9
g2
Ntp10
Rp11
(dp12
S'enabled'
p13
I01
sS'weight'
p14
F-1.5153091904791083
sS'key'
p15
g8
sbs(I-2
I23
tp16
g0
(g9
g2
Ntp17
Rp18
(dp19
g13
I01
sg14
F0.159759097215253
sg15
g16
sbs(I7
I7
tp20
g0
(g9
g2
Ntp21
Rp22
(dp23
g13
I01
sg14
F1.1059356375147327
sg15
g20
sbs(I21
I9
tp24
g0
(g9
g2
Ntp25
Rp26
(dp27
g13
I00
sg14
F0.7891739800050597
sg15
g24
sbs(I-3
I3
tp28
g0
(g9
g2
Ntp29
Rp30
(dp31
g13
I01
sg14
F0.7593614181168761
sg15
g28
sbs(I23
I7
tp32
g0
(g9
g2
Ntp33
Rp34
(dp35
g13
I00
sg14
F0.10383590067984781
sg15
g32
sbs(I-10
I21
tp36
g0
(g9
g2
Ntp37
Rp38
(dp39
g13
I01
sg14
F1.4069731916122838
sg15
g36
sbs(I-5
I23
tp40
g0
(g9
g2
Ntp41
Rp42
(dp43
g13
I00
sg14
F1.7440546438321909
sg15
g40
sbs(I-6
I21
tp44
g0
(g9
g2
Ntp45
Rp46
(dp47
g13
I01
sg14
F1.9960276220307702
sg15
g44
sbs(I21
I0
tp48
g0
(g9
g2
Ntp49
Rp50
(dp51
g13
I00
sg14
F-0.8747336681732442
sg15
g48
sbs(I-1
I21
tp52
g0
(g9
g2
Ntp53
Rp54
(dp55
g13
I00
sg14
F0.7478583493815654
sg15
g52
sbs(I2
I2
tp56
g0
(g9
g2
Ntp57
Rp58
(dp59
g13
I00
sg14
F-2.061060785440084
sg15
g56
sbs(I-7
I21
tp60
g0
(g9
g2
Ntp61
Rp62
(dp63
g13
I01
sg14
F-0.9064841604312324
sg15
g60
sbs(I568
I9
tp64
g0
(g9
g2
Ntp65
Rp66
(dp67
g13
I01
sg14
F1.4655012873478825
sg15
g64
sbs(I-2
I21
tp68
g0
(g9
g2
Ntp69
Rp70
(dp71
g13
I00
sg14
F-0.9496881535492585
sg15
g68
sbs(I21
I4
tp72
g0
(g9
g2
Ntp73
Rp74
(dp75
g13
I01
sg14
F-1.001134436479306
sg15
g72
sbs(I23
I1
tp76
g0
(g9
g2
Ntp77
Rp78
(dp79
g13
I00
sg14
F0.48085354447047957
sg15
g76
sbs(I9
I568
tp80
g0
(g9
g2
Ntp81
Rp82
(dp83
g13
I01
sg14
F2.5976770467316923
sg15
g80
sbs(I-8
I21
tp84
g0
(g9
g2
Ntp85
Rp86
(dp87
g13
I01
sg14
F-0.5157758436179096
sg15
g84
sbs(I23
I5
tp88
g0
(g9
g2
Ntp89
Rp90
(dp91
g13
I01
sg14
F0.32739891338722826
sg15
g88
sbs(I-10
I23
tp92
g0
(g9
g2
Ntp93
Rp94
(dp95
g13
I01
sg14
F0.15461282167733958
sg15
g92
sbs(I23
I3
tp96
g0
(g9
g2
Ntp97
Rp98
(dp99
g13
I00
sg14
F-0.35238399828814215
sg15
g96
sbs(I9
I9
tp100
g0
(g9
g2
Ntp101
Rp102
(dp103
g13
I00
sg14
F0.0478651552928937
sg15
g100
sbs(I23
I9
tp104
g0
(g9
g2
Ntp105
Rp106
(dp107
g13
I00
sg14
F1.585312553607158
sg15
g104
sbs(I8
I8
tp108
g0
(g9
g2
Ntp109
Rp110
(dp111
g13
I01
sg14
F-0.9529399114272126
sg15
g108
sbs(I-7
I23
tp112
g0
(g9
g2
Ntp113
Rp114
(dp115
g13
I00
sg14
F-2.711438042561541
sg15
g112
sbssS'nodes'
p116
(dp117
I0
g0
(cneat.genes
DefaultNodeGene
p118
g2
Ntp119
Rp120
(dp121
S'activation'
p122
S'tanh'
p123
sS'bias'
p124
F3.0276710399942526
sS'response'
p125
F1.0
sg15
I0
sS'aggregation'
p126
S'sum'
p127
sbsI1
g0
(g118
g2
Ntp128
Rp129
(dp130
g122
g123
sg124
F-15.452480875594853
sg125
F1.0
sg15
I1
sg126
g127
sbsI2
g0
(g118
g2
Ntp131
Rp132
(dp133
g122
g123
sg124
F0.6862502478594125
sg125
F1.0
sg15
I2
sg126
g127
sbsI3
g0
(g118
g2
Ntp134
Rp135
(dp136
g122
g123
sg124
F-20.720785829442466
sg125
F1.0
sg15
I3
sg126
g127
sbsI4
g0
(g118
g2
Ntp137
Rp138
(dp139
g122
S'relu'
p140
sg124
F5.582326128757805
sg125
F1.0
sg15
I4
sg126
g127
sbsI5
g0
(g118
g2
Ntp141
Rp142
(dp143
g122
g123
sg124
F7.305687652931657
sg125
F1.0
sg15
I5
sg126
g127
sbsI6
g0
(g118
g2
Ntp144
Rp145
(dp146
g122
g123
sg124
F16.933176596477082
sg125
F1.0
sg15
I6
sg126
g127
sbsI7
g0
(g118
g2
Ntp147
Rp148
(dp149
g122
g123
sg124
F6.0071838443800365
sg125
F1.0
sg15
I7
sg126
g127
sbsI8
g0
(g118
g2
Ntp150
Rp151
(dp152
g122
g123
sg124
F-6.562857620824633
sg125
F1.0
sg15
I8
sg126
g127
sbsI9
g0
(g118
g2
Ntp153
Rp154
(dp155
g122
g140
sg124
F1.2853301658480532
sg125
F1.0
sg15
I9
sg126
g127
sbsI21
g0
(g118
g2
Ntp156
Rp157
(dp158
g122
g123
sg124
F-2.708774798192403
sg125
F1.0
sg15
I21
sg126
g127
sbsI23
g0
(g118
g2
Ntp159
Rp160
(dp161
g122
g123
sg124
F-1.4149238339963186
sg125
F1.0
sg15
I23
sg126
g127
sbsI568
g0
(g118
g2
Ntp162
Rp163
(dp164
g122
g123
sg124
F-1.2397149520988378
sg125
F1.0
sg15
I568
sg126
g127
sbssg15
I44
sS'fitness'
p165
Nsb.