ccopy_reg
_reconstructor
p0
(cneat.genome
DefaultGenome
p1
c__builtin__
object
p2
Ntp3
Rp4
(dp5
S'connections'
p6
(dp7
(I-1
I225
tp8
g0
(cneat.genes
DefaultConnectionGene
p9
g2
Ntp10
Rp11
(dp12
S'enabled'
p13
I01
sS'weight'
p14
F0.01308743353459528
sS'key'
p15
g8
sbs(I-2
I225
tp16
g0
(g9
g2
Ntp17
Rp18
(dp19
g13
I01
sg14
F-1.2225381681004865
sg15
g16
sbs(I-4
I227
tp20
g0
(g9
g2
Ntp21
Rp22
(dp23
g13
I01
sg14
F-0.3450893194830136
sg15
g20
sbs(I-9
I227
tp24
g0
(g9
g2
Ntp25
Rp26
(dp27
g13
I01
sg14
F0.3303140436938543
sg15
g24
sbs(I-5
I228
tp28
g0
(g9
g2
Ntp29
Rp30
(dp31
g13
I01
sg14
F0.4532753539685781
sg15
g28
sbs(I229
I0
tp32
g0
(g9
g2
Ntp33
Rp34
(dp35
g13
I01
sg14
F-0.3917773385131807
sg15
g32
sbs(I5
I5
tp36
g0
(g9
g2
Ntp37
Rp38
(dp39
g13
I01
sg14
F2.6633826413882704
sg15
g36
sbs(I-1
I226
tp40
g0
(g9
g2
Ntp41
Rp42
(dp43
g13
I01
sg14
F0.32032009495813657
sg15
g40
sbs(I225
I4
tp44
g0
(g9
g2
Ntp45
Rp46
(dp47
g13
I01
sg14
F-0.08921343264241156
sg15
g44
sbs(I-3
I225
tp48
g0
(g9
g2
Ntp49
Rp50
(dp51
g13
I01
sg14
F-1.2413962369274234
sg15
g48
sbs(I227
I9
tp52
g0
(g9
g2
Ntp53
Rp54
(dp55
g13
I01
sg14
F-0.48252952562445534
sg15
g52
sbs(I226
I3
tp56
g0
(g9
g2
Ntp57
Rp58
(dp59
g13
I01
sg14
F0.0474633223031825
sg15
g56
sbs(I225
I9
tp60
g0
(g9
g2
Ntp61
Rp62
(dp63
g13
I01
sg14
F0.1035581046314884
sg15
g60
sbs(I228
I2
tp64
g0
(g9
g2
Ntp65
Rp66
(dp67
g13
I01
sg14
F-0.9753871996999454
sg15
g64
sbs(I-5
I227
tp68
g0
(g9
g2
Ntp69
Rp70
(dp71
g13
I01
sg14
F0.3564150588490483
sg15
g68
sbs(I229
I3
tp72
g0
(g9
g2
Ntp73
Rp74
(dp75
g13
I01
sg14
F-0.7480712605194464
sg15
g72
sbs(I-10
I227
tp76
g0
(g9
g2
Ntp77
Rp78
(dp79
g13
I01
sg14
F0.9512416573346374
sg15
g76
sbs(I-7
I229
tp80
g0
(g9
g2
Ntp81
Rp82
(dp83
g13
I01
sg14
F-2.016657948767904
sg15
g80
sbs(I-8
I228
tp84
g0
(g9
g2
Ntp85
Rp86
(dp87
g13
I01
sg14
F0.9757363523236401
sg15
g84
sbs(I225
I7
tp88
g0
(g9
g2
Ntp89
Rp90
(dp91
g13
I01
sg14
F-1.8172815589807125
sg15
g88
sbs(I-3
I228
tp92
g0
(g9
g2
Ntp93
Rp94
(dp95
g13
I01
sg14
F0.07306247705230544
sg15
g92
sbs(I227
I4
tp96
g0
(g9
g2
Ntp97
Rp98
(dp99
g13
I01
sg14
F-0.8382676760783206
sg15
g96
sbs(I226
I4
tp100
g0
(g9
g2
Ntp101
Rp102
(dp103
g13
I01
sg14
F-0.5862657643579577
sg15
g100
sbs(I-4
I229
tp104
g0
(g9
g2
Ntp105
Rp106
(dp107
g13
I01
sg14
F1.0788951978959744
sg15
g104
sbs(I229
I9
tp108
g0
(g9
g2
Ntp109
Rp110
(dp111
g13
I01
sg14
F1.4797789493445728
sg15
g108
sbs(I228
I7
tp112
g0
(g9
g2
Ntp113
Rp114
(dp115
g13
I01
sg14
F-0.4022609747577546
sg15
g112
sbs(I-9
I229
tp116
g0
(g9
g2
Ntp117
Rp118
(dp119
g13
I01
sg14
F-0.09507767223095916
sg15
g116
sbs(I229
I229
tp120
g0
(g9
g2
Ntp121
Rp122
(dp123
g13
I01
sg14
F-0.29554298381771416
sg15
g120
sbs(I229
I6
tp124
g0
(g9
g2
Ntp125
Rp126
(dp127
g13
I01
sg14
F2.294071513918268
sg15
g124
sbs(I228
I228
tp128
g0
(g9
g2
Ntp129
Rp130
(dp131
g13
I01
sg14
F-0.44809799430635183
sg15
g128
sbs(I-6
I227
tp132
g0
(g9
g2
Ntp133
Rp134
(dp135
g13
I01
sg14
F0.1383815135365803
sg15
g132
sbs(I9
I9
tp136
g0
(g9
g2
Ntp137
Rp138
(dp139
g13
I01
sg14
F-1.383849129339435
sg15
g136
sbs(I-1
I229
tp140
g0
(g9
g2
Ntp141
Rp142
(dp143
g13
I01
sg14
F-0.012338132390341868
sg15
g140
sbs(I226
I226
tp144
g0
(g9
g2
Ntp145
Rp146
(dp147
g13
I01
sg14
F1.0601795535884684
sg15
g144
sbs(I-8
I225
tp148
g0
(g9
g2
Ntp149
Rp150
(dp151
g13
I01
sg14
F0.007157233653524643
sg15
g148
sbs(I225
I225
tp152
g0
(g9
g2
Ntp153
Rp154
(dp155
g13
I01
sg14
F-0.023141592242252935
sg15
g152
sbs(I225
I2
tp156
g0
(g9
g2
Ntp157
Rp158
(dp159
g13
I01
sg14
F-1.5864779863065293
sg15
g156
sbs(I228
I9
tp160
g0
(g9
g2
Ntp161
Rp162
(dp163
g13
I01
sg14
F-0.30725478711380666
sg15
g160
sbs(I227
I3
tp164
g0
(g9
g2
Ntp165
Rp166
(dp167
g13
I01
sg14
F-0.594216573718016
sg15
g164
sbs(I226
I9
tp168
g0
(g9
g2
Ntp169
Rp170
(dp171
g13
I01
sg14
F-0.4783711979160428
sg15
g168
sbs(I228
I4
tp172
g0
(g9
g2
Ntp173
Rp174
(dp175
g13
I01
sg14
F0.2486825274261041
sg15
g172
sbs(I0
I0
tp176
g0
(g9
g2
Ntp177
Rp178
(dp179
g13
I01
sg14
F0.9577520588158145
sg15
g176
sbs(I-6
I228
tp180
g0
(g9
g2
Ntp181
Rp182
(dp183
g13
I01
sg14
F0.3922480540623206
sg15
g180
sbs(I-7
I227
tp184
g0
(g9
g2
Ntp185
Rp186
(dp187
g13
I01
sg14
F0.15028607698086613
sg15
g184
sbs(I-9
I226
tp188
g0
(g9
g2
Ntp189
Rp190
(dp191
g13
I01
sg14
F0.4763657565651521
sg15
g188
sbs(I-1
I227
tp192
g0
(g9
g2
Ntp193
Rp194
(dp195
g13
I01
sg14
F0.6590098536382639
sg15
g192
sbs(I2
I2
tp196
g0
(g9
g2
Ntp197
Rp198
(dp199
g13
I01
sg14
F1.7463274336387031
sg15
g196
sbs(I-2
I229
tp200
g0
(g9
g2
Ntp201
Rp202
(dp203
g13
I01
sg14
F1.4217121211923431
sg15
g200
sbs(I-2
I227
tp204
g0
(g9
g2
Ntp205
Rp206
(dp207
g13
I01
sg14
F-0.2688192616757764
sg15
g204
sbs(I227
I8
tp208
g0
(g9
g2
Ntp209
Rp210
(dp211
g13
I01
sg14
F0.14742359903554447
sg15
g208
sbs(I226
I0
tp212
g0
(g9
g2
Ntp213
Rp214
(dp215
g13
I01
sg14
F0.8561169919346613
sg15
g212
sbs(I225
I8
tp216
g0
(g9
g2
Ntp217
Rp218
(dp219
g13
I01
sg14
F-1.5360936313659534
sg15
g216
sbs(I-4
I225
tp220
g0
(g9
g2
Ntp221
Rp222
(dp223
g13
I01
sg14
F0.4150754733320793
sg15
g220
sbs(I228
I3
tp224
g0
(g9
g2
Ntp225
Rp226
(dp227
g13
I01
sg14
F2.257481711471713
sg15
g224
sbs(I-9
I225
tp228
g0
(g9
g2
Ntp229
Rp230
(dp231
g13
I01
sg14
F-0.5072018387405705
sg15
g228
sbs(I-5
I226
tp232
g0
(g9
g2
Ntp233
Rp234
(dp235
g13
I01
sg14
F-0.6820187919217852
sg15
g232
sbs(I229
I2
tp236
g0
(g9
g2
Ntp237
Rp238
(dp239
g13
I01
sg14
F-1.2508946668888956
sg15
g236
sbs(I227
I227
tp240
g0
(g9
g2
Ntp241
Rp242
(dp243
g13
I01
sg14
F0.8907017348488132
sg15
g240
sbs(I-7
I228
tp244
g0
(g9
g2
Ntp245
Rp246
(dp247
g13
I01
sg14
F0.12485359511953187
sg15
g244
sbs(I-8
I229
tp248
g0
(g9
g2
Ntp249
Rp250
(dp251
g13
I01
sg14
F0.724941635554509
sg15
g248
sbs(I225
I6
tp252
g0
(g9
g2
Ntp253
Rp254
(dp255
g13
I01
sg14
F-0.5916379664622234
sg15
g252
sbs(I-3
I227
tp256
g0
(g9
g2
Ntp257
Rp258
(dp259
g13
I01
sg14
F0.2046073671676341
sg15
g256
sbs(I227
I7
tp260
g0
(g9
g2
Ntp261
Rp262
(dp263
g13
I01
sg14
F1.4125020908747543
sg15
g260
sbs(I226
I5
tp264
g0
(g9
g2
Ntp265
Rp266
(dp267
g13
I01
sg14
F1.38105584336052
sg15
g264
sbs(I229
I8
tp268
g0
(g9
g2
Ntp269
Rp270
(dp271
g13
I01
sg14
F1.7495989200104878
sg15
g268
sbs(I228
I0
tp272
g0
(g9
g2
Ntp273
Rp274
(dp275
g13
I01
sg14
F-0.3935783670208593
sg15
g272
sbs(I-9
I228
tp276
g0
(g9
g2
Ntp277
Rp278
(dp279
g13
I01
sg14
F-0.8809384754494863
sg15
g276
sbs(I-5
I225
tp280
g0
(g9
g2
Ntp281
Rp282
(dp283
g13
I01
sg14
F-1.1100683073408126
sg15
g280
sbs(I229
I5
tp284
g0
(g9
g2
Ntp285
Rp286
(dp287
g13
I01
sg14
F0.799753011105989
sg15
g284
sbs(I-8
I226
tp288
g0
(g9
g2
Ntp289
Rp290
(dp291
g13
I01
sg14
F-1.4444948010580763
sg15
g288
sbs(I-2
I228
tp292
g0
(g9
g2
Ntp293
Rp294
(dp295
g13
I01
sg14
F0.4702261683903526
sg15
g292
sbs(I225
I1
tp296
g0
(g9
g2
Ntp297
Rp298
(dp299
g13
I01
sg14
F0.6574817421852008
sg15
g296
sbs(I227
I2
tp300
g0
(g9
g2
Ntp301
Rp302
(dp303
g13
I01
sg14
F1.8589623844995564
sg15
g300
sbs(I226
I6
tp304
g0
(g9
g2
Ntp305
Rp306
(dp307
g13
I01
sg14
F0.4234939907916317
sg15
g304
sbs(I228
I5
tp308
g0
(g9
g2
Ntp309
Rp310
(dp311
g13
I01
sg14
F-0.582485176586582
sg15
g308
sbs(I-6
I229
tp312
g0
(g9
g2
Ntp313
Rp314
(dp315
g13
I01
sg14
F1.096530553953717
sg15
g312
sbs(I-7
I226
tp316
g0
(g9
g2
Ntp317
Rp318
(dp319
g13
I01
sg14
F-0.6532918134560154
sg15
g316
sbs(I227
I1
tp320
g0
(g9
g2
Ntp321
Rp322
(dp323
g13
I01
sg14
F-1.7906801761323443
sg15
g320
sbs(I-10
I228
tp324
g0
(g9
g2
Ntp325
Rp326
(dp327
g13
I01
sg14
F1.7470795057988011
sg15
g324
sbs(I226
I1
tp328
g0
(g9
g2
Ntp329
Rp330
(dp331
g13
I01
sg14
F0.516049163064817
sg15
g328
sbs(I1
I1
tp332
g0
(g9
g2
Ntp333
Rp334
(dp335
g13
I01
sg14
F1.2808754137719771
sg15
g332
sbs(I-4
I226
tp336
g0
(g9
g2
Ntp337
Rp338
(dp339
g13
I01
sg14
F-0.4384085703712712
sg15
g336
sbs(I-5
I229
tp340
g0
(g9
g2
Ntp341
Rp342
(dp343
g13
I01
sg14
F-0.06382826470205102
sg15
g340
sbs(I229
I1
tp344
g0
(g9
g2
Ntp345
Rp346
(dp347
g13
I01
sg14
F-2.2854134033594384
sg15
g344
sbs(I-10
I225
tp348
g0
(g9
g2
Ntp349
Rp350
(dp351
g13
I01
sg14
F-2.3329812995200805
sg15
g348
sbs(I6
I6
tp352
g0
(g9
g2
Ntp353
Rp354
(dp355
g13
I01
sg14
F0.2509766980842209
sg15
g352
sbs(I7
I7
tp356
g0
(g9
g2
Ntp357
Rp358
(dp359
g13
I01
sg14
F-1.0049340354482807
sg15
g356
sbs(I225
I5
tp360
g0
(g9
g2
Ntp361
Rp362
(dp363
g13
I01
sg14
F-2.2491886906976903
sg15
g360
sbs(I-3
I226
tp364
g0
(g9
g2
Ntp365
Rp366
(dp367
g13
I01
sg14
F-0.5355390942315342
sg15
g364
sbs(I227
I6
tp368
g0
(g9
g2
Ntp369
Rp370
(dp371
g13
I01
sg14
F1.091973172140641
sg15
g368
sbs(I226
I2
tp372
g0
(g9
g2
Ntp373
Rp374
(dp375
g13
I01
sg14
F-0.2404071798673151
sg15
g372
sbs(I228
I1
tp376
g0
(g9
g2
Ntp377
Rp378
(dp379
g13
I01
sg14
F1.0023384450837916
sg15
g376
sbs(I-2
I226
tp380
g0
(g9
g2
Ntp381
Rp382
(dp383
g13
I01
sg14
F1.0238627823437694
sg15
g380
sbs(I229
I4
tp384
g0
(g9
g2
Ntp385
Rp386
(dp387
g13
I01
sg14
F-0.36727415044330103
sg15
g384
sbs(I-10
I226
tp388
g0
(g9
g2
Ntp389
Rp390
(dp391
g13
I01
sg14
F-1.7037436127987193
sg15
g388
sbs(I3
I3
tp392
g0
(g9
g2
Ntp393
Rp394
(dp395
g13
I01
sg14
F-0.9655185678735743
sg15
g392
sbs(I-6
I225
tp396
g0
(g9
g2
Ntp397
Rp398
(dp399
g13
I01
sg14
F-2.3657110922264017
sg15
g396
sbs(I4
I4
tp400
g0
(g9
g2
Ntp401
Rp402
(dp403
g13
I01
sg14
F-0.5637795385222074
sg15
g400
sbs(I-8
I227
tp404
g0
(g9
g2
Ntp405
Rp406
(dp407
g13
I01
sg14
F1.336938420891416
sg15
g404
sbs(I225
I0
tp408
g0
(g9
g2
Ntp409
Rp410
(dp411
g13
I01
sg14
F-0.24880204248822185
sg15
g408
sbs(I-3
I229
tp412
g0
(g9
g2
Ntp413
Rp414
(dp415
g13
I01
sg14
F-1.7789260079426124
sg15
g412
sbs(I227
I5
tp416
g0
(g9
g2
Ntp417
Rp418
(dp419
g13
I01
sg14
F0.35228692856587634
sg15
g416
sbs(I226
I7
tp420
g0
(g9
g2
Ntp421
Rp422
(dp423
g13
I01
sg14
F-0.7772639885068836
sg15
g420
sbs(I-4
I228
tp424
g0
(g9
g2
Ntp425
Rp426
(dp427
g13
I01
sg14
F-2.1544077104409176
sg15
g424
sbs(I228
I6
tp428
g0
(g9
g2
Ntp429
Rp430
(dp431
g13
I01
sg14
F-0.04852590919744711
sg15
g428
sbs(I229
I7
tp432
g0
(g9
g2
Ntp433
Rp434
(dp435
g13
I01
sg14
F0.5207578588558516
sg15
g432
sbs(I-6
I226
tp436
g0
(g9
g2
Ntp437
Rp438
(dp439
g13
I01
sg14
F0.3165755553516467
sg15
g436
sbs(I-7
I225
tp440
g0
(g9
g2
Ntp441
Rp442
(dp443
g13
I01
sg14
F-0.3226107192568075
sg15
g440
sbs(I-1
I228
tp444
g0
(g9
g2
Ntp445
Rp446
(dp447
g13
I01
sg14
F-1.5805483197879635
sg15
g444
sbs(I225
I3
tp448
g0
(g9
g2
Ntp449
Rp450
(dp451
g13
I01
sg14
F0.8739892926727729
sg15
g448
sbs(I228
I8
tp452
g0
(g9
g2
Ntp453
Rp454
(dp455
g13
I01
sg14
F0.9197885501801255
sg15
g452
sbs(I227
I0
tp456
g0
(g9
g2
Ntp457
Rp458
(dp459
g13
I01
sg14
F0.7489754261464178
sg15
g456
sbs(I226
I8
tp460
g0
(g9
g2
Ntp461
Rp462
(dp463
g13
I01
sg14
F-0.507376769661318
sg15
g460
sbs(I-10
I229
tp464
g0
(g9
g2
Ntp465
Rp466
(dp467
g13
I01
sg14
F-0.7183641200996665
sg15
g464
sbs(I8
I8
tp468
g0
(g9
g2
Ntp469
Rp470
(dp471
g13
I01
sg14
F0.15069219004805923
sg15
g468
sbssS'nodes'
p472
(dp473
I0
g0
(cneat.genes
DefaultNodeGene
p474
g2
Ntp475
Rp476
(dp477
S'activation'
p478
S'relu'
p479
sS'bias'
p480
F-18.585095988150847
sS'response'
p481
F1.0
sg15
I0
sS'aggregation'
p482
S'sum'
p483
sbsI1
g0
(g474
g2
Ntp484
Rp485
(dp486
g478
g479
sg480
F1.5723433549783703
sg481
F1.0
sg15
I1
sg482
g483
sbsI2
g0
(g474
g2
Ntp487
Rp488
(dp489
g478
g479
sg480
F-4.0235215288907895
sg481
F1.0
sg15
I2
sg482
g483
sbsI3
g0
(g474
g2
Ntp490
Rp491
(dp492
g478
g479
sg480
F7.293870295570936
sg481
F1.0
sg15
I3
sg482
g483
sbsI4
g0
(g474
g2
Ntp493
Rp494
(dp495
g478
g479
sg480
F13.493717588686884
sg481
F1.0
sg15
I4
sg482
g483
sbsI5
g0
(g474
g2
Ntp496
Rp497
(dp498
g478
g479
sg480
F-14.511034558038203
sg481
F1.0
sg15
I5
sg482
g483
sbsI6
g0
(g474
g2
Ntp499
Rp500
(dp501
g478
g479
sg480
F-1.3833675730665709
sg481
F1.0
sg15
I6
sg482
g483
sbsI7
g0
(g474
g2
Ntp502
Rp503
(dp504
g478
g479
sg480
F-12.27143507318965
sg481
F1.0
sg15
I7
sg482
g483
sbsI8
g0
(g474
g2
Ntp505
Rp506
(dp507
g478
g479
sg480
F-9.657205762698412
sg481
F1.0
sg15
I8
sg482
g483
sbsI9
g0
(g474
g2
Ntp508
Rp509
(dp510
g478
g479
sg480
F-6.0713744577261455
sg481
F1.0
sg15
I9
sg482
g483
sbsI225
g0
(g474
g2
Ntp511
Rp512
(dp513
g478
g479
sg480
F10.974772874589513
sg481
F1.0
sg15
I225
sg482
g483
sbsI226
g0
(g474
g2
Ntp514
Rp515
(dp516
g478
g479
sg480
F22.32669871842008
sg481
F1.0
sg15
I226
sg482
g483
sbsI227
g0
(g474
g2
Ntp517
Rp518
(dp519
g478
g479
sg480
F-17.805601758722382
sg481
F1.0
sg15
I227
sg482
g483
sbsI228
g0
(g474
g2
Ntp520
Rp521
(dp522
g478
g479
sg480
F9.543555960725655
sg481
F1.0
sg15
I228
sg482
g483
sbsI229
g0
(g474
g2
Ntp523
Rp524
(dp525
g478
g479
sg480
F16.99523672523449
sg481
F1.0
sg15
I229
sg482
g483
sbssg15
I44
sS'fitness'
p526
Nsb.