ccopy_reg
_reconstructor
p0
(cneat.genome
DefaultGenome
p1
c__builtin__
object
p2
Ntp3
Rp4
(dp5
S'connections'
p6
(dp7
(I-20
I53
tp8
g0
(cneat.genes
DefaultConnectionGene
p9
g2
Ntp10
Rp11
(dp12
S'enabled'
p13
I01
sS'weight'
p14
F-0.5447920426892215
sS'key'
p15
g8
sbs(I-5
I53
tp16
g0
(g9
g2
Ntp17
Rp18
(dp19
g13
I01
sg14
F-1.4093543385806944
sg15
g16
sbs(I53
I3
tp20
g0
(g9
g2
Ntp21
Rp22
(dp23
g13
I01
sg14
F1.1375397109794365
sg15
g20
sbs(I-2
I53
tp24
g0
(g9
g2
Ntp25
Rp26
(dp27
g13
I01
sg14
F-0.15259521316590266
sg15
g24
sbs(I-16
I53
tp28
g0
(g9
g2
Ntp29
Rp30
(dp31
g13
I01
sg14
F-0.2761925624706567
sg15
g28
sbs(I53
I7
tp32
g0
(g9
g2
Ntp33
Rp34
(dp35
g13
I01
sg14
F1.6777286537071363
sg15
g32
sbs(I53
I2
tp36
g0
(g9
g2
Ntp37
Rp38
(dp39
g13
I01
sg14
F-0.8784566059326075
sg15
g36
sbs(I53
I9
tp40
g0
(g9
g2
Ntp41
Rp42
(dp43
g13
I01
sg14
F0.014102241399785791
sg15
g40
sbs(I53
I6
tp44
g0
(g9
g2
Ntp45
Rp46
(dp47
g13
I01
sg14
F0.05741857209424347
sg15
g44
sbs(I-6
I53
tp48
g0
(g9
g2
Ntp49
Rp50
(dp51
g13
I01
sg14
F-1.3997783274081657
sg15
g48
sbs(I-11
I53
tp52
g0
(g9
g2
Ntp53
Rp54
(dp55
g13
I01
sg14
F-0.1733307466387477
sg15
g52
sbs(I53
I1
tp56
g0
(g9
g2
Ntp57
Rp58
(dp59
g13
I01
sg14
F1.02667210025845
sg15
g56
sbs(I-3
I53
tp60
g0
(g9
g2
Ntp61
Rp62
(dp63
g13
I01
sg14
F0.042223833515102394
sg15
g60
sbs(I53
I8
tp64
g0
(g9
g2
Ntp65
Rp66
(dp67
g13
I01
sg14
F0.19502590540995773
sg15
g64
sbs(I53
I5
tp68
g0
(g9
g2
Ntp69
Rp70
(dp71
g13
I01
sg14
F0.0992194602072104
sg15
g68
sbs(I-7
I53
tp72
g0
(g9
g2
Ntp73
Rp74
(dp75
g13
I01
sg14
F-1.8686203856713899
sg15
g72
sbs(I-14
I53
tp76
g0
(g9
g2
Ntp77
Rp78
(dp79
g13
I01
sg14
F0.29181629258820296
sg15
g76
sbs(I-19
I53
tp80
g0
(g9
g2
Ntp81
Rp82
(dp83
g13
I01
sg14
F0.05763760199416641
sg15
g80
sbs(I-1
I53
tp84
g0
(g9
g2
Ntp85
Rp86
(dp87
g13
I01
sg14
F0.9488472684639074
sg15
g84
sbs(I53
I0
tp88
g0
(g9
g2
Ntp89
Rp90
(dp91
g13
I01
sg14
F0.8776982557054945
sg15
g88
sbs(I-12
I53
tp92
g0
(g9
g2
Ntp93
Rp94
(dp95
g13
I01
sg14
F0.4479732238057171
sg15
g92
sbs(I-17
I53
tp96
g0
(g9
g2
Ntp97
Rp98
(dp99
g13
I01
sg14
F-1.05213077308185
sg15
g96
sbs(I-4
I53
tp100
g0
(g9
g2
Ntp101
Rp102
(dp103
g13
I01
sg14
F0.46426728561323355
sg15
g100
sbs(I-15
I53
tp104
g0
(g9
g2
Ntp105
Rp106
(dp107
g13
I01
sg14
F-0.5229764820850319
sg15
g104
sbs(I53
I4
tp108
g0
(g9
g2
Ntp109
Rp110
(dp111
g13
I01
sg14
F1.006525438979765
sg15
g108
sbs(I-9
I53
tp112
g0
(g9
g2
Ntp113
Rp114
(dp115
g13
I01
sg14
F1.4609885384377823
sg15
g112
sbs(I-18
I53
tp116
g0
(g9
g2
Ntp117
Rp118
(dp119
g13
I01
sg14
F-1.1828393226111733
sg15
g116
sbs(I-8
I53
tp120
g0
(g9
g2
Ntp121
Rp122
(dp123
g13
I01
sg14
F-2.325755260919051
sg15
g120
sbs(I-10
I53
tp124
g0
(g9
g2
Ntp125
Rp126
(dp127
g13
I01
sg14
F0.25784014115622267
sg15
g124
sbs(I-13
I53
tp128
g0
(g9
g2
Ntp129
Rp130
(dp131
g13
I01
sg14
F0.9539960305433423
sg15
g128
sbssS'nodes'
p132
(dp133
I0
g0
(cneat.genes
DefaultNodeGene
p134
g2
Ntp135
Rp136
(dp137
S'activation'
p138
S'relu'
p139
sS'bias'
p140
F-5.5090542416043755
sS'response'
p141
F1.0
sg15
I0
sS'aggregation'
p142
S'sum'
p143
sbsI1
g0
(g134
g2
Ntp144
Rp145
(dp146
g138
g139
sg140
F14.386594223662465
sg141
F1.0
sg15
I1
sg142
g143
sbsI2
g0
(g134
g2
Ntp147
Rp148
(dp149
g138
g139
sg140
F5.464484428387667
sg141
F1.0
sg15
I2
sg142
g143
sbsI3
g0
(g134
g2
Ntp150
Rp151
(dp152
g138
g139
sg140
F5.020531746036085
sg141
F1.0
sg15
I3
sg142
g143
sbsI4
g0
(g134
g2
Ntp153
Rp154
(dp155
g138
g139
sg140
F4.08047030265087
sg141
F1.0
sg15
I4
sg142
g143
sbsI5
g0
(g134
g2
Ntp156
Rp157
(dp158
g138
g139
sg140
F-13.866071303573225
sg141
F1.0
sg15
I5
sg142
g143
sbsI6
g0
(g134
g2
Ntp159
Rp160
(dp161
g138
g139
sg140
F2.661636389158497
sg141
F1.0
sg15
I6
sg142
g143
sbsI7
g0
(g134
g2
Ntp162
Rp163
(dp164
g138
g139
sg140
F7.282425681900291
sg141
F1.0
sg15
I7
sg142
g143
sbsI8
g0
(g134
g2
Ntp165
Rp166
(dp167
g138
g139
sg140
F17.806991690658755
sg141
F1.0
sg15
I8
sg142
g143
sbsI9
g0
(g134
g2
Ntp168
Rp169
(dp170
g138
g139
sg140
F14.088233628495013
sg141
F1.0
sg15
I9
sg142
g143
sbsI53
g0
(g134
g2
Ntp171
Rp172
(dp173
g138
g139
sg140
F20.176994236521324
sg141
F1.0
sg15
I53
sg142
g143
sbssg15
I44
sS'fitness'
p174
F0.048730928236511456
sb.