ccopy_reg
_reconstructor
p0
(cneat.genome
DefaultGenome
p1
c__builtin__
object
p2
Ntp3
Rp4
(dp5
S'connections'
p6
(dp7
(I-6
I1746
tp8
g0
(cneat.genes
DefaultConnectionGene
p9
g2
Ntp10
Rp11
(dp12
S'enabled'
p13
I01
sS'weight'
p14
F0.9785737147290834
sS'key'
p15
g8
sbs(I1746
I9
tp16
g0
(g9
g2
Ntp17
Rp18
(dp19
g13
I01
sg14
F-0.6346290749237214
sg15
g16
sbs(I-6
I9
tp20
g0
(g9
g2
Ntp21
Rp22
(dp23
g13
I00
sg14
F-0.4938995917488389
sg15
g20
sbs(I-4
I8
tp24
g0
(g9
g2
Ntp25
Rp26
(dp27
g13
I00
sg14
F-0.9640209955890685
sg15
g24
sbssS'nodes'
p28
(dp29
I0
g0
(cneat.genes
DefaultNodeGene
p30
g2
Ntp31
Rp32
(dp33
S'activation'
p34
S'tanh'
p35
sS'bias'
p36
F16.974031175807383
sS'response'
p37
F1.0
sg15
I0
sS'aggregation'
p38
S'sum'
p39
sbsI1
g0
(g30
g2
Ntp40
Rp41
(dp42
g34
g35
sg36
F-2.0529474842559563
sg37
F1.0
sg15
I1
sg38
g39
sbsI2
g0
(g30
g2
Ntp43
Rp44
(dp45
g34
g35
sg36
F-6.864562379205936
sg37
F1.0
sg15
I2
sg38
g39
sbsI3
g0
(g30
g2
Ntp46
Rp47
(dp48
g34
g35
sg36
F-8.847706813358355
sg37
F1.0
sg15
I3
sg38
g39
sbsI4
g0
(g30
g2
Ntp49
Rp50
(dp51
g34
g35
sg36
F11.539429501728833
sg37
F1.0
sg15
I4
sg38
g39
sbsI5
g0
(g30
g2
Ntp52
Rp53
(dp54
g34
g35
sg36
F19.27888511775377
sg37
F1.0
sg15
I5
sg38
g39
sbsI6
g0
(g30
g2
Ntp55
Rp56
(dp57
g34
g35
sg36
F-6.1086411018721005
sg37
F1.0
sg15
I6
sg38
g39
sbsI7
g0
(g30
g2
Ntp58
Rp59
(dp60
g34
g35
sg36
F3.5878786293936558
sg37
F1.0
sg15
I7
sg38
g39
sbsI8
g0
(g30
g2
Ntp61
Rp62
(dp63
g34
g35
sg36
F-5.458893316514963
sg37
F1.0
sg15
I8
sg38
g39
sbsI9
g0
(g30
g2
Ntp64
Rp65
(dp66
g34
g35
sg36
F-11.49492328802727
sg37
F1.0
sg15
I9
sg38
g39
sbsI1746
g0
(g30
g2
Ntp67
Rp68
(dp69
g34
g35
sg36
F-19.340796130798513
sg37
F1.0
sg15
I1746
sg38
g39
sbssg15
I4420
sS'fitness'
p70
F0.06653628810731926
sb.