ccopy_reg
_reconstructor
p0
(cneat.genome
DefaultGenome
p1
c__builtin__
object
p2
Ntp3
Rp4
(dp5
S'connections'
p6
(dp7
(I9
I1541
tp8
g0
(cneat.genes
DefaultConnectionGene
p9
g2
Ntp10
Rp11
(dp12
S'enabled'
p13
I00
sS'weight'
p14
F0.06389663561440612
sS'key'
p15
g8
sbs(I9
I1744
tp16
g0
(g9
g2
Ntp17
Rp18
(dp19
g13
I01
sg14
F0.6099838548007541
sg15
g16
sbs(I1744
I1541
tp20
g0
(g9
g2
Ntp21
Rp22
(dp23
g13
I01
sg14
F0.9195856746062541
sg15
g20
sbs(I-9
I7
tp24
g0
(g9
g2
Ntp25
Rp26
(dp27
g13
I01
sg14
F-1.9554863773346913
sg15
g24
sbs(I1726
I1541
tp28
g0
(g9
g2
Ntp29
Rp30
(dp31
g13
I01
sg14
F-2.0209245359397925
sg15
g28
sbssS'nodes'
p32
(dp33
I0
g0
(cneat.genes
DefaultNodeGene
p34
g2
Ntp35
Rp36
(dp37
S'activation'
p38
S'tanh'
p39
sS'bias'
p40
F-19.418551440120417
sS'response'
p41
F1.0
sg15
I0
sS'aggregation'
p42
S'sum'
p43
sbsI1
g0
(g34
g2
Ntp44
Rp45
(dp46
g38
g39
sg40
F-8.437040640671043
sg41
F1.0
sg15
I1
sg42
g43
sbsI2
g0
(g34
g2
Ntp47
Rp48
(dp49
g38
g39
sg40
F-6.105938353293292
sg41
F1.0
sg15
I2
sg42
g43
sbsI3
g0
(g34
g2
Ntp50
Rp51
(dp52
g38
g39
sg40
F-11.571032381268799
sg41
F1.0
sg15
I3
sg42
g43
sbsI4
g0
(g34
g2
Ntp53
Rp54
(dp55
g38
g39
sg40
F15.172615505754193
sg41
F1.0
sg15
I4
sg42
g43
sbsI5
g0
(g34
g2
Ntp56
Rp57
(dp58
g38
g39
sg40
F-8.44465996725405
sg41
F1.0
sg15
I5
sg42
g43
sbsI6
g0
(g34
g2
Ntp59
Rp60
(dp61
g38
g39
sg40
F-3.147410199712283
sg41
F1.0
sg15
I6
sg42
g43
sbsI7
g0
(g34
g2
Ntp62
Rp63
(dp64
g38
g39
sg40
F4.945212156029887
sg41
F1.0
sg15
I7
sg42
g43
sbsI8
g0
(g34
g2
Ntp65
Rp66
(dp67
g38
g39
sg40
F-7.772846986098433
sg41
F1.0
sg15
I8
sg42
g43
sbsI9
g0
(g34
g2
Ntp68
Rp69
(dp70
g38
g39
sg40
F-6.1218154195783425
sg41
F1.0
sg15
I9
sg42
g43
sbsI1390
g0
(g34
g2
Ntp71
Rp72
(dp73
g38
g39
sg40
F-2.572527260072002
sg41
F1.0
sg15
I1390
sg42
g43
sbsI1744
g0
(g34
g2
Ntp74
Rp75
(dp76
g38
g39
sg40
F20.662273101648918
sg41
F1.0
sg15
I1744
sg42
g43
sbsI1726
g0
(g34
g2
Ntp77
Rp78
(dp79
g38
S'relu'
p80
sg40
F10.559277959135317
sg41
F1.0
sg15
I1726
sg42
g43
sbsI1541
g0
(g34
g2
Ntp81
Rp82
(dp83
g38
g39
sg40
F1.9653034661924162
sg41
F1.0
sg15
I1541
sg42
g43
sbssg15
I4463
sS'fitness'
p84
F0.1905246170788104
sb.