ccopy_reg
_reconstructor
p0
(cneat.genome
DefaultGenome
p1
c__builtin__
object
p2
Ntp3
Rp4
(dp5
S'connections'
p6
(dp7
(I5
I5
tp8
g0
(cneat.genes
DefaultConnectionGene
p9
g2
Ntp10
Rp11
(dp12
S'enabled'
p13
I00
sS'weight'
p14
F0.05306197315350436
sS'key'
p15
g8
sbs(I-9
I2
tp16
g0
(g9
g2
Ntp17
Rp18
(dp19
g13
I01
sg14
F-0.16968816426017086
sg15
g16
sbs(I4
I954
tp20
g0
(g9
g2
Ntp21
Rp22
(dp23
g13
I01
sg14
F1.569488168080994
sg15
g20
sbs(I-5
I4
tp24
g0
(g9
g2
Ntp25
Rp26
(dp27
g13
I00
sg14
F-1.3182144263392046
sg15
g24
sbs(I-5
I9
tp28
g0
(g9
g2
Ntp29
Rp30
(dp31
g13
I00
sg14
F3.601598092750493
sg15
g28
sbs(I5
I546
tp32
g0
(g9
g2
Ntp33
Rp34
(dp35
g13
I01
sg14
F-1.8290030837174198
sg15
g32
sbs(I-2
I0
tp36
g0
(g9
g2
Ntp37
Rp38
(dp39
g13
I01
sg14
F1.0306082602543931
sg15
g36
sbssS'nodes'
p40
(dp41
I0
g0
(cneat.genes
DefaultNodeGene
p42
g2
Ntp43
Rp44
(dp45
S'activation'
p46
S'tanh'
p47
sS'bias'
p48
F-1.9802980465780107
sS'response'
p49
F1.0
sg15
I0
sS'aggregation'
p50
S'sum'
p51
sbsI1
g0
(g42
g2
Ntp52
Rp53
(dp54
g46
g47
sg48
F-6.0245321192113535
sg49
F1.0
sg15
I1
sg50
g51
sbsI2
g0
(g42
g2
Ntp55
Rp56
(dp57
g46
g47
sg48
F12.685334453223065
sg49
F1.0
sg15
I2
sg50
g51
sbsI3
g0
(g42
g2
Ntp58
Rp59
(dp60
g46
g47
sg48
F-12.417497562807625
sg49
F1.0
sg15
I3
sg50
g51
sbsI4
g0
(g42
g2
Ntp61
Rp62
(dp63
g46
g47
sg48
F-1.7441351504277667
sg49
F1.0
sg15
I4
sg50
g51
sbsI5
g0
(g42
g2
Ntp64
Rp65
(dp66
g46
g47
sg48
F-9.02783182070171
sg49
F1.0
sg15
I5
sg50
g51
sbsI6
g0
(g42
g2
Ntp67
Rp68
(dp69
g46
g47
sg48
F-1.3755615772335683
sg49
F1.0
sg15
I6
sg50
g51
sbsI7
g0
(g42
g2
Ntp70
Rp71
(dp72
g46
g47
sg48
F-19.881281447906268
sg49
F1.0
sg15
I7
sg50
g51
sbsI8
g0
(g42
g2
Ntp73
Rp74
(dp75
g46
g47
sg48
F-3.73328767502466
sg49
F1.0
sg15
I8
sg50
g51
sbsI9
g0
(g42
g2
Ntp76
Rp77
(dp78
g46
g47
sg48
F7.833902201192352
sg49
F1.0
sg15
I9
sg50
g51
sbsI546
g0
(g42
g2
Ntp79
Rp80
(dp81
g46
g47
sg48
F4.135496631907625
sg49
F1.0
sg15
I546
sg50
g51
sbsI954
g0
(g42
g2
Ntp82
Rp83
(dp84
g46
g47
sg48
F8.767796976128071
sg49
F1.0
sg15
I954
sg50
g51
sbssg15
I4467
sS'fitness'
p85
F0.203176291741463
sb.