ccopy_reg
_reconstructor
p0
(cneat.genome
DefaultGenome
p1
c__builtin__
object
p2
Ntp3
Rp4
(dp5
S'connections'
p6
(dp7
(I54
I3
tp8
g0
(cneat.genes
DefaultConnectionGene
p9
g2
Ntp10
Rp11
(dp12
S'enabled'
p13
I01
sS'weight'
p14
F-0.6362714523868784
sS'key'
p15
g8
sbs(I54
I2
tp16
g0
(g9
g2
Ntp17
Rp18
(dp19
g13
I01
sg14
F0.34520380846987686
sg15
g16
sbs(I-10
I54
tp20
g0
(g9
g2
Ntp21
Rp22
(dp23
g13
I01
sg14
F-0.019038221810662885
sg15
g20
sbs(I-9
I54
tp24
g0
(g9
g2
Ntp25
Rp26
(dp27
g13
I01
sg14
F0.43780382677443314
sg15
g24
sbs(I-6
I54
tp28
g0
(g9
g2
Ntp29
Rp30
(dp31
g13
I01
sg14
F0.3743695027323467
sg15
g28
sbs(I-4
I54
tp32
g0
(g9
g2
Ntp33
Rp34
(dp35
g13
I01
sg14
F-0.11267004376168374
sg15
g32
sbs(I54
I5
tp36
g0
(g9
g2
Ntp37
Rp38
(dp39
g13
I01
sg14
F0.03195167990432521
sg15
g36
sbs(I-2
I54
tp40
g0
(g9
g2
Ntp41
Rp42
(dp43
g13
I01
sg14
F1.0919676551526702
sg15
g40
sbs(I-3
I54
tp44
g0
(g9
g2
Ntp45
Rp46
(dp47
g13
I01
sg14
F0.43764429910496055
sg15
g44
sbs(I54
I4
tp48
g0
(g9
g2
Ntp49
Rp50
(dp51
g13
I01
sg14
F-0.2581123535952157
sg15
g48
sbs(I54
I9
tp52
g0
(g9
g2
Ntp53
Rp54
(dp55
g13
I01
sg14
F-1.1890772812004915
sg15
g52
sbs(I54
I7
tp56
g0
(g9
g2
Ntp57
Rp58
(dp59
g13
I01
sg14
F2.08064902912069
sg15
g56
sbs(I54
I8
tp60
g0
(g9
g2
Ntp61
Rp62
(dp63
g13
I01
sg14
F-0.04376357651270479
sg15
g60
sbs(I54
I6
tp64
g0
(g9
g2
Ntp65
Rp66
(dp67
g13
I01
sg14
F-0.6167685055733653
sg15
g64
sbs(I-8
I54
tp68
g0
(g9
g2
Ntp69
Rp70
(dp71
g13
I01
sg14
F0.9300417234330739
sg15
g68
sbs(I54
I1
tp72
g0
(g9
g2
Ntp73
Rp74
(dp75
g13
I01
sg14
F0.955292597168301
sg15
g72
sbs(I-1
I54
tp76
g0
(g9
g2
Ntp77
Rp78
(dp79
g13
I01
sg14
F0.9589563073992374
sg15
g76
sbs(I-7
I54
tp80
g0
(g9
g2
Ntp81
Rp82
(dp83
g13
I01
sg14
F-0.39447683514365717
sg15
g80
sbs(I54
I0
tp84
g0
(g9
g2
Ntp85
Rp86
(dp87
g13
I01
sg14
F-0.03018911304527935
sg15
g84
sbs(I-5
I54
tp88
g0
(g9
g2
Ntp89
Rp90
(dp91
g13
I01
sg14
F0.5641245247222126
sg15
g88
sbssS'nodes'
p92
(dp93
I0
g0
(cneat.genes
DefaultNodeGene
p94
g2
Ntp95
Rp96
(dp97
S'activation'
p98
S'relu'
p99
sS'bias'
p100
F-15.161203850665332
sS'response'
p101
F1.0
sg15
I0
sS'aggregation'
p102
S'sum'
p103
sbsI1
g0
(g94
g2
Ntp104
Rp105
(dp106
g98
g99
sg100
F3.9257901506698634
sg101
F1.0
sg15
I1
sg102
g103
sbsI2
g0
(g94
g2
Ntp107
Rp108
(dp109
g98
g99
sg100
F6.081192698026921
sg101
F1.0
sg15
I2
sg102
g103
sbsI3
g0
(g94
g2
Ntp110
Rp111
(dp112
g98
g99
sg100
F0.5306218332391096
sg101
F1.0
sg15
I3
sg102
g103
sbsI4
g0
(g94
g2
Ntp113
Rp114
(dp115
g98
g99
sg100
F-6.7760238736152125
sg101
F1.0
sg15
I4
sg102
g103
sbsI5
g0
(g94
g2
Ntp116
Rp117
(dp118
g98
g99
sg100
F12.56076071338478
sg101
F1.0
sg15
I5
sg102
g103
sbsI6
g0
(g94
g2
Ntp119
Rp120
(dp121
g98
g99
sg100
F3.8226982146062656
sg101
F1.0
sg15
I6
sg102
g103
sbsI7
g0
(g94
g2
Ntp122
Rp123
(dp124
g98
g99
sg100
F2.789087113957709
sg101
F1.0
sg15
I7
sg102
g103
sbsI8
g0
(g94
g2
Ntp125
Rp126
(dp127
g98
g99
sg100
F4.546319444899863
sg101
F1.0
sg15
I8
sg102
g103
sbsI9
g0
(g94
g2
Ntp128
Rp129
(dp130
g98
g99
sg100
F13.800887215080069
sg101
F1.0
sg15
I9
sg102
g103
sbsI54
g0
(g94
g2
Ntp131
Rp132
(dp133
g98
g99
sg100
F-6.384222018980101
sg101
F1.0
sg15
I54
sg102
g103
sbssg15
I45
sS'fitness'
p134
F-0.15312907975087509
sb.