ccopy_reg
_reconstructor
p0
(cneat.genome
DefaultGenome
p1
c__builtin__
object
p2
Ntp3
Rp4
(dp5
S'connections'
p6
(dp7
(I6
I6
tp8
g0
(cneat.genes
DefaultConnectionGene
p9
g2
Ntp10
Rp11
(dp12
S'enabled'
p13
I01
sS'weight'
p14
F-1.029258534769933
sS'key'
p15
g8
sbs(I256
I7
tp16
g0
(g9
g2
Ntp17
Rp18
(dp19
g13
I01
sg14
F-1.1414916149314813
sg15
g16
sbs(I-7
I256
tp20
g0
(g9
g2
Ntp21
Rp22
(dp23
g13
I01
sg14
F-0.672825730549103
sg15
g20
sbs(I257
I6
tp24
g0
(g9
g2
Ntp25
Rp26
(dp27
g13
I00
sg14
F2.076348221646494
sg15
g24
sbs(I257
I2
tp28
g0
(g9
g2
Ntp29
Rp30
(dp31
g13
I01
sg14
F1.1135474591803256
sg15
g28
sbs(I-5
I257
tp32
g0
(g9
g2
Ntp33
Rp34
(dp35
g13
I01
sg14
F0.4585825192995193
sg15
g32
sbs(I3
I3
tp36
g0
(g9
g2
Ntp37
Rp38
(dp39
g13
I00
sg14
F-1.7305837369621881
sg15
g36
sbs(I257
I5
tp40
g0
(g9
g2
Ntp41
Rp42
(dp43
g13
I01
sg14
F3.7587962013560077
sg15
g40
sbs(I-8
I536
tp44
g0
(g9
g2
Ntp45
Rp46
(dp47
g13
I01
sg14
F1.099592355357604
sg15
g44
sbs(I2
I2
tp48
g0
(g9
g2
Ntp49
Rp50
(dp51
g13
I01
sg14
F-2.101621862641413
sg15
g48
sbs(I257
I1
tp52
g0
(g9
g2
Ntp53
Rp54
(dp55
g13
I01
sg14
F-0.4914097100239339
sg15
g52
sbs(I-5
I256
tp56
g0
(g9
g2
Ntp57
Rp58
(dp59
g13
I00
sg14
F0.14370349998252124
sg15
g56
sbs(I256
I0
tp60
g0
(g9
g2
Ntp61
Rp62
(dp63
g13
I01
sg14
F0.15613388194491445
sg15
g60
sbs(I257
I4
tp64
g0
(g9
g2
Ntp65
Rp66
(dp67
g13
I01
sg14
F-0.3186456786937901
sg15
g64
sbs(I257
I9
tp68
g0
(g9
g2
Ntp69
Rp70
(dp71
g13
I01
sg14
F0.15182194606608138
sg15
g68
sbs(I-4
I256
tp72
g0
(g9
g2
Ntp73
Rp74
(dp75
g13
I01
sg14
F0.170885181430353
sg15
g72
sbs(I-10
I1
tp76
g0
(g9
g2
Ntp77
Rp78
(dp79
g13
I01
sg14
F0.9167769538212097
sg15
g76
sbs(I256
I8
tp80
g0
(g9
g2
Ntp81
Rp82
(dp83
g13
I01
sg14
F-2.461653035738545
sg15
g80
sbs(I256
I1
tp84
g0
(g9
g2
Ntp85
Rp86
(dp87
g13
I01
sg14
F1.5617323295625667
sg15
g84
sbs(I257
I257
tp88
g0
(g9
g2
Ntp89
Rp90
(dp91
g13
I01
sg14
F-1.9382022758193966
sg15
g88
sbs(I-3
I256
tp92
g0
(g9
g2
Ntp93
Rp94
(dp95
g13
I01
sg14
F3.127065753748149
sg15
g92
sbs(I-8
I256
tp96
g0
(g9
g2
Ntp97
Rp98
(dp99
g13
I01
sg14
F-0.6237540841681426
sg15
g96
sbs(I411
I3
tp100
g0
(g9
g2
Ntp101
Rp102
(dp103
g13
I00
sg14
F0.12853815040706532
sg15
g100
sbssS'nodes'
p104
(dp105
I0
g0
(cneat.genes
DefaultNodeGene
p106
g2
Ntp107
Rp108
(dp109
S'activation'
p110
S'tanh'
p111
sS'bias'
p112
F30.9310428207833
sS'response'
p113
F1.0
sg15
I0
sS'aggregation'
p114
S'sum'
p115
sbsI1
g0
(g106
g2
Ntp116
Rp117
(dp118
g110
g111
sg112
F8.186142918631012
sg113
F1.0
sg15
I1
sg114
g115
sbsI2
g0
(g106
g2
Ntp119
Rp120
(dp121
g110
g111
sg112
F-10.249219593436893
sg113
F1.0
sg15
I2
sg114
g115
sbsI3
g0
(g106
g2
Ntp122
Rp123
(dp124
g110
g111
sg112
F7.185946179182947
sg113
F1.0
sg15
I3
sg114
g115
sbsI4
g0
(g106
g2
Ntp125
Rp126
(dp127
g110
g111
sg112
F-10.48215195510443
sg113
F1.0
sg15
I4
sg114
g115
sbsI5
g0
(g106
g2
Ntp128
Rp129
(dp130
g110
g111
sg112
F27.936886851767042
sg113
F1.0
sg15
I5
sg114
g115
sbsI6
g0
(g106
g2
Ntp131
Rp132
(dp133
g110
g111
sg112
F-13.913710928314194
sg113
F1.0
sg15
I6
sg114
g115
sbsI7
g0
(g106
g2
Ntp134
Rp135
(dp136
g110
S'relu'
p137
sg112
F-9.130735957037425
sg113
F1.0
sg15
I7
sg114
g115
sbsI8
g0
(g106
g2
Ntp138
Rp139
(dp140
g110
g111
sg112
F-13.7181153862009
sg113
F1.0
sg15
I8
sg114
g115
sbsI9
g0
(g106
g2
Ntp141
Rp142
(dp143
g110
g111
sg112
F6.446869934604085
sg113
F1.0
sg15
I9
sg114
g115
sbsI257
g0
(g106
g2
Ntp144
Rp145
(dp146
g110
g111
sg112
F-7.785059482102906
sg113
F1.0
sg15
I257
sg114
g115
sbsI256
g0
(g106
g2
Ntp147
Rp148
(dp149
g110
g111
sg112
F3.7904986043500895
sg113
F1.0
sg15
I256
sg114
g115
sbsI536
g0
(g106
g2
Ntp150
Rp151
(dp152
g110
g137
sg112
F-17.000448121538707
sg113
F1.0
sg15
I536
sg114
g115
sbsI411
g0
(g106
g2
Ntp153
Rp154
(dp155
g110
g111
sg112
F5.039346788381048
sg113
F1.0
sg15
I411
sg114
g115
sbssg15
I45
sS'fitness'
p156
Nsb.