ccopy_reg
_reconstructor
p0
(cneat.genome
DefaultGenome
p1
c__builtin__
object
p2
Ntp3
Rp4
(dp5
S'connections'
p6
(dp7
(I-14
I54
tp8
g0
(cneat.genes
DefaultConnectionGene
p9
g2
Ntp10
Rp11
(dp12
S'enabled'
p13
I01
sS'weight'
p14
F0.10727978095276597
sS'key'
p15
g8
sbs(I-12
I54
tp16
g0
(g9
g2
Ntp17
Rp18
(dp19
g13
I01
sg14
F0.22382671176880606
sg15
g16
sbs(I-4
I54
tp20
g0
(g9
g2
Ntp21
Rp22
(dp23
g13
I01
sg14
F0.8164526972810844
sg15
g20
sbs(I54
I5
tp24
g0
(g9
g2
Ntp25
Rp26
(dp27
g13
I01
sg14
F-0.2830888509161946
sg15
g24
sbs(I-2
I54
tp28
g0
(g9
g2
Ntp29
Rp30
(dp31
g13
I01
sg14
F-1.2946514463054368
sg15
g28
sbs(I54
I8
tp32
g0
(g9
g2
Ntp33
Rp34
(dp35
g13
I01
sg14
F-0.06772715785017122
sg15
g32
sbs(I-8
I54
tp36
g0
(g9
g2
Ntp37
Rp38
(dp39
g13
I01
sg14
F0.6433296708660968
sg15
g36
sbs(I54
I1
tp40
g0
(g9
g2
Ntp41
Rp42
(dp43
g13
I01
sg14
F-0.4517663777844361
sg15
g40
sbs(I-20
I54
tp44
g0
(g9
g2
Ntp45
Rp46
(dp47
g13
I01
sg14
F-2.100082846333761
sg15
g44
sbs(I-18
I54
tp48
g0
(g9
g2
Ntp49
Rp50
(dp51
g13
I01
sg14
F2.2977750470431144
sg15
g48
sbs(I-10
I54
tp52
g0
(g9
g2
Ntp53
Rp54
(dp55
g13
I01
sg14
F0.027339731251639063
sg15
g52
sbs(I-11
I54
tp56
g0
(g9
g2
Ntp57
Rp58
(dp59
g13
I01
sg14
F0.4650384463616591
sg15
g56
sbs(I-3
I54
tp60
g0
(g9
g2
Ntp61
Rp62
(dp63
g13
I01
sg14
F-1.7791857648588068
sg15
g60
sbs(I-16
I54
tp64
g0
(g9
g2
Ntp65
Rp66
(dp67
g13
I01
sg14
F-1.1012420070223863
sg15
g64
sbs(I54
I9
tp68
g0
(g9
g2
Ntp69
Rp70
(dp71
g13
I01
sg14
F-0.48060602928745766
sg15
g68
sbs(I54
I6
tp72
g0
(g9
g2
Ntp73
Rp74
(dp75
g13
I01
sg14
F1.047160916426205
sg15
g72
sbs(I-7
I54
tp76
g0
(g9
g2
Ntp77
Rp78
(dp79
g13
I01
sg14
F-1.1218408985007715
sg15
g76
sbs(I-19
I54
tp80
g0
(g9
g2
Ntp81
Rp82
(dp83
g13
I01
sg14
F-0.5662931278267184
sg15
g80
sbs(I-17
I54
tp84
g0
(g9
g2
Ntp85
Rp86
(dp87
g13
I01
sg14
F-1.1668238835396032
sg15
g84
sbs(I54
I2
tp88
g0
(g9
g2
Ntp89
Rp90
(dp91
g13
I01
sg14
F0.9488822845834705
sg15
g88
sbs(I-9
I54
tp92
g0
(g9
g2
Ntp93
Rp94
(dp95
g13
I01
sg14
F1.6411277709939425
sg15
g92
sbs(I-15
I54
tp96
g0
(g9
g2
Ntp97
Rp98
(dp99
g13
I01
sg14
F0.2606505804640027
sg15
g96
sbs(I-13
I54
tp100
g0
(g9
g2
Ntp101
Rp102
(dp103
g13
I01
sg14
F-1.1726246243676384
sg15
g100
sbs(I-1
I54
tp104
g0
(g9
g2
Ntp105
Rp106
(dp107
g13
I01
sg14
F-1.2714589717462648
sg15
g104
sbs(I-5
I54
tp108
g0
(g9
g2
Ntp109
Rp110
(dp111
g13
I01
sg14
F-0.7379217808137897
sg15
g108
sbs(I54
I3
tp112
g0
(g9
g2
Ntp113
Rp114
(dp115
g13
I01
sg14
F-1.5836982537735222
sg15
g112
sbs(I-6
I54
tp116
g0
(g9
g2
Ntp117
Rp118
(dp119
g13
I01
sg14
F1.690902552077279
sg15
g116
sbs(I54
I4
tp120
g0
(g9
g2
Ntp121
Rp122
(dp123
g13
I01
sg14
F-0.18575660866687876
sg15
g120
sbs(I54
I7
tp124
g0
(g9
g2
Ntp125
Rp126
(dp127
g13
I01
sg14
F-0.13810663411948676
sg15
g124
sbs(I54
I0
tp128
g0
(g9
g2
Ntp129
Rp130
(dp131
g13
I01
sg14
F0.7224079718356303
sg15
g128
sbssS'nodes'
p132
(dp133
I0
g0
(cneat.genes
DefaultNodeGene
p134
g2
Ntp135
Rp136
(dp137
S'activation'
p138
S'relu'
p139
sS'bias'
p140
F-9.652458942016393
sS'response'
p141
F1.0
sg15
I0
sS'aggregation'
p142
S'sum'
p143
sbsI1
g0
(g134
g2
Ntp144
Rp145
(dp146
g138
g139
sg140
F7.7642366315123965
sg141
F1.0
sg15
I1
sg142
g143
sbsI2
g0
(g134
g2
Ntp147
Rp148
(dp149
g138
g139
sg140
F-3.840754048425798
sg141
F1.0
sg15
I2
sg142
g143
sbsI3
g0
(g134
g2
Ntp150
Rp151
(dp152
g138
g139
sg140
F5.738012006950073
sg141
F1.0
sg15
I3
sg142
g143
sbsI4
g0
(g134
g2
Ntp153
Rp154
(dp155
g138
g139
sg140
F23.483057778844596
sg141
F1.0
sg15
I4
sg142
g143
sbsI5
g0
(g134
g2
Ntp156
Rp157
(dp158
g138
g139
sg140
F4.759520538458165
sg141
F1.0
sg15
I5
sg142
g143
sbsI6
g0
(g134
g2
Ntp159
Rp160
(dp161
g138
g139
sg140
F-9.478174005588247
sg141
F1.0
sg15
I6
sg142
g143
sbsI7
g0
(g134
g2
Ntp162
Rp163
(dp164
g138
g139
sg140
F8.798202656731771
sg141
F1.0
sg15
I7
sg142
g143
sbsI8
g0
(g134
g2
Ntp165
Rp166
(dp167
g138
g139
sg140
F0.8884983583131938
sg141
F1.0
sg15
I8
sg142
g143
sbsI9
g0
(g134
g2
Ntp168
Rp169
(dp170
g138
g139
sg140
F-6.073970806762448
sg141
F1.0
sg15
I9
sg142
g143
sbsI54
g0
(g134
g2
Ntp171
Rp172
(dp173
g138
g139
sg140
F-5.940343419433521
sg141
F1.0
sg15
I54
sg142
g143
sbssg15
I45
sS'fitness'
p174
Nsb.