ccopy_reg
_reconstructor
p0
(cneat.genome
DefaultGenome
p1
c__builtin__
object
p2
Ntp3
Rp4
(dp5
S'connections'
p6
(dp7
(I23
I4
tp8
g0
(cneat.genes
DefaultConnectionGene
p9
g2
Ntp10
Rp11
(dp12
S'enabled'
p13
I01
sS'weight'
p14
F-1.6092676222119227
sS'key'
p15
g8
sbs(I-2
I23
tp16
g0
(g9
g2
Ntp17
Rp18
(dp19
g13
I01
sg14
F2.9654414056221263
sg15
g16
sbs(I7
I7
tp20
g0
(g9
g2
Ntp21
Rp22
(dp23
g13
I01
sg14
F-0.9612204492813827
sg15
g20
sbs(I-4
I22
tp24
g0
(g9
g2
Ntp25
Rp26
(dp27
g13
I01
sg14
F-3.4996320477699747
sg15
g24
sbs(I23
I3
tp28
g0
(g9
g2
Ntp29
Rp30
(dp31
g13
I00
sg14
F-0.09316747259399838
sg15
g28
sbs(I-3
I3
tp32
g0
(g9
g2
Ntp33
Rp34
(dp35
g13
I01
sg14
F0.529401354344645
sg15
g32
sbs(I-2
I22
tp36
g0
(g9
g2
Ntp37
Rp38
(dp39
g13
I01
sg14
F2.2108989952421463
sg15
g36
sbs(I-7
I22
tp40
g0
(g9
g2
Ntp41
Rp42
(dp43
g13
I01
sg14
F1.5219860962020224
sg15
g40
sbs(I23
I7
tp44
g0
(g9
g2
Ntp45
Rp46
(dp47
g13
I01
sg14
F0.13121782496044238
sg15
g44
sbs(I-10
I21
tp48
g0
(g9
g2
Ntp49
Rp50
(dp51
g13
I01
sg14
F1.7936968649623242
sg15
g48
sbs(I-5
I23
tp52
g0
(g9
g2
Ntp53
Rp54
(dp55
g13
I00
sg14
F1.8165538289215728
sg15
g52
sbs(I-6
I21
tp56
g0
(g9
g2
Ntp57
Rp58
(dp59
g13
I01
sg14
F-0.39787012858914056
sg15
g56
sbs(I-2
I21
tp60
g0
(g9
g2
Ntp61
Rp62
(dp63
g13
I00
sg14
F-1.330401976547264
sg15
g60
sbs(I-7
I588
tp64
g0
(g9
g2
Ntp65
Rp66
(dp67
g13
I01
sg14
F1.0
sg15
g64
sbs(I22
I7
tp68
g0
(g9
g2
Ntp69
Rp70
(dp71
g13
I01
sg14
F-2.772877309722231
sg15
g68
sbs(I23
I9
tp72
g0
(g9
g2
Ntp73
Rp74
(dp75
g13
I00
sg14
F1.5813157108003333
sg15
g72
sbs(I2
I2
tp76
g0
(g9
g2
Ntp77
Rp78
(dp79
g13
I00
sg14
F-2.3517553866121204
sg15
g76
sbs(I-7
I21
tp80
g0
(g9
g2
Ntp81
Rp82
(dp83
g13
I01
sg14
F-1.2398975105692487
sg15
g80
sbs(I588
I23
tp84
g0
(g9
g2
Ntp85
Rp86
(dp87
g13
I01
sg14
F-2.9978654555561515
sg15
g84
sbs(I-5
I22
tp88
g0
(g9
g2
Ntp89
Rp90
(dp91
g13
I01
sg14
F0.15239151918984317
sg15
g88
sbs(I22
I8
tp92
g0
(g9
g2
Ntp93
Rp94
(dp95
g13
I01
sg14
F-1.3347932724247993
sg15
g92
sbs(I568
I9
tp96
g0
(g9
g2
Ntp97
Rp98
(dp99
g13
I01
sg14
F0.46877963243314325
sg15
g96
sbs(I21
I0
tp100
g0
(g9
g2
Ntp101
Rp102
(dp103
g13
I00
sg14
F-0.6505466864605829
sg15
g100
sbs(I-6
I22
tp104
g0
(g9
g2
Ntp105
Rp106
(dp107
g13
I01
sg14
F0.028543668197449523
sg15
g104
sbs(I22
I4
tp108
g0
(g9
g2
Ntp109
Rp110
(dp111
g13
I01
sg14
F1.7299534330876258
sg15
g108
sbs(I21
I4
tp112
g0
(g9
g2
Ntp113
Rp114
(dp115
g13
I01
sg14
F-1.6737769732943648
sg15
g112
sbs(I23
I1
tp116
g0
(g9
g2
Ntp117
Rp118
(dp119
g13
I01
sg14
F0.6402040281130545
sg15
g116
sbs(I9
I568
tp120
g0
(g9
g2
Ntp121
Rp122
(dp123
g13
I01
sg14
F1.758658853339809
sg15
g120
sbs(I-8
I21
tp124
g0
(g9
g2
Ntp125
Rp126
(dp127
g13
I01
sg14
F-0.14677630958608334
sg15
g124
sbs(I22
I0
tp128
g0
(g9
g2
Ntp129
Rp130
(dp131
g13
I00
sg14
F1.2035909785797154
sg15
g128
sbs(I23
I5
tp132
g0
(g9
g2
Ntp133
Rp134
(dp135
g13
I01
sg14
F-1.322232621683704
sg15
g132
sbs(I-10
I23
tp136
g0
(g9
g2
Ntp137
Rp138
(dp139
g13
I01
sg14
F-1.5670071189408015
sg15
g136
sbs(I21
I9
tp140
g0
(g9
g2
Ntp141
Rp142
(dp143
g13
I00
sg14
F1.4187068649831682
sg15
g140
sbs(I-1
I21
tp144
g0
(g9
g2
Ntp145
Rp146
(dp147
g13
I00
sg14
F1.2595390618797295
sg15
g144
sbs(I9
I9
tp148
g0
(g9
g2
Ntp149
Rp150
(dp151
g13
I01
sg14
F0.4878100066197715
sg15
g148
sbs(I-1
I22
tp152
g0
(g9
g2
Ntp153
Rp154
(dp155
g13
I00
sg14
F0.51020450773151
sg15
g152
sbs(I8
I8
tp156
g0
(g9
g2
Ntp157
Rp158
(dp159
g13
I01
sg14
F0.7322798681397469
sg15
g156
sbs(I6
I568
tp160
g0
(g9
g2
Ntp161
Rp162
(dp163
g13
I01
sg14
F0.6835553589505088
sg15
g160
sbs(I-7
I23
tp164
g0
(g9
g2
Ntp165
Rp166
(dp167
g13
I01
sg14
F-2.869162629491681
sg15
g164
sbssS'nodes'
p168
(dp169
I0
g0
(cneat.genes
DefaultNodeGene
p170
g2
Ntp171
Rp172
(dp173
S'activation'
p174
S'tanh'
p175
sS'bias'
p176
F4.590096696599056
sS'response'
p177
F1.0
sg15
I0
sS'aggregation'
p178
S'sum'
p179
sbsI1
g0
(g170
g2
Ntp180
Rp181
(dp182
g174
g175
sg176
F-15.477184422585232
sg177
F1.0
sg15
I1
sg178
g179
sbsI2
g0
(g170
g2
Ntp183
Rp184
(dp185
g174
g175
sg176
F-0.5152228593565885
sg177
F1.0
sg15
I2
sg178
g179
sbsI3
g0
(g170
g2
Ntp186
Rp187
(dp188
g174
g175
sg176
F-19.774529960787603
sg177
F1.0
sg15
I3
sg178
g179
sbsI4
g0
(g170
g2
Ntp189
Rp190
(dp191
g174
S'relu'
p192
sg176
F24.276622813299507
sg177
F1.0
sg15
I4
sg178
g179
sbsI5
g0
(g170
g2
Ntp193
Rp194
(dp195
g174
g175
sg176
F8.405931573698313
sg177
F1.0
sg15
I5
sg178
g179
sbsI6
g0
(g170
g2
Ntp196
Rp197
(dp198
g174
g175
sg176
F17.874311942871955
sg177
F1.0
sg15
I6
sg178
g179
sbsI7
g0
(g170
g2
Ntp199
Rp200
(dp201
g174
g175
sg176
F6.619667038995941
sg177
F1.0
sg15
I7
sg178
g179
sbsI8
g0
(g170
g2
Ntp202
Rp203
(dp204
g174
g175
sg176
F-7.61473658263775
sg177
F1.0
sg15
I8
sg178
g179
sbsI9
g0
(g170
g2
Ntp205
Rp206
(dp207
g174
g192
sg176
F13.337113725363679
sg177
F1.0
sg15
I9
sg178
g179
sbsI588
g0
(g170
g2
Ntp208
Rp209
(dp210
g174
g192
sg176
F-10.328795841149638
sg177
F1.0
sg15
I588
sg178
g179
sbsI21
g0
(g170
g2
Ntp211
Rp212
(dp213
g174
g175
sg176
F-1.8780253176793256
sg177
F1.0
sg15
I21
sg178
g179
sbsI22
g0
(g170
g2
Ntp214
Rp215
(dp216
g174
g175
sg176
F-14.338248861789147
sg177
F1.0
sg15
I22
sg178
g179
sbsI23
g0
(g170
g2
Ntp217
Rp218
(dp219
g174
g175
sg176
F-1.769392772496867
sg177
F1.0
sg15
I23
sg178
g179
sbsI568
g0
(g170
g2
Ntp220
Rp221
(dp222
g174
g175
sg176
F-0.8757495213388422
sg177
F1.0
sg15
I568
sg178
g179
sbssg15
I45
sS'fitness'
p223
Nsb.