ccopy_reg
_reconstructor
p0
(cneat.genome
DefaultGenome
p1
c__builtin__
object
p2
Ntp3
Rp4
(dp5
S'connections'
p6
(dp7
(I-4
I5
tp8
g0
(cneat.genes
DefaultConnectionGene
p9
g2
Ntp10
Rp11
(dp12
S'enabled'
p13
I01
sS'weight'
p14
F1.3666371399463257
sS'key'
p15
g8
sbs(I-7
I0
tp16
g0
(g9
g2
Ntp17
Rp18
(dp19
g13
I01
sg14
F-0.7801242533458379
sg15
g16
sbs(I1
I1
tp20
g0
(g9
g2
Ntp21
Rp22
(dp23
g13
I01
sg14
F-0.15814353599394998
sg15
g20
sbs(I-5
I1670
tp24
g0
(g9
g2
Ntp25
Rp26
(dp27
g13
I01
sg14
F-0.16165375702955032
sg15
g24
sbs(I-4
I6
tp28
g0
(g9
g2
Ntp29
Rp30
(dp31
g13
I01
sg14
F-0.5451916469807763
sg15
g28
sbssS'nodes'
p32
(dp33
I0
g0
(cneat.genes
DefaultNodeGene
p34
g2
Ntp35
Rp36
(dp37
S'activation'
p38
S'tanh'
p39
sS'bias'
p40
F23.324875388888938
sS'response'
p41
F1.0
sg15
I0
sS'aggregation'
p42
S'sum'
p43
sbsI1
g0
(g34
g2
Ntp44
Rp45
(dp46
g38
g39
sg40
F-4.236322913081166
sg41
F1.0
sg15
I1
sg42
g43
sbsI2
g0
(g34
g2
Ntp47
Rp48
(dp49
g38
g39
sg40
F-5.716355519978288
sg41
F1.0
sg15
I2
sg42
g43
sbsI3
g0
(g34
g2
Ntp50
Rp51
(dp52
g38
g39
sg40
F-1.849159132573358
sg41
F1.0
sg15
I3
sg42
g43
sbsI4
g0
(g34
g2
Ntp53
Rp54
(dp55
g38
g39
sg40
F8.010593770163876
sg41
F1.0
sg15
I4
sg42
g43
sbsI5
g0
(g34
g2
Ntp56
Rp57
(dp58
g38
g39
sg40
F13.394655357128197
sg41
F1.0
sg15
I5
sg42
g43
sbsI6
g0
(g34
g2
Ntp59
Rp60
(dp61
g38
g39
sg40
F2.0343928438302954
sg41
F1.0
sg15
I6
sg42
g43
sbsI7
g0
(g34
g2
Ntp62
Rp63
(dp64
g38
g39
sg40
F-6.1644266376423404
sg41
F1.0
sg15
I7
sg42
g43
sbsI8
g0
(g34
g2
Ntp65
Rp66
(dp67
g38
g39
sg40
F6.9033746566999294
sg41
F1.0
sg15
I8
sg42
g43
sbsI9
g0
(g34
g2
Ntp68
Rp69
(dp70
g38
g39
sg40
F8.204684757200312
sg41
F1.0
sg15
I9
sg42
g43
sbsI1670
g0
(g34
g2
Ntp71
Rp72
(dp73
g38
g39
sg40
F-7.84618316668779
sg41
F1.0
sg15
I1670
sg42
g43
sbssg15
I4506
sS'fitness'
p74
F0.015284623001751152
sb.