ccopy_reg
_reconstructor
p0
(cneat.genome
DefaultGenome
p1
c__builtin__
object
p2
Ntp3
Rp4
(dp5
S'connections'
p6
(dp7
(I1745
I9
tp8
g0
(cneat.genes
DefaultConnectionGene
p9
g2
Ntp10
Rp11
(dp12
S'enabled'
p13
I01
sS'weight'
p14
F-0.31898383738132746
sS'key'
p15
g8
sbs(I1769
I9
tp16
g0
(g9
g2
Ntp17
Rp18
(dp19
g13
I01
sg14
F-2.713010659987837
sg15
g16
sbs(I-6
I9
tp20
g0
(g9
g2
Ntp21
Rp22
(dp23
g13
I00
sg14
F-1.9116799182534023
sg15
g20
sbs(I-4
I8
tp24
g0
(g9
g2
Ntp25
Rp26
(dp27
g13
I00
sg14
F-0.05420997687346574
sg15
g24
sbs(I-6
I1769
tp28
g0
(g9
g2
Ntp29
Rp30
(dp31
g13
I01
sg14
F1.8220868409545903
sg15
g28
sbs(I-6
I1745
tp32
g0
(g9
g2
Ntp33
Rp34
(dp35
g13
I01
sg14
F1.9448697010155316
sg15
g32
sbssS'nodes'
p36
(dp37
I0
g0
(cneat.genes
DefaultNodeGene
p38
g2
Ntp39
Rp40
(dp41
S'activation'
p42
S'tanh'
p43
sS'bias'
p44
F15.63773845359119
sS'response'
p45
F1.0
sg15
I0
sS'aggregation'
p46
S'sum'
p47
sbsI1
g0
(g38
g2
Ntp48
Rp49
(dp50
g42
g43
sg44
F-17.736438022439106
sg45
F1.0
sg15
I1
sg46
g47
sbsI2
g0
(g38
g2
Ntp51
Rp52
(dp53
g42
g43
sg44
F-6.831607330120429
sg45
F1.0
sg15
I2
sg46
g47
sbsI3
g0
(g38
g2
Ntp54
Rp55
(dp56
g42
g43
sg44
F-8.39617074348734
sg45
F1.0
sg15
I3
sg46
g47
sbsI4
g0
(g38
g2
Ntp57
Rp58
(dp59
g42
g43
sg44
F-10.671023557094934
sg45
F1.0
sg15
I4
sg46
g47
sbsI5
g0
(g38
g2
Ntp60
Rp61
(dp62
g42
g43
sg44
F-1.1188157155936556
sg45
F1.0
sg15
I5
sg46
g47
sbsI6
g0
(g38
g2
Ntp63
Rp64
(dp65
g42
g43
sg44
F4.819755328227728
sg45
F1.0
sg15
I6
sg46
g47
sbsI7
g0
(g38
g2
Ntp66
Rp67
(dp68
g42
g43
sg44
F2.5989023078930678
sg45
F1.0
sg15
I7
sg46
g47
sbsI8
g0
(g38
g2
Ntp69
Rp70
(dp71
g42
g43
sg44
F-7.935920309900233
sg45
F1.0
sg15
I8
sg46
g47
sbsI9
g0
(g38
g2
Ntp72
Rp73
(dp74
g42
g43
sg44
F-12.757758945333752
sg45
F1.0
sg15
I9
sg46
g47
sbsI1745
g0
(g38
g2
Ntp75
Rp76
(dp77
g42
S'relu'
p78
sg44
F10.75179935059475
sg45
F1.0
sg15
I1745
sg46
g47
sbsI1769
g0
(g38
g2
Ntp79
Rp80
(dp81
g42
g78
sg44
F9.612872455067295
sg45
F1.0
sg15
I1769
sg46
g47
sbssg15
I4511
sS'fitness'
p82
F0.006764069641243431
sb.