ccopy_reg
_reconstructor
p0
(cneat.genome
DefaultGenome
p1
c__builtin__
object
p2
Ntp3
Rp4
(dp5
S'connections'
p6
(dp7
(I-7
I1541
tp8
g0
(cneat.genes
DefaultConnectionGene
p9
g2
Ntp10
Rp11
(dp12
S'enabled'
p13
I01
sS'weight'
p14
F1.6685547014100206
sS'key'
p15
g8
sbs(I1773
I1541
tp16
g0
(g9
g2
Ntp17
Rp18
(dp19
g13
I01
sg14
F0.9514053029698532
sg15
g16
sbs(I9
I1744
tp20
g0
(g9
g2
Ntp21
Rp22
(dp23
g13
I01
sg14
F0.38075689879872626
sg15
g20
sbs(I1726
I1541
tp24
g0
(g9
g2
Ntp25
Rp26
(dp27
g13
I00
sg14
F-2.284989007024758
sg15
g24
sbs(I9
I1541
tp28
g0
(g9
g2
Ntp29
Rp30
(dp31
g13
I00
sg14
F0.3470287419920931
sg15
g28
sbs(I1744
I1773
tp32
g0
(g9
g2
Ntp33
Rp34
(dp35
g13
I01
sg14
F1.0461537044763236
sg15
g32
sbssS'nodes'
p36
(dp37
I0
g0
(cneat.genes
DefaultNodeGene
p38
g2
Ntp39
Rp40
(dp41
S'activation'
p42
S'tanh'
p43
sS'bias'
p44
F-19.401772762425523
sS'response'
p45
F1.0
sg15
I0
sS'aggregation'
p46
S'sum'
p47
sbsI1
g0
(g38
g2
Ntp48
Rp49
(dp50
g42
g43
sg44
F-8.064615370209657
sg45
F1.0
sg15
I1
sg46
g47
sbsI2
g0
(g38
g2
Ntp51
Rp52
(dp53
g42
g43
sg44
F4.472362568627009
sg45
F1.0
sg15
I2
sg46
g47
sbsI3
g0
(g38
g2
Ntp54
Rp55
(dp56
g42
g43
sg44
F-11.333995440852751
sg45
F1.0
sg15
I3
sg46
g47
sbsI4
g0
(g38
g2
Ntp57
Rp58
(dp59
g42
g43
sg44
F15.241390964374638
sg45
F1.0
sg15
I4
sg46
g47
sbsI5
g0
(g38
g2
Ntp60
Rp61
(dp62
g42
g43
sg44
F-8.368169449502187
sg45
F1.0
sg15
I5
sg46
g47
sbsI6
g0
(g38
g2
Ntp63
Rp64
(dp65
g42
g43
sg44
F-3.2549464583027294
sg45
F1.0
sg15
I6
sg46
g47
sbsI7
g0
(g38
g2
Ntp66
Rp67
(dp68
g42
g43
sg44
F4.8191920811082785
sg45
F1.0
sg15
I7
sg46
g47
sbsI8
g0
(g38
g2
Ntp69
Rp70
(dp71
g42
g43
sg44
F8.292001828411452
sg45
F1.0
sg15
I8
sg46
g47
sbsI9
g0
(g38
g2
Ntp72
Rp73
(dp74
g42
g43
sg44
F-6.0175888441491425
sg45
F1.0
sg15
I9
sg46
g47
sbsI1773
g0
(g38
g2
Ntp75
Rp76
(dp77
g42
S'relu'
p78
sg44
F-9.082740561374047
sg45
F1.0
sg15
I1773
sg46
g47
sbsI1390
g0
(g38
g2
Ntp79
Rp80
(dp81
g42
g43
sg44
F-2.0795223585971705
sg45
F1.0
sg15
I1390
sg46
g47
sbsI1744
g0
(g38
g2
Ntp82
Rp83
(dp84
g42
g43
sg44
F20.489126589416724
sg45
F1.0
sg15
I1744
sg46
g47
sbsI1726
g0
(g38
g2
Ntp85
Rp86
(dp87
g42
g78
sg44
F9.920855050413367
sg45
F1.0
sg15
I1726
sg46
g47
sbsI1541
g0
(g38
g2
Ntp88
Rp89
(dp90
g42
g43
sg44
F3.02692675024401
sg45
F1.0
sg15
I1541
sg46
g47
sbssg15
I4520
sS'fitness'
p91
F0.000385740559837755
sb.