ccopy_reg
_reconstructor
p0
(cneat.genome
DefaultGenome
p1
c__builtin__
object
p2
Ntp3
Rp4
(dp5
S'connections'
p6
(dp7
(I1689
I1714
tp8
g0
(cneat.genes
DefaultConnectionGene
p9
g2
Ntp10
Rp11
(dp12
S'enabled'
p13
I01
sS'weight'
p14
F1.2152507019514422
sS'key'
p15
g8
sbs(I-1
I3
tp16
g0
(g9
g2
Ntp17
Rp18
(dp19
g13
I00
sg14
F2.1092399205280783
sg15
g16
sbs(I1689
I1462
tp20
g0
(g9
g2
Ntp21
Rp22
(dp23
g13
I00
sg14
F0.15649051599242603
sg15
g20
sbs(I-4
I6
tp24
g0
(g9
g2
Ntp25
Rp26
(dp27
g13
I00
sg14
F0.11255178818178974
sg15
g24
sbssS'nodes'
p28
(dp29
I0
g0
(cneat.genes
DefaultNodeGene
p30
g2
Ntp31
Rp32
(dp33
S'activation'
p34
S'tanh'
p35
sS'bias'
p36
F7.478656466006016
sS'response'
p37
F1.0
sg15
I0
sS'aggregation'
p38
S'sum'
p39
sbsI1
g0
(g30
g2
Ntp40
Rp41
(dp42
g34
g35
sg36
F-3.8092099229717276
sg37
F1.0
sg15
I1
sg38
g39
sbsI2
g0
(g30
g2
Ntp43
Rp44
(dp45
g34
g35
sg36
F14.861681806986631
sg37
F1.0
sg15
I2
sg38
g39
sbsI3
g0
(g30
g2
Ntp46
Rp47
(dp48
g34
g35
sg36
F3.0276917317614505
sg37
F1.0
sg15
I3
sg38
g39
sbsI4
g0
(g30
g2
Ntp49
Rp50
(dp51
g34
g35
sg36
F13.129840334779194
sg37
F1.0
sg15
I4
sg38
g39
sbsI5
g0
(g30
g2
Ntp52
Rp53
(dp54
g34
g35
sg36
F-8.623586534908345
sg37
F1.0
sg15
I5
sg38
g39
sbsI6
g0
(g30
g2
Ntp55
Rp56
(dp57
g34
g35
sg36
F-0.24694821995996402
sg37
F1.0
sg15
I6
sg38
g39
sbsI7
g0
(g30
g2
Ntp58
Rp59
(dp60
g34
g35
sg36
F-7.507306343291722
sg37
F1.0
sg15
I7
sg38
g39
sbsI8
g0
(g30
g2
Ntp61
Rp62
(dp63
g34
g35
sg36
F11.984894362041121
sg37
F1.0
sg15
I8
sg38
g39
sbsI9
g0
(g30
g2
Ntp64
Rp65
(dp66
g34
g35
sg36
F5.454882766939382
sg37
F1.0
sg15
I9
sg38
g39
sbsI1714
g0
(g30
g2
Ntp67
Rp68
(dp69
g34
g35
sg36
F-3.2700132615959814
sg37
F1.0
sg15
I1714
sg38
g39
sbsI1462
g0
(g30
g2
Ntp70
Rp71
(dp72
g34
g35
sg36
F13.937657830770299
sg37
F1.0
sg15
I1462
sg38
g39
sbsI1689
g0
(g30
g2
Ntp73
Rp74
(dp75
g34
g35
sg36
F-9.356283612590909
sg37
F1.0
sg15
I1689
sg38
g39
sbssg15
I4525
sS'fitness'
p76
F-0.07933134129113895
sb.