ccopy_reg
_reconstructor
p0
(cneat.genome
DefaultGenome
p1
c__builtin__
object
p2
Ntp3
Rp4
(dp5
S'connections'
p6
(dp7
(I-10
I2
tp8
g0
(cneat.genes
DefaultConnectionGene
p9
g2
Ntp10
Rp11
(dp12
S'enabled'
p13
I00
sS'weight'
p14
F-0.8368500306071365
sS'key'
p15
g8
sbs(I-2
I1743
tp16
g0
(g9
g2
Ntp17
Rp18
(dp19
g13
I01
sg14
F0.15536954799829072
sg15
g16
sbs(I-2
I9
tp20
g0
(g9
g2
Ntp21
Rp22
(dp23
g13
I01
sg14
F-1.506494222389315
sg15
g20
sbs(I-3
I1325
tp24
g0
(g9
g2
Ntp25
Rp26
(dp27
g13
I00
sg14
F0.2757610245636294
sg15
g24
sbs(I-10
I1436
tp28
g0
(g9
g2
Ntp29
Rp30
(dp31
g13
I00
sg14
F1.3828611795066161
sg15
g28
sbs(I-2
I7
tp32
g0
(g9
g2
Ntp33
Rp34
(dp35
g13
I00
sg14
F-2.1667120351512414
sg15
g32
sbssS'nodes'
p36
(dp37
I0
g0
(cneat.genes
DefaultNodeGene
p38
g2
Ntp39
Rp40
(dp41
S'activation'
p42
S'tanh'
p43
sS'bias'
p44
F-3.8931241795847047
sS'response'
p45
F1.0
sg15
I0
sS'aggregation'
p46
S'sum'
p47
sbsI1
g0
(g38
g2
Ntp48
Rp49
(dp50
g42
g43
sg44
F20.36869488945608
sg45
F1.0
sg15
I1
sg46
g47
sbsI2
g0
(g38
g2
Ntp51
Rp52
(dp53
g42
g43
sg44
F-4.490179041671584
sg45
F1.0
sg15
I2
sg46
g47
sbsI3
g0
(g38
g2
Ntp54
Rp55
(dp56
g42
g43
sg44
F-17.631199945065195
sg45
F1.0
sg15
I3
sg46
g47
sbsI4
g0
(g38
g2
Ntp57
Rp58
(dp59
g42
g43
sg44
F19.223780437466168
sg45
F1.0
sg15
I4
sg46
g47
sbsI5
g0
(g38
g2
Ntp60
Rp61
(dp62
g42
g43
sg44
F13.0799282897507
sg45
F1.0
sg15
I5
sg46
g47
sbsI6
g0
(g38
g2
Ntp63
Rp64
(dp65
g42
g43
sg44
F-21.335305559204745
sg45
F1.0
sg15
I6
sg46
g47
sbsI7
g0
(g38
g2
Ntp66
Rp67
(dp68
g42
g43
sg44
F7.161667407864929
sg45
F1.0
sg15
I7
sg46
g47
sbsI8
g0
(g38
g2
Ntp69
Rp70
(dp71
g42
g43
sg44
F2.6454134300571397
sg45
F1.0
sg15
I8
sg46
g47
sbsI9
g0
(g38
g2
Ntp72
Rp73
(dp74
g42
g43
sg44
F-6.500660204318317
sg45
F1.0
sg15
I9
sg46
g47
sbsI1325
g0
(g38
g2
Ntp75
Rp76
(dp77
g42
g43
sg44
F-12.05828302590941
sg45
F1.0
sg15
I1325
sg46
g47
sbsI1743
g0
(g38
g2
Ntp78
Rp79
(dp80
g42
g43
sg44
F-0.4774955980345276
sg45
F1.0
sg15
I1743
sg46
g47
sbsI1436
g0
(g38
g2
Ntp81
Rp82
(dp83
g42
g43
sg44
F16.192510701412214
sg45
F1.0
sg15
I1436
sg46
g47
sbssg15
I4535
sS'fitness'
p84
F-0.03988449741612854
sb.