ccopy_reg
_reconstructor
p0
(cneat.genome
DefaultGenome
p1
c__builtin__
object
p2
Ntp3
Rp4
(dp5
S'connections'
p6
(dp7
(I-7
I1776
tp8
g0
(cneat.genes
DefaultConnectionGene
p9
g2
Ntp10
Rp11
(dp12
S'enabled'
p13
I01
sS'weight'
p14
F1.325281545621214
sS'key'
p15
g8
sbs(I-5
I1670
tp16
g0
(g9
g2
Ntp17
Rp18
(dp19
g13
I00
sg14
F-1.750854657190109
sg15
g16
sbs(I1
I1
tp20
g0
(g9
g2
Ntp21
Rp22
(dp23
g13
I01
sg14
F-0.5991966626563777
sg15
g20
sbs(I-7
I0
tp24
g0
(g9
g2
Ntp25
Rp26
(dp27
g13
I00
sg14
F-0.3227577035339062
sg15
g24
sbs(I1776
I0
tp28
g0
(g9
g2
Ntp29
Rp30
(dp31
g13
I01
sg14
F-0.4440025564138324
sg15
g28
sbs(I-4
I6
tp32
g0
(g9
g2
Ntp33
Rp34
(dp35
g13
I00
sg14
F-0.001865344324574747
sg15
g32
sbssS'nodes'
p36
(dp37
I0
g0
(cneat.genes
DefaultNodeGene
p38
g2
Ntp39
Rp40
(dp41
S'activation'
p42
S'tanh'
p43
sS'bias'
p44
F-6.647371624802632
sS'response'
p45
F1.0
sg15
I0
sS'aggregation'
p46
S'sum'
p47
sbsI1
g0
(g38
g2
Ntp48
Rp49
(dp50
g42
g43
sg44
F-3.609879242229017
sg45
F1.0
sg15
I1
sg46
g47
sbsI2
g0
(g38
g2
Ntp51
Rp52
(dp53
g42
g43
sg44
F24.709277995034082
sg45
F1.0
sg15
I2
sg46
g47
sbsI3
g0
(g38
g2
Ntp54
Rp55
(dp56
g42
g43
sg44
F0.3032126338189291
sg45
F1.0
sg15
I3
sg46
g47
sbsI4
g0
(g38
g2
Ntp57
Rp58
(dp59
g42
g43
sg44
F8.29304829118949
sg45
F1.0
sg15
I4
sg46
g47
sbsI5
g0
(g38
g2
Ntp60
Rp61
(dp62
g42
g43
sg44
F-2.8285921101956255
sg45
F1.0
sg15
I5
sg46
g47
sbsI6
g0
(g38
g2
Ntp63
Rp64
(dp65
g42
g43
sg44
F1.6533067917733026
sg45
F1.0
sg15
I6
sg46
g47
sbsI7
g0
(g38
g2
Ntp66
Rp67
(dp68
g42
g43
sg44
F7.9436028373347725
sg45
F1.0
sg15
I7
sg46
g47
sbsI8
g0
(g38
g2
Ntp69
Rp70
(dp71
g42
g43
sg44
F-14.006212449394042
sg45
F1.0
sg15
I8
sg46
g47
sbsI9
g0
(g38
g2
Ntp72
Rp73
(dp74
g42
g43
sg44
F7.273230003068576
sg45
F1.0
sg15
I9
sg46
g47
sbsI1670
g0
(g38
g2
Ntp75
Rp76
(dp77
g42
g43
sg44
F-8.452879039330076
sg45
F1.0
sg15
I1670
sg46
g47
sbsI1776
g0
(g38
g2
Ntp78
Rp79
(dp80
g42
g43
sg44
F7.73429974173248
sg45
F1.0
sg15
I1776
sg46
g47
sbssg15
I4536
sS'fitness'
p81
F-0.005579475162054148
sb.