ccopy_reg
_reconstructor
p0
(cneat.genome
DefaultGenome
p1
c__builtin__
object
p2
Ntp3
Rp4
(dp5
S'connections'
p6
(dp7
(I1
I1678
tp8
g0
(cneat.genes
DefaultConnectionGene
p9
g2
Ntp10
Rp11
(dp12
S'enabled'
p13
I01
sS'weight'
p14
F-1.5709578476652606
sS'key'
p15
g8
sbs(I1
I1
tp16
g0
(g9
g2
Ntp17
Rp18
(dp19
g13
I00
sg14
F0.6399934578103735
sg15
g16
sbs(I-5
I1639
tp20
g0
(g9
g2
Ntp21
Rp22
(dp23
g13
I00
sg14
F1.8345176101960132
sg15
g20
sbs(I1678
I1
tp24
g0
(g9
g2
Ntp25
Rp26
(dp27
g13
I01
sg14
F1.692717018772821
sg15
g24
sbs(I1462
I7
tp28
g0
(g9
g2
Ntp29
Rp30
(dp31
g13
I00
sg14
F-0.27589875320205626
sg15
g28
sbs(I-10
I8
tp32
g0
(g9
g2
Ntp33
Rp34
(dp35
g13
I01
sg14
F0.8009941778255822
sg15
g32
sbs(I1462
I6
tp36
g0
(g9
g2
Ntp37
Rp38
(dp39
g13
I01
sg14
F-0.85278535399202
sg15
g36
sbs(I1639
I1462
tp40
g0
(g9
g2
Ntp41
Rp42
(dp43
g13
I01
sg14
F-1.1295543799003094
sg15
g40
sbs(I-4
I6
tp44
g0
(g9
g2
Ntp45
Rp46
(dp47
g13
I00
sg14
F-0.8107673127439055
sg15
g44
sbssS'nodes'
p48
(dp49
I0
g0
(cneat.genes
DefaultNodeGene
p50
g2
Ntp51
Rp52
(dp53
S'activation'
p54
S'tanh'
p55
sS'bias'
p56
F1.0274885749631564
sS'response'
p57
F1.0
sg15
I0
sS'aggregation'
p58
S'sum'
p59
sbsI1
g0
(g50
g2
Ntp60
Rp61
(dp62
g54
g55
sg56
F-2.7174482056908045
sg57
F1.0
sg15
I1
sg58
g59
sbsI2
g0
(g50
g2
Ntp63
Rp64
(dp65
g54
g55
sg56
F-6.616206238869141
sg57
F1.0
sg15
I2
sg58
g59
sbsI3
g0
(g50
g2
Ntp66
Rp67
(dp68
g54
g55
sg56
F-1.4434764547314756
sg57
F1.0
sg15
I3
sg58
g59
sbsI4
g0
(g50
g2
Ntp69
Rp70
(dp71
g54
g55
sg56
F-10.310545479667692
sg57
F1.0
sg15
I4
sg58
g59
sbsI5
g0
(g50
g2
Ntp72
Rp73
(dp74
g54
g55
sg56
F13.877011511835796
sg57
F1.0
sg15
I5
sg58
g59
sbsI6
g0
(g50
g2
Ntp75
Rp76
(dp77
g54
g55
sg56
F0.029863217014933496
sg57
F1.0
sg15
I6
sg58
g59
sbsI7
g0
(g50
g2
Ntp78
Rp79
(dp80
g54
g55
sg56
F-6.111020767683146
sg57
F1.0
sg15
I7
sg58
g59
sbsI8
g0
(g50
g2
Ntp81
Rp82
(dp83
g54
g55
sg56
F-1.8853057708742607
sg57
F1.0
sg15
I8
sg58
g59
sbsI9
g0
(g50
g2
Ntp84
Rp85
(dp86
g54
g55
sg56
F-3.3545709605604492
sg57
F1.0
sg15
I9
sg58
g59
sbsI1639
g0
(g50
g2
Ntp87
Rp88
(dp89
g54
g55
sg56
F16.543077073613127
sg57
F1.0
sg15
I1639
sg58
g59
sbsI1678
g0
(g50
g2
Ntp90
Rp91
(dp92
g54
g55
sg56
F-18.32382673329663
sg57
F1.0
sg15
I1678
sg58
g59
sbsI1462
g0
(g50
g2
Ntp93
Rp94
(dp95
g54
g55
sg56
F21.570540222765143
sg57
F1.0
sg15
I1462
sg58
g59
sbssg15
I4537
sS'fitness'
p96
F0.007896888895436938
sb.