ccopy_reg
_reconstructor
p0
(cneat.genome
DefaultGenome
p1
c__builtin__
object
p2
Ntp3
Rp4
(dp5
S'connections'
p6
(dp7
(I1659
I0
tp8
g0
(cneat.genes
DefaultConnectionGene
p9
g2
Ntp10
Rp11
(dp12
S'enabled'
p13
I00
sS'weight'
p14
F1.0091412585275654
sS'key'
p15
g8
sbs(I0
I0
tp16
g0
(g9
g2
Ntp17
Rp18
(dp19
g13
I00
sg14
F2.490037692285455
sg15
g16
sbs(I-2
I8
tp20
g0
(g9
g2
Ntp21
Rp22
(dp23
g13
I00
sg14
F-0.7547298884948304
sg15
g20
sbs(I-3
I3
tp24
g0
(g9
g2
Ntp25
Rp26
(dp27
g13
I01
sg14
F0.42526018224716666
sg15
g24
sbs(I-7
I8
tp28
g0
(g9
g2
Ntp29
Rp30
(dp31
g13
I01
sg14
F-0.6479787237830885
sg15
g28
sbssS'nodes'
p32
(dp33
I0
g0
(cneat.genes
DefaultNodeGene
p34
g2
Ntp35
Rp36
(dp37
S'activation'
p38
S'tanh'
p39
sS'bias'
p40
F9.402019932153681
sS'response'
p41
F1.0
sg15
I0
sS'aggregation'
p42
S'sum'
p43
sbsI1
g0
(g34
g2
Ntp44
Rp45
(dp46
g38
g39
sg40
F-1.8103899803690884
sg41
F1.0
sg15
I1
sg42
g43
sbsI2
g0
(g34
g2
Ntp47
Rp48
(dp49
g38
g39
sg40
F7.611816467341656
sg41
F1.0
sg15
I2
sg42
g43
sbsI3
g0
(g34
g2
Ntp50
Rp51
(dp52
g38
g39
sg40
F14.117653051956381
sg41
F1.0
sg15
I3
sg42
g43
sbsI4
g0
(g34
g2
Ntp53
Rp54
(dp55
g38
g39
sg40
F7.281591827402476
sg41
F1.0
sg15
I4
sg42
g43
sbsI5
g0
(g34
g2
Ntp56
Rp57
(dp58
g38
g39
sg40
F2.5659078900618058
sg41
F1.0
sg15
I5
sg42
g43
sbsI6
g0
(g34
g2
Ntp59
Rp60
(dp61
g38
g39
sg40
F12.937064871296934
sg41
F1.0
sg15
I6
sg42
g43
sbsI7
g0
(g34
g2
Ntp62
Rp63
(dp64
g38
g39
sg40
F-0.7349841576298505
sg41
F1.0
sg15
I7
sg42
g43
sbsI8
g0
(g34
g2
Ntp65
Rp66
(dp67
g38
g39
sg40
F12.421823023521767
sg41
F1.0
sg15
I8
sg42
g43
sbsI9
g0
(g34
g2
Ntp68
Rp69
(dp70
g38
g39
sg40
F0.4026149958610117
sg41
F1.0
sg15
I9
sg42
g43
sbsI1659
g0
(g34
g2
Ntp71
Rp72
(dp73
g38
S'relu'
p74
sg40
F-9.731755602530662
sg41
F1.0
sg15
I1659
sg42
g43
sbssg15
I4547
sS'fitness'
p75
F0.05375228603996107
sb.