ccopy_reg
_reconstructor
p0
(cneat.genome
DefaultGenome
p1
c__builtin__
object
p2
Ntp3
Rp4
(dp5
S'connections'
p6
(dp7
(I1712
I4
tp8
g0
(cneat.genes
DefaultConnectionGene
p9
g2
Ntp10
Rp11
(dp12
S'enabled'
p13
I01
sS'weight'
p14
F-2.322966033221176
sS'key'
p15
g8
sbs(I1779
I4
tp16
g0
(g9
g2
Ntp17
Rp18
(dp19
g13
I01
sg14
F-1.6746536625256836
sg15
g16
sbs(I-5
I1779
tp20
g0
(g9
g2
Ntp21
Rp22
(dp23
g13
I01
sg14
F0.55335186891425
sg15
g20
sbs(I-9
I2
tp24
g0
(g9
g2
Ntp25
Rp26
(dp27
g13
I01
sg14
F-0.3026537193208395
sg15
g24
sbs(I-5
I1712
tp28
g0
(g9
g2
Ntp29
Rp30
(dp31
g13
I01
sg14
F1.645393193463069
sg15
g28
sbs(I4
I954
tp32
g0
(g9
g2
Ntp33
Rp34
(dp35
g13
I01
sg14
F2.290931872778262
sg15
g32
sbs(I-5
I4
tp36
g0
(g9
g2
Ntp37
Rp38
(dp39
g13
I00
sg14
F-1.4353277625581367
sg15
g36
sbs(I-4
I0
tp40
g0
(g9
g2
Ntp41
Rp42
(dp43
g13
I00
sg14
F0.15071017650115337
sg15
g40
sbs(I-5
I9
tp44
g0
(g9
g2
Ntp45
Rp46
(dp47
g13
I00
sg14
F1.0222094173372993
sg15
g44
sbs(I1
I1
tp48
g0
(g9
g2
Ntp49
Rp50
(dp51
g13
I00
sg14
F1.7192311298916483
sg15
g48
sbs(I-2
I0
tp52
g0
(g9
g2
Ntp53
Rp54
(dp55
g13
I01
sg14
F0.2665884598015338
sg15
g52
sbssS'nodes'
p56
(dp57
I0
g0
(cneat.genes
DefaultNodeGene
p58
g2
Ntp59
Rp60
(dp61
S'activation'
p62
S'tanh'
p63
sS'bias'
p64
F-2.2393149278198936
sS'response'
p65
F1.0
sg15
I0
sS'aggregation'
p66
S'sum'
p67
sbsI1
g0
(g58
g2
Ntp68
Rp69
(dp70
g62
g63
sg64
F-4.738212176803694
sg65
F1.0
sg15
I1
sg66
g67
sbsI2
g0
(g58
g2
Ntp71
Rp72
(dp73
g62
g63
sg64
F11.940754033660266
sg65
F1.0
sg15
I2
sg66
g67
sbsI3
g0
(g58
g2
Ntp74
Rp75
(dp76
g62
g63
sg64
F-14.397572678530976
sg65
F1.0
sg15
I3
sg66
g67
sbsI4
g0
(g58
g2
Ntp77
Rp78
(dp79
g62
g63
sg64
F-2.2021790515621062
sg65
F1.0
sg15
I4
sg66
g67
sbsI5
g0
(g58
g2
Ntp80
Rp81
(dp82
g62
g63
sg64
F-8.94123985455679
sg65
F1.0
sg15
I5
sg66
g67
sbsI6
g0
(g58
g2
Ntp83
Rp84
(dp85
g62
g63
sg64
F-3.6249727903657174
sg65
F1.0
sg15
I6
sg66
g67
sbsI7
g0
(g58
g2
Ntp86
Rp87
(dp88
g62
g63
sg64
F-19.52951541995152
sg65
F1.0
sg15
I7
sg66
g67
sbsI8
g0
(g58
g2
Ntp89
Rp90
(dp91
g62
g63
sg64
F-5.854669465249663
sg65
F1.0
sg15
I8
sg66
g67
sbsI9
g0
(g58
g2
Ntp92
Rp93
(dp94
g62
g63
sg64
F-1.5452590660843113
sg65
F1.0
sg15
I9
sg66
g67
sbsI546
g0
(g58
g2
Ntp95
Rp96
(dp97
g62
g63
sg64
F3.6170246510040176
sg65
F1.0
sg15
I546
sg66
g67
sbsI1712
g0
(g58
g2
Ntp98
Rp99
(dp100
g62
g63
sg64
F9.425949464761594
sg65
F1.0
sg15
I1712
sg66
g67
sbsI1779
g0
(g58
g2
Ntp101
Rp102
(dp103
g62
g63
sg64
F5.242803659265429
sg65
F1.0
sg15
I1779
sg66
g67
sbsI954
g0
(g58
g2
Ntp104
Rp105
(dp106
g62
g63
sg64
F8.494462513346662
sg65
F1.0
sg15
I954
sg66
g67
sbssg15
I4549
sS'fitness'
p107
F-0.011092663301605077
sb.