ccopy_reg
_reconstructor
p0
(cneat.genome
DefaultGenome
p1
c__builtin__
object
p2
Ntp3
Rp4
(dp5
S'connections'
p6
(dp7
(I1710
I5
tp8
g0
(cneat.genes
DefaultConnectionGene
p9
g2
Ntp10
Rp11
(dp12
S'enabled'
p13
I01
sS'weight'
p14
F1.0300242053623172
sS'key'
p15
g8
sbs(I-4
I546
tp16
g0
(g9
g2
Ntp17
Rp18
(dp19
g13
I01
sg14
F-0.10593246858940662
sg15
g16
sbs(I1698
I1512
tp20
g0
(g9
g2
Ntp21
Rp22
(dp23
g13
I01
sg14
F0.993123413121978
sg15
g20
sbs(I-1
I1698
tp24
g0
(g9
g2
Ntp25
Rp26
(dp27
g13
I01
sg14
F0.39996667652640494
sg15
g24
sbs(I-1
I1512
tp28
g0
(g9
g2
Ntp29
Rp30
(dp31
g13
I01
sg14
F-0.5233805181965006
sg15
g28
sbs(I5
I1710
tp32
g0
(g9
g2
Ntp33
Rp34
(dp35
g13
I01
sg14
F0.7254770444010263
sg15
g32
sbs(I4
I954
tp36
g0
(g9
g2
Ntp37
Rp38
(dp39
g13
I01
sg14
F2.307658935611382
sg15
g36
sbs(I-5
I4
tp40
g0
(g9
g2
Ntp41
Rp42
(dp43
g13
I00
sg14
F-1.5811970964804365
sg15
g40
sbs(I-4
I0
tp44
g0
(g9
g2
Ntp45
Rp46
(dp47
g13
I01
sg14
F0.5396229364378898
sg15
g44
sbs(I-5
I8
tp48
g0
(g9
g2
Ntp49
Rp50
(dp51
g13
I01
sg14
F1.3269178107809827
sg15
g48
sbs(I-5
I9
tp52
g0
(g9
g2
Ntp53
Rp54
(dp55
g13
I00
sg14
F2.2565365578982974
sg15
g52
sbs(I1
I1
tp56
g0
(g9
g2
Ntp57
Rp58
(dp59
g13
I00
sg14
F0.5001227274809287
sg15
g56
sbssS'nodes'
p60
(dp61
I0
g0
(cneat.genes
DefaultNodeGene
p62
g2
Ntp63
Rp64
(dp65
S'activation'
p66
S'tanh'
p67
sS'bias'
p68
F9.446165526936348
sS'response'
p69
F1.0
sg15
I0
sS'aggregation'
p70
S'sum'
p71
sbsI1
g0
(g62
g2
Ntp72
Rp73
(dp74
g66
g67
sg68
F-27.480198704699298
sg69
F1.0
sg15
I1
sg70
g71
sbsI2
g0
(g62
g2
Ntp75
Rp76
(dp77
g66
g67
sg68
F-3.80278277827306
sg69
F1.0
sg15
I2
sg70
g71
sbsI3
g0
(g62
g2
Ntp78
Rp79
(dp80
g66
g67
sg68
F0.6476596702937361
sg69
F1.0
sg15
I3
sg70
g71
sbsI4
g0
(g62
g2
Ntp81
Rp82
(dp83
g66
g67
sg68
F-17.510974681024308
sg69
F1.0
sg15
I4
sg70
g71
sbsI5
g0
(g62
g2
Ntp84
Rp85
(dp86
g66
g67
sg68
F-12.451323153897784
sg69
F1.0
sg15
I5
sg70
g71
sbsI6
g0
(g62
g2
Ntp87
Rp88
(dp89
g66
g67
sg68
F3.937446047700977
sg69
F1.0
sg15
I6
sg70
g71
sbsI7
g0
(g62
g2
Ntp90
Rp91
(dp92
g66
g67
sg68
F3.0146016731207728
sg69
F1.0
sg15
I7
sg70
g71
sbsI8
g0
(g62
g2
Ntp93
Rp94
(dp95
g66
g67
sg68
F-14.864306090612553
sg69
F1.0
sg15
I8
sg70
g71
sbsI9
g0
(g62
g2
Ntp96
Rp97
(dp98
g66
g67
sg68
F0.5881655139045466
sg69
F1.0
sg15
I9
sg70
g71
sbsI546
g0
(g62
g2
Ntp99
Rp100
(dp101
g66
g67
sg68
F-9.584123746544185
sg69
F1.0
sg15
I546
sg70
g71
sbsI1710
g0
(g62
g2
Ntp102
Rp103
(dp104
g66
g67
sg68
F6.639755162434894
sg69
F1.0
sg15
I1710
sg70
g71
sbsI1512
g0
(g62
g2
Ntp105
Rp106
(dp107
g66
g67
sg68
F-24.59561579333264
sg69
F1.0
sg15
I1512
sg70
g71
sbsI1698
g0
(g62
g2
Ntp108
Rp109
(dp110
g66
g67
sg68
F5.675291712320792
sg69
F1.0
sg15
I1698
sg70
g71
sbsI954
g0
(g62
g2
Ntp111
Rp112
(dp113
g66
g67
sg68
F7.295511484921415
sg69
F1.0
sg15
I954
sg70
g71
sbssg15
I4551
sS'fitness'
p114
F-0.032314200591825326
sb.