ccopy_reg
_reconstructor
p0
(cneat.genome
DefaultGenome
p1
c__builtin__
object
p2
Ntp3
Rp4
(dp5
S'connections'
p6
(dp7
(I1425
I6
tp8
g0
(cneat.genes
DefaultConnectionGene
p9
g2
Ntp10
Rp11
(dp12
S'enabled'
p13
I01
sS'weight'
p14
F-1.2117207882075303
sS'key'
p15
g8
sbs(I1609
I1
tp16
g0
(g9
g2
Ntp17
Rp18
(dp19
g13
I01
sg14
F-0.08285664411692659
sg15
g16
sbs(I1448
I1609
tp20
g0
(g9
g2
Ntp21
Rp22
(dp23
g13
I01
sg14
F0.4337233330502349
sg15
g20
sbs(I-1
I1425
tp24
g0
(g9
g2
Ntp25
Rp26
(dp27
g13
I01
sg14
F0.7067577362760079
sg15
g24
sbs(I1425
I4
tp28
g0
(g9
g2
Ntp29
Rp30
(dp31
g13
I00
sg14
F0.9319399676088869
sg15
g28
sbs(I-5
I2
tp32
g0
(g9
g2
Ntp33
Rp34
(dp35
g13
I01
sg14
F-2.0672331845440204
sg15
g32
sbs(I-7
I9
tp36
g0
(g9
g2
Ntp37
Rp38
(dp39
g13
I01
sg14
F-2.77614018995582
sg15
g36
sbs(I6
I1425
tp40
g0
(g9
g2
Ntp41
Rp42
(dp43
g13
I01
sg14
F1.804336102711834
sg15
g40
sbs(I1448
I4
tp44
g0
(g9
g2
Ntp45
Rp46
(dp47
g13
I01
sg14
F-0.047718682948788976
sg15
g44
sbssS'nodes'
p48
(dp49
I0
g0
(cneat.genes
DefaultNodeGene
p50
g2
Ntp51
Rp52
(dp53
S'activation'
p54
S'tanh'
p55
sS'bias'
p56
F7.4872338658830095
sS'response'
p57
F1.0
sg15
I0
sS'aggregation'
p58
S'sum'
p59
sbsI1
g0
(g50
g2
Ntp60
Rp61
(dp62
g54
g55
sg56
F3.160718657811123
sg57
F1.0
sg15
I1
sg58
g59
sbsI2
g0
(g50
g2
Ntp63
Rp64
(dp65
g54
g55
sg56
F18.425645743795638
sg57
F1.0
sg15
I2
sg58
g59
sbsI3
g0
(g50
g2
Ntp66
Rp67
(dp68
g54
g55
sg56
F6.151123421129507
sg57
F1.0
sg15
I3
sg58
g59
sbsI4
g0
(g50
g2
Ntp69
Rp70
(dp71
g54
g55
sg56
F-0.6317551566402935
sg57
F1.0
sg15
I4
sg58
g59
sbsI5
g0
(g50
g2
Ntp72
Rp73
(dp74
g54
g55
sg56
F-13.030019864883597
sg57
F1.0
sg15
I5
sg58
g59
sbsI6
g0
(g50
g2
Ntp75
Rp76
(dp77
g54
g55
sg56
F12.427827917387381
sg57
F1.0
sg15
I6
sg58
g59
sbsI7
g0
(g50
g2
Ntp78
Rp79
(dp80
g54
g55
sg56
F-9.18762682260372
sg57
F1.0
sg15
I7
sg58
g59
sbsI8
g0
(g50
g2
Ntp81
Rp82
(dp83
g54
g55
sg56
F15.826260838574886
sg57
F1.0
sg15
I8
sg58
g59
sbsI9
g0
(g50
g2
Ntp84
Rp85
(dp86
g54
g55
sg56
F12.734241934331427
sg57
F1.0
sg15
I9
sg58
g59
sbsI1425
g0
(g50
g2
Ntp87
Rp88
(dp89
g54
g55
sg56
F12.196919944024833
sg57
F1.0
sg15
I1425
sg58
g59
sbsI1448
g0
(g50
g2
Ntp90
Rp91
(dp92
g54
g55
sg56
F-3.0837680644018928
sg57
F1.0
sg15
I1448
sg58
g59
sbsI1609
g0
(g50
g2
Ntp93
Rp94
(dp95
g54
g55
sg56
F-9.586472496708245
sg57
F1.0
sg15
I1609
sg58
g59
sbssg15
I4557
sS'fitness'
p96
F0.17506993798929082
sb.