ccopy_reg
_reconstructor
p0
(cneat.genome
DefaultGenome
p1
c__builtin__
object
p2
Ntp3
Rp4
(dp5
S'connections'
p6
(dp7
(I1689
I1714
tp8
g0
(cneat.genes
DefaultConnectionGene
p9
g2
Ntp10
Rp11
(dp12
S'enabled'
p13
I01
sS'weight'
p14
F1.2794786080256855
sS'key'
p15
g8
sbs(I-1
I3
tp16
g0
(g9
g2
Ntp17
Rp18
(dp19
g13
I00
sg14
F0.273356217992761
sg15
g16
sbs(I1689
I1462
tp20
g0
(g9
g2
Ntp21
Rp22
(dp23
g13
I00
sg14
F-0.27044939244865474
sg15
g20
sbs(I-4
I6
tp24
g0
(g9
g2
Ntp25
Rp26
(dp27
g13
I00
sg14
F0.11255178818178974
sg15
g24
sbs(I7
I1714
tp28
g0
(g9
g2
Ntp29
Rp30
(dp31
g13
I01
sg14
F-0.6184243117779804
sg15
g28
sbssS'nodes'
p32
(dp33
I0
g0
(cneat.genes
DefaultNodeGene
p34
g2
Ntp35
Rp36
(dp37
S'activation'
p38
S'tanh'
p39
sS'bias'
p40
F6.969584478149388
sS'response'
p41
F1.0
sg15
I0
sS'aggregation'
p42
S'sum'
p43
sbsI1
g0
(g34
g2
Ntp44
Rp45
(dp46
g38
g39
sg40
F-3.533297406049161
sg41
F1.0
sg15
I1
sg42
g43
sbsI2
g0
(g34
g2
Ntp47
Rp48
(dp49
g38
g39
sg40
F15.18113470404977
sg41
F1.0
sg15
I2
sg42
g43
sbsI3
g0
(g34
g2
Ntp50
Rp51
(dp52
g38
g39
sg40
F3.364593877088112
sg41
F1.0
sg15
I3
sg42
g43
sbsI4
g0
(g34
g2
Ntp53
Rp54
(dp55
g38
g39
sg40
F11.986185064403463
sg41
F1.0
sg15
I4
sg42
g43
sbsI5
g0
(g34
g2
Ntp56
Rp57
(dp58
g38
g39
sg40
F-8.824406098770096
sg41
F1.0
sg15
I5
sg42
g43
sbsI6
g0
(g34
g2
Ntp59
Rp60
(dp61
g38
g39
sg40
F0.13729503470855897
sg41
F1.0
sg15
I6
sg42
g43
sbsI7
g0
(g34
g2
Ntp62
Rp63
(dp64
g38
g39
sg40
F-7.506048015023956
sg41
F1.0
sg15
I7
sg42
g43
sbsI8
g0
(g34
g2
Ntp65
Rp66
(dp67
g38
g39
sg40
F-0.9535274613143068
sg41
F1.0
sg15
I8
sg42
g43
sbsI9
g0
(g34
g2
Ntp68
Rp69
(dp70
g38
g39
sg40
F4.9364108588818105
sg41
F1.0
sg15
I9
sg42
g43
sbsI1714
g0
(g34
g2
Ntp71
Rp72
(dp73
g38
g39
sg40
F-3.213405779657855
sg41
F1.0
sg15
I1714
sg42
g43
sbsI1462
g0
(g34
g2
Ntp74
Rp75
(dp76
g38
g39
sg40
F13.466040656725557
sg41
F1.0
sg15
I1462
sg42
g43
sbsI1689
g0
(g34
g2
Ntp77
Rp78
(dp79
g38
g39
sg40
F-8.990894681811712
sg41
F1.0
sg15
I1689
sg42
g43
sbssg15
I4561
sS'fitness'
p80
F-0.021848650318187834
sb.