ccopy_reg
_reconstructor
p0
(cneat.genome
DefaultGenome
p1
c__builtin__
object
p2
Ntp3
Rp4
(dp5
S'connections'
p6
(dp7
(I1
I1781
tp8
g0
(cneat.genes
DefaultConnectionGene
p9
g2
Ntp10
Rp11
(dp12
S'enabled'
p13
I01
sS'weight'
p14
F1.8839180640801159
sS'key'
p15
g8
sbs(I1418
I1637
tp16
g0
(g9
g2
Ntp17
Rp18
(dp19
g13
I01
sg14
F2.9067066721401704
sg15
g16
sbs(I1418
I6
tp20
g0
(g9
g2
Ntp21
Rp22
(dp23
g13
I00
sg14
F-2.869870759697121
sg15
g20
sbs(I6
I6
tp24
g0
(g9
g2
Ntp25
Rp26
(dp27
g13
I00
sg14
F0.041426534356085246
sg15
g24
sbs(I0
I1305
tp28
g0
(g9
g2
Ntp29
Rp30
(dp31
g13
I00
sg14
F0.24434299985135144
sg15
g28
sbs(I6
I1418
tp32
g0
(g9
g2
Ntp33
Rp34
(dp35
g13
I01
sg14
F-1.3301502566313665
sg15
g32
sbs(I1637
I6
tp36
g0
(g9
g2
Ntp37
Rp38
(dp39
g13
I01
sg14
F-3.168721484431633
sg15
g36
sbs(I1
I1637
tp40
g0
(g9
g2
Ntp41
Rp42
(dp43
g13
I00
sg14
F0.643188786646879
sg15
g40
sbs(I1305
I0
tp44
g0
(g9
g2
Ntp45
Rp46
(dp47
g13
I00
sg14
F-0.5371465883910376
sg15
g44
sbs(I5
I1663
tp48
g0
(g9
g2
Ntp49
Rp50
(dp51
g13
I00
sg14
F0.7752563095130792
sg15
g48
sbs(I1781
I1637
tp52
g0
(g9
g2
Ntp53
Rp54
(dp55
g13
I01
sg14
F0.6831342166983531
sg15
g52
sbs(I1
I1
tp56
g0
(g9
g2
Ntp57
Rp58
(dp59
g13
I00
sg14
F1.9524024673486893
sg15
g56
sbs(I-2
I6
tp60
g0
(g9
g2
Ntp61
Rp62
(dp63
g13
I01
sg14
F-2.756346689024995
sg15
g60
sbssS'nodes'
p64
(dp65
I0
g0
(cneat.genes
DefaultNodeGene
p66
g2
Ntp67
Rp68
(dp69
S'activation'
p70
S'tanh'
p71
sS'bias'
p72
F-35.588478658245975
sS'response'
p73
F1.0
sg15
I0
sS'aggregation'
p74
S'sum'
p75
sbsI1
g0
(g66
g2
Ntp76
Rp77
(dp78
g70
g71
sg72
F-3.0363144903984667
sg73
F1.0
sg15
I1
sg74
g75
sbsI2
g0
(g66
g2
Ntp79
Rp80
(dp81
g70
g71
sg72
F-3.509578607390097
sg73
F1.0
sg15
I2
sg74
g75
sbsI3
g0
(g66
g2
Ntp82
Rp83
(dp84
g70
g71
sg72
F-10.106426793883742
sg73
F1.0
sg15
I3
sg74
g75
sbsI4
g0
(g66
g2
Ntp85
Rp86
(dp87
g70
g71
sg72
F1.3137827373128759
sg73
F1.0
sg15
I4
sg74
g75
sbsI5
g0
(g66
g2
Ntp88
Rp89
(dp90
g70
g71
sg72
F8.533016878276262
sg73
F1.0
sg15
I5
sg74
g75
sbsI6
g0
(g66
g2
Ntp91
Rp92
(dp93
g70
g71
sg72
F16.21670931697616
sg73
F1.0
sg15
I6
sg74
g75
sbsI7
g0
(g66
g2
Ntp94
Rp95
(dp96
g70
g71
sg72
F18.198254908686362
sg73
F1.0
sg15
I7
sg74
g75
sbsI8
g0
(g66
g2
Ntp97
Rp98
(dp99
g70
g71
sg72
F10.537781282710608
sg73
F1.0
sg15
I8
sg74
g75
sbsI9
g0
(g66
g2
Ntp100
Rp101
(dp102
g70
g71
sg72
F6.458947885604408
sg73
F1.0
sg15
I9
sg74
g75
sbsI1418
g0
(g66
g2
Ntp103
Rp104
(dp105
g70
S'relu'
p106
sg72
F1.47353778250055
sg73
F1.0
sg15
I1418
sg74
g75
sbsI1781
g0
(g66
g2
Ntp107
Rp108
(dp109
g70
g106
sg72
F4.163126674550645
sg73
F1.0
sg15
I1781
sg74
g75
sbsI1305
g0
(g66
g2
Ntp110
Rp111
(dp112
g70
g71
sg72
F5.984097804726099
sg73
F1.0
sg15
I1305
sg74
g75
sbsI1663
g0
(g66
g2
Ntp113
Rp114
(dp115
g70
g71
sg72
F3.88011962965378
sg73
F1.0
sg15
I1663
sg74
g75
sbsI1637
g0
(g66
g2
Ntp116
Rp117
(dp118
g70
g71
sg72
F-5.033392503138283
sg73
F1.0
sg15
I1637
sg74
g75
sbssg15
I4564
sS'fitness'
p119
F-0.011607394797226611
sb.