ccopy_reg
_reconstructor
p0
(cneat.genome
DefaultGenome
p1
c__builtin__
object
p2
Ntp3
Rp4
(dp5
S'connections'
p6
(dp7
(I1698
I1512
tp8
g0
(cneat.genes
DefaultConnectionGene
p9
g2
Ntp10
Rp11
(dp12
S'enabled'
p13
I01
sS'weight'
p14
F1.5409896244849475
sS'key'
p15
g8
sbs(I-1
I1698
tp16
g0
(g9
g2
Ntp17
Rp18
(dp19
g13
I01
sg14
F0.30257566606925934
sg15
g16
sbs(I-1
I1512
tp20
g0
(g9
g2
Ntp21
Rp22
(dp23
g13
I00
sg14
F2.2844779541282243
sg15
g20
sbs(I1512
I8
tp24
g0
(g9
g2
Ntp25
Rp26
(dp27
g13
I01
sg14
F-0.8345948915942623
sg15
g24
sbs(I-5
I4
tp28
g0
(g9
g2
Ntp29
Rp30
(dp31
g13
I01
sg14
F-1.4425799148706127
sg15
g28
sbs(I-4
I0
tp32
g0
(g9
g2
Ntp33
Rp34
(dp35
g13
I01
sg14
F2.0061588424818364
sg15
g32
sbs(I-5
I8
tp36
g0
(g9
g2
Ntp37
Rp38
(dp39
g13
I01
sg14
F0.9017993006730025
sg15
g36
sbs(I-5
I9
tp40
g0
(g9
g2
Ntp41
Rp42
(dp43
g13
I00
sg14
F1.0821095562846264
sg15
g40
sbs(I1
I1
tp44
g0
(g9
g2
Ntp45
Rp46
(dp47
g13
I00
sg14
F2.2183257352512142
sg15
g44
sbssS'nodes'
p48
(dp49
I0
g0
(cneat.genes
DefaultNodeGene
p50
g2
Ntp51
Rp52
(dp53
S'activation'
p54
S'tanh'
p55
sS'bias'
p56
F-1.7489158936033633
sS'response'
p57
F1.0
sg15
I0
sS'aggregation'
p58
S'sum'
p59
sbsI1
g0
(g50
g2
Ntp60
Rp61
(dp62
g54
g55
sg56
F-28.667942073651265
sg57
F1.0
sg15
I1
sg58
g59
sbsI2
g0
(g50
g2
Ntp63
Rp64
(dp65
g54
g55
sg56
F-3.4485905618141506
sg57
F1.0
sg15
I2
sg58
g59
sbsI3
g0
(g50
g2
Ntp66
Rp67
(dp68
g54
g55
sg56
F-3.85312187983705
sg57
F1.0
sg15
I3
sg58
g59
sbsI4
g0
(g50
g2
Ntp69
Rp70
(dp71
g54
g55
sg56
F-16.507835633599633
sg57
F1.0
sg15
I4
sg58
g59
sbsI5
g0
(g50
g2
Ntp72
Rp73
(dp74
g54
g55
sg56
F-9.771441600397715
sg57
F1.0
sg15
I5
sg58
g59
sbsI6
g0
(g50
g2
Ntp75
Rp76
(dp77
g54
g55
sg56
F4.485839556552795
sg57
F1.0
sg15
I6
sg58
g59
sbsI7
g0
(g50
g2
Ntp78
Rp79
(dp80
g54
g55
sg56
F1.2329685013360248
sg57
F1.0
sg15
I7
sg58
g59
sbsI8
g0
(g50
g2
Ntp81
Rp82
(dp83
g54
g55
sg56
F23.326416311165815
sg57
F1.0
sg15
I8
sg58
g59
sbsI9
g0
(g50
g2
Ntp84
Rp85
(dp86
g54
g55
sg56
F-0.8679670566341684
sg57
F1.0
sg15
I9
sg58
g59
sbsI1698
g0
(g50
g2
Ntp87
Rp88
(dp89
g54
g55
sg56
F-9.176891965635525
sg57
F1.0
sg15
I1698
sg58
g59
sbsI1512
g0
(g50
g2
Ntp90
Rp91
(dp92
g54
g55
sg56
F0.759079790363525
sg57
F1.0
sg15
I1512
sg58
g59
sbsI954
g0
(g50
g2
Ntp93
Rp94
(dp95
g54
g55
sg56
F10.012039560876485
sg57
F1.0
sg15
I954
sg58
g59
sbssg15
I4568
sS'fitness'
p96
F0.015083239148098615
sb.