ccopy_reg
_reconstructor
p0
(cneat.genome
DefaultGenome
p1
c__builtin__
object
p2
Ntp3
Rp4
(dp5
S'connections'
p6
(dp7
(I-8
I9
tp8
g0
(cneat.genes
DefaultConnectionGene
p9
g2
Ntp10
Rp11
(dp12
S'enabled'
p13
I01
sS'weight'
p14
F1.3503365868214194
sS'key'
p15
g8
sbs(I1735
I1732
tp16
g0
(g9
g2
Ntp17
Rp18
(dp19
g13
I01
sg14
F0.9737048029342826
sg15
g16
sbs(I0
I0
tp20
g0
(g9
g2
Ntp21
Rp22
(dp23
g13
I00
sg14
F0.631000786761636
sg15
g20
sbs(I1735
I0
tp24
g0
(g9
g2
Ntp25
Rp26
(dp27
g13
I01
sg14
F-1.000464009977015
sg15
g24
sbs(I-2
I0
tp28
g0
(g9
g2
Ntp29
Rp30
(dp31
g13
I00
sg14
F1.5841739447743486
sg15
g28
sbs(I0
I1679
tp32
g0
(g9
g2
Ntp33
Rp34
(dp35
g13
I01
sg14
F-0.3024654266237363
sg15
g32
sbs(I1679
I0
tp36
g0
(g9
g2
Ntp37
Rp38
(dp39
g13
I01
sg14
F0.6822314654201359
sg15
g36
sbs(I-2
I1643
tp40
g0
(g9
g2
Ntp41
Rp42
(dp43
g13
I01
sg14
F-1.5474981245878434
sg15
g40
sbs(I-2
I1786
tp44
g0
(g9
g2
Ntp45
Rp46
(dp47
g13
I01
sg14
F1.0942554676366436
sg15
g44
sbs(I1780
I9
tp48
g0
(g9
g2
Ntp49
Rp50
(dp51
g13
I01
sg14
F-0.8742693401466952
sg15
g48
sbs(I1786
I1643
tp52
g0
(g9
g2
Ntp53
Rp54
(dp55
g13
I01
sg14
F-0.7462882774961234
sg15
g52
sbs(I-2
I1732
tp56
g0
(g9
g2
Ntp57
Rp58
(dp59
g13
I00
sg14
F1.031521823872925
sg15
g56
sbs(I1643
I0
tp60
g0
(g9
g2
Ntp61
Rp62
(dp63
g13
I01
sg14
F0.5825029316596885
sg15
g60
sbs(I1732
I0
tp64
g0
(g9
g2
Ntp65
Rp66
(dp67
g13
I01
sg14
F0.5758482567081743
sg15
g64
sbs(I-2
I1735
tp68
g0
(g9
g2
Ntp69
Rp70
(dp71
g13
I01
sg14
F-0.43102062390384505
sg15
g68
sbs(I-4
I7
tp72
g0
(g9
g2
Ntp73
Rp74
(dp75
g13
I01
sg14
F1.9094707651566023
sg15
g72
sbs(I-8
I1780
tp76
g0
(g9
g2
Ntp77
Rp78
(dp79
g13
I01
sg14
F0.530829545641674
sg15
g76
sbssS'nodes'
p80
(dp81
I0
g0
(cneat.genes
DefaultNodeGene
p82
g2
Ntp83
Rp84
(dp85
S'activation'
p86
S'tanh'
p87
sS'bias'
p88
F-5.0916190537681185
sS'response'
p89
F1.0
sg15
I0
sS'aggregation'
p90
S'sum'
p91
sbsI1
g0
(g82
g2
Ntp92
Rp93
(dp94
g86
g87
sg88
F-1.3115596166145242
sg89
F1.0
sg15
I1
sg90
g91
sbsI2
g0
(g82
g2
Ntp95
Rp96
(dp97
g86
g87
sg88
F4.146393420696518
sg89
F1.0
sg15
I2
sg90
g91
sbsI3
g0
(g82
g2
Ntp98
Rp99
(dp100
g86
g87
sg88
F-12.596451645522215
sg89
F1.0
sg15
I3
sg90
g91
sbsI4
g0
(g82
g2
Ntp101
Rp102
(dp103
g86
g87
sg88
F-26.841863895734967
sg89
F1.0
sg15
I4
sg90
g91
sbsI5
g0
(g82
g2
Ntp104
Rp105
(dp106
g86
g87
sg88
F12.999546181831777
sg89
F1.0
sg15
I5
sg90
g91
sbsI6
g0
(g82
g2
Ntp107
Rp108
(dp109
g86
g87
sg88
F-3.697421641638929
sg89
F1.0
sg15
I6
sg90
g91
sbsI7
g0
(g82
g2
Ntp110
Rp111
(dp112
g86
g87
sg88
F10.825382556590844
sg89
F1.0
sg15
I7
sg90
g91
sbsI8
g0
(g82
g2
Ntp113
Rp114
(dp115
g86
g87
sg88
F1.9656926834637873
sg89
F1.0
sg15
I8
sg90
g91
sbsI9
g0
(g82
g2
Ntp116
Rp117
(dp118
g86
g87
sg88
F-6.161902126927198
sg89
F1.0
sg15
I9
sg90
g91
sbsI1643
g0
(g82
g2
Ntp119
Rp120
(dp121
g86
g87
sg88
F13.902234777556613
sg89
F1.0
sg15
I1643
sg90
g91
sbsI1735
g0
(g82
g2
Ntp122
Rp123
(dp124
g86
g87
sg88
F2.3689593789748473
sg89
F1.0
sg15
I1735
sg90
g91
sbsI1679
g0
(g82
g2
Ntp125
Rp126
(dp127
g86
g87
sg88
F10.2986141740597
sg89
F1.0
sg15
I1679
sg90
g91
sbsI1780
g0
(g82
g2
Ntp128
Rp129
(dp130
g86
S'relu'
p131
sg88
F10.549687223079506
sg89
F1.0
sg15
I1780
sg90
g91
sbsI1732
g0
(g82
g2
Ntp132
Rp133
(dp134
g86
g87
sg88
F-3.19185342145672
sg89
F1.0
sg15
I1732
sg90
g91
sbsI1786
g0
(g82
g2
Ntp135
Rp136
(dp137
g86
g131
sg88
F-4.28470939873971
sg89
F1.0
sg15
I1786
sg90
g91
sbssg15
I4573
sS'fitness'
p138
F0.13911500909476993
sb.