ccopy_reg
_reconstructor
p0
(cneat.genome
DefaultGenome
p1
c__builtin__
object
p2
Ntp3
Rp4
(dp5
S'connections'
p6
(dp7
(I-5
I2
tp8
g0
(cneat.genes
DefaultConnectionGene
p9
g2
Ntp10
Rp11
(dp12
S'enabled'
p13
I01
sS'weight'
p14
F1.5486092341451416
sS'key'
p15
g8
sbs(I-2
I8
tp16
g0
(g9
g2
Ntp17
Rp18
(dp19
g13
I01
sg14
F2.140220306395028
sg15
g16
sbs(I-2
I0
tp20
g0
(g9
g2
Ntp21
Rp22
(dp23
g13
I01
sg14
F1.0663592923122884
sg15
g20
sbssS'nodes'
p24
(dp25
I0
g0
(cneat.genes
DefaultNodeGene
p26
g2
Ntp27
Rp28
(dp29
S'activation'
p30
S'tanh'
p31
sS'bias'
p32
F6.080236516993077
sS'response'
p33
F1.0
sg15
I0
sS'aggregation'
p34
S'sum'
p35
sbsI1
g0
(g26
g2
Ntp36
Rp37
(dp38
g30
g31
sg32
F-12.458505515972007
sg33
F1.0
sg15
I1
sg34
g35
sbsI2
g0
(g26
g2
Ntp39
Rp40
(dp41
g30
g31
sg32
F4.996835184410029
sg33
F1.0
sg15
I2
sg34
g35
sbsI3
g0
(g26
g2
Ntp42
Rp43
(dp44
g30
g31
sg32
F4.305823406046191
sg33
F1.0
sg15
I3
sg34
g35
sbsI4
g0
(g26
g2
Ntp45
Rp46
(dp47
g30
g31
sg32
F5.921460780351714
sg33
F1.0
sg15
I4
sg34
g35
sbsI5
g0
(g26
g2
Ntp48
Rp49
(dp50
g30
g31
sg32
F1.9245552666937584
sg33
F1.0
sg15
I5
sg34
g35
sbsI6
g0
(g26
g2
Ntp51
Rp52
(dp53
g30
g31
sg32
F-15.847375595974514
sg33
F1.0
sg15
I6
sg34
g35
sbsI7
g0
(g26
g2
Ntp54
Rp55
(dp56
g30
g31
sg32
F17.341266048386675
sg33
F1.0
sg15
I7
sg34
g35
sbsI8
g0
(g26
g2
Ntp57
Rp58
(dp59
g30
g31
sg32
F13.854787340710574
sg33
F1.0
sg15
I8
sg34
g35
sbsI9
g0
(g26
g2
Ntp60
Rp61
(dp62
g30
g31
sg32
F-5.801267068300751
sg33
F1.0
sg15
I9
sg34
g35
sbssg15
I4583
sS'fitness'
p63
F0.008636513722316996
sb.