ccopy_reg
_reconstructor
p0
(cneat.genome
DefaultGenome
p1
c__builtin__
object
p2
Ntp3
Rp4
(dp5
S'connections'
p6
(dp7
(I1418
I1637
tp8
g0
(cneat.genes
DefaultConnectionGene
p9
g2
Ntp10
Rp11
(dp12
S'enabled'
p13
I01
sS'weight'
p14
F3.6566715065007434
sS'key'
p15
g8
sbs(I6
I1418
tp16
g0
(g9
g2
Ntp17
Rp18
(dp19
g13
I01
sg14
F-1.7213121476019992
sg15
g16
sbs(I1
I1637
tp20
g0
(g9
g2
Ntp21
Rp22
(dp23
g13
I01
sg14
F0.29702673740640556
sg15
g20
sbs(I6
I6
tp24
g0
(g9
g2
Ntp25
Rp26
(dp27
g13
I00
sg14
F-0.29919950568772474
sg15
g24
sbs(I0
I1305
tp28
g0
(g9
g2
Ntp29
Rp30
(dp31
g13
I00
sg14
F1.7402902115105188
sg15
g28
sbs(I6
I1788
tp32
g0
(g9
g2
Ntp33
Rp34
(dp35
g13
I01
sg14
F1.0
sg15
g32
sbs(I1418
I6
tp36
g0
(g9
g2
Ntp37
Rp38
(dp39
g13
I00
sg14
F0.0736755126506969
sg15
g36
sbs(I1637
I6
tp40
g0
(g9
g2
Ntp41
Rp42
(dp43
g13
I01
sg14
F-2.9627983595650695
sg15
g40
sbs(I-6
I6
tp44
g0
(g9
g2
Ntp45
Rp46
(dp47
g13
I01
sg14
F1.6570117750441993
sg15
g44
sbs(I8
I1637
tp48
g0
(g9
g2
Ntp49
Rp50
(dp51
g13
I01
sg14
F0.5652705571239085
sg15
g48
sbs(I1
I1
tp52
g0
(g9
g2
Ntp53
Rp54
(dp55
g13
I00
sg14
F2.6618385321010907
sg15
g52
sbs(I-2
I6
tp56
g0
(g9
g2
Ntp57
Rp58
(dp59
g13
I01
sg14
F-2.6913151239128585
sg15
g56
sbssS'nodes'
p60
(dp61
I0
g0
(cneat.genes
DefaultNodeGene
p62
g2
Ntp63
Rp64
(dp65
S'activation'
p66
S'tanh'
p67
sS'bias'
p68
F-35.96541907192421
sS'response'
p69
F1.0
sg15
I0
sS'aggregation'
p70
S'sum'
p71
sbsI1
g0
(g62
g2
Ntp72
Rp73
(dp74
g66
g67
sg68
F-3.322788529134505
sg69
F1.0
sg15
I1
sg70
g71
sbsI2
g0
(g62
g2
Ntp75
Rp76
(dp77
g66
g67
sg68
F-3.625727347600775
sg69
F1.0
sg15
I2
sg70
g71
sbsI3
g0
(g62
g2
Ntp78
Rp79
(dp80
g66
g67
sg68
F-9.448779901739723
sg69
F1.0
sg15
I3
sg70
g71
sbsI4
g0
(g62
g2
Ntp81
Rp82
(dp83
g66
g67
sg68
F2.713890454449897
sg69
F1.0
sg15
I4
sg70
g71
sbsI5
g0
(g62
g2
Ntp84
Rp85
(dp86
g66
g67
sg68
F7.917909990691718
sg69
F1.0
sg15
I5
sg70
g71
sbsI6
g0
(g62
g2
Ntp87
Rp88
(dp89
g66
g67
sg68
F15.678040221963588
sg69
F1.0
sg15
I6
sg70
g71
sbsI7
g0
(g62
g2
Ntp90
Rp91
(dp92
g66
g67
sg68
F18.997530498595474
sg69
F1.0
sg15
I7
sg70
g71
sbsI8
g0
(g62
g2
Ntp93
Rp94
(dp95
g66
g67
sg68
F8.061149542071577
sg69
F1.0
sg15
I8
sg70
g71
sbsI9
g0
(g62
g2
Ntp96
Rp97
(dp98
g66
g67
sg68
F7.171942267060431
sg69
F1.0
sg15
I9
sg70
g71
sbsI1418
g0
(g62
g2
Ntp99
Rp100
(dp101
g66
S'relu'
p102
sg68
F-5.260998823660355
sg69
F1.0
sg15
I1418
sg70
g71
sbsI1305
g0
(g62
g2
Ntp103
Rp104
(dp105
g66
g67
sg68
F5.910993331378952
sg69
F1.0
sg15
I1305
sg70
g71
sbsI1788
g0
(g62
g2
Ntp106
Rp107
(dp108
g66
g67
sg68
F-2.2376549533860066
sg69
F1.0
sg15
I1788
sg70
g71
sbsI1637
g0
(g62
g2
Ntp109
Rp110
(dp111
g66
g67
sg68
F14.340617384023806
sg69
F1.0
sg15
I1637
sg70
g71
sbssg15
I4584
sS'fitness'
p112
F0.013404728393147103
sb.