ccopy_reg
_reconstructor
p0
(cneat.genome
DefaultGenome
p1
c__builtin__
object
p2
Ntp3
Rp4
(dp5
S'connections'
p6
(dp7
(I-4
I8
tp8
g0
(cneat.genes
DefaultConnectionGene
p9
g2
Ntp10
Rp11
(dp12
S'enabled'
p13
I00
sS'weight'
p14
F-0.8371205717769117
sS'key'
p15
g8
sbs(I-6
I9
tp16
g0
(g9
g2
Ntp17
Rp18
(dp19
g13
I00
sg14
F-1.2472282535829957
sg15
g16
sbs(I1746
I9
tp20
g0
(g9
g2
Ntp21
Rp22
(dp23
g13
I01
sg14
F-0.6346290749237214
sg15
g20
sbssS'nodes'
p24
(dp25
I0
g0
(cneat.genes
DefaultNodeGene
p26
g2
Ntp27
Rp28
(dp29
S'activation'
p30
S'tanh'
p31
sS'bias'
p32
F16.598412491902724
sS'response'
p33
F1.0
sg15
I0
sS'aggregation'
p34
S'sum'
p35
sbsI1
g0
(g26
g2
Ntp36
Rp37
(dp38
g30
g31
sg32
F-2.0554669938647008
sg33
F1.0
sg15
I1
sg34
g35
sbsI2
g0
(g26
g2
Ntp39
Rp40
(dp41
g30
g31
sg32
F-6.648082634994891
sg33
F1.0
sg15
I2
sg34
g35
sbsI3
g0
(g26
g2
Ntp42
Rp43
(dp44
g30
g31
sg32
F-9.279075257744557
sg33
F1.0
sg15
I3
sg34
g35
sbsI4
g0
(g26
g2
Ntp45
Rp46
(dp47
g30
g31
sg32
F6.706216277266263
sg33
F1.0
sg15
I4
sg34
g35
sbsI5
g0
(g26
g2
Ntp48
Rp49
(dp50
g30
g31
sg32
F19.663817523559235
sg33
F1.0
sg15
I5
sg34
g35
sbsI6
g0
(g26
g2
Ntp51
Rp52
(dp53
g30
g31
sg32
F-5.572584107516252
sg33
F1.0
sg15
I6
sg34
g35
sbsI7
g0
(g26
g2
Ntp54
Rp55
(dp56
g30
g31
sg32
F3.6963975021062954
sg33
F1.0
sg15
I7
sg34
g35
sbsI8
g0
(g26
g2
Ntp57
Rp58
(dp59
g30
g31
sg32
F-5.515290040333986
sg33
F1.0
sg15
I8
sg34
g35
sbsI9
g0
(g26
g2
Ntp60
Rp61
(dp62
g30
g31
sg32
F-11.364655977151502
sg33
F1.0
sg15
I9
sg34
g35
sbsI1746
g0
(g26
g2
Ntp63
Rp64
(dp65
g30
g31
sg32
F-19.023594458201913
sg33
F1.0
sg15
I1746
sg34
g35
sbssg15
I4585
sS'fitness'
p66
F0.04451898668453569
sb.