ccopy_reg
_reconstructor
p0
(cneat.genome
DefaultGenome
p1
c__builtin__
object
p2
Ntp3
Rp4
(dp5
S'connections'
p6
(dp7
(I1645
I9
tp8
g0
(cneat.genes
DefaultConnectionGene
p9
g2
Ntp10
Rp11
(dp12
S'enabled'
p13
I01
sS'weight'
p14
F-0.2958683223648917
sS'key'
p15
g8
sbs(I1765
I4
tp16
g0
(g9
g2
Ntp17
Rp18
(dp19
g13
I01
sg14
F1.0461134234123675
sg15
g16
sbs(I1683
I9
tp20
g0
(g9
g2
Ntp21
Rp22
(dp23
g13
I00
sg14
F-2.1458452991001034
sg15
g20
sbs(I-6
I1765
tp24
g0
(g9
g2
Ntp25
Rp26
(dp27
g13
I01
sg14
F2.795100087922828
sg15
g24
sbs(I-6
I4
tp28
g0
(g9
g2
Ntp29
Rp30
(dp31
g13
I00
sg14
F0.015271351153392398
sg15
g28
sbssS'nodes'
p32
(dp33
I0
g0
(cneat.genes
DefaultNodeGene
p34
g2
Ntp35
Rp36
(dp37
S'activation'
p38
S'tanh'
p39
sS'bias'
p40
F7.23632007788368
sS'response'
p41
F1.0
sg15
I0
sS'aggregation'
p42
S'sum'
p43
sbsI1
g0
(g34
g2
Ntp44
Rp45
(dp46
g38
g39
sg40
F-0.41981394973999575
sg41
F1.0
sg15
I1
sg42
g43
sbsI2
g0
(g34
g2
Ntp47
Rp48
(dp49
g38
g39
sg40
F-13.643645695676401
sg41
F1.0
sg15
I2
sg42
g43
sbsI3
g0
(g34
g2
Ntp50
Rp51
(dp52
g38
g39
sg40
F-14.298735097951699
sg41
F1.0
sg15
I3
sg42
g43
sbsI4
g0
(g34
g2
Ntp53
Rp54
(dp55
g38
g39
sg40
F4.35247152972307
sg41
F1.0
sg15
I4
sg42
g43
sbsI5
g0
(g34
g2
Ntp56
Rp57
(dp58
g38
g39
sg40
F2.156028285440085
sg41
F1.0
sg15
I5
sg42
g43
sbsI6
g0
(g34
g2
Ntp59
Rp60
(dp61
g38
g39
sg40
F-9.757289608703521
sg41
F1.0
sg15
I6
sg42
g43
sbsI7
g0
(g34
g2
Ntp62
Rp63
(dp64
g38
g39
sg40
F-6.010758622128961
sg41
F1.0
sg15
I7
sg42
g43
sbsI8
g0
(g34
g2
Ntp65
Rp66
(dp67
g38
g39
sg40
F10.869733664465578
sg41
F1.0
sg15
I8
sg42
g43
sbsI9
g0
(g34
g2
Ntp68
Rp69
(dp70
g38
g39
sg40
F-5.8907183511397685
sg41
F1.0
sg15
I9
sg42
g43
sbsI1645
g0
(g34
g2
Ntp71
Rp72
(dp73
g38
g39
sg40
F0.082674182104306
sg41
F1.0
sg15
I1645
sg42
g43
sbsI1683
g0
(g34
g2
Ntp74
Rp75
(dp76
g38
g39
sg40
F17.579186559490875
sg41
F1.0
sg15
I1683
sg42
g43
sbsI1765
g0
(g34
g2
Ntp77
Rp78
(dp79
g38
S'relu'
p80
sg40
F13.154226220794897
sg41
F1.0
sg15
I1765
sg42
g43
sbssg15
I4587
sS'fitness'
p81
F0.3497090207155349
sb.