ccopy_reg
_reconstructor
p0
(cneat.genome
DefaultGenome
p1
c__builtin__
object
p2
Ntp3
Rp4
(dp5
S'connections'
p6
(dp7
(I-5
I1562
tp8
g0
(cneat.genes
DefaultConnectionGene
p9
g2
Ntp10
Rp11
(dp12
S'enabled'
p13
I01
sS'weight'
p14
F-2.1132144600405467
sS'key'
p15
g8
sbs(I5
I5
tp16
g0
(g9
g2
Ntp17
Rp18
(dp19
g13
I00
sg14
F1.1850128374926288
sg15
g16
sbs(I1562
I0
tp20
g0
(g9
g2
Ntp21
Rp22
(dp23
g13
I00
sg14
F0.2846678099415979
sg15
g20
sbs(I-7
I6
tp24
g0
(g9
g2
Ntp25
Rp26
(dp27
g13
I00
sg14
F3.1734182599325935
sg15
g24
sbs(I1562
I9
tp28
g0
(g9
g2
Ntp29
Rp30
(dp31
g13
I01
sg14
F1.786872431338351
sg15
g28
sbs(I1771
I0
tp32
g0
(g9
g2
Ntp33
Rp34
(dp35
g13
I01
sg14
F-0.8615466565281763
sg15
g32
sbs(I4
I954
tp36
g0
(g9
g2
Ntp37
Rp38
(dp39
g13
I01
sg14
F-0.2363229960479439
sg15
g36
sbs(I-5
I8
tp40
g0
(g9
g2
Ntp41
Rp42
(dp43
g13
I00
sg14
F1.4563834067626118
sg15
g40
sbs(I1562
I1771
tp44
g0
(g9
g2
Ntp45
Rp46
(dp47
g13
I01
sg14
F-2.656690982193452
sg15
g44
sbs(I-5
I546
tp48
g0
(g9
g2
Ntp49
Rp50
(dp51
g13
I01
sg14
F-1.1349791611612325
sg15
g48
sbs(I-5
I9
tp52
g0
(g9
g2
Ntp53
Rp54
(dp55
g13
I00
sg14
F0.20130058267359252
sg15
g52
sbs(I1640
I5
tp56
g0
(g9
g2
Ntp57
Rp58
(dp59
g13
I01
sg14
F0.5520228328717433
sg15
g56
sbs(I5
I1640
tp60
g0
(g9
g2
Ntp61
Rp62
(dp63
g13
I01
sg14
F1.873476770751947
sg15
g60
sbssS'nodes'
p64
(dp65
I0
g0
(cneat.genes
DefaultNodeGene
p66
g2
Ntp67
Rp68
(dp69
S'activation'
p70
S'tanh'
p71
sS'bias'
p72
F25.55977647810922
sS'response'
p73
F1.0
sg15
I0
sS'aggregation'
p74
S'sum'
p75
sbsI1
g0
(g66
g2
Ntp76
Rp77
(dp78
g70
g71
sg72
F-28.858624368638992
sg73
F1.0
sg15
I1
sg74
g75
sbsI2
g0
(g66
g2
Ntp79
Rp80
(dp81
g70
g71
sg72
F-1.1443743511934548
sg73
F1.0
sg15
I2
sg74
g75
sbsI3
g0
(g66
g2
Ntp82
Rp83
(dp84
g70
g71
sg72
F-4.425841467276649
sg73
F1.0
sg15
I3
sg74
g75
sbsI4
g0
(g66
g2
Ntp85
Rp86
(dp87
g70
g71
sg72
F4.018108086037138
sg73
F1.0
sg15
I4
sg74
g75
sbsI5
g0
(g66
g2
Ntp88
Rp89
(dp90
g70
g71
sg72
F13.717143231499117
sg73
F1.0
sg15
I5
sg74
g75
sbsI6
g0
(g66
g2
Ntp91
Rp92
(dp93
g70
g71
sg72
F-25.742563873485494
sg73
F1.0
sg15
I6
sg74
g75
sbsI7
g0
(g66
g2
Ntp94
Rp95
(dp96
g70
g71
sg72
F-9.50672778520862
sg73
F1.0
sg15
I7
sg74
g75
sbsI8
g0
(g66
g2
Ntp97
Rp98
(dp99
g70
g71
sg72
F-20.27596985407082
sg73
F1.0
sg15
I8
sg74
g75
sbsI9
g0
(g66
g2
Ntp100
Rp101
(dp102
g70
g71
sg72
F15.51677819134018
sg73
F1.0
sg15
I9
sg74
g75
sbsI1771
g0
(g66
g2
Ntp103
Rp104
(dp105
g70
g71
sg72
F8.903385150107926
sg73
F1.0
sg15
I1771
sg74
g75
sbsI546
g0
(g66
g2
Ntp106
Rp107
(dp108
g70
g71
sg72
F-11.929058008536213
sg73
F1.0
sg15
I546
sg74
g75
sbsI1640
g0
(g66
g2
Ntp109
Rp110
(dp111
g70
S'relu'
p112
sg72
F-1.790088210850656
sg73
F1.0
sg15
I1640
sg74
g75
sbsI954
g0
(g66
g2
Ntp113
Rp114
(dp115
g70
g71
sg72
F3.272688809117083
sg73
F1.0
sg15
I954
sg74
g75
sbsI1562
g0
(g66
g2
Ntp116
Rp117
(dp118
g70
g71
sg72
F11.014031083621663
sg73
F1.0
sg15
I1562
sg74
g75
sbssg15
I4594
sS'fitness'
p119
F-0.011257328022288071
sb.