ccopy_reg
_reconstructor
p0
(cneat.genome
DefaultGenome
p1
c__builtin__
object
p2
Ntp3
Rp4
(dp5
S'connections'
p6
(dp7
(I55
I5
tp8
g0
(cneat.genes
DefaultConnectionGene
p9
g2
Ntp10
Rp11
(dp12
S'enabled'
p13
I01
sS'weight'
p14
F0.5157037738408929
sS'key'
p15
g8
sbs(I-6
I55
tp16
g0
(g9
g2
Ntp17
Rp18
(dp19
g13
I01
sg14
F-1.5065723312604629
sg15
g16
sbs(I-2
I55
tp20
g0
(g9
g2
Ntp21
Rp22
(dp23
g13
I01
sg14
F-0.761138383761064
sg15
g20
sbs(I-11
I55
tp24
g0
(g9
g2
Ntp25
Rp26
(dp27
g13
I01
sg14
F0.9123017396882164
sg15
g24
sbs(I55
I9
tp28
g0
(g9
g2
Ntp29
Rp30
(dp31
g13
I01
sg14
F1.5797467368689146
sg15
g28
sbs(I-3
I55
tp32
g0
(g9
g2
Ntp33
Rp34
(dp35
g13
I01
sg14
F0.941997057354801
sg15
g32
sbs(I55
I0
tp36
g0
(g9
g2
Ntp37
Rp38
(dp39
g13
I01
sg14
F0.7600098806135216
sg15
g36
sbs(I-7
I55
tp40
g0
(g9
g2
Ntp41
Rp42
(dp43
g13
I01
sg14
F0.2903391414298125
sg15
g40
sbs(I-14
I55
tp44
g0
(g9
g2
Ntp45
Rp46
(dp47
g13
I01
sg14
F-0.4779593213028146
sg15
g44
sbs(I-12
I55
tp48
g0
(g9
g2
Ntp49
Rp50
(dp51
g13
I01
sg14
F-1.2461545311314757
sg15
g48
sbs(I-19
I55
tp52
g0
(g9
g2
Ntp53
Rp54
(dp55
g13
I01
sg14
F0.06811831484939254
sg15
g52
sbs(I-17
I55
tp56
g0
(g9
g2
Ntp57
Rp58
(dp59
g13
I01
sg14
F1.610098191615755
sg15
g56
sbs(I-4
I55
tp60
g0
(g9
g2
Ntp61
Rp62
(dp63
g13
I01
sg14
F0.8119226429618762
sg15
g60
sbs(I55
I4
tp64
g0
(g9
g2
Ntp65
Rp66
(dp67
g13
I01
sg14
F-0.491434209140673
sg15
g64
sbs(I-1
I55
tp68
g0
(g9
g2
Ntp69
Rp70
(dp71
g13
I01
sg14
F-1.8709886471863688
sg15
g68
sbs(I-9
I55
tp72
g0
(g9
g2
Ntp73
Rp74
(dp75
g13
I01
sg14
F1.6068061364986232
sg15
g72
sbs(I55
I3
tp76
g0
(g9
g2
Ntp77
Rp78
(dp79
g13
I01
sg14
F-0.1773949965449496
sg15
g76
sbs(I-8
I55
tp80
g0
(g9
g2
Ntp81
Rp82
(dp83
g13
I01
sg14
F1.6302265829602356
sg15
g80
sbs(I-15
I55
tp84
g0
(g9
g2
Ntp85
Rp86
(dp87
g13
I01
sg14
F0.02881387327029468
sg15
g84
sbs(I-13
I55
tp88
g0
(g9
g2
Ntp89
Rp90
(dp91
g13
I01
sg14
F0.34812486104050083
sg15
g88
sbs(I-20
I55
tp92
g0
(g9
g2
Ntp93
Rp94
(dp95
g13
I01
sg14
F-0.8427321153236333
sg15
g92
sbs(I-18
I55
tp96
g0
(g9
g2
Ntp97
Rp98
(dp99
g13
I01
sg14
F-0.974185396870673
sg15
g96
sbs(I55
I7
tp100
g0
(g9
g2
Ntp101
Rp102
(dp103
g13
I01
sg14
F-0.5238002900646573
sg15
g100
sbs(I-5
I55
tp104
g0
(g9
g2
Ntp105
Rp106
(dp107
g13
I01
sg14
F0.9466290724569653
sg15
g104
sbs(I-10
I55
tp108
g0
(g9
g2
Ntp109
Rp110
(dp111
g13
I01
sg14
F-2.1355225214102074
sg15
g108
sbs(I-16
I55
tp112
g0
(g9
g2
Ntp113
Rp114
(dp115
g13
I01
sg14
F1.9821742010469123
sg15
g112
sbs(I55
I2
tp116
g0
(g9
g2
Ntp117
Rp118
(dp119
g13
I01
sg14
F-0.43914640834469315
sg15
g116
sbs(I55
I6
tp120
g0
(g9
g2
Ntp121
Rp122
(dp123
g13
I01
sg14
F-0.5160399670341306
sg15
g120
sbs(I55
I1
tp124
g0
(g9
g2
Ntp125
Rp126
(dp127
g13
I01
sg14
F-0.9350314726929334
sg15
g124
sbs(I55
I8
tp128
g0
(g9
g2
Ntp129
Rp130
(dp131
g13
I01
sg14
F0.39553264429763413
sg15
g128
sbssS'nodes'
p132
(dp133
I0
g0
(cneat.genes
DefaultNodeGene
p134
g2
Ntp135
Rp136
(dp137
S'activation'
p138
S'relu'
p139
sS'bias'
p140
F8.179648888370021
sS'response'
p141
F1.0
sg15
I0
sS'aggregation'
p142
S'sum'
p143
sbsI1
g0
(g134
g2
Ntp144
Rp145
(dp146
g138
g139
sg140
F7.363798822380585
sg141
F1.0
sg15
I1
sg142
g143
sbsI2
g0
(g134
g2
Ntp147
Rp148
(dp149
g138
g139
sg140
F-13.652139739848923
sg141
F1.0
sg15
I2
sg142
g143
sbsI3
g0
(g134
g2
Ntp150
Rp151
(dp152
g138
g139
sg140
F-1.850158751210522
sg141
F1.0
sg15
I3
sg142
g143
sbsI4
g0
(g134
g2
Ntp153
Rp154
(dp155
g138
g139
sg140
F13.329573407583117
sg141
F1.0
sg15
I4
sg142
g143
sbsI5
g0
(g134
g2
Ntp156
Rp157
(dp158
g138
g139
sg140
F4.5091240143669316
sg141
F1.0
sg15
I5
sg142
g143
sbsI6
g0
(g134
g2
Ntp159
Rp160
(dp161
g138
g139
sg140
F15.498832558764896
sg141
F1.0
sg15
I6
sg142
g143
sbsI7
g0
(g134
g2
Ntp162
Rp163
(dp164
g138
g139
sg140
F-11.850541975603273
sg141
F1.0
sg15
I7
sg142
g143
sbsI8
g0
(g134
g2
Ntp165
Rp166
(dp167
g138
g139
sg140
F-0.43524366140338566
sg141
F1.0
sg15
I8
sg142
g143
sbsI9
g0
(g134
g2
Ntp168
Rp169
(dp170
g138
g139
sg140
F-14.06663564320802
sg141
F1.0
sg15
I9
sg142
g143
sbsI55
g0
(g134
g2
Ntp171
Rp172
(dp173
g138
g139
sg140
F-10.216197420962798
sg141
F1.0
sg15
I55
sg142
g143
sbssg15
I46
sS'fitness'
p174
F0.12853140477022795
sb.