ccopy_reg
_reconstructor
p0
(cneat.genome
DefaultGenome
p1
c__builtin__
object
p2
Ntp3
Rp4
(dp5
S'connections'
p6
(dp7
(I55
I4
tp8
g0
(cneat.genes
DefaultConnectionGene
p9
g2
Ntp10
Rp11
(dp12
S'enabled'
p13
I01
sS'weight'
p14
F-0.1557417655289983
sS'key'
p15
g8
sbs(I-5
I55
tp16
g0
(g9
g2
Ntp17
Rp18
(dp19
g13
I01
sg14
F0.7861640174237357
sg15
g16
sbs(I55
I8
tp20
g0
(g9
g2
Ntp21
Rp22
(dp23
g13
I01
sg14
F-1.1336423678141596
sg15
g20
sbs(I55
I5
tp24
g0
(g9
g2
Ntp25
Rp26
(dp27
g13
I01
sg14
F1.291613785428039
sg15
g24
sbs(I-10
I55
tp28
g0
(g9
g2
Ntp29
Rp30
(dp31
g13
I01
sg14
F-0.36068815618206995
sg15
g28
sbs(I-6
I55
tp32
g0
(g9
g2
Ntp33
Rp34
(dp35
g13
I01
sg14
F-1.1033851657064828
sg15
g32
sbs(I-1
I55
tp36
g0
(g9
g2
Ntp37
Rp38
(dp39
g13
I01
sg14
F0.6048223420919758
sg15
g36
sbs(I-4
I55
tp40
g0
(g9
g2
Ntp41
Rp42
(dp43
g13
I01
sg14
F-0.3042308922053287
sg15
g40
sbs(I-2
I55
tp44
g0
(g9
g2
Ntp45
Rp46
(dp47
g13
I01
sg14
F0.15045661094239873
sg15
g44
sbs(I-9
I55
tp48
g0
(g9
g2
Ntp49
Rp50
(dp51
g13
I01
sg14
F0.2947279710584273
sg15
g48
sbs(I55
I2
tp52
g0
(g9
g2
Ntp53
Rp54
(dp55
g13
I01
sg14
F-0.9460999014972651
sg15
g52
sbs(I55
I9
tp56
g0
(g9
g2
Ntp57
Rp58
(dp59
g13
I01
sg14
F2.166024751034219
sg15
g56
sbs(I55
I3
tp60
g0
(g9
g2
Ntp61
Rp62
(dp63
g13
I01
sg14
F0.9727832752611862
sg15
g60
sbs(I-3
I55
tp64
g0
(g9
g2
Ntp65
Rp66
(dp67
g13
I01
sg14
F-0.5217562648405262
sg15
g64
sbs(I55
I0
tp68
g0
(g9
g2
Ntp69
Rp70
(dp71
g13
I01
sg14
F0.5917427145694358
sg15
g68
sbs(I-8
I55
tp72
g0
(g9
g2
Ntp73
Rp74
(dp75
g13
I01
sg14
F0.34360903801936044
sg15
g72
sbs(I55
I1
tp76
g0
(g9
g2
Ntp77
Rp78
(dp79
g13
I01
sg14
F0.461650601604339
sg15
g76
sbs(I55
I6
tp80
g0
(g9
g2
Ntp81
Rp82
(dp83
g13
I01
sg14
F-1.3185493244900697
sg15
g80
sbs(I55
I7
tp84
g0
(g9
g2
Ntp85
Rp86
(dp87
g13
I01
sg14
F0.5660164197779258
sg15
g84
sbs(I-7
I55
tp88
g0
(g9
g2
Ntp89
Rp90
(dp91
g13
I01
sg14
F1.115011982820683
sg15
g88
sbssS'nodes'
p92
(dp93
I0
g0
(cneat.genes
DefaultNodeGene
p94
g2
Ntp95
Rp96
(dp97
S'activation'
p98
S'relu'
p99
sS'bias'
p100
F9.007523130504229
sS'response'
p101
F1.0
sg15
I0
sS'aggregation'
p102
S'sum'
p103
sbsI1
g0
(g94
g2
Ntp104
Rp105
(dp106
g98
g99
sg100
F5.71202769451039
sg101
F1.0
sg15
I1
sg102
g103
sbsI2
g0
(g94
g2
Ntp107
Rp108
(dp109
g98
g99
sg100
F-3.3677412702823615
sg101
F1.0
sg15
I2
sg102
g103
sbsI3
g0
(g94
g2
Ntp110
Rp111
(dp112
g98
g99
sg100
F-4.05225114011169
sg101
F1.0
sg15
I3
sg102
g103
sbsI4
g0
(g94
g2
Ntp113
Rp114
(dp115
g98
g99
sg100
F14.218000516486525
sg101
F1.0
sg15
I4
sg102
g103
sbsI5
g0
(g94
g2
Ntp116
Rp117
(dp118
g98
g99
sg100
F-20.31143542332552
sg101
F1.0
sg15
I5
sg102
g103
sbsI6
g0
(g94
g2
Ntp119
Rp120
(dp121
g98
g99
sg100
F-10.44840898532663
sg101
F1.0
sg15
I6
sg102
g103
sbsI7
g0
(g94
g2
Ntp122
Rp123
(dp124
g98
g99
sg100
F6.299698579256017
sg101
F1.0
sg15
I7
sg102
g103
sbsI8
g0
(g94
g2
Ntp125
Rp126
(dp127
g98
g99
sg100
F4.713603751852228
sg101
F1.0
sg15
I8
sg102
g103
sbsI9
g0
(g94
g2
Ntp128
Rp129
(dp130
g98
g99
sg100
F12.893478189548667
sg101
F1.0
sg15
I9
sg102
g103
sbsI55
g0
(g94
g2
Ntp131
Rp132
(dp133
g98
g99
sg100
F-2.3355934315420974
sg101
F1.0
sg15
I55
sg102
g103
sbssg15
I46
sS'fitness'
p134
F-0.43301010928759376
sb.