ccopy_reg
_reconstructor
p0
(cneat.genome
DefaultGenome
p1
c__builtin__
object
p2
Ntp3
Rp4
(dp5
S'connections'
p6
(dp7
(I1745
I9
tp8
g0
(cneat.genes
DefaultConnectionGene
p9
g2
Ntp10
Rp11
(dp12
S'enabled'
p13
I01
sS'weight'
p14
F-1.1752724763413664
sS'key'
p15
g8
sbs(I-4
I8
tp16
g0
(g9
g2
Ntp17
Rp18
(dp19
g13
I00
sg14
F-0.6235168915481168
sg15
g16
sbs(I-6
I9
tp20
g0
(g9
g2
Ntp21
Rp22
(dp23
g13
I00
sg14
F-1.7660126478008322
sg15
g20
sbs(I-6
I1745
tp24
g0
(g9
g2
Ntp25
Rp26
(dp27
g13
I01
sg14
F1.9518621140071686
sg15
g24
sbssS'nodes'
p28
(dp29
I0
g0
(cneat.genes
DefaultNodeGene
p30
g2
Ntp31
Rp32
(dp33
S'activation'
p34
S'tanh'
p35
sS'bias'
p36
F15.298378509429572
sS'response'
p37
F1.0
sg15
I0
sS'aggregation'
p38
S'sum'
p39
sbsI1
g0
(g30
g2
Ntp40
Rp41
(dp42
g34
g35
sg36
F-17.433365840458343
sg37
F1.0
sg15
I1
sg38
g39
sbsI2
g0
(g30
g2
Ntp43
Rp44
(dp45
g34
g35
sg36
F-6.988059376091511
sg37
F1.0
sg15
I2
sg38
g39
sbsI3
g0
(g30
g2
Ntp46
Rp47
(dp48
g34
g35
sg36
F-7.658703719114977
sg37
F1.0
sg15
I3
sg38
g39
sbsI4
g0
(g30
g2
Ntp49
Rp50
(dp51
g34
g35
sg36
F1.9546964066957013
sg37
F1.0
sg15
I4
sg38
g39
sbsI5
g0
(g30
g2
Ntp52
Rp53
(dp54
g34
g35
sg36
F-0.5594998601612335
sg37
F1.0
sg15
I5
sg38
g39
sbsI6
g0
(g30
g2
Ntp55
Rp56
(dp57
g34
g35
sg36
F4.015863899195719
sg37
F1.0
sg15
I6
sg38
g39
sbsI7
g0
(g30
g2
Ntp58
Rp59
(dp60
g34
g35
sg36
F2.1849306012211436
sg37
F1.0
sg15
I7
sg38
g39
sbsI8
g0
(g30
g2
Ntp61
Rp62
(dp63
g34
g35
sg36
F-6.879753959059295
sg37
F1.0
sg15
I8
sg38
g39
sbsI9
g0
(g30
g2
Ntp64
Rp65
(dp66
g34
g35
sg36
F-12.492251808425241
sg37
F1.0
sg15
I9
sg38
g39
sbsI1745
g0
(g30
g2
Ntp67
Rp68
(dp69
g34
S'relu'
p70
sg36
F10.983348218108121
sg37
F1.0
sg15
I1745
sg38
g39
sbssg15
I4600
sS'fitness'
p71
F0.044620012262482245
sb.