ccopy_reg
_reconstructor
p0
(cneat.genome
DefaultGenome
p1
c__builtin__
object
p2
Ntp3
Rp4
(dp5
S'connections'
p6
(dp7
(I1710
I5
tp8
g0
(cneat.genes
DefaultConnectionGene
p9
g2
Ntp10
Rp11
(dp12
S'enabled'
p13
I00
sS'weight'
p14
F-0.3844518513399501
sS'key'
p15
g8
sbs(I1710
I1790
tp16
g0
(g9
g2
Ntp17
Rp18
(dp19
g13
I01
sg14
F0.4811112645739395
sg15
g16
sbs(I1698
I1512
tp20
g0
(g9
g2
Ntp21
Rp22
(dp23
g13
I01
sg14
F-0.8325871356424149
sg15
g20
sbs(I-1
I1698
tp24
g0
(g9
g2
Ntp25
Rp26
(dp27
g13
I01
sg14
F-1.0071649759473864
sg15
g24
sbs(I-1
I1512
tp28
g0
(g9
g2
Ntp29
Rp30
(dp31
g13
I00
sg14
F0.3652345069190368
sg15
g28
sbs(I5
I1710
tp32
g0
(g9
g2
Ntp33
Rp34
(dp35
g13
I01
sg14
F0.6846221743466532
sg15
g32
sbs(I4
I954
tp36
g0
(g9
g2
Ntp37
Rp38
(dp39
g13
I01
sg14
F2.3456260595050304
sg15
g36
sbs(I1512
I8
tp40
g0
(g9
g2
Ntp41
Rp42
(dp43
g13
I01
sg14
F-0.24102540371668868
sg15
g40
sbs(I-5
I4
tp44
g0
(g9
g2
Ntp45
Rp46
(dp47
g13
I00
sg14
F-0.660957412470131
sg15
g44
sbs(I1790
I5
tp48
g0
(g9
g2
Ntp49
Rp50
(dp51
g13
I01
sg14
F0.42563583452342035
sg15
g48
sbs(I-4
I0
tp52
g0
(g9
g2
Ntp53
Rp54
(dp55
g13
I01
sg14
F1.5947283503242433
sg15
g52
sbs(I-5
I9
tp56
g0
(g9
g2
Ntp57
Rp58
(dp59
g13
I00
sg14
F1.192829247951115
sg15
g56
sbs(I1
I1
tp60
g0
(g9
g2
Ntp61
Rp62
(dp63
g13
I00
sg14
F2.613573455506491
sg15
g60
sbssS'nodes'
p64
(dp65
I0
g0
(cneat.genes
DefaultNodeGene
p66
g2
Ntp67
Rp68
(dp69
S'activation'
p70
S'tanh'
p71
sS'bias'
p72
F8.439529904711614
sS'response'
p73
F1.0
sg15
I0
sS'aggregation'
p74
S'sum'
p75
sbsI1
g0
(g66
g2
Ntp76
Rp77
(dp78
g70
g71
sg72
F-27.399091039987983
sg73
F1.0
sg15
I1
sg74
g75
sbsI2
g0
(g66
g2
Ntp79
Rp80
(dp81
g70
g71
sg72
F-3.797409303593846
sg73
F1.0
sg15
I2
sg74
g75
sbsI3
g0
(g66
g2
Ntp82
Rp83
(dp84
g70
g71
sg72
F-0.10190421750945539
sg73
F1.0
sg15
I3
sg74
g75
sbsI4
g0
(g66
g2
Ntp85
Rp86
(dp87
g70
g71
sg72
F9.620840093074605
sg73
F1.0
sg15
I4
sg74
g75
sbsI5
g0
(g66
g2
Ntp88
Rp89
(dp90
g70
g71
sg72
F-11.164767514224437
sg73
F1.0
sg15
I5
sg74
g75
sbsI6
g0
(g66
g2
Ntp91
Rp92
(dp93
g70
g71
sg72
F-16.648621042792378
sg73
F1.0
sg15
I6
sg74
g75
sbsI7
g0
(g66
g2
Ntp94
Rp95
(dp96
g70
g71
sg72
F3.233120624119141
sg73
F1.0
sg15
I7
sg74
g75
sbsI8
g0
(g66
g2
Ntp97
Rp98
(dp99
g70
g71
sg72
F23.499547362218653
sg73
F1.0
sg15
I8
sg74
g75
sbsI9
g0
(g66
g2
Ntp100
Rp101
(dp102
g70
g71
sg72
F-0.5184609702405196
sg73
F1.0
sg15
I9
sg74
g75
sbsI546
g0
(g66
g2
Ntp103
Rp104
(dp105
g70
g71
sg72
F-11.431438243728088
sg73
F1.0
sg15
I546
sg74
g75
sbsI1710
g0
(g66
g2
Ntp106
Rp107
(dp108
g70
g71
sg72
F6.521137875922477
sg73
F1.0
sg15
I1710
sg74
g75
sbsI1512
g0
(g66
g2
Ntp109
Rp110
(dp111
g70
g71
sg72
F-26.773988876769067
sg73
F1.0
sg15
I1512
sg74
g75
sbsI1698
g0
(g66
g2
Ntp112
Rp113
(dp114
g70
g71
sg72
F10.550911442382002
sg73
F1.0
sg15
I1698
sg74
g75
sbsI954
g0
(g66
g2
Ntp115
Rp116
(dp117
g70
g71
sg72
F6.140416710386572
sg73
F1.0
sg15
I954
sg74
g75
sbsI1790
g0
(g66
g2
Ntp118
Rp119
(dp120
g70
g71
sg72
F-3.358526969652938
sg73
F1.0
sg15
I1790
sg74
g75
sbssg15
I4602
sS'fitness'
p121
F0.043059404378377186
sb.