ccopy_reg
_reconstructor
p0
(cneat.genome
DefaultGenome
p1
c__builtin__
object
p2
Ntp3
Rp4
(dp5
S'connections'
p6
(dp7
(I-8
I9
tp8
g0
(cneat.genes
DefaultConnectionGene
p9
g2
Ntp10
Rp11
(dp12
S'enabled'
p13
I00
sS'weight'
p14
F0.6339192235612717
sS'key'
p15
g8
sbs(I-2
I1643
tp16
g0
(g9
g2
Ntp17
Rp18
(dp19
g13
I01
sg14
F0.6023595496732027
sg15
g16
sbs(I0
I0
tp20
g0
(g9
g2
Ntp21
Rp22
(dp23
g13
I00
sg14
F-0.27796985249189426
sg15
g20
sbs(I1735
I0
tp24
g0
(g9
g2
Ntp25
Rp26
(dp27
g13
I01
sg14
F-1.0113798570050572
sg15
g24
sbs(I-2
I0
tp28
g0
(g9
g2
Ntp29
Rp30
(dp31
g13
I00
sg14
F1.6884197634907705
sg15
g28
sbs(I0
I1679
tp32
g0
(g9
g2
Ntp33
Rp34
(dp35
g13
I01
sg14
F-0.031067212718211334
sg15
g32
sbs(I1679
I0
tp36
g0
(g9
g2
Ntp37
Rp38
(dp39
g13
I01
sg14
F1.405485714374623
sg15
g36
sbs(I-5
I1780
tp40
g0
(g9
g2
Ntp41
Rp42
(dp43
g13
I01
sg14
F-1.118623256924162
sg15
g40
sbs(I1735
I1732
tp44
g0
(g9
g2
Ntp45
Rp46
(dp47
g13
I01
sg14
F-1.6118344999960301
sg15
g44
sbs(I-2
I1786
tp48
g0
(g9
g2
Ntp49
Rp50
(dp51
g13
I01
sg14
F2.6260458328828538
sg15
g48
sbs(I1780
I9
tp52
g0
(g9
g2
Ntp53
Rp54
(dp55
g13
I01
sg14
F-1.4697666141193848
sg15
g52
sbs(I-2
I1732
tp56
g0
(g9
g2
Ntp57
Rp58
(dp59
g13
I00
sg14
F-0.6735765892963783
sg15
g56
sbs(I1786
I1643
tp60
g0
(g9
g2
Ntp61
Rp62
(dp63
g13
I01
sg14
F-0.44893090722067397
sg15
g60
sbs(I1643
I0
tp64
g0
(g9
g2
Ntp65
Rp66
(dp67
g13
I01
sg14
F-0.09989849502003313
sg15
g64
sbs(I-8
I1780
tp68
g0
(g9
g2
Ntp69
Rp70
(dp71
g13
I01
sg14
F0.2659893168655728
sg15
g68
sbs(I-2
I1735
tp72
g0
(g9
g2
Ntp73
Rp74
(dp75
g13
I01
sg14
F-0.6861803616928455
sg15
g72
sbs(I-4
I7
tp76
g0
(g9
g2
Ntp77
Rp78
(dp79
g13
I01
sg14
F1.1393604271854283
sg15
g76
sbs(I1732
I0
tp80
g0
(g9
g2
Ntp81
Rp82
(dp83
g13
I01
sg14
F0.4801654618556698
sg15
g80
sbssS'nodes'
p84
(dp85
I0
g0
(cneat.genes
DefaultNodeGene
p86
g2
Ntp87
Rp88
(dp89
S'activation'
p90
S'tanh'
p91
sS'bias'
p92
F-6.21533695443901
sS'response'
p93
F1.0
sg15
I0
sS'aggregation'
p94
S'sum'
p95
sbsI1
g0
(g86
g2
Ntp96
Rp97
(dp98
g90
g91
sg92
F-1.3784539994910165
sg93
F1.0
sg15
I1
sg94
g95
sbsI2
g0
(g86
g2
Ntp99
Rp100
(dp101
g90
g91
sg92
F3.274808796381243
sg93
F1.0
sg15
I2
sg94
g95
sbsI3
g0
(g86
g2
Ntp102
Rp103
(dp104
g90
g91
sg92
F-10.47090581530284
sg93
F1.0
sg15
I3
sg94
g95
sbsI4
g0
(g86
g2
Ntp105
Rp106
(dp107
g90
g91
sg92
F-26.71994056084388
sg93
F1.0
sg15
I4
sg94
g95
sbsI5
g0
(g86
g2
Ntp108
Rp109
(dp110
g90
g91
sg92
F12.792859863651502
sg93
F1.0
sg15
I5
sg94
g95
sbsI6
g0
(g86
g2
Ntp111
Rp112
(dp113
g90
g91
sg92
F-3.316420980403829
sg93
F1.0
sg15
I6
sg94
g95
sbsI7
g0
(g86
g2
Ntp114
Rp115
(dp116
g90
g91
sg92
F10.88450406507026
sg93
F1.0
sg15
I7
sg94
g95
sbsI8
g0
(g86
g2
Ntp117
Rp118
(dp119
g90
g91
sg92
F3.241430646677285
sg93
F1.0
sg15
I8
sg94
g95
sbsI9
g0
(g86
g2
Ntp120
Rp121
(dp122
g90
g91
sg92
F-5.3790346682394645
sg93
F1.0
sg15
I9
sg94
g95
sbsI1643
g0
(g86
g2
Ntp123
Rp124
(dp125
g90
g91
sg92
F12.749315501405222
sg93
F1.0
sg15
I1643
sg94
g95
sbsI1735
g0
(g86
g2
Ntp126
Rp127
(dp128
g90
g91
sg92
F1.5199998295288373
sg93
F1.0
sg15
I1735
sg94
g95
sbsI1679
g0
(g86
g2
Ntp129
Rp130
(dp131
g90
g91
sg92
F10.423996507721196
sg93
F1.0
sg15
I1679
sg94
g95
sbsI1780
g0
(g86
g2
Ntp132
Rp133
(dp134
g90
S'relu'
p135
sg92
F9.47665189087143
sg93
F1.0
sg15
I1780
sg94
g95
sbsI1732
g0
(g86
g2
Ntp136
Rp137
(dp138
g90
g91
sg92
F-3.0166085724600817
sg93
F1.0
sg15
I1732
sg94
g95
sbsI1786
g0
(g86
g2
Ntp139
Rp140
(dp141
g90
g135
sg92
F-4.375860825301104
sg93
F1.0
sg15
I1786
sg94
g95
sbssg15
I4610
sS'fitness'
p142
F-0.011707960334230272
sb.