ccopy_reg
_reconstructor
p0
(cneat.genome
DefaultGenome
p1
c__builtin__
object
p2
Ntp3
Rp4
(dp5
S'connections'
p6
(dp7
(I5
I5
tp8
g0
(cneat.genes
DefaultConnectionGene
p9
g2
Ntp10
Rp11
(dp12
S'enabled'
p13
I00
sS'weight'
p14
F0.8771070866331747
sS'key'
p15
g8
sbs(I954
I1
tp16
g0
(g9
g2
Ntp17
Rp18
(dp19
g13
I01
sg14
F0.5274417856929571
sg15
g16
sbs(I-9
I1750
tp20
g0
(g9
g2
Ntp21
Rp22
(dp23
g13
I01
sg14
F1.3949184005429052
sg15
g20
sbs(I-9
I2
tp24
g0
(g9
g2
Ntp25
Rp26
(dp27
g13
I00
sg14
F-1.0771254843163238
sg15
g24
sbs(I4
I954
tp28
g0
(g9
g2
Ntp29
Rp30
(dp31
g13
I01
sg14
F-1.4262942766548137
sg15
g28
sbs(I-5
I4
tp32
g0
(g9
g2
Ntp33
Rp34
(dp35
g13
I00
sg14
F1.4575129161318352
sg15
g32
sbs(I-7
I546
tp36
g0
(g9
g2
Ntp37
Rp38
(dp39
g13
I01
sg14
F1.2146269732882968
sg15
g36
sbs(I-5
I9
tp40
g0
(g9
g2
Ntp41
Rp42
(dp43
g13
I00
sg14
F4.860666292105591
sg15
g40
sbs(I1
I1
tp44
g0
(g9
g2
Ntp45
Rp46
(dp47
g13
I00
sg14
F0.5495000385638804
sg15
g44
sbs(I-2
I0
tp48
g0
(g9
g2
Ntp49
Rp50
(dp51
g13
I01
sg14
F0.10250375224556202
sg15
g48
sbssS'nodes'
p52
(dp53
I0
g0
(cneat.genes
DefaultNodeGene
p54
g2
Ntp55
Rp56
(dp57
S'activation'
p58
S'tanh'
p59
sS'bias'
p60
F-0.17963072324105114
sS'response'
p61
F1.0
sg15
I0
sS'aggregation'
p62
S'sum'
p63
sbsI1
g0
(g54
g2
Ntp64
Rp65
(dp66
g58
g59
sg60
F-4.891624225231508
sg61
F1.0
sg15
I1
sg62
g63
sbsI2
g0
(g54
g2
Ntp67
Rp68
(dp69
g58
g59
sg60
F11.276996702223352
sg61
F1.0
sg15
I2
sg62
g63
sbsI3
g0
(g54
g2
Ntp70
Rp71
(dp72
g58
g59
sg60
F19.4640585243725
sg61
F1.0
sg15
I3
sg62
g63
sbsI4
g0
(g54
g2
Ntp73
Rp74
(dp75
g58
g59
sg60
F-7.722910615426995
sg61
F1.0
sg15
I4
sg62
g63
sbsI5
g0
(g54
g2
Ntp76
Rp77
(dp78
g58
g59
sg60
F25.87331867340632
sg61
F1.0
sg15
I5
sg62
g63
sbsI6
g0
(g54
g2
Ntp79
Rp80
(dp81
g58
g59
sg60
F-3.31056550563321
sg61
F1.0
sg15
I6
sg62
g63
sbsI7
g0
(g54
g2
Ntp82
Rp83
(dp84
g58
g59
sg60
F-20.713195868994646
sg61
F1.0
sg15
I7
sg62
g63
sbsI8
g0
(g54
g2
Ntp85
Rp86
(dp87
g58
g59
sg60
F9.313638034215284
sg61
F1.0
sg15
I8
sg62
g63
sbsI9
g0
(g54
g2
Ntp88
Rp89
(dp90
g58
g59
sg60
F9.526415872925721
sg61
F1.0
sg15
I9
sg62
g63
sbsI546
g0
(g54
g2
Ntp91
Rp92
(dp93
g58
g59
sg60
F1.523027165573652
sg61
F1.0
sg15
I546
sg62
g63
sbsI1750
g0
(g54
g2
Ntp94
Rp95
(dp96
g58
g59
sg60
F-7.96787321410009
sg61
F1.0
sg15
I1750
sg62
g63
sbsI954
g0
(g54
g2
Ntp97
Rp98
(dp99
g58
g59
sg60
F8.615577894339166
sg61
F1.0
sg15
I954
sg62
g63
sbssg15
I4612
sS'fitness'
p100
F0.09450906296798434
sb.