ccopy_reg
_reconstructor
p0
(cneat.genome
DefaultGenome
p1
c__builtin__
object
p2
Ntp3
Rp4
(dp5
S'connections'
p6
(dp7
(I-10
I1748
tp8
g0
(cneat.genes
DefaultConnectionGene
p9
g2
Ntp10
Rp11
(dp12
S'enabled'
p13
I01
sS'weight'
p14
F0.7807430285833583
sS'key'
p15
g8
sbs(I9
I1371
tp16
g0
(g9
g2
Ntp17
Rp18
(dp19
g13
I01
sg14
F1.5499733999832548
sg15
g16
sbs(I-10
I2
tp20
g0
(g9
g2
Ntp21
Rp22
(dp23
g13
I00
sg14
F-0.9819130912162448
sg15
g20
sbssS'nodes'
p24
(dp25
I0
g0
(cneat.genes
DefaultNodeGene
p26
g2
Ntp27
Rp28
(dp29
S'activation'
p30
S'tanh'
p31
sS'bias'
p32
F-21.519538269752026
sS'response'
p33
F1.0
sg15
I0
sS'aggregation'
p34
S'sum'
p35
sbsI1
g0
(g26
g2
Ntp36
Rp37
(dp38
g30
g31
sg32
F-17.265997647538118
sg33
F1.0
sg15
I1
sg34
g35
sbsI2
g0
(g26
g2
Ntp39
Rp40
(dp41
g30
g31
sg32
F6.848056647741582
sg33
F1.0
sg15
I2
sg34
g35
sbsI3
g0
(g26
g2
Ntp42
Rp43
(dp44
g30
g31
sg32
F-6.23484603941274
sg33
F1.0
sg15
I3
sg34
g35
sbsI4
g0
(g26
g2
Ntp45
Rp46
(dp47
g30
g31
sg32
F3.061832024157105
sg33
F1.0
sg15
I4
sg34
g35
sbsI5
g0
(g26
g2
Ntp48
Rp49
(dp50
g30
g31
sg32
F-6.016991689411483
sg33
F1.0
sg15
I5
sg34
g35
sbsI6
g0
(g26
g2
Ntp51
Rp52
(dp53
g30
g31
sg32
F-4.510779600419633
sg33
F1.0
sg15
I6
sg34
g35
sbsI7
g0
(g26
g2
Ntp54
Rp55
(dp56
g30
g31
sg32
F3.4802578455961215
sg33
F1.0
sg15
I7
sg34
g35
sbsI8
g0
(g26
g2
Ntp57
Rp58
(dp59
g30
g31
sg32
F-7.237999622443604
sg33
F1.0
sg15
I8
sg34
g35
sbsI9
g0
(g26
g2
Ntp60
Rp61
(dp62
g30
g31
sg32
F12.408813633055056
sg33
F1.0
sg15
I9
sg34
g35
sbsI1390
g0
(g26
g2
Ntp63
Rp64
(dp65
g30
g31
sg32
F-0.2737995571565838
sg33
F1.0
sg15
I1390
sg34
g35
sbsI1748
g0
(g26
g2
Ntp66
Rp67
(dp68
g30
S'relu'
p69
sg32
F-16.75113116736855
sg33
F1.0
sg15
I1748
sg34
g35
sbsI1371
g0
(g26
g2
Ntp70
Rp71
(dp72
g30
g31
sg32
F-0.3959826147541826
sg33
F1.0
sg15
I1371
sg34
g35
sbssg15
I4613
sS'fitness'
p73
F0.004189497138524789
sb.