ccopy_reg
_reconstructor
p0
(cneat.genome
DefaultGenome
p1
c__builtin__
object
p2
Ntp3
Rp4
(dp5
S'connections'
p6
(dp7
(I1
I1678
tp8
g0
(cneat.genes
DefaultConnectionGene
p9
g2
Ntp10
Rp11
(dp12
S'enabled'
p13
I01
sS'weight'
p14
F-0.2020811701529286
sS'key'
p15
g8
sbs(I1
I1
tp16
g0
(g9
g2
Ntp17
Rp18
(dp19
g13
I00
sg14
F1.2360014532763521
sg15
g16
sbs(I-5
I1639
tp20
g0
(g9
g2
Ntp21
Rp22
(dp23
g13
I01
sg14
F1.9310210440272004
sg15
g20
sbs(I1678
I1
tp24
g0
(g9
g2
Ntp25
Rp26
(dp27
g13
I01
sg14
F2.0491133804349686
sg15
g24
sbs(I1462
I7
tp28
g0
(g9
g2
Ntp29
Rp30
(dp31
g13
I00
sg14
F0.13489189176793978
sg15
g28
sbs(I-10
I8
tp32
g0
(g9
g2
Ntp33
Rp34
(dp35
g13
I01
sg14
F0.4194465391737282
sg15
g32
sbs(I1639
I1462
tp36
g0
(g9
g2
Ntp37
Rp38
(dp39
g13
I01
sg14
F1.7812306137897238
sg15
g36
sbs(I-4
I6
tp40
g0
(g9
g2
Ntp41
Rp42
(dp43
g13
I00
sg14
F-0.5805406689856274
sg15
g40
sbssS'nodes'
p44
(dp45
I0
g0
(cneat.genes
DefaultNodeGene
p46
g2
Ntp47
Rp48
(dp49
S'activation'
p50
S'tanh'
p51
sS'bias'
p52
F22.952352175288357
sS'response'
p53
F1.0
sg15
I0
sS'aggregation'
p54
S'sum'
p55
sbsI1
g0
(g46
g2
Ntp56
Rp57
(dp58
g50
g51
sg52
F7.25880472584448
sg53
F1.0
sg15
I1
sg54
g55
sbsI2
g0
(g46
g2
Ntp59
Rp60
(dp61
g50
g51
sg52
F-7.472594423401663
sg53
F1.0
sg15
I2
sg54
g55
sbsI3
g0
(g46
g2
Ntp62
Rp63
(dp64
g50
g51
sg52
F-2.2363790858015182
sg53
F1.0
sg15
I3
sg54
g55
sbsI4
g0
(g46
g2
Ntp65
Rp66
(dp67
g50
g51
sg52
F-13.309747525114169
sg53
F1.0
sg15
I4
sg54
g55
sbsI5
g0
(g46
g2
Ntp68
Rp69
(dp70
g50
g51
sg52
F13.374461677491258
sg53
F1.0
sg15
I5
sg54
g55
sbsI6
g0
(g46
g2
Ntp71
Rp72
(dp73
g50
g51
sg52
F-0.37349354491033404
sg53
F1.0
sg15
I6
sg54
g55
sbsI7
g0
(g46
g2
Ntp74
Rp75
(dp76
g50
g51
sg52
F-6.387332624910588
sg53
F1.0
sg15
I7
sg54
g55
sbsI8
g0
(g46
g2
Ntp77
Rp78
(dp79
g50
g51
sg52
F6.862434567058637
sg53
F1.0
sg15
I8
sg54
g55
sbsI9
g0
(g46
g2
Ntp80
Rp81
(dp82
g50
g51
sg52
F-3.5914259157851727
sg53
F1.0
sg15
I9
sg54
g55
sbsI1639
g0
(g46
g2
Ntp83
Rp84
(dp85
g50
g51
sg52
F16.355884690117463
sg53
F1.0
sg15
I1639
sg54
g55
sbsI1678
g0
(g46
g2
Ntp86
Rp87
(dp88
g50
g51
sg52
F-19.27761111351426
sg53
F1.0
sg15
I1678
sg54
g55
sbsI1462
g0
(g46
g2
Ntp89
Rp90
(dp91
g50
g51
sg52
F22.065087876915978
sg53
F1.0
sg15
I1462
sg54
g55
sbssg15
I4617
sS'fitness'
p92
F0.08193290455855795
sb.