ccopy_reg
_reconstructor
p0
(cneat.genome
DefaultGenome
p1
c__builtin__
object
p2
Ntp3
Rp4
(dp5
S'connections'
p6
(dp7
(I1787
I1
tp8
g0
(cneat.genes
DefaultConnectionGene
p9
g2
Ntp10
Rp11
(dp12
S'enabled'
p13
I01
sS'weight'
p14
F1.5683323285623891
sS'key'
p15
g8
sbs(I-7
I4
tp16
g0
(g9
g2
Ntp17
Rp18
(dp19
g13
I01
sg14
F-1.5453085257725685
sg15
g16
sbs(I1
I1678
tp20
g0
(g9
g2
Ntp21
Rp22
(dp23
g13
I01
sg14
F1.0497195484617103
sg15
g20
sbs(I1
I1
tp24
g0
(g9
g2
Ntp25
Rp26
(dp27
g13
I00
sg14
F-0.8605309039846634
sg15
g24
sbs(I1678
I1787
tp28
g0
(g9
g2
Ntp29
Rp30
(dp31
g13
I01
sg14
F0.039867387760556726
sg15
g28
sbs(I1678
I1
tp32
g0
(g9
g2
Ntp33
Rp34
(dp35
g13
I01
sg14
F0.9983956718785377
sg15
g32
sbs(I-10
I8
tp36
g0
(g9
g2
Ntp37
Rp38
(dp39
g13
I01
sg14
F0.5486004199129184
sg15
g36
sbs(I1733
I1
tp40
g0
(g9
g2
Ntp41
Rp42
(dp43
g13
I00
sg14
F0.9184471345825312
sg15
g40
sbs(I-4
I6
tp44
g0
(g9
g2
Ntp45
Rp46
(dp47
g13
I01
sg14
F-1.5609273161362596
sg15
g44
sbssS'nodes'
p48
(dp49
I0
g0
(cneat.genes
DefaultNodeGene
p50
g2
Ntp51
Rp52
(dp53
S'activation'
p54
S'tanh'
p55
sS'bias'
p56
F23.304616091907853
sS'response'
p57
F1.0
sg15
I0
sS'aggregation'
p58
S'sum'
p59
sbsI1
g0
(g50
g2
Ntp60
Rp61
(dp62
g54
g55
sg56
F-0.6981398083199875
sg57
F1.0
sg15
I1
sg58
g59
sbsI2
g0
(g50
g2
Ntp63
Rp64
(dp65
g54
g55
sg56
F-7.079898229974275
sg57
F1.0
sg15
I2
sg58
g59
sbsI3
g0
(g50
g2
Ntp66
Rp67
(dp68
g54
g55
sg56
F-3.0326659369350244
sg57
F1.0
sg15
I3
sg58
g59
sbsI4
g0
(g50
g2
Ntp69
Rp70
(dp71
g54
g55
sg56
F-10.963072462873757
sg57
F1.0
sg15
I4
sg58
g59
sbsI5
g0
(g50
g2
Ntp72
Rp73
(dp74
g54
g55
sg56
F6.383502580663418
sg57
F1.0
sg15
I5
sg58
g59
sbsI6
g0
(g50
g2
Ntp75
Rp76
(dp77
g54
g55
sg56
F-1.233060726440761
sg57
F1.0
sg15
I6
sg58
g59
sbsI7
g0
(g50
g2
Ntp78
Rp79
(dp80
g54
g55
sg56
F-5.530315348898175
sg57
F1.0
sg15
I7
sg58
g59
sbsI8
g0
(g50
g2
Ntp81
Rp82
(dp83
g54
g55
sg56
F-1.4293081612595775
sg57
F1.0
sg15
I8
sg58
g59
sbsI9
g0
(g50
g2
Ntp84
Rp85
(dp86
g54
g55
sg56
F-3.280178832660801
sg57
F1.0
sg15
I9
sg58
g59
sbsI1678
g0
(g50
g2
Ntp87
Rp88
(dp89
g54
g55
sg56
F-19.72129448254716
sg57
F1.0
sg15
I1678
sg58
g59
sbsI1462
g0
(g50
g2
Ntp90
Rp91
(dp92
g54
g55
sg56
F20.81150491671157
sg57
F1.0
sg15
I1462
sg58
g59
sbsI1787
g0
(g50
g2
Ntp93
Rp94
(dp95
g54
g55
sg56
F9.642141322743106
sg57
F1.0
sg15
I1787
sg58
g59
sbsI1733
g0
(g50
g2
Ntp96
Rp97
(dp98
g54
g55
sg56
F-2.3795324555469994
sg57
F1.0
sg15
I1733
sg58
g59
sbssg15
I4618
sS'fitness'
p99
F0.06629609808439807
sb.