ccopy_reg
_reconstructor
p0
(cneat.genome
DefaultGenome
p1
c__builtin__
object
p2
Ntp3
Rp4
(dp5
S'connections'
p6
(dp7
(I1710
I5
tp8
g0
(cneat.genes
DefaultConnectionGene
p9
g2
Ntp10
Rp11
(dp12
S'enabled'
p13
I01
sS'weight'
p14
F0.05827286651793351
sS'key'
p15
g8
sbs(I-1
I1698
tp16
g0
(g9
g2
Ntp17
Rp18
(dp19
g13
I01
sg14
F-1.0071649759473864
sg15
g16
sbs(I5
I1710
tp20
g0
(g9
g2
Ntp21
Rp22
(dp23
g13
I01
sg14
F1.2923199816622395
sg15
g20
sbs(I4
I954
tp24
g0
(g9
g2
Ntp25
Rp26
(dp27
g13
I01
sg14
F2.930094890778607
sg15
g24
sbs(I-5
I4
tp28
g0
(g9
g2
Ntp29
Rp30
(dp31
g13
I00
sg14
F-0.437701493584546
sg15
g28
sbs(I-4
I0
tp32
g0
(g9
g2
Ntp33
Rp34
(dp35
g13
I01
sg14
F1.6039459064396004
sg15
g32
sbs(I-5
I8
tp36
g0
(g9
g2
Ntp37
Rp38
(dp39
g13
I01
sg14
F1.590745627128422
sg15
g36
sbs(I1
I1
tp40
g0
(g9
g2
Ntp41
Rp42
(dp43
g13
I00
sg14
F2.268500869921958
sg15
g40
sbssS'nodes'
p44
(dp45
I0
g0
(cneat.genes
DefaultNodeGene
p46
g2
Ntp47
Rp48
(dp49
S'activation'
p50
S'tanh'
p51
sS'bias'
p52
F8.630470481781323
sS'response'
p53
F1.0
sg15
I0
sS'aggregation'
p54
S'sum'
p55
sbsI1
g0
(g46
g2
Ntp56
Rp57
(dp58
g50
g51
sg52
F-26.67984062892576
sg53
F1.0
sg15
I1
sg54
g55
sbsI2
g0
(g46
g2
Ntp59
Rp60
(dp61
g50
g51
sg52
F16.997922817383913
sg53
F1.0
sg15
I2
sg54
g55
sbsI3
g0
(g46
g2
Ntp62
Rp63
(dp64
g50
g51
sg52
F1.1144522856214927
sg53
F1.0
sg15
I3
sg54
g55
sbsI4
g0
(g46
g2
Ntp65
Rp66
(dp67
g50
g51
sg52
F10.721448550588264
sg53
F1.0
sg15
I4
sg54
g55
sbsI5
g0
(g46
g2
Ntp68
Rp69
(dp70
g50
g51
sg52
F-11.456689508230104
sg53
F1.0
sg15
I5
sg54
g55
sbsI6
g0
(g46
g2
Ntp71
Rp72
(dp73
g50
g51
sg52
F-15.647941527997219
sg53
F1.0
sg15
I6
sg54
g55
sbsI7
g0
(g46
g2
Ntp74
Rp75
(dp76
g50
g51
sg52
F9.063149386716242
sg53
F1.0
sg15
I7
sg54
g55
sbsI8
g0
(g46
g2
Ntp77
Rp78
(dp79
g50
g51
sg52
F23.978171844782906
sg53
F1.0
sg15
I8
sg54
g55
sbsI9
g0
(g46
g2
Ntp80
Rp81
(dp82
g50
g51
sg52
F-1.7216090434952596
sg53
F1.0
sg15
I9
sg54
g55
sbsI546
g0
(g46
g2
Ntp83
Rp84
(dp85
g50
g51
sg52
F-10.845595167161642
sg53
F1.0
sg15
I546
sg54
g55
sbsI1710
g0
(g46
g2
Ntp86
Rp87
(dp88
g50
g51
sg52
F-9.274951278085975
sg53
F1.0
sg15
I1710
sg54
g55
sbsI1698
g0
(g46
g2
Ntp89
Rp90
(dp91
g50
g51
sg52
F10.587145018229194
sg53
F1.0
sg15
I1698
sg54
g55
sbsI954
g0
(g46
g2
Ntp92
Rp93
(dp94
g50
g51
sg52
F6.218464396873417
sg53
F1.0
sg15
I954
sg54
g55
sbssg15
I4621
sS'fitness'
p95
F0.013490743158132368
sb.