ccopy_reg
_reconstructor
p0
(cneat.genome
DefaultGenome
p1
c__builtin__
object
p2
Ntp3
Rp4
(dp5
S'connections'
p6
(dp7
(I-2
I6
tp8
g0
(cneat.genes
DefaultConnectionGene
p9
g2
Ntp10
Rp11
(dp12
S'enabled'
p13
I01
sS'weight'
p14
F-1.3967144607744963
sS'key'
p15
g8
sbs(I-5
I1562
tp16
g0
(g9
g2
Ntp17
Rp18
(dp19
g13
I01
sg14
F-1.7750268292109423
sg15
g16
sbs(I5
I5
tp20
g0
(g9
g2
Ntp21
Rp22
(dp23
g13
I00
sg14
F1.4900684760601197
sg15
g20
sbs(I1562
I0
tp24
g0
(g9
g2
Ntp25
Rp26
(dp27
g13
I00
sg14
F-1.3337063907973867
sg15
g24
sbs(I5
I1772
tp28
g0
(g9
g2
Ntp29
Rp30
(dp31
g13
I01
sg14
F0.3517917184406586
sg15
g28
sbs(I-7
I6
tp32
g0
(g9
g2
Ntp33
Rp34
(dp35
g13
I00
sg14
F1.7799518924010727
sg15
g32
sbs(I1562
I9
tp36
g0
(g9
g2
Ntp37
Rp38
(dp39
g13
I01
sg14
F1.3448460306181944
sg15
g36
sbs(I-5
I4
tp40
g0
(g9
g2
Ntp41
Rp42
(dp43
g13
I01
sg14
F-1.032077699435407
sg15
g40
sbs(I-4
I0
tp44
g0
(g9
g2
Ntp45
Rp46
(dp47
g13
I01
sg14
F-1.2769282393889605
sg15
g44
sbs(I-5
I8
tp48
g0
(g9
g2
Ntp49
Rp50
(dp51
g13
I00
sg14
F-0.7161727433837431
sg15
g48
sbs(I-5
I9
tp52
g0
(g9
g2
Ntp53
Rp54
(dp55
g13
I00
sg14
F0.8579316967103242
sg15
g52
sbs(I1640
I5
tp56
g0
(g9
g2
Ntp57
Rp58
(dp59
g13
I01
sg14
F0.5601926382677163
sg15
g56
sbs(I5
I1640
tp60
g0
(g9
g2
Ntp61
Rp62
(dp63
g13
I01
sg14
F-0.6872693865324478
sg15
g60
sbs(I1772
I1640
tp64
g0
(g9
g2
Ntp65
Rp66
(dp67
g13
I01
sg14
F0.1924634598253276
sg15
g64
sbssS'nodes'
p68
(dp69
I0
g0
(cneat.genes
DefaultNodeGene
p70
g2
Ntp71
Rp72
(dp73
S'activation'
p74
S'tanh'
p75
sS'bias'
p76
F26.826367628527397
sS'response'
p77
F1.0
sg15
I0
sS'aggregation'
p78
S'sum'
p79
sbsI1
g0
(g70
g2
Ntp80
Rp81
(dp82
g74
g75
sg76
F-29.563986962752658
sg77
F1.0
sg15
I1
sg78
g79
sbsI2
g0
(g70
g2
Ntp83
Rp84
(dp85
g74
g75
sg76
F-1.3656528715498326
sg77
F1.0
sg15
I2
sg78
g79
sbsI3
g0
(g70
g2
Ntp86
Rp87
(dp88
g74
g75
sg76
F-7.114613586674739
sg77
F1.0
sg15
I3
sg78
g79
sbsI4
g0
(g70
g2
Ntp89
Rp90
(dp91
g74
g75
sg76
F3.381673575142391
sg77
F1.0
sg15
I4
sg78
g79
sbsI5
g0
(g70
g2
Ntp92
Rp93
(dp94
g74
g75
sg76
F14.06125534818582
sg77
F1.0
sg15
I5
sg78
g79
sbsI6
g0
(g70
g2
Ntp95
Rp96
(dp97
g74
g75
sg76
F-7.049478596245118
sg77
F1.0
sg15
I6
sg78
g79
sbsI7
g0
(g70
g2
Ntp98
Rp99
(dp100
g74
g75
sg76
F-9.553463056310052
sg77
F1.0
sg15
I7
sg78
g79
sbsI8
g0
(g70
g2
Ntp101
Rp102
(dp103
g74
g75
sg76
F-21.5594732640134
sg77
F1.0
sg15
I8
sg78
g79
sbsI9
g0
(g70
g2
Ntp104
Rp105
(dp106
g74
g75
sg76
F1.9690234390916175
sg77
F1.0
sg15
I9
sg78
g79
sbsI1772
g0
(g70
g2
Ntp107
Rp108
(dp109
g74
S'relu'
p110
sg76
F8.35199984720474
sg77
F1.0
sg15
I1772
sg78
g79
sbsI546
g0
(g70
g2
Ntp111
Rp112
(dp113
g74
g75
sg76
F11.716602092157938
sg77
F1.0
sg15
I546
sg78
g79
sbsI1640
g0
(g70
g2
Ntp114
Rp115
(dp116
g74
g75
sg76
F-8.447420449790535
sg77
F1.0
sg15
I1640
sg78
g79
sbsI1562
g0
(g70
g2
Ntp117
Rp118
(dp119
g74
g75
sg76
F11.546264029415676
sg77
F1.0
sg15
I1562
sg78
g79
sbssg15
I4623
sS'fitness'
p120
F0.09242571024416746
sb.