ccopy_reg
_reconstructor
p0
(cneat.genome
DefaultGenome
p1
c__builtin__
object
p2
Ntp3
Rp4
(dp5
S'connections'
p6
(dp7
(I-8
I9
tp8
g0
(cneat.genes
DefaultConnectionGene
p9
g2
Ntp10
Rp11
(dp12
S'enabled'
p13
I00
sS'weight'
p14
F0.589196478045466
sS'key'
p15
g8
sbs(I-2
I0
tp16
g0
(g9
g2
Ntp17
Rp18
(dp19
g13
I00
sg14
F0.06993675974086089
sg15
g16
sbs(I-8
I7
tp20
g0
(g9
g2
Ntp21
Rp22
(dp23
g13
I01
sg14
F0.7877724358736838
sg15
g20
sbs(I-2
I1730
tp24
g0
(g9
g2
Ntp25
Rp26
(dp27
g13
I01
sg14
F1.312014265781707
sg15
g24
sbs(I1643
I0
tp28
g0
(g9
g2
Ntp29
Rp30
(dp31
g13
I00
sg14
F-1.2148524827404783
sg15
g28
sbs(I1730
I0
tp32
g0
(g9
g2
Ntp33
Rp34
(dp35
g13
I01
sg14
F0.25583525030513693
sg15
g32
sbs(I-8
I1699
tp36
g0
(g9
g2
Ntp37
Rp38
(dp39
g13
I01
sg14
F3.4711036951404513
sg15
g36
sbs(I-9
I0
tp40
g0
(g9
g2
Ntp41
Rp42
(dp43
g13
I00
sg14
F1.2404131595485686
sg15
g40
sbs(I1699
I7
tp44
g0
(g9
g2
Ntp45
Rp46
(dp47
g13
I01
sg14
F-0.33264929303798507
sg15
g44
sbs(I-2
I1643
tp48
g0
(g9
g2
Ntp49
Rp50
(dp51
g13
I00
sg14
F1.7666610180313342
sg15
g48
sbssS'nodes'
p52
(dp53
I0
g0
(cneat.genes
DefaultNodeGene
p54
g2
Ntp55
Rp56
(dp57
S'activation'
p58
S'tanh'
p59
sS'bias'
p60
F6.274069444084211
sS'response'
p61
F1.0
sg15
I0
sS'aggregation'
p62
S'sum'
p63
sbsI1
g0
(g54
g2
Ntp64
Rp65
(dp66
g58
g59
sg60
F-1.4694709001572228
sg61
F1.0
sg15
I1
sg62
g63
sbsI2
g0
(g54
g2
Ntp67
Rp68
(dp69
g58
g59
sg60
F2.955335779720982
sg61
F1.0
sg15
I2
sg62
g63
sbsI3
g0
(g54
g2
Ntp70
Rp71
(dp72
g58
g59
sg60
F-10.413621478279072
sg61
F1.0
sg15
I3
sg62
g63
sbsI4
g0
(g54
g2
Ntp73
Rp74
(dp75
g58
g59
sg60
F-28.3353163875075
sg61
F1.0
sg15
I4
sg62
g63
sbsI5
g0
(g54
g2
Ntp76
Rp77
(dp78
g58
g59
sg60
F13.775441496271483
sg61
F1.0
sg15
I5
sg62
g63
sbsI6
g0
(g54
g2
Ntp79
Rp80
(dp81
g58
g59
sg60
F-5.465169669268571
sg61
F1.0
sg15
I6
sg62
g63
sbsI7
g0
(g54
g2
Ntp82
Rp83
(dp84
g58
g59
sg60
F-17.636389946251946
sg61
F1.0
sg15
I7
sg62
g63
sbsI8
g0
(g54
g2
Ntp85
Rp86
(dp87
g58
g59
sg60
F-21.90050729398709
sg61
F1.0
sg15
I8
sg62
g63
sbsI9
g0
(g54
g2
Ntp88
Rp89
(dp90
g58
g59
sg60
F-4.415530302315231
sg61
F1.0
sg15
I9
sg62
g63
sbsI1643
g0
(g54
g2
Ntp91
Rp92
(dp93
g58
g59
sg60
F17.329975594355364
sg61
F1.0
sg15
I1643
sg62
g63
sbsI1730
g0
(g54
g2
Ntp94
Rp95
(dp96
g58
g59
sg60
F5.703800319361071
sg61
F1.0
sg15
I1730
sg62
g63
sbsI1699
g0
(g54
g2
Ntp97
Rp98
(dp99
g58
g59
sg60
F-1.6376589622089253
sg61
F1.0
sg15
I1699
sg62
g63
sbsI1371
g0
(g54
g2
Ntp100
Rp101
(dp102
g58
g59
sg60
F6.698078776722273
sg61
F1.0
sg15
I1371
sg62
g63
sbssg15
I4624
sS'fitness'
p103
F0.13177409513198168
sb.