ccopy_reg
_reconstructor
p0
(cneat.genome
DefaultGenome
p1
c__builtin__
object
p2
Ntp3
Rp4
(dp5
S'connections'
p6
(dp7
(I-1
I4
tp8
g0
(cneat.genes
DefaultConnectionGene
p9
g2
Ntp10
Rp11
(dp12
S'enabled'
p13
I01
sS'weight'
p14
F-0.06616082182449401
sS'key'
p15
g8
sbs(I-7
I8
tp16
g0
(g9
g2
Ntp17
Rp18
(dp19
g13
I01
sg14
F1.0995538112791545
sg15
g16
sbssS'nodes'
p20
(dp21
I0
g0
(cneat.genes
DefaultNodeGene
p22
g2
Ntp23
Rp24
(dp25
S'activation'
p26
S'tanh'
p27
sS'bias'
p28
F9.269086405386942
sS'response'
p29
F1.0
sg15
I0
sS'aggregation'
p30
S'sum'
p31
sbsI1
g0
(g22
g2
Ntp32
Rp33
(dp34
g26
g27
sg28
F22.620100580508648
sg29
F1.0
sg15
I1
sg30
g31
sbsI2
g0
(g22
g2
Ntp35
Rp36
(dp37
g26
g27
sg28
F5.188794097704469
sg29
F1.0
sg15
I2
sg30
g31
sbsI3
g0
(g22
g2
Ntp38
Rp39
(dp40
g26
g27
sg28
F2.4845285407231765
sg29
F1.0
sg15
I3
sg30
g31
sbsI4
g0
(g22
g2
Ntp41
Rp42
(dp43
g26
g27
sg28
F-7.081199845322128
sg29
F1.0
sg15
I4
sg30
g31
sbsI5
g0
(g22
g2
Ntp44
Rp45
(dp46
g26
g27
sg28
F-3.6095183761848957
sg29
F1.0
sg15
I5
sg30
g31
sbsI6
g0
(g22
g2
Ntp47
Rp48
(dp49
g26
g27
sg28
F4.8766350073585665
sg29
F1.0
sg15
I6
sg30
g31
sbsI7
g0
(g22
g2
Ntp50
Rp51
(dp52
g26
g27
sg28
F5.726446256651061
sg29
F1.0
sg15
I7
sg30
g31
sbsI8
g0
(g22
g2
Ntp53
Rp54
(dp55
g26
g27
sg28
F5.126405218145496
sg29
F1.0
sg15
I8
sg30
g31
sbsI9
g0
(g22
g2
Ntp56
Rp57
(dp58
g26
g27
sg28
F3.395568687775002
sg29
F1.0
sg15
I9
sg30
g31
sbsI1665
g0
(g22
g2
Ntp59
Rp60
(dp61
g26
g27
sg28
F-14.37757211948998
sg29
F1.0
sg15
I1665
sg30
g31
sbsI1694
g0
(g22
g2
Ntp62
Rp63
(dp64
g26
g27
sg28
F16.892779799523304
sg29
F1.0
sg15
I1694
sg30
g31
sbssg15
I4627
sS'fitness'
p65
F-0.04430076852247922
sb.