ccopy_reg
_reconstructor
p0
(cneat.genome
DefaultGenome
p1
c__builtin__
object
p2
Ntp3
Rp4
(dp5
S'connections'
p6
(dp7
(I-9
I4
tp8
g0
(cneat.genes
DefaultConnectionGene
p9
g2
Ntp10
Rp11
(dp12
S'enabled'
p13
I00
sS'weight'
p14
F-0.646893556946996
sS'key'
p15
g8
sbs(I-5
I8
tp16
g0
(g9
g2
Ntp17
Rp18
(dp19
g13
I01
sg14
F-3.4507143213698717
sg15
g16
sbs(I-2
I1567
tp20
g0
(g9
g2
Ntp21
Rp22
(dp23
g13
I00
sg14
F0.4976063209927744
sg15
g20
sbssS'nodes'
p24
(dp25
I0
g0
(cneat.genes
DefaultNodeGene
p26
g2
Ntp27
Rp28
(dp29
S'activation'
p30
S'tanh'
p31
sS'bias'
p32
F15.780807076198007
sS'response'
p33
F1.0
sg15
I0
sS'aggregation'
p34
S'sum'
p35
sbsI1
g0
(g26
g2
Ntp36
Rp37
(dp38
g30
g31
sg32
F-0.15788451996048297
sg33
F1.0
sg15
I1
sg34
g35
sbsI2
g0
(g26
g2
Ntp39
Rp40
(dp41
g30
g31
sg32
F5.492515701914862
sg33
F1.0
sg15
I2
sg34
g35
sbsI3
g0
(g26
g2
Ntp42
Rp43
(dp44
g30
g31
sg32
F1.3333028685475212
sg33
F1.0
sg15
I3
sg34
g35
sbsI4
g0
(g26
g2
Ntp45
Rp46
(dp47
g30
g31
sg32
F-7.409910569486586
sg33
F1.0
sg15
I4
sg34
g35
sbsI5
g0
(g26
g2
Ntp48
Rp49
(dp50
g30
g31
sg32
F3.1470271061366413
sg33
F1.0
sg15
I5
sg34
g35
sbsI6
g0
(g26
g2
Ntp51
Rp52
(dp53
g30
g31
sg32
F4.709893174142336
sg33
F1.0
sg15
I6
sg34
g35
sbsI7
g0
(g26
g2
Ntp54
Rp55
(dp56
g30
g31
sg32
F-6.016946232005424
sg33
F1.0
sg15
I7
sg34
g35
sbsI8
g0
(g26
g2
Ntp57
Rp58
(dp59
g30
g31
sg32
F0.6037218967174164
sg33
F1.0
sg15
I8
sg34
g35
sbsI9
g0
(g26
g2
Ntp60
Rp61
(dp62
g30
g31
sg32
F0.497826049904018
sg33
F1.0
sg15
I9
sg34
g35
sbsI1604
g0
(g26
g2
Ntp63
Rp64
(dp65
g30
g31
sg32
F-6.083941302013635
sg33
F1.0
sg15
I1604
sg34
g35
sbsI1755
g0
(g26
g2
Ntp66
Rp67
(dp68
g30
g31
sg32
F6.818504059413071
sg33
F1.0
sg15
I1755
sg34
g35
sbsI1567
g0
(g26
g2
Ntp69
Rp70
(dp71
g30
g31
sg32
F2.409627364344869
sg33
F1.0
sg15
I1567
sg34
g35
sbssg15
I4638
sS'fitness'
p72
F0.04937950193308227
sb.