ccopy_reg
_reconstructor
p0
(cneat.genome
DefaultGenome
p1
c__builtin__
object
p2
Ntp3
Rp4
(dp5
S'connections'
p6
(dp7
(I1689
I1714
tp8
g0
(cneat.genes
DefaultConnectionGene
p9
g2
Ntp10
Rp11
(dp12
S'enabled'
p13
I00
sS'weight'
p14
F0.1926258633413458
sS'key'
p15
g8
sbs(I1689
I1797
tp16
g0
(g9
g2
Ntp17
Rp18
(dp19
g13
I01
sg14
F1.1101266356385404
sg15
g16
sbs(I1797
I1714
tp20
g0
(g9
g2
Ntp21
Rp22
(dp23
g13
I01
sg14
F1.1183051046023267
sg15
g20
sbs(I0
I1714
tp24
g0
(g9
g2
Ntp25
Rp26
(dp27
g13
I01
sg14
F-1.2135671848507816
sg15
g24
sbs(I-1
I3
tp28
g0
(g9
g2
Ntp29
Rp30
(dp31
g13
I00
sg14
F2.1092399205280783
sg15
g28
sbs(I1689
I1462
tp32
g0
(g9
g2
Ntp33
Rp34
(dp35
g13
I00
sg14
F0.15649051599242603
sg15
g32
sbs(I-4
I6
tp36
g0
(g9
g2
Ntp37
Rp38
(dp39
g13
I00
sg14
F0.6643182050768381
sg15
g36
sbssS'nodes'
p40
(dp41
I0
g0
(cneat.genes
DefaultNodeGene
p42
g2
Ntp43
Rp44
(dp45
S'activation'
p46
S'tanh'
p47
sS'bias'
p48
F6.299769846301668
sS'response'
p49
F1.0
sg15
I0
sS'aggregation'
p50
S'sum'
p51
sbsI1
g0
(g42
g2
Ntp52
Rp53
(dp54
g46
g47
sg48
F-3.242222592231591
sg49
F1.0
sg15
I1
sg50
g51
sbsI2
g0
(g42
g2
Ntp55
Rp56
(dp57
g46
g47
sg48
F8.955123141475449
sg49
F1.0
sg15
I2
sg50
g51
sbsI3
g0
(g42
g2
Ntp58
Rp59
(dp60
g46
g47
sg48
F3.122475508694689
sg49
F1.0
sg15
I3
sg50
g51
sbsI4
g0
(g42
g2
Ntp61
Rp62
(dp63
g46
g47
sg48
F9.589840096734589
sg49
F1.0
sg15
I4
sg50
g51
sbsI5
g0
(g42
g2
Ntp64
Rp65
(dp66
g46
g47
sg48
F-9.094814169499227
sg49
F1.0
sg15
I5
sg50
g51
sbsI6
g0
(g42
g2
Ntp67
Rp68
(dp69
g46
g47
sg48
F-8.240951306110752
sg49
F1.0
sg15
I6
sg50
g51
sbsI7
g0
(g42
g2
Ntp70
Rp71
(dp72
g46
g47
sg48
F-7.513618402770158
sg49
F1.0
sg15
I7
sg50
g51
sbsI8
g0
(g42
g2
Ntp73
Rp74
(dp75
g46
g47
sg48
F12.06249879201925
sg49
F1.0
sg15
I8
sg50
g51
sbsI9
g0
(g42
g2
Ntp76
Rp77
(dp78
g46
g47
sg48
F5.402147376433569
sg49
F1.0
sg15
I9
sg50
g51
sbsI1714
g0
(g42
g2
Ntp79
Rp80
(dp81
g46
g47
sg48
F-2.908370606290638
sg49
F1.0
sg15
I1714
sg50
g51
sbsI1462
g0
(g42
g2
Ntp82
Rp83
(dp84
g46
g47
sg48
F13.260066716611902
sg49
F1.0
sg15
I1462
sg50
g51
sbsI1689
g0
(g42
g2
Ntp85
Rp86
(dp87
g46
g47
sg48
F-9.66251212696915
sg49
F1.0
sg15
I1689
sg50
g51
sbsI1797
g0
(g42
g2
Ntp88
Rp89
(dp90
g46
S'relu'
p91
sg48
F16.456338735905035
sg49
F1.0
sg15
I1797
sg50
g51
sbssg15
I4648
sS'fitness'
p92
Nsb.