ccopy_reg
_reconstructor
p0
(cneat.genome
DefaultGenome
p1
c__builtin__
object
p2
Ntp3
Rp4
(dp5
S'connections'
p6
(dp7
(I1418
I1637
tp8
g0
(cneat.genes
DefaultConnectionGene
p9
g2
Ntp10
Rp11
(dp12
S'enabled'
p13
I01
sS'weight'
p14
F3.851917310192224
sS'key'
p15
g8
sbs(I1418
I6
tp16
g0
(g9
g2
Ntp17
Rp18
(dp19
g13
I00
sg14
F0.20199530647253694
sg15
g16
sbs(I6
I1798
tp20
g0
(g9
g2
Ntp21
Rp22
(dp23
g13
I01
sg14
F1.1350728178292115
sg15
g20
sbs(I6
I6
tp24
g0
(g9
g2
Ntp25
Rp26
(dp27
g13
I00
sg14
F-0.10224611801097686
sg15
g24
sbs(I0
I1305
tp28
g0
(g9
g2
Ntp29
Rp30
(dp31
g13
I00
sg14
F2.1355299372725716
sg15
g28
sbs(I6
I1788
tp32
g0
(g9
g2
Ntp33
Rp34
(dp35
g13
I01
sg14
F1.6332074062236026
sg15
g32
sbs(I6
I1418
tp36
g0
(g9
g2
Ntp37
Rp38
(dp39
g13
I01
sg14
F-1.5272482217319867
sg15
g36
sbs(I1798
I6
tp40
g0
(g9
g2
Ntp41
Rp42
(dp43
g13
I01
sg14
F0.515212023180216
sg15
g40
sbs(I1637
I6
tp44
g0
(g9
g2
Ntp45
Rp46
(dp47
g13
I01
sg14
F-3.495336156039608
sg15
g44
sbs(I1
I1637
tp48
g0
(g9
g2
Ntp49
Rp50
(dp51
g13
I01
sg14
F0.6393420669727449
sg15
g48
sbs(I-6
I6
tp52
g0
(g9
g2
Ntp53
Rp54
(dp55
g13
I01
sg14
F1.987101867245248
sg15
g52
sbs(I8
I1637
tp56
g0
(g9
g2
Ntp57
Rp58
(dp59
g13
I01
sg14
F0.35748155028239326
sg15
g56
sbs(I1
I1
tp60
g0
(g9
g2
Ntp61
Rp62
(dp63
g13
I00
sg14
F2.6895620593797056
sg15
g60
sbs(I-2
I6
tp64
g0
(g9
g2
Ntp65
Rp66
(dp67
g13
I01
sg14
F-2.1379470187592657
sg15
g64
sbssS'nodes'
p68
(dp69
I0
g0
(cneat.genes
DefaultNodeGene
p70
g2
Ntp71
Rp72
(dp73
S'activation'
p74
S'tanh'
p75
sS'bias'
p76
F-34.97446498188167
sS'response'
p77
F1.0
sg15
I0
sS'aggregation'
p78
S'sum'
p79
sbsI1
g0
(g70
g2
Ntp80
Rp81
(dp82
g74
g75
sg76
F-2.7887049996853754
sg77
F1.0
sg15
I1
sg78
g79
sbsI2
g0
(g70
g2
Ntp83
Rp84
(dp85
g74
g75
sg76
F-4.2903704185538825
sg77
F1.0
sg15
I2
sg78
g79
sbsI3
g0
(g70
g2
Ntp86
Rp87
(dp88
g74
g75
sg76
F-10.389177724974617
sg77
F1.0
sg15
I3
sg78
g79
sbsI4
g0
(g70
g2
Ntp89
Rp90
(dp91
g74
g75
sg76
F0.9210846413850631
sg77
F1.0
sg15
I4
sg78
g79
sbsI5
g0
(g70
g2
Ntp92
Rp93
(dp94
g74
g75
sg76
F8.59114895891067
sg77
F1.0
sg15
I5
sg78
g79
sbsI6
g0
(g70
g2
Ntp95
Rp96
(dp97
g74
g75
sg76
F15.46826395129757
sg77
F1.0
sg15
I6
sg78
g79
sbsI7
g0
(g70
g2
Ntp98
Rp99
(dp100
g74
g75
sg76
F18.637591419827594
sg77
F1.0
sg15
I7
sg78
g79
sbsI8
g0
(g70
g2
Ntp101
Rp102
(dp103
g74
g75
sg76
F8.431459670987882
sg77
F1.0
sg15
I8
sg78
g79
sbsI9
g0
(g70
g2
Ntp104
Rp105
(dp106
g74
g75
sg76
F6.972583571937704
sg77
F1.0
sg15
I9
sg78
g79
sbsI1418
g0
(g70
g2
Ntp107
Rp108
(dp109
g74
S'relu'
p110
sg76
F-5.368194456133791
sg77
F1.0
sg15
I1418
sg78
g79
sbsI1798
g0
(g70
g2
Ntp111
Rp112
(dp113
g74
g75
sg76
F-7.3527649836654865
sg77
F1.0
sg15
I1798
sg78
g79
sbsI1305
g0
(g70
g2
Ntp114
Rp115
(dp116
g74
g75
sg76
F5.552110124842839
sg77
F1.0
sg15
I1305
sg78
g79
sbsI1788
g0
(g70
g2
Ntp117
Rp118
(dp119
g74
g75
sg76
F-2.123855911804243
sg77
F1.0
sg15
I1788
sg78
g79
sbsI1637
g0
(g70
g2
Ntp120
Rp121
(dp122
g74
g75
sg76
F-5.328213591243769
sg77
F1.0
sg15
I1637
sg78
g79
sbssg15
I4651
sS'fitness'
p123
Nsb.