ccopy_reg
_reconstructor
p0
(cneat.genome
DefaultGenome
p1
c__builtin__
object
p2
Ntp3
Rp4
(dp5
S'connections'
p6
(dp7
sS'nodes'
p8
(dp9
I0
g0
(cneat.genes
DefaultNodeGene
p10
g2
Ntp11
Rp12
(dp13
S'activation'
p14
S'tanh'
p15
sS'bias'
p16
F3.530870536736745
sS'response'
p17
F1.0
sS'key'
p18
I0
sS'aggregation'
p19
S'sum'
p20
sbsI1
g0
(g10
g2
Ntp21
Rp22
(dp23
g14
g15
sg16
F-27.336188335046028
sg17
F1.0
sg18
I1
sg19
g20
sbsI2
g0
(g10
g2
Ntp24
Rp25
(dp26
g14
g15
sg16
F-3.2437291873678014
sg17
F1.0
sg18
I2
sg19
g20
sbsI3
g0
(g10
g2
Ntp27
Rp28
(dp29
g14
g15
sg16
F0.36989942159614575
sg17
F1.0
sg18
I3
sg19
g20
sbsI4
g0
(g10
g2
Ntp30
Rp31
(dp32
g14
g15
sg16
F-3.9855158060847655
sg17
F1.0
sg18
I4
sg19
g20
sbsI5
g0
(g10
g2
Ntp33
Rp34
(dp35
g14
g15
sg16
F-9.612275572723583
sg17
F1.0
sg18
I5
sg19
g20
sbsI6
g0
(g10
g2
Ntp36
Rp37
(dp38
g14
g15
sg16
F3.4190393635695298
sg17
F1.0
sg18
I6
sg19
g20
sbsI7
g0
(g10
g2
Ntp39
Rp40
(dp41
g14
g15
sg16
F2.968321952080142
sg17
F1.0
sg18
I7
sg19
g20
sbsI8
g0
(g10
g2
Ntp42
Rp43
(dp44
g14
g15
sg16
F-13.936899133916015
sg17
F1.0
sg18
I8
sg19
g20
sbsI9
g0
(g10
g2
Ntp45
Rp46
(dp47
g14
g15
sg16
F-1.3052591599243861
sg17
F1.0
sg18
I9
sg19
g20
sbsI1390
g0
(g10
g2
Ntp48
Rp49
(dp50
g14
g15
sg16
F1.5737095103441214
sg17
F1.0
sg18
I1390
sg19
g20
sbssg18
I4652
sS'fitness'
p51
Nsb.