ccopy_reg
_reconstructor
p0
(cneat.genome
DefaultGenome
p1
c__builtin__
object
p2
Ntp3
Rp4
(dp5
S'connections'
p6
(dp7
(I-1
I1698
tp8
g0
(cneat.genes
DefaultConnectionGene
p9
g2
Ntp10
Rp11
(dp12
S'enabled'
p13
I01
sS'weight'
p14
F-1.0622554115102907
sS'key'
p15
g8
sbs(I-1
I1512
tp16
g0
(g9
g2
Ntp17
Rp18
(dp19
g13
I00
sg14
F3.541886100140578
sg15
g16
sbs(I1512
I8
tp20
g0
(g9
g2
Ntp21
Rp22
(dp23
g13
I01
sg14
F-1.2911903776875238
sg15
g20
sbs(I-5
I4
tp24
g0
(g9
g2
Ntp25
Rp26
(dp27
g13
I01
sg14
F0.1555030099397618
sg15
g24
sbs(I-4
I0
tp28
g0
(g9
g2
Ntp29
Rp30
(dp31
g13
I01
sg14
F2.923416558233017
sg15
g28
sbs(I-5
I8
tp32
g0
(g9
g2
Ntp33
Rp34
(dp35
g13
I01
sg14
F1.0099215393177492
sg15
g32
sbs(I-5
I9
tp36
g0
(g9
g2
Ntp37
Rp38
(dp39
g13
I00
sg14
F1.9401541080404927
sg15
g36
sbs(I1
I1
tp40
g0
(g9
g2
Ntp41
Rp42
(dp43
g13
I00
sg14
F2.5007796969539418
sg15
g40
sbssS'nodes'
p44
(dp45
I0
g0
(cneat.genes
DefaultNodeGene
p46
g2
Ntp47
Rp48
(dp49
S'activation'
p50
S'tanh'
p51
sS'bias'
p52
F0.3074365555103958
sS'response'
p53
F1.0
sg15
I0
sS'aggregation'
p54
S'sum'
p55
sbsI1
g0
(g46
g2
Ntp56
Rp57
(dp58
g50
g51
sg52
F-27.412701834391555
sg53
F1.0
sg15
I1
sg54
g55
sbsI2
g0
(g46
g2
Ntp59
Rp60
(dp61
g50
g51
sg52
F-3.798421336028657
sg53
F1.0
sg15
I2
sg54
g55
sbsI3
g0
(g46
g2
Ntp62
Rp63
(dp64
g50
g51
sg52
F-4.031551883009286
sg53
F1.0
sg15
I3
sg54
g55
sbsI4
g0
(g46
g2
Ntp65
Rp66
(dp67
g50
g51
sg52
F-4.894675654275797
sg53
F1.0
sg15
I4
sg54
g55
sbsI5
g0
(g46
g2
Ntp68
Rp69
(dp70
g50
g51
sg52
F-10.122698979311314
sg53
F1.0
sg15
I5
sg54
g55
sbsI6
g0
(g46
g2
Ntp71
Rp72
(dp73
g50
g51
sg52
F0.8327862090589057
sg53
F1.0
sg15
I6
sg54
g55
sbsI7
g0
(g46
g2
Ntp74
Rp75
(dp76
g50
g51
sg52
F0.027723038866838128
sg53
F1.0
sg15
I7
sg54
g55
sbsI8
g0
(g46
g2
Ntp77
Rp78
(dp79
g50
g51
sg52
F22.410302091562542
sg53
F1.0
sg15
I8
sg54
g55
sbsI9
g0
(g46
g2
Ntp80
Rp81
(dp82
g50
g51
sg52
F-0.21946088525081564
sg53
F1.0
sg15
I9
sg54
g55
sbsI1698
g0
(g46
g2
Ntp83
Rp84
(dp85
g50
g51
sg52
F-9.842954127959443
sg53
F1.0
sg15
I1698
sg54
g55
sbsI1512
g0
(g46
g2
Ntp86
Rp87
(dp88
g50
g51
sg52
F1.6857267919123733
sg53
F1.0
sg15
I1512
sg54
g55
sbsI954
g0
(g46
g2
Ntp89
Rp90
(dp91
g50
g51
sg52
F9.471570847355148
sg53
F1.0
sg15
I954
sg54
g55
sbssg15
I4653
sS'fitness'
p92
Nsb.