ccopy_reg
_reconstructor
p0
(cneat.genome
DefaultGenome
p1
c__builtin__
object
p2
Ntp3
Rp4
(dp5
S'connections'
p6
(dp7
(I-1
I1698
tp8
g0
(cneat.genes
DefaultConnectionGene
p9
g2
Ntp10
Rp11
(dp12
S'enabled'
p13
I01
sS'weight'
p14
F0.641545256511427
sS'key'
p15
g8
sbs(I-1
I1512
tp16
g0
(g9
g2
Ntp17
Rp18
(dp19
g13
I00
sg14
F1.932986820636167
sg15
g16
sbs(I1512
I8
tp20
g0
(g9
g2
Ntp21
Rp22
(dp23
g13
I01
sg14
F-0.6610332191329105
sg15
g20
sbs(I-4
I0
tp24
g0
(g9
g2
Ntp25
Rp26
(dp27
g13
I01
sg14
F1.5043854172270708
sg15
g24
sbs(I-5
I8
tp28
g0
(g9
g2
Ntp29
Rp30
(dp31
g13
I01
sg14
F1.5033004918021116
sg15
g28
sbs(I-5
I9
tp32
g0
(g9
g2
Ntp33
Rp34
(dp35
g13
I00
sg14
F2.109483019103939
sg15
g32
sbs(I1
I1
tp36
g0
(g9
g2
Ntp37
Rp38
(dp39
g13
I00
sg14
F1.5996600625289763
sg15
g36
sbssS'nodes'
p40
(dp41
I0
g0
(cneat.genes
DefaultNodeGene
p42
g2
Ntp43
Rp44
(dp45
S'activation'
p46
S'tanh'
p47
sS'bias'
p48
F-1.3253772507721469
sS'response'
p49
F1.0
sg15
I0
sS'aggregation'
p50
S'sum'
p51
sbsI1
g0
(g42
g2
Ntp52
Rp53
(dp54
g46
g47
sg48
F-27.683871642528903
sg49
F1.0
sg15
I1
sg50
g51
sbsI2
g0
(g42
g2
Ntp55
Rp56
(dp57
g46
g47
sg48
F-4.419287220646126
sg49
F1.0
sg15
I2
sg50
g51
sbsI3
g0
(g42
g2
Ntp58
Rp59
(dp60
g46
g47
sg48
F-4.147005686994994
sg49
F1.0
sg15
I3
sg50
g51
sbsI4
g0
(g42
g2
Ntp61
Rp62
(dp63
g46
g47
sg48
F-16.679308308939603
sg49
F1.0
sg15
I4
sg50
g51
sbsI5
g0
(g42
g2
Ntp64
Rp65
(dp66
g46
g47
sg48
F-10.338383221014686
sg49
F1.0
sg15
I5
sg50
g51
sbsI6
g0
(g42
g2
Ntp67
Rp68
(dp69
g46
g47
sg48
F0.010757571105177832
sg49
F1.0
sg15
I6
sg50
g51
sbsI7
g0
(g42
g2
Ntp70
Rp71
(dp72
g46
g47
sg48
F11.41042149389607
sg49
F1.0
sg15
I7
sg50
g51
sbsI8
g0
(g42
g2
Ntp73
Rp74
(dp75
g46
g47
sg48
F21.19538491472018
sg49
F1.0
sg15
I8
sg50
g51
sbsI9
g0
(g42
g2
Ntp76
Rp77
(dp78
g46
g47
sg48
F-1.2109195567476045
sg49
F1.0
sg15
I9
sg50
g51
sbsI1698
g0
(g42
g2
Ntp79
Rp80
(dp81
g46
g47
sg48
F-9.823618146013617
sg49
F1.0
sg15
I1698
sg50
g51
sbsI1512
g0
(g42
g2
Ntp82
Rp83
(dp84
g46
g47
sg48
F-1.684432619869261
sg49
F1.0
sg15
I1512
sg50
g51
sbssg15
I4654
sS'fitness'
p85
Nsb.