ccopy_reg
_reconstructor
p0
(cneat.genome
DefaultGenome
p1
c__builtin__
object
p2
Ntp3
Rp4
(dp5
S'connections'
p6
(dp7
(I-5
I2
tp8
g0
(cneat.genes
DefaultConnectionGene
p9
g2
Ntp10
Rp11
(dp12
S'enabled'
p13
I01
sS'weight'
p14
F2.6112447340403193
sS'key'
p15
g8
sbs(I-2
I7
tp16
g0
(g9
g2
Ntp17
Rp18
(dp19
g13
I01
sg14
F-2.2326794116431534
sg15
g16
sbs(I-2
I0
tp20
g0
(g9
g2
Ntp21
Rp22
(dp23
g13
I01
sg14
F0.6596246835902644
sg15
g20
sbs(I-3
I3
tp24
g0
(g9
g2
Ntp25
Rp26
(dp27
g13
I01
sg14
F-0.2137224583367981
sg15
g24
sbssS'nodes'
p28
(dp29
I0
g0
(cneat.genes
DefaultNodeGene
p30
g2
Ntp31
Rp32
(dp33
S'activation'
p34
S'tanh'
p35
sS'bias'
p36
F6.0876104506236315
sS'response'
p37
F1.0
sg15
I0
sS'aggregation'
p38
S'sum'
p39
sbsI1
g0
(g30
g2
Ntp40
Rp41
(dp42
g34
g35
sg36
F-12.881712807409919
sg37
F1.0
sg15
I1
sg38
g39
sbsI2
g0
(g30
g2
Ntp43
Rp44
(dp45
g34
g35
sg36
F6.2456504325665065
sg37
F1.0
sg15
I2
sg38
g39
sbsI3
g0
(g30
g2
Ntp46
Rp47
(dp48
g34
g35
sg36
F4.170187352539742
sg37
F1.0
sg15
I3
sg38
g39
sbsI4
g0
(g30
g2
Ntp49
Rp50
(dp51
g34
g35
sg36
F7.222701874031039
sg37
F1.0
sg15
I4
sg38
g39
sbsI5
g0
(g30
g2
Ntp52
Rp53
(dp54
g34
g35
sg36
F1.6932218161278962
sg37
F1.0
sg15
I5
sg38
g39
sbsI6
g0
(g30
g2
Ntp55
Rp56
(dp57
g34
g35
sg36
F-16.45090481271056
sg37
F1.0
sg15
I6
sg38
g39
sbsI7
g0
(g30
g2
Ntp58
Rp59
(dp60
g34
g35
sg36
F1.03161130445489
sg37
F1.0
sg15
I7
sg38
g39
sbsI8
g0
(g30
g2
Ntp61
Rp62
(dp63
g34
g35
sg36
F13.825391394900384
sg37
F1.0
sg15
I8
sg38
g39
sbsI9
g0
(g30
g2
Ntp64
Rp65
(dp66
g34
g35
sg36
F-6.8591912944550115
sg37
F1.0
sg15
I9
sg38
g39
sbssg15
I4656
sS'fitness'
p67
Nsb.