ccopy_reg
_reconstructor
p0
(cneat.genome
DefaultGenome
p1
c__builtin__
object
p2
Ntp3
Rp4
(dp5
S'connections'
p6
(dp7
(I-7
I1776
tp8
g0
(cneat.genes
DefaultConnectionGene
p9
g2
Ntp10
Rp11
(dp12
S'enabled'
p13
I01
sS'weight'
p14
F1.5374249936097624
sS'key'
p15
g8
sbs(I-5
I1670
tp16
g0
(g9
g2
Ntp17
Rp18
(dp19
g13
I00
sg14
F-1.9052255805589962
sg15
g16
sbs(I-4
I6
tp20
g0
(g9
g2
Ntp21
Rp22
(dp23
g13
I00
sg14
F-0.4713018783877389
sg15
g20
sbs(I-7
I0
tp24
g0
(g9
g2
Ntp25
Rp26
(dp27
g13
I00
sg14
F-0.029932414380995087
sg15
g24
sbs(I1776
I0
tp28
g0
(g9
g2
Ntp29
Rp30
(dp31
g13
I01
sg14
F-1.0693453363302199
sg15
g28
sbs(I1
I1
tp32
g0
(g9
g2
Ntp33
Rp34
(dp35
g13
I01
sg14
F-0.5607435965585925
sg15
g32
sbssS'nodes'
p36
(dp37
I0
g0
(cneat.genes
DefaultNodeGene
p38
g2
Ntp39
Rp40
(dp41
S'activation'
p42
S'tanh'
p43
sS'bias'
p44
F-6.706811251720396
sS'response'
p45
F1.0
sg15
I0
sS'aggregation'
p46
S'sum'
p47
sbsI1
g0
(g38
g2
Ntp48
Rp49
(dp50
g42
g43
sg44
F5.024662572854483
sg45
F1.0
sg15
I1
sg46
g47
sbsI2
g0
(g38
g2
Ntp51
Rp52
(dp53
g42
g43
sg44
F24.203623062625223
sg45
F1.0
sg15
I2
sg46
g47
sbsI3
g0
(g38
g2
Ntp54
Rp55
(dp56
g42
g43
sg44
F0.43128925022402737
sg45
F1.0
sg15
I3
sg46
g47
sbsI4
g0
(g38
g2
Ntp57
Rp58
(dp59
g42
g43
sg44
F8.202145127152034
sg45
F1.0
sg15
I4
sg46
g47
sbsI5
g0
(g38
g2
Ntp60
Rp61
(dp62
g42
g43
sg44
F-3.359573597547029
sg45
F1.0
sg15
I5
sg46
g47
sbsI6
g0
(g38
g2
Ntp63
Rp64
(dp65
g42
g43
sg44
F1.4430832362878296
sg45
F1.0
sg15
I6
sg46
g47
sbsI7
g0
(g38
g2
Ntp66
Rp67
(dp68
g42
g43
sg44
F-12.911214279416729
sg45
F1.0
sg15
I7
sg46
g47
sbsI8
g0
(g38
g2
Ntp69
Rp70
(dp71
g42
g43
sg44
F7.138715312545805
sg45
F1.0
sg15
I8
sg46
g47
sbsI9
g0
(g38
g2
Ntp72
Rp73
(dp74
g42
g43
sg44
F7.352340302819548
sg45
F1.0
sg15
I9
sg46
g47
sbsI1670
g0
(g38
g2
Ntp75
Rp76
(dp77
g42
g43
sg44
F-9.567496610481166
sg45
F1.0
sg15
I1670
sg46
g47
sbsI1776
g0
(g38
g2
Ntp78
Rp79
(dp80
g42
g43
sg44
F7.275784836544903
sg45
F1.0
sg15
I1776
sg46
g47
sbssg15
I4658
sS'fitness'
p81
Nsb.