ccopy_reg
_reconstructor
p0
(cneat.genome
DefaultGenome
p1
c__builtin__
object
p2
Ntp3
Rp4
(dp5
S'connections'
p6
(dp7
(I-5
I0
tp8
g0
(cneat.genes
DefaultConnectionGene
p9
g2
Ntp10
Rp11
(dp12
S'enabled'
p13
I01
sS'weight'
p14
F0.7125284567273559
sS'key'
p15
g8
sbs(I1799
I0
tp16
g0
(g9
g2
Ntp17
Rp18
(dp19
g13
I01
sg14
F-0.15900592684626852
sg15
g16
sbs(I-7
I1799
tp20
g0
(g9
g2
Ntp21
Rp22
(dp23
g13
I01
sg14
F1.4222086773306584
sg15
g20
sbs(I-7
I0
tp24
g0
(g9
g2
Ntp25
Rp26
(dp27
g13
I00
sg14
F-0.3749384904304299
sg15
g24
sbs(I-4
I6
tp28
g0
(g9
g2
Ntp29
Rp30
(dp31
g13
I00
sg14
F-0.1602905902609334
sg15
g28
sbssS'nodes'
p32
(dp33
I0
g0
(cneat.genes
DefaultNodeGene
p34
g2
Ntp35
Rp36
(dp37
S'activation'
p38
S'tanh'
p39
sS'bias'
p40
F-6.385959120738348
sS'response'
p41
F1.0
sg15
I0
sS'aggregation'
p42
S'sum'
p43
sbsI1
g0
(g34
g2
Ntp44
Rp45
(dp46
g38
g39
sg40
F-4.890539318859405
sg41
F1.0
sg15
I1
sg42
g43
sbsI2
g0
(g34
g2
Ntp47
Rp48
(dp49
g38
g39
sg40
F24.073746675816533
sg41
F1.0
sg15
I2
sg42
g43
sbsI3
g0
(g34
g2
Ntp50
Rp51
(dp52
g38
g39
sg40
F1.122309719619774
sg41
F1.0
sg15
I3
sg42
g43
sbsI4
g0
(g34
g2
Ntp53
Rp54
(dp55
g38
g39
sg40
F-15.013961757877452
sg41
F1.0
sg15
I4
sg42
g43
sbsI5
g0
(g34
g2
Ntp56
Rp57
(dp58
g38
g39
sg40
F-2.608861987756198
sg41
F1.0
sg15
I5
sg42
g43
sbsI6
g0
(g34
g2
Ntp59
Rp60
(dp61
g38
g39
sg40
F1.390278059711843
sg41
F1.0
sg15
I6
sg42
g43
sbsI7
g0
(g34
g2
Ntp62
Rp63
(dp64
g38
g39
sg40
F8.586955927336458
sg41
F1.0
sg15
I7
sg42
g43
sbsI8
g0
(g34
g2
Ntp65
Rp66
(dp67
g38
g39
sg40
F-13.543782695607433
sg41
F1.0
sg15
I8
sg42
g43
sbsI9
g0
(g34
g2
Ntp68
Rp69
(dp70
g38
g39
sg40
F6.859602458403145
sg41
F1.0
sg15
I9
sg42
g43
sbsI1799
g0
(g34
g2
Ntp71
Rp72
(dp73
g38
S'relu'
p74
sg40
F-24.129286737841994
sg41
F1.0
sg15
I1799
sg42
g43
sbssg15
I4659
sS'fitness'
p75
Nsb.