ccopy_reg
_reconstructor
p0
(cneat.genome
DefaultGenome
p1
c__builtin__
object
p2
Ntp3
Rp4
(dp5
S'connections'
p6
(dp7
(I-9
I4
tp8
g0
(cneat.genes
DefaultConnectionGene
p9
g2
Ntp10
Rp11
(dp12
S'enabled'
p13
I00
sS'weight'
p14
F-1.159102663786646
sS'key'
p15
g8
sbs(I-5
I8
tp16
g0
(g9
g2
Ntp17
Rp18
(dp19
g13
I00
sg14
F-4.034992626834419
sg15
g16
sbs(I-5
I1800
tp20
g0
(g9
g2
Ntp21
Rp22
(dp23
g13
I01
sg14
F0.21720386176627637
sg15
g20
sbs(I1800
I8
tp24
g0
(g9
g2
Ntp25
Rp26
(dp27
g13
I01
sg14
F-4.5054356071071275
sg15
g24
sbssS'nodes'
p28
(dp29
I0
g0
(cneat.genes
DefaultNodeGene
p30
g2
Ntp31
Rp32
(dp33
S'activation'
p34
S'tanh'
p35
sS'bias'
p36
F23.409856787385348
sS'response'
p37
F1.0
sg15
I0
sS'aggregation'
p38
S'sum'
p39
sbsI1
g0
(g30
g2
Ntp40
Rp41
(dp42
g34
g35
sg36
F-0.23768821933959183
sg37
F1.0
sg15
I1
sg38
g39
sbsI2
g0
(g30
g2
Ntp43
Rp44
(dp45
g34
g35
sg36
F13.556018725303186
sg37
F1.0
sg15
I2
sg38
g39
sbsI3
g0
(g30
g2
Ntp46
Rp47
(dp48
g34
g35
sg36
F1.963021217746213
sg37
F1.0
sg15
I3
sg38
g39
sbsI4
g0
(g30
g2
Ntp49
Rp50
(dp51
g34
g35
sg36
F-0.29303495418916076
sg37
F1.0
sg15
I4
sg38
g39
sbsI5
g0
(g30
g2
Ntp52
Rp53
(dp54
g34
g35
sg36
F11.55113810476584
sg37
F1.0
sg15
I5
sg38
g39
sbsI6
g0
(g30
g2
Ntp55
Rp56
(dp57
g34
g35
sg36
F2.5065251366482713
sg37
F1.0
sg15
I6
sg38
g39
sbsI7
g0
(g30
g2
Ntp58
Rp59
(dp60
g34
g35
sg36
F-5.258217807024201
sg37
F1.0
sg15
I7
sg38
g39
sbsI8
g0
(g30
g2
Ntp61
Rp62
(dp63
g34
g35
sg36
F0.5137301437254538
sg37
F1.0
sg15
I8
sg38
g39
sbsI9
g0
(g30
g2
Ntp64
Rp65
(dp66
g34
g35
sg36
F-13.324038406744094
sg37
F1.0
sg15
I9
sg38
g39
sbsI1800
g0
(g30
g2
Ntp67
Rp68
(dp69
g34
S'relu'
p70
sg36
F-20.487341019026786
sg37
F1.0
sg15
I1800
sg38
g39
sbsI1604
g0
(g30
g2
Ntp71
Rp72
(dp73
g34
g35
sg36
F-5.674571759043483
sg37
F1.0
sg15
I1604
sg38
g39
sbsI1755
g0
(g30
g2
Ntp74
Rp75
(dp76
g34
g35
sg36
F-4.6682897696431045
sg37
F1.0
sg15
I1755
sg38
g39
sbssg15
I4661
sS'fitness'
p77
Nsb.