ccopy_reg
_reconstructor
p0
(cneat.genome
DefaultGenome
p1
c__builtin__
object
p2
Ntp3
Rp4
(dp5
S'connections'
p6
(dp7
(I-6
I9
tp8
g0
(cneat.genes
DefaultConnectionGene
p9
g2
Ntp10
Rp11
(dp12
S'enabled'
p13
I00
sS'weight'
p14
F-0.814076918368597
sS'key'
p15
g8
sbs(I-4
I8
tp16
g0
(g9
g2
Ntp17
Rp18
(dp19
g13
I00
sg14
F-0.4441278613755649
sg15
g16
sbssS'nodes'
p20
(dp21
I0
g0
(cneat.genes
DefaultNodeGene
p22
g2
Ntp23
Rp24
(dp25
S'activation'
p26
S'tanh'
p27
sS'bias'
p28
F16.475922601970392
sS'response'
p29
F1.0
sg15
I0
sS'aggregation'
p30
S'sum'
p31
sbsI1
g0
(g22
g2
Ntp32
Rp33
(dp34
g26
g27
sg28
F20.161517008437485
sg29
F1.0
sg15
I1
sg30
g31
sbsI2
g0
(g22
g2
Ntp35
Rp36
(dp37
g26
g27
sg28
F9.581788971150608
sg29
F1.0
sg15
I2
sg30
g31
sbsI3
g0
(g22
g2
Ntp38
Rp39
(dp40
g26
g27
sg28
F-9.225052901492248
sg29
F1.0
sg15
I3
sg30
g31
sbsI4
g0
(g22
g2
Ntp41
Rp42
(dp43
g26
g27
sg28
F6.970197610967113
sg29
F1.0
sg15
I4
sg30
g31
sbsI5
g0
(g22
g2
Ntp44
Rp45
(dp46
g26
g27
sg28
F19.11703911909513
sg29
F1.0
sg15
I5
sg30
g31
sbsI6
g0
(g22
g2
Ntp47
Rp48
(dp49
g26
g27
sg28
F-5.761898733016731
sg29
F1.0
sg15
I6
sg30
g31
sbsI7
g0
(g22
g2
Ntp50
Rp51
(dp52
g26
g27
sg28
F3.819799752237161
sg29
F1.0
sg15
I7
sg30
g31
sbsI8
g0
(g22
g2
Ntp53
Rp54
(dp55
g26
g27
sg28
F-5.391012792714433
sg29
F1.0
sg15
I8
sg30
g31
sbsI9
g0
(g22
g2
Ntp56
Rp57
(dp58
g26
g27
sg28
F-11.08961150215129
sg29
F1.0
sg15
I9
sg30
g31
sbsI1746
g0
(g22
g2
Ntp59
Rp60
(dp61
g26
g27
sg28
F-18.602724733684976
sg29
F1.0
sg15
I1746
sg30
g31
sbssg15
I4664
sS'fitness'
p62
Nsb.