ccopy_reg
_reconstructor
p0
(cneat.genome
DefaultGenome
p1
c__builtin__
object
p2
Ntp3
Rp4
(dp5
S'connections'
p6
(dp7
(I1
I1678
tp8
g0
(cneat.genes
DefaultConnectionGene
p9
g2
Ntp10
Rp11
(dp12
S'enabled'
p13
I01
sS'weight'
p14
F0.230009089748189
sS'key'
p15
g8
sbs(I-4
I6
tp16
g0
(g9
g2
Ntp17
Rp18
(dp19
g13
I00
sg14
F-0.2180675404280441
sg15
g16
sbs(I-5
I1639
tp20
g0
(g9
g2
Ntp21
Rp22
(dp23
g13
I01
sg14
F1.2711298477599149
sg15
g20
sbs(I1678
I1
tp24
g0
(g9
g2
Ntp25
Rp26
(dp27
g13
I00
sg14
F1.6278296749731664
sg15
g24
sbs(I1462
I7
tp28
g0
(g9
g2
Ntp29
Rp30
(dp31
g13
I00
sg14
F0.2393642187380282
sg15
g28
sbs(I-10
I8
tp32
g0
(g9
g2
Ntp33
Rp34
(dp35
g13
I01
sg14
F-0.6972026766949776
sg15
g32
sbs(I1639
I1462
tp36
g0
(g9
g2
Ntp37
Rp38
(dp39
g13
I01
sg14
F1.1132228224029133
sg15
g36
sbssS'nodes'
p40
(dp41
I0
g0
(cneat.genes
DefaultNodeGene
p42
g2
Ntp43
Rp44
(dp45
S'activation'
p46
S'tanh'
p47
sS'bias'
p48
F22.737350241558286
sS'response'
p49
F1.0
sg15
I0
sS'aggregation'
p50
S'sum'
p51
sbsI1
g0
(g42
g2
Ntp52
Rp53
(dp54
g46
g47
sg48
F-0.23097296782205462
sg49
F1.0
sg15
I1
sg50
g51
sbsI2
g0
(g42
g2
Ntp55
Rp56
(dp57
g46
g47
sg48
F-7.175763077833242
sg49
F1.0
sg15
I2
sg50
g51
sbsI3
g0
(g42
g2
Ntp58
Rp59
(dp60
g46
g47
sg48
F7.8233671580382005
sg49
F1.0
sg15
I3
sg50
g51
sbsI4
g0
(g42
g2
Ntp61
Rp62
(dp63
g46
g47
sg48
F-13.123359116288185
sg49
F1.0
sg15
I4
sg50
g51
sbsI5
g0
(g42
g2
Ntp64
Rp65
(dp66
g46
g47
sg48
F13.417342250111325
sg49
F1.0
sg15
I5
sg50
g51
sbsI6
g0
(g42
g2
Ntp67
Rp68
(dp69
g46
g47
sg48
F-1.6058162380492151
sg49
F1.0
sg15
I6
sg50
g51
sbsI7
g0
(g42
g2
Ntp70
Rp71
(dp72
g46
g47
sg48
F-6.092027543668306
sg49
F1.0
sg15
I7
sg50
g51
sbsI8
g0
(g42
g2
Ntp73
Rp74
(dp75
g46
g47
sg48
F-2.228786713460679
sg49
F1.0
sg15
I8
sg50
g51
sbsI9
g0
(g42
g2
Ntp76
Rp77
(dp78
g46
g47
sg48
F-3.5777771861672814
sg49
F1.0
sg15
I9
sg50
g51
sbsI1639
g0
(g42
g2
Ntp79
Rp80
(dp81
g46
g47
sg48
F17.22315761015847
sg49
F1.0
sg15
I1639
sg50
g51
sbsI1678
g0
(g42
g2
Ntp82
Rp83
(dp84
g46
g47
sg48
F-18.844274566370725
sg49
F1.0
sg15
I1678
sg50
g51
sbsI1462
g0
(g42
g2
Ntp85
Rp86
(dp87
g46
g47
sg48
F20.44799224428667
sg49
F1.0
sg15
I1462
sg50
g51
sbssg15
I4665
sS'fitness'
p88
Nsb.