ccopy_reg
_reconstructor
p0
(cneat.genome
DefaultGenome
p1
c__builtin__
object
p2
Ntp3
Rp4
(dp5
S'connections'
p6
(dp7
(I-5
I1562
tp8
g0
(cneat.genes
DefaultConnectionGene
p9
g2
Ntp10
Rp11
(dp12
S'enabled'
p13
I01
sS'weight'
p14
F-2.5676012576411456
sS'key'
p15
g8
sbs(I5
I5
tp16
g0
(g9
g2
Ntp17
Rp18
(dp19
g13
I00
sg14
F1.5637660487038576
sg15
g16
sbs(I5
I1803
tp20
g0
(g9
g2
Ntp21
Rp22
(dp23
g13
I01
sg14
F1.808750912652994
sg15
g20
sbs(I1562
I0
tp24
g0
(g9
g2
Ntp25
Rp26
(dp27
g13
I00
sg14
F0.7984284111627429
sg15
g24
sbs(I5
I1772
tp28
g0
(g9
g2
Ntp29
Rp30
(dp31
g13
I00
sg14
F-0.12514606882495966
sg15
g28
sbs(I-7
I6
tp32
g0
(g9
g2
Ntp33
Rp34
(dp35
g13
I00
sg14
F3.8880295250201686
sg15
g32
sbs(I1562
I9
tp36
g0
(g9
g2
Ntp37
Rp38
(dp39
g13
I01
sg14
F2.0793478915114347
sg15
g36
sbs(I1803
I1772
tp40
g0
(g9
g2
Ntp41
Rp42
(dp43
g13
I01
sg14
F0.9212563690003855
sg15
g40
sbs(I-5
I4
tp44
g0
(g9
g2
Ntp45
Rp46
(dp47
g13
I01
sg14
F-1.4195720987567133
sg15
g44
sbs(I1772
I3
tp48
g0
(g9
g2
Ntp49
Rp50
(dp51
g13
I01
sg14
F-2.42995043267531
sg15
g48
sbs(I-4
I0
tp52
g0
(g9
g2
Ntp53
Rp54
(dp55
g13
I01
sg14
F-0.4622602982030657
sg15
g52
sbs(I-5
I8
tp56
g0
(g9
g2
Ntp57
Rp58
(dp59
g13
I00
sg14
F0.5890063284069776
sg15
g56
sbs(I-5
I9
tp60
g0
(g9
g2
Ntp61
Rp62
(dp63
g13
I00
sg14
F1.2327577780111518
sg15
g60
sbs(I1640
I5
tp64
g0
(g9
g2
Ntp65
Rp66
(dp67
g13
I00
sg14
F0.43419158874056063
sg15
g64
sbs(I5
I1640
tp68
g0
(g9
g2
Ntp69
Rp70
(dp71
g13
I01
sg14
F1.8513160280524577
sg15
g68
sbs(I-2
I6
tp72
g0
(g9
g2
Ntp73
Rp74
(dp75
g13
I01
sg14
F-0.25591395931779215
sg15
g72
sbssS'nodes'
p76
(dp77
I0
g0
(cneat.genes
DefaultNodeGene
p78
g2
Ntp79
Rp80
(dp81
S'activation'
p82
S'tanh'
p83
sS'bias'
p84
F26.094119377312833
sS'response'
p85
F1.0
sg15
I0
sS'aggregation'
p86
S'sum'
p87
sbsI1
g0
(g78
g2
Ntp88
Rp89
(dp90
g82
g83
sg84
F-30.134011662459987
sg85
F1.0
sg15
I1
sg86
g87
sbsI2
g0
(g78
g2
Ntp91
Rp92
(dp93
g82
g83
sg84
F-1.5248573670025096
sg85
F1.0
sg15
I2
sg86
g87
sbsI3
g0
(g78
g2
Ntp94
Rp95
(dp96
g82
g83
sg84
F-6.8798683412124335
sg85
F1.0
sg15
I3
sg86
g87
sbsI4
g0
(g78
g2
Ntp97
Rp98
(dp99
g82
g83
sg84
F4.196361516521388
sg85
F1.0
sg15
I4
sg86
g87
sbsI5
g0
(g78
g2
Ntp100
Rp101
(dp102
g82
g83
sg84
F14.790311821592171
sg85
F1.0
sg15
I5
sg86
g87
sbsI6
g0
(g78
g2
Ntp103
Rp104
(dp105
g82
g83
sg84
F-7.844786693391568
sg85
F1.0
sg15
I6
sg86
g87
sbsI7
g0
(g78
g2
Ntp106
Rp107
(dp108
g82
g83
sg84
F-9.651464763133848
sg85
F1.0
sg15
I7
sg86
g87
sbsI8
g0
(g78
g2
Ntp109
Rp110
(dp111
g82
g83
sg84
F-22.077341600062375
sg85
F1.0
sg15
I8
sg86
g87
sbsI9
g0
(g78
g2
Ntp112
Rp113
(dp114
g82
g83
sg84
F14.563076599620086
sg85
F1.0
sg15
I9
sg86
g87
sbsI1803
g0
(g78
g2
Ntp115
Rp116
(dp117
g82
S'relu'
p118
sg84
F11.895801891241131
sg85
F1.0
sg15
I1803
sg86
g87
sbsI1772
g0
(g78
g2
Ntp119
Rp120
(dp121
g82
g118
sg84
F-23.521161142293746
sg85
F1.0
sg15
I1772
sg86
g87
sbsI546
g0
(g78
g2
Ntp122
Rp123
(dp124
g82
g83
sg84
F10.460810701854676
sg85
F1.0
sg15
I546
sg86
g87
sbsI1640
g0
(g78
g2
Ntp125
Rp126
(dp127
g82
g83
sg84
F-1.4050725987417545
sg85
F1.0
sg15
I1640
sg86
g87
sbsI1562
g0
(g78
g2
Ntp128
Rp129
(dp130
g82
g83
sg84
F11.021486234586657
sg85
F1.0
sg15
I1562
sg86
g87
sbssg15
I4666
sS'fitness'
p131
Nsb.