ccopy_reg
_reconstructor
p0
(cneat.genome
DefaultGenome
p1
c__builtin__
object
p2
Ntp3
Rp4
(dp5
S'connections'
p6
(dp7
(I-5
I1562
tp8
g0
(cneat.genes
DefaultConnectionGene
p9
g2
Ntp10
Rp11
(dp12
S'enabled'
p13
I01
sS'weight'
p14
F-2.339491200528554
sS'key'
p15
g8
sbs(I1562
I954
tp16
g0
(g9
g2
Ntp17
Rp18
(dp19
g13
I01
sg14
F1.0041180308672952
sg15
g16
sbs(I1562
I0
tp20
g0
(g9
g2
Ntp21
Rp22
(dp23
g13
I00
sg14
F0.759476752697075
sg15
g20
sbs(I-7
I6
tp24
g0
(g9
g2
Ntp25
Rp26
(dp27
g13
I00
sg14
F2.994158085652119
sg15
g24
sbs(I1562
I9
tp28
g0
(g9
g2
Ntp29
Rp30
(dp31
g13
I01
sg14
F2.932825350690993
sg15
g28
sbs(I1771
I0
tp32
g0
(g9
g2
Ntp33
Rp34
(dp35
g13
I01
sg14
F-0.11418607968631611
sg15
g32
sbs(I4
I954
tp36
g0
(g9
g2
Ntp37
Rp38
(dp39
g13
I01
sg14
F-0.29523902606584396
sg15
g36
sbs(I1562
I1771
tp40
g0
(g9
g2
Ntp41
Rp42
(dp43
g13
I01
sg14
F-2.688633215126853
sg15
g40
sbs(I-5
I8
tp44
g0
(g9
g2
Ntp45
Rp46
(dp47
g13
I00
sg14
F0.7374632101555623
sg15
g44
sbs(I-5
I546
tp48
g0
(g9
g2
Ntp49
Rp50
(dp51
g13
I01
sg14
F-1.559433637832305
sg15
g48
sbs(I-5
I9
tp52
g0
(g9
g2
Ntp53
Rp54
(dp55
g13
I00
sg14
F1.5227159419810827
sg15
g52
sbssS'nodes'
p56
(dp57
I0
g0
(cneat.genes
DefaultNodeGene
p58
g2
Ntp59
Rp60
(dp61
S'activation'
p62
S'tanh'
p63
sS'bias'
p64
F26.736763120324078
sS'response'
p65
F1.0
sg15
I0
sS'aggregation'
p66
S'sum'
p67
sbsI1
g0
(g58
g2
Ntp68
Rp69
(dp70
g62
g63
sg64
F-29.35413428626227
sg65
F1.0
sg15
I1
sg66
g67
sbsI2
g0
(g58
g2
Ntp71
Rp72
(dp73
g62
g63
sg64
F-1.1818354801776705
sg65
F1.0
sg15
I2
sg66
g67
sbsI3
g0
(g58
g2
Ntp74
Rp75
(dp76
g62
g63
sg64
F-5.196106001160787
sg65
F1.0
sg15
I3
sg66
g67
sbsI4
g0
(g58
g2
Ntp77
Rp78
(dp79
g62
g63
sg64
F4.001687310581508
sg65
F1.0
sg15
I4
sg66
g67
sbsI5
g0
(g58
g2
Ntp80
Rp81
(dp82
g62
g63
sg64
F-11.176513136561173
sg65
F1.0
sg15
I5
sg66
g67
sbsI6
g0
(g58
g2
Ntp83
Rp84
(dp85
g62
g63
sg64
F-26.02789781940376
sg65
F1.0
sg15
I6
sg66
g67
sbsI7
g0
(g58
g2
Ntp86
Rp87
(dp88
g62
g63
sg64
F-9.232809753362393
sg65
F1.0
sg15
I7
sg66
g67
sbsI8
g0
(g58
g2
Ntp89
Rp90
(dp91
g62
g63
sg64
F10.395717142698178
sg65
F1.0
sg15
I8
sg66
g67
sbsI9
g0
(g58
g2
Ntp92
Rp93
(dp94
g62
g63
sg64
F15.814493526655808
sg65
F1.0
sg15
I9
sg66
g67
sbsI1771
g0
(g58
g2
Ntp95
Rp96
(dp97
g62
g63
sg64
F9.253429920308678
sg65
F1.0
sg15
I1771
sg66
g67
sbsI546
g0
(g58
g2
Ntp98
Rp99
(dp100
g62
g63
sg64
F-11.61138571451081
sg65
F1.0
sg15
I546
sg66
g67
sbsI954
g0
(g58
g2
Ntp101
Rp102
(dp103
g62
g63
sg64
F3.4394075940874353
sg65
F1.0
sg15
I954
sg66
g67
sbsI1562
g0
(g58
g2
Ntp104
Rp105
(dp106
g62
g63
sg64
F10.54206718463522
sg65
F1.0
sg15
I1562
sg66
g67
sbssg15
I4667
sS'fitness'
p107
Nsb.