ccopy_reg
_reconstructor
p0
(cneat.genome
DefaultGenome
p1
c__builtin__
object
p2
Ntp3
Rp4
(dp5
S'connections'
p6
(dp7
(I-8
I9
tp8
g0
(cneat.genes
DefaultConnectionGene
p9
g2
Ntp10
Rp11
(dp12
S'enabled'
p13
I00
sS'weight'
p14
F0.9476996431800839
sS'key'
p15
g8
sbs(I-2
I1643
tp16
g0
(g9
g2
Ntp17
Rp18
(dp19
g13
I00
sg14
F1.4807827700017222
sg15
g16
sbs(I1699
I1804
tp20
g0
(g9
g2
Ntp21
Rp22
(dp23
g13
I01
sg14
F1.163588343234577
sg15
g20
sbs(I-2
I0
tp24
g0
(g9
g2
Ntp25
Rp26
(dp27
g13
I00
sg14
F-0.33438537921421274
sg15
g24
sbs(I-8
I7
tp28
g0
(g9
g2
Ntp29
Rp30
(dp31
g13
I01
sg14
F0.3318938655884386
sg15
g28
sbs(I1804
I7
tp32
g0
(g9
g2
Ntp33
Rp34
(dp35
g13
I01
sg14
F0.006632350700776057
sg15
g32
sbs(I-2
I1730
tp36
g0
(g9
g2
Ntp37
Rp38
(dp39
g13
I01
sg14
F2.2171380475921385
sg15
g36
sbs(I1643
I0
tp40
g0
(g9
g2
Ntp41
Rp42
(dp43
g13
I00
sg14
F-1.2064511537037201
sg15
g40
sbs(I1730
I0
tp44
g0
(g9
g2
Ntp45
Rp46
(dp47
g13
I01
sg14
F0.4500191090660489
sg15
g44
sbs(I-8
I1699
tp48
g0
(g9
g2
Ntp49
Rp50
(dp51
g13
I01
sg14
F2.6848081440828153
sg15
g48
sbs(I-9
I0
tp52
g0
(g9
g2
Ntp53
Rp54
(dp55
g13
I00
sg14
F0.23129123465334844
sg15
g52
sbs(I1699
I7
tp56
g0
(g9
g2
Ntp57
Rp58
(dp59
g13
I00
sg14
F-0.7113568103748128
sg15
g56
sbs(I0
I1730
tp60
g0
(g9
g2
Ntp61
Rp62
(dp63
g13
I01
sg14
F-1.7715626494133125
sg15
g60
sbssS'nodes'
p64
(dp65
I0
g0
(cneat.genes
DefaultNodeGene
p66
g2
Ntp67
Rp68
(dp69
S'activation'
p70
S'tanh'
p71
sS'bias'
p72
F7.069379804200042
sS'response'
p73
F1.0
sg15
I0
sS'aggregation'
p74
S'sum'
p75
sbsI1
g0
(g66
g2
Ntp76
Rp77
(dp78
g70
g71
sg72
F-0.8049387237253222
sg73
F1.0
sg15
I1
sg74
g75
sbsI2
g0
(g66
g2
Ntp79
Rp80
(dp81
g70
g71
sg72
F3.6821017436517387
sg73
F1.0
sg15
I2
sg74
g75
sbsI3
g0
(g66
g2
Ntp82
Rp83
(dp84
g70
g71
sg72
F-9.992286343701531
sg73
F1.0
sg15
I3
sg74
g75
sbsI4
g0
(g66
g2
Ntp85
Rp86
(dp87
g70
g71
sg72
F-28.618634159199782
sg73
F1.0
sg15
I4
sg74
g75
sbsI5
g0
(g66
g2
Ntp88
Rp89
(dp90
g70
g71
sg72
F13.639805683234819
sg73
F1.0
sg15
I5
sg74
g75
sbsI6
g0
(g66
g2
Ntp91
Rp92
(dp93
g70
g71
sg72
F-5.468331940100066
sg73
F1.0
sg15
I6
sg74
g75
sbsI7
g0
(g66
g2
Ntp94
Rp95
(dp96
g70
g71
sg72
F-17.598414878641243
sg73
F1.0
sg15
I7
sg74
g75
sbsI8
g0
(g66
g2
Ntp97
Rp98
(dp99
g70
g71
sg72
F-21.815851749870436
sg73
F1.0
sg15
I8
sg74
g75
sbsI9
g0
(g66
g2
Ntp100
Rp101
(dp102
g70
g71
sg72
F-3.393103025995059
sg73
F1.0
sg15
I9
sg74
g75
sbsI1643
g0
(g66
g2
Ntp103
Rp104
(dp105
g70
g71
sg72
F16.54196450135774
sg73
F1.0
sg15
I1643
sg74
g75
sbsI1804
g0
(g66
g2
Ntp106
Rp107
(dp108
g70
S'relu'
p109
sg72
F-3.8239590834064736
sg73
F1.0
sg15
I1804
sg74
g75
sbsI1730
g0
(g66
g2
Ntp110
Rp111
(dp112
g70
g71
sg72
F6.910155415162981
sg73
F1.0
sg15
I1730
sg74
g75
sbsI1699
g0
(g66
g2
Ntp113
Rp114
(dp115
g70
g71
sg72
F-1.8905778775259636
sg73
F1.0
sg15
I1699
sg74
g75
sbsI1371
g0
(g66
g2
Ntp116
Rp117
(dp118
g70
g71
sg72
F6.9349733544783
sg73
F1.0
sg15
I1371
sg74
g75
sbssg15
I4670
sS'fitness'
p119
Nsb.