ccopy_reg
_reconstructor
p0
(cneat.genome
DefaultGenome
p1
c__builtin__
object
p2
Ntp3
Rp4
(dp5
S'connections'
p6
(dp7
(I-8
I9
tp8
g0
(cneat.genes
DefaultConnectionGene
p9
g2
Ntp10
Rp11
(dp12
S'enabled'
p13
I00
sS'weight'
p14
F2.0084559509330058
sS'key'
p15
g8
sbs(I-2
I1643
tp16
g0
(g9
g2
Ntp17
Rp18
(dp19
g13
I01
sg14
F0.6198169125851956
sg15
g16
sbs(I1735
I0
tp20
g0
(g9
g2
Ntp21
Rp22
(dp23
g13
I00
sg14
F-0.6962556312670826
sg15
g20
sbs(I-2
I0
tp24
g0
(g9
g2
Ntp25
Rp26
(dp27
g13
I00
sg14
F0.8787085548755977
sg15
g24
sbs(I0
I1679
tp28
g0
(g9
g2
Ntp29
Rp30
(dp31
g13
I01
sg14
F0.5696538222359037
sg15
g28
sbs(I1679
I0
tp32
g0
(g9
g2
Ntp33
Rp34
(dp35
g13
I01
sg14
F1.405485714374623
sg15
g32
sbs(I-2
I1786
tp36
g0
(g9
g2
Ntp37
Rp38
(dp39
g13
I01
sg14
F1.090568134977167
sg15
g36
sbs(I1780
I9
tp40
g0
(g9
g2
Ntp41
Rp42
(dp43
g13
I01
sg14
F-0.4738389438808225
sg15
g40
sbs(I1786
I1643
tp44
g0
(g9
g2
Ntp45
Rp46
(dp47
g13
I01
sg14
F-1.3128671784865247
sg15
g44
sbs(I1643
I0
tp48
g0
(g9
g2
Ntp49
Rp50
(dp51
g13
I01
sg14
F-0.09989849502003313
sg15
g48
sbs(I-8
I1780
tp52
g0
(g9
g2
Ntp53
Rp54
(dp55
g13
I01
sg14
F1.096972394359737
sg15
g52
sbs(I-2
I1735
tp56
g0
(g9
g2
Ntp57
Rp58
(dp59
g13
I01
sg14
F0.35492175386809627
sg15
g56
sbs(I-4
I7
tp60
g0
(g9
g2
Ntp61
Rp62
(dp63
g13
I01
sg14
F2.360602728181342
sg15
g60
sbssS'nodes'
p64
(dp65
I0
g0
(cneat.genes
DefaultNodeGene
p66
g2
Ntp67
Rp68
(dp69
S'activation'
p70
S'tanh'
p71
sS'bias'
p72
F-6.328775768424609
sS'response'
p73
F1.0
sg15
I0
sS'aggregation'
p74
S'sum'
p75
sbsI1
g0
(g66
g2
Ntp76
Rp77
(dp78
g70
g71
sg72
F-10.141307818629837
sg73
F1.0
sg15
I1
sg74
g75
sbsI2
g0
(g66
g2
Ntp79
Rp80
(dp81
g70
g71
sg72
F-5.717194492971482
sg73
F1.0
sg15
I2
sg74
g75
sbsI3
g0
(g66
g2
Ntp82
Rp83
(dp84
g70
g71
sg72
F-10.314743483017422
sg73
F1.0
sg15
I3
sg74
g75
sbsI4
g0
(g66
g2
Ntp85
Rp86
(dp87
g70
g71
sg72
F-26.62594293560195
sg73
F1.0
sg15
I4
sg74
g75
sbsI5
g0
(g66
g2
Ntp88
Rp89
(dp90
g70
g71
sg72
F12.370663682000828
sg73
F1.0
sg15
I5
sg74
g75
sbsI6
g0
(g66
g2
Ntp91
Rp92
(dp93
g70
g71
sg72
F-3.1017657466556243
sg73
F1.0
sg15
I6
sg74
g75
sbsI7
g0
(g66
g2
Ntp94
Rp95
(dp96
g70
g71
sg72
F10.556606668418334
sg73
F1.0
sg15
I7
sg74
g75
sbsI8
g0
(g66
g2
Ntp97
Rp98
(dp99
g70
g71
sg72
F3.06918666459285
sg73
F1.0
sg15
I8
sg74
g75
sbsI9
g0
(g66
g2
Ntp100
Rp101
(dp102
g70
g71
sg72
F-5.665431637523107
sg73
F1.0
sg15
I9
sg74
g75
sbsI1643
g0
(g66
g2
Ntp103
Rp104
(dp105
g70
g71
sg72
F14.439416870447296
sg73
F1.0
sg15
I1643
sg74
g75
sbsI1735
g0
(g66
g2
Ntp106
Rp107
(dp108
g70
g71
sg72
F-8.23371145857902
sg73
F1.0
sg15
I1735
sg74
g75
sbsI1679
g0
(g66
g2
Ntp109
Rp110
(dp111
g70
g71
sg72
F10.213345708708873
sg73
F1.0
sg15
I1679
sg74
g75
sbsI1780
g0
(g66
g2
Ntp112
Rp113
(dp114
g70
S'relu'
p115
sg72
F10.693447176729883
sg73
F1.0
sg15
I1780
sg74
g75
sbsI1786
g0
(g66
g2
Ntp116
Rp117
(dp118
g70
g115
sg72
F9.348455091386601
sg73
F1.0
sg15
I1786
sg74
g75
sbssg15
I4672
sS'fitness'
p119
Nsb.