ccopy_reg
_reconstructor
p0
(cneat.genome
DefaultGenome
p1
c__builtin__
object
p2
Ntp3
Rp4
(dp5
S'connections'
p6
(dp7
(I1425
I6
tp8
g0
(cneat.genes
DefaultConnectionGene
p9
g2
Ntp10
Rp11
(dp12
S'enabled'
p13
I01
sS'weight'
p14
F-1.1333959691274784
sS'key'
p15
g8
sbs(I1609
I1
tp16
g0
(g9
g2
Ntp17
Rp18
(dp19
g13
I01
sg14
F-0.6590094804301692
sg15
g16
sbs(I-9
I7
tp20
g0
(g9
g2
Ntp21
Rp22
(dp23
g13
I01
sg14
F0.02987695768569887
sg15
g20
sbs(I1448
I1609
tp24
g0
(g9
g2
Ntp25
Rp26
(dp27
g13
I01
sg14
F0.019524431082456162
sg15
g24
sbs(I-1
I1425
tp28
g0
(g9
g2
Ntp29
Rp30
(dp31
g13
I01
sg14
F-0.23598021986047238
sg15
g28
sbs(I6
I1425
tp32
g0
(g9
g2
Ntp33
Rp34
(dp35
g13
I01
sg14
F3.1205489410503713
sg15
g32
sbs(I-5
I2
tp36
g0
(g9
g2
Ntp37
Rp38
(dp39
g13
I01
sg14
F-2.427868481397739
sg15
g36
sbs(I-7
I9
tp40
g0
(g9
g2
Ntp41
Rp42
(dp43
g13
I01
sg14
F-2.77614018995582
sg15
g40
sbs(I1425
I4
tp44
g0
(g9
g2
Ntp45
Rp46
(dp47
g13
I00
sg14
F0.901827094646852
sg15
g44
sbs(I1448
I4
tp48
g0
(g9
g2
Ntp49
Rp50
(dp51
g13
I01
sg14
F-0.5646791294368915
sg15
g48
sbssS'nodes'
p52
(dp53
I0
g0
(cneat.genes
DefaultNodeGene
p54
g2
Ntp55
Rp56
(dp57
S'activation'
p58
S'tanh'
p59
sS'bias'
p60
F5.638951589973259
sS'response'
p61
F1.0
sg15
I0
sS'aggregation'
p62
S'sum'
p63
sbsI1
g0
(g54
g2
Ntp64
Rp65
(dp66
g58
g59
sg60
F-1.259149168796055
sg61
F1.0
sg15
I1
sg62
g63
sbsI2
g0
(g54
g2
Ntp67
Rp68
(dp69
g58
g59
sg60
F17.197801395991863
sg61
F1.0
sg15
I2
sg62
g63
sbsI3
g0
(g54
g2
Ntp70
Rp71
(dp72
g58
g59
sg60
F6.085857155162953
sg61
F1.0
sg15
I3
sg62
g63
sbsI4
g0
(g54
g2
Ntp73
Rp74
(dp75
g58
g59
sg60
F-2.5607564008127617
sg61
F1.0
sg15
I4
sg62
g63
sbsI5
g0
(g54
g2
Ntp76
Rp77
(dp78
g58
g59
sg60
F-12.240017012792567
sg61
F1.0
sg15
I5
sg62
g63
sbsI6
g0
(g54
g2
Ntp79
Rp80
(dp81
g58
g59
sg60
F13.322802172656257
sg61
F1.0
sg15
I6
sg62
g63
sbsI7
g0
(g54
g2
Ntp82
Rp83
(dp84
g58
g59
sg60
F-9.690169242332887
sg61
F1.0
sg15
I7
sg62
g63
sbsI8
g0
(g54
g2
Ntp85
Rp86
(dp87
g58
g59
sg60
F15.10948588716346
sg61
F1.0
sg15
I8
sg62
g63
sbsI9
g0
(g54
g2
Ntp88
Rp89
(dp90
g58
g59
sg60
F3.7289018280376074
sg61
F1.0
sg15
I9
sg62
g63
sbsI1425
g0
(g54
g2
Ntp91
Rp92
(dp93
g58
g59
sg60
F11.35066789113722
sg61
F1.0
sg15
I1425
sg62
g63
sbsI1448
g0
(g54
g2
Ntp94
Rp95
(dp96
g58
g59
sg60
F-2.9548789279129046
sg61
F1.0
sg15
I1448
sg62
g63
sbsI1609
g0
(g54
g2
Ntp97
Rp98
(dp99
g58
g59
sg60
F-10.140818296144506
sg61
F1.0
sg15
I1609
sg62
g63
sbssg15
I4673
sS'fitness'
p100
Nsb.