ccopy_reg
_reconstructor
p0
(cneat.genome
DefaultGenome
p1
c__builtin__
object
p2
Ntp3
Rp4
(dp5
S'connections'
p6
(dp7
(I1805
I6
tp8
g0
(cneat.genes
DefaultConnectionGene
p9
g2
Ntp10
Rp11
(dp12
S'enabled'
p13
I01
sS'weight'
p14
F-1.1159262572752189
sS'key'
p15
g8
sbs(I1425
I6
tp16
g0
(g9
g2
Ntp17
Rp18
(dp19
g13
I00
sg14
F-1.2117207882075303
sg15
g16
sbs(I1609
I1
tp20
g0
(g9
g2
Ntp21
Rp22
(dp23
g13
I01
sg14
F-1.7683765697758598
sg15
g20
sbs(I1448
I1609
tp24
g0
(g9
g2
Ntp25
Rp26
(dp27
g13
I01
sg14
F-0.23342077413232282
sg15
g24
sbs(I-1
I1425
tp28
g0
(g9
g2
Ntp29
Rp30
(dp31
g13
I01
sg14
F0.8830492619165327
sg15
g28
sbs(I6
I1425
tp32
g0
(g9
g2
Ntp33
Rp34
(dp35
g13
I01
sg14
F1.8317147100483813
sg15
g32
sbs(I1425
I1805
tp36
g0
(g9
g2
Ntp37
Rp38
(dp39
g13
I01
sg14
F0.7653564133865216
sg15
g36
sbs(I-5
I2
tp40
g0
(g9
g2
Ntp41
Rp42
(dp43
g13
I01
sg14
F-2.5715398693264975
sg15
g40
sbs(I-3
I1805
tp44
g0
(g9
g2
Ntp45
Rp46
(dp47
g13
I01
sg14
F-1.8620600078962701
sg15
g44
sbs(I-7
I9
tp48
g0
(g9
g2
Ntp49
Rp50
(dp51
g13
I01
sg14
F-1.2196606029680477
sg15
g48
sbs(I1448
I4
tp52
g0
(g9
g2
Ntp53
Rp54
(dp55
g13
I01
sg14
F0.3238273354188018
sg15
g52
sbssS'nodes'
p56
(dp57
I0
g0
(cneat.genes
DefaultNodeGene
p58
g2
Ntp59
Rp60
(dp61
S'activation'
p62
S'tanh'
p63
sS'bias'
p64
F-13.44140093245558
sS'response'
p65
F1.0
sg15
I0
sS'aggregation'
p66
S'sum'
p67
sbsI1
g0
(g58
g2
Ntp68
Rp69
(dp70
g62
g63
sg64
F-2.0848097487960753
sg65
F1.0
sg15
I1
sg66
g67
sbsI2
g0
(g58
g2
Ntp71
Rp72
(dp73
g62
g63
sg64
F18.531332257069543
sg65
F1.0
sg15
I2
sg66
g67
sbsI3
g0
(g58
g2
Ntp74
Rp75
(dp76
g62
g63
sg64
F6.145096635441146
sg65
F1.0
sg15
I3
sg66
g67
sbsI4
g0
(g58
g2
Ntp77
Rp78
(dp79
g62
g63
sg64
F-2.6452370493285926
sg65
F1.0
sg15
I4
sg66
g67
sbsI5
g0
(g58
g2
Ntp80
Rp81
(dp82
g62
g63
sg64
F-12.01840292257988
sg65
F1.0
sg15
I5
sg66
g67
sbsI6
g0
(g58
g2
Ntp83
Rp84
(dp85
g62
g63
sg64
F10.484391163456458
sg65
F1.0
sg15
I6
sg66
g67
sbsI7
g0
(g58
g2
Ntp86
Rp87
(dp88
g62
g63
sg64
F-10.482354377357822
sg65
F1.0
sg15
I7
sg66
g67
sbsI8
g0
(g58
g2
Ntp89
Rp90
(dp91
g62
g63
sg64
F16.184108138743717
sg65
F1.0
sg15
I8
sg66
g67
sbsI9
g0
(g58
g2
Ntp92
Rp93
(dp94
g62
g63
sg64
F11.881216392349602
sg65
F1.0
sg15
I9
sg66
g67
sbsI1805
g0
(g58
g2
Ntp95
Rp96
(dp97
g62
S'relu'
p98
sg64
F7.4699083832317354
sg65
F1.0
sg15
I1805
sg66
g67
sbsI1425
g0
(g58
g2
Ntp99
Rp100
(dp101
g62
g63
sg64
F12.52685381300152
sg65
F1.0
sg15
I1425
sg66
g67
sbsI1448
g0
(g58
g2
Ntp102
Rp103
(dp104
g62
g63
sg64
F-6.676993881764491
sg65
F1.0
sg15
I1448
sg66
g67
sbsI1609
g0
(g58
g2
Ntp105
Rp106
(dp107
g62
g63
sg64
F-9.86149852467284
sg65
F1.0
sg15
I1609
sg66
g67
sbssg15
I4674
sS'fitness'
p108
Nsb.