ccopy_reg
_reconstructor
p0
(cneat.genome
DefaultGenome
p1
c__builtin__
object
p2
Ntp3
Rp4
(dp5
S'connections'
p6
(dp7
(I-9
I1806
tp8
g0
(cneat.genes
DefaultConnectionGene
p9
g2
Ntp10
Rp11
(dp12
S'enabled'
p13
I01
sS'weight'
p14
F0.3530926399312224
sS'key'
p15
g8
sbs(I1806
I0
tp16
g0
(g9
g2
Ntp17
Rp18
(dp19
g13
I01
sg14
F0.9924072680727478
sg15
g16
sbs(I-5
I6
tp20
g0
(g9
g2
Ntp21
Rp22
(dp23
g13
I00
sg14
F-1.6291530118143336
sg15
g20
sbssS'nodes'
p24
(dp25
I0
g0
(cneat.genes
DefaultNodeGene
p26
g2
Ntp27
Rp28
(dp29
S'activation'
p30
S'tanh'
p31
sS'bias'
p32
F18.588485352488497
sS'response'
p33
F1.0
sg15
I0
sS'aggregation'
p34
S'sum'
p35
sbsI1
g0
(g26
g2
Ntp36
Rp37
(dp38
g30
g31
sg32
F-16.99133050847459
sg33
F1.0
sg15
I1
sg34
g35
sbsI2
g0
(g26
g2
Ntp39
Rp40
(dp41
g30
g31
sg32
F-5.8412800608678666
sg33
F1.0
sg15
I2
sg34
g35
sbsI3
g0
(g26
g2
Ntp42
Rp43
(dp44
g30
g31
sg32
F-6.388365085690351
sg33
F1.0
sg15
I3
sg34
g35
sbsI4
g0
(g26
g2
Ntp45
Rp46
(dp47
g30
g31
sg32
F-7.733528422645579
sg33
F1.0
sg15
I4
sg34
g35
sbsI5
g0
(g26
g2
Ntp48
Rp49
(dp50
g30
g31
sg32
F-13.056502165428855
sg33
F1.0
sg15
I5
sg34
g35
sbsI6
g0
(g26
g2
Ntp51
Rp52
(dp53
g30
g31
sg32
F-10.132376557982347
sg33
F1.0
sg15
I6
sg34
g35
sbsI7
g0
(g26
g2
Ntp54
Rp55
(dp56
g30
g31
sg32
F13.737146049342712
sg33
F1.0
sg15
I7
sg34
g35
sbsI8
g0
(g26
g2
Ntp57
Rp58
(dp59
g30
g31
sg32
F-9.258550712220387
sg33
F1.0
sg15
I8
sg34
g35
sbsI9
g0
(g26
g2
Ntp60
Rp61
(dp62
g30
g31
sg32
F-7.966062534826131
sg33
F1.0
sg15
I9
sg34
g35
sbsI1806
g0
(g26
g2
Ntp63
Rp64
(dp65
g30
S'relu'
p66
sg32
F17.814820044157536
sg33
F1.0
sg15
I1806
sg34
g35
sbssg15
I4675
sS'fitness'
p67
Nsb.