ccopy_reg
_reconstructor
p0
(cneat.genome
DefaultGenome
p1
c__builtin__
object
p2
Ntp3
Rp4
(dp5
S'connections'
p6
(dp7
(I1744
I1808
tp8
g0
(cneat.genes
DefaultConnectionGene
p9
g2
Ntp10
Rp11
(dp12
S'enabled'
p13
I01
sS'weight'
p14
F0.7016421356678182
sS'key'
p15
g8
sbs(I1744
I1541
tp16
g0
(g9
g2
Ntp17
Rp18
(dp19
g13
I00
sg14
F0.9067559551874217
sg15
g16
sbs(I1808
I1541
tp20
g0
(g9
g2
Ntp21
Rp22
(dp23
g13
I00
sg14
F1.018240309012833
sg15
g20
sbs(I9
I1744
tp24
g0
(g9
g2
Ntp25
Rp26
(dp27
g13
I01
sg14
F0.6097982451913577
sg15
g24
sbs(I1726
I1541
tp28
g0
(g9
g2
Ntp29
Rp30
(dp31
g13
I01
sg14
F-1.733240786529839
sg15
g28
sbs(I9
I1541
tp32
g0
(g9
g2
Ntp33
Rp34
(dp35
g13
I01
sg14
F0.423486976497109
sg15
g32
sbs(I-9
I7
tp36
g0
(g9
g2
Ntp37
Rp38
(dp39
g13
I01
sg14
F-1.8751791988113595
sg15
g36
sbssS'nodes'
p40
(dp41
I0
g0
(cneat.genes
DefaultNodeGene
p42
g2
Ntp43
Rp44
(dp45
S'activation'
p46
S'tanh'
p47
sS'bias'
p48
F-19.1555430150707
sS'response'
p49
F1.0
sg15
I0
sS'aggregation'
p50
S'sum'
p51
sbsI1
g0
(g42
g2
Ntp52
Rp53
(dp54
g46
g47
sg48
F-8.549860498638624
sg49
F1.0
sg15
I1
sg50
g51
sbsI2
g0
(g42
g2
Ntp55
Rp56
(dp57
g46
g47
sg48
F-5.068296095283464
sg49
F1.0
sg15
I2
sg50
g51
sbsI3
g0
(g42
g2
Ntp58
Rp59
(dp60
g46
g47
sg48
F5.250255968147446
sg49
F1.0
sg15
I3
sg50
g51
sbsI4
g0
(g42
g2
Ntp61
Rp62
(dp63
g46
g47
sg48
F15.724482371497661
sg49
F1.0
sg15
I4
sg50
g51
sbsI5
g0
(g42
g2
Ntp64
Rp65
(dp66
g46
g47
sg48
F-8.339029267185412
sg49
F1.0
sg15
I5
sg50
g51
sbsI6
g0
(g42
g2
Ntp67
Rp68
(dp69
g46
g47
sg48
F-2.4706188109639236
sg49
F1.0
sg15
I6
sg50
g51
sbsI7
g0
(g42
g2
Ntp70
Rp71
(dp72
g46
g47
sg48
F4.750935864435904
sg49
F1.0
sg15
I7
sg50
g51
sbsI8
g0
(g42
g2
Ntp73
Rp74
(dp75
g46
g47
sg48
F-8.048857568274673
sg49
F1.0
sg15
I8
sg50
g51
sbsI9
g0
(g42
g2
Ntp76
Rp77
(dp78
g46
g47
sg48
F-7.065700920770907
sg49
F1.0
sg15
I9
sg50
g51
sbsI1390
g0
(g42
g2
Ntp79
Rp80
(dp81
g46
g47
sg48
F-2.710402973179503
sg49
F1.0
sg15
I1390
sg50
g51
sbsI1744
g0
(g42
g2
Ntp82
Rp83
(dp84
g46
g47
sg48
F21.408684940306873
sg49
F1.0
sg15
I1744
sg50
g51
sbsI1808
g0
(g42
g2
Ntp85
Rp86
(dp87
g46
g47
sg48
F-3.8248510219352463
sg49
F1.0
sg15
I1808
sg50
g51
sbsI1726
g0
(g42
g2
Ntp88
Rp89
(dp90
g46
S'relu'
p91
sg48
F10.400938650671081
sg49
F1.0
sg15
I1726
sg50
g51
sbsI1541
g0
(g42
g2
Ntp92
Rp93
(dp94
g46
g47
sg48
F1.7508502295142168
sg49
F1.0
sg15
I1541
sg50
g51
sbssg15
I4678
sS'fitness'
p95
Nsb.