ccopy_reg
_reconstructor
p0
(cneat.genome
DefaultGenome
p1
c__builtin__
object
p2
Ntp3
Rp4
(dp5
S'connections'
p6
(dp7
(I-5
I1810
tp8
g0
(cneat.genes
DefaultConnectionGene
p9
g2
Ntp10
Rp11
(dp12
S'enabled'
p13
I01
sS'weight'
p14
F0.37937285033440216
sS'key'
p15
g8
sbs(I1810
I4
tp16
g0
(g9
g2
Ntp17
Rp18
(dp19
g13
I01
sg14
F-1.258266658806827
sg15
g16
sbs(I-9
I2
tp20
g0
(g9
g2
Ntp21
Rp22
(dp23
g13
I01
sg14
F-0.16968816426017086
sg15
g20
sbs(I4
I954
tp24
g0
(g9
g2
Ntp25
Rp26
(dp27
g13
I01
sg14
F2.046245320456663
sg15
g24
sbs(I-5
I4
tp28
g0
(g9
g2
Ntp29
Rp30
(dp31
g13
I00
sg14
F-0.7439361567804643
sg15
g28
sbs(I-5
I9
tp32
g0
(g9
g2
Ntp33
Rp34
(dp35
g13
I00
sg14
F3.0727332100776628
sg15
g32
sbs(I5
I546
tp36
g0
(g9
g2
Ntp37
Rp38
(dp39
g13
I01
sg14
F-2.1549282823033002
sg15
g36
sbs(I-2
I0
tp40
g0
(g9
g2
Ntp41
Rp42
(dp43
g13
I01
sg14
F0.8276609421318266
sg15
g40
sbssS'nodes'
p44
(dp45
I0
g0
(cneat.genes
DefaultNodeGene
p46
g2
Ntp47
Rp48
(dp49
S'activation'
p50
S'tanh'
p51
sS'bias'
p52
F-1.630468659123073
sS'response'
p53
F1.0
sg15
I0
sS'aggregation'
p54
S'sum'
p55
sbsI1
g0
(g46
g2
Ntp56
Rp57
(dp58
g50
g51
sg52
F-6.396795542282116
sg53
F1.0
sg15
I1
sg54
g55
sbsI2
g0
(g46
g2
Ntp59
Rp60
(dp61
g50
g51
sg52
F-16.007594444902587
sg53
F1.0
sg15
I2
sg54
g55
sbsI3
g0
(g46
g2
Ntp62
Rp63
(dp64
g50
g51
sg52
F-12.690097279856476
sg53
F1.0
sg15
I3
sg54
g55
sbsI4
g0
(g46
g2
Ntp65
Rp66
(dp67
g50
g51
sg52
F-1.7773784992700195
sg53
F1.0
sg15
I4
sg54
g55
sbsI5
g0
(g46
g2
Ntp68
Rp69
(dp70
g50
g51
sg52
F-9.315459305798585
sg53
F1.0
sg15
I5
sg54
g55
sbsI6
g0
(g46
g2
Ntp71
Rp72
(dp73
g50
g51
sg52
F-1.1462900318264333
sg53
F1.0
sg15
I6
sg54
g55
sbsI7
g0
(g46
g2
Ntp74
Rp75
(dp76
g50
g51
sg52
F-19.70693128492249
sg53
F1.0
sg15
I7
sg54
g55
sbsI8
g0
(g46
g2
Ntp77
Rp78
(dp79
g50
g51
sg52
F-4.25025344546642
sg53
F1.0
sg15
I8
sg54
g55
sbsI9
g0
(g46
g2
Ntp80
Rp81
(dp82
g50
g51
sg52
F8.134549013418534
sg53
F1.0
sg15
I9
sg54
g55
sbsI546
g0
(g46
g2
Ntp83
Rp84
(dp85
g50
g51
sg52
F4.74124764629657
sg53
F1.0
sg15
I546
sg54
g55
sbsI1810
g0
(g46
g2
Ntp86
Rp87
(dp88
g50
S'relu'
p89
sg52
F0.16235191111333075
sg53
F1.0
sg15
I1810
sg54
g55
sbsI954
g0
(g46
g2
Ntp90
Rp91
(dp92
g50
g51
sg52
F0.1665200854433926
sg53
F1.0
sg15
I954
sg54
g55
sbssg15
I4680
sS'fitness'
p93
Nsb.