ccopy_reg
_reconstructor
p0
(cneat.genome
DefaultGenome
p1
c__builtin__
object
p2
Ntp3
Rp4
(dp5
S'connections'
p6
(dp7
(I5
I5
tp8
g0
(cneat.genes
DefaultConnectionGene
p9
g2
Ntp10
Rp11
(dp12
S'enabled'
p13
I00
sS'weight'
p14
F-0.0009243694119075718
sS'key'
p15
g8
sbs(I954
I1
tp16
g0
(g9
g2
Ntp17
Rp18
(dp19
g13
I01
sg14
F0.8780968493096151
sg15
g16
sbs(I-9
I1750
tp20
g0
(g9
g2
Ntp21
Rp22
(dp23
g13
I01
sg14
F1.8571492429714587
sg15
g20
sbs(I-9
I2
tp24
g0
(g9
g2
Ntp25
Rp26
(dp27
g13
I00
sg14
F-1.5235066935612869
sg15
g24
sbs(I4
I954
tp28
g0
(g9
g2
Ntp29
Rp30
(dp31
g13
I01
sg14
F1.55181260927223
sg15
g28
sbs(I-5
I4
tp32
g0
(g9
g2
Ntp33
Rp34
(dp35
g13
I00
sg14
F0.38144495303538534
sg15
g32
sbs(I-5
I9
tp36
g0
(g9
g2
Ntp37
Rp38
(dp39
g13
I00
sg14
F4.373753232391607
sg15
g36
sbs(I1
I1
tp40
g0
(g9
g2
Ntp41
Rp42
(dp43
g13
I00
sg14
F3.053377590143362
sg15
g40
sbs(I-2
I0
tp44
g0
(g9
g2
Ntp45
Rp46
(dp47
g13
I01
sg14
F-0.7303097588708726
sg15
g44
sbssS'nodes'
p48
(dp49
I0
g0
(cneat.genes
DefaultNodeGene
p50
g2
Ntp51
Rp52
(dp53
S'activation'
p54
S'tanh'
p55
sS'bias'
p56
F0.44878366412454196
sS'response'
p57
F1.0
sg15
I0
sS'aggregation'
p58
S'sum'
p59
sbsI1
g0
(g50
g2
Ntp60
Rp61
(dp62
g54
g55
sg56
F-5.748212934942814
sg57
F1.0
sg15
I1
sg58
g59
sbsI2
g0
(g50
g2
Ntp63
Rp64
(dp65
g54
g55
sg56
F10.864105014722215
sg57
F1.0
sg15
I2
sg58
g59
sbsI3
g0
(g50
g2
Ntp66
Rp67
(dp68
g54
g55
sg56
F19.549235366095502
sg57
F1.0
sg15
I3
sg58
g59
sbsI4
g0
(g50
g2
Ntp69
Rp70
(dp71
g54
g55
sg56
F0.5148656224725962
sg57
F1.0
sg15
I4
sg58
g59
sbsI5
g0
(g50
g2
Ntp72
Rp73
(dp74
g54
g55
sg56
F11.851283977311917
sg57
F1.0
sg15
I5
sg58
g59
sbsI6
g0
(g50
g2
Ntp75
Rp76
(dp77
g54
g55
sg56
F-15.592883575595929
sg57
F1.0
sg15
I6
sg58
g59
sbsI7
g0
(g50
g2
Ntp78
Rp79
(dp80
g54
g55
sg56
F-18.601755111438706
sg57
F1.0
sg15
I7
sg58
g59
sbsI8
g0
(g50
g2
Ntp81
Rp82
(dp83
g54
g55
sg56
F8.085878661801486
sg57
F1.0
sg15
I8
sg58
g59
sbsI9
g0
(g50
g2
Ntp84
Rp85
(dp86
g54
g55
sg56
F-2.4736202621394288
sg57
F1.0
sg15
I9
sg58
g59
sbsI546
g0
(g50
g2
Ntp87
Rp88
(dp89
g54
g55
sg56
F2.081765518834006
sg57
F1.0
sg15
I546
sg58
g59
sbsI1750
g0
(g50
g2
Ntp90
Rp91
(dp92
g54
g55
sg56
F-7.759285501554414
sg57
F1.0
sg15
I1750
sg58
g59
sbsI954
g0
(g50
g2
Ntp93
Rp94
(dp95
g54
g55
sg56
F8.306269748765617
sg57
F1.0
sg15
I954
sg58
g59
sbssg15
I4683
sS'fitness'
p96
Nsb.