ccopy_reg
_reconstructor
p0
(cneat.genome
DefaultGenome
p1
c__builtin__
object
p2
Ntp3
Rp4
(dp5
S'connections'
p6
(dp7
(I1811
I1
tp8
g0
(cneat.genes
DefaultConnectionGene
p9
g2
Ntp10
Rp11
(dp12
S'enabled'
p13
I01
sS'weight'
p14
F0.11675252741228648
sS'key'
p15
g8
sbs(I5
I5
tp16
g0
(g9
g2
Ntp17
Rp18
(dp19
g13
I00
sg14
F0.0008174092541197164
sg15
g16
sbs(I-9
I1750
tp20
g0
(g9
g2
Ntp21
Rp22
(dp23
g13
I01
sg14
F1.1688713250070397
sg15
g20
sbs(I-9
I2
tp24
g0
(g9
g2
Ntp25
Rp26
(dp27
g13
I00
sg14
F-0.8943300297083754
sg15
g24
sbs(I1
I1811
tp28
g0
(g9
g2
Ntp29
Rp30
(dp31
g13
I01
sg14
F0.48739420526615596
sg15
g28
sbs(I-5
I4
tp32
g0
(g9
g2
Ntp33
Rp34
(dp35
g13
I00
sg14
F-0.27181259265398494
sg15
g32
sbs(I-5
I9
tp36
g0
(g9
g2
Ntp37
Rp38
(dp39
g13
I00
sg14
F5.065108119373661
sg15
g36
sbs(I1
I1
tp40
g0
(g9
g2
Ntp41
Rp42
(dp43
g13
I00
sg14
F0.6295846277283605
sg15
g40
sbssS'nodes'
p44
(dp45
I0
g0
(cneat.genes
DefaultNodeGene
p46
g2
Ntp47
Rp48
(dp49
S'activation'
p50
S'tanh'
p51
sS'bias'
p52
F-0.38623331250553083
sS'response'
p53
F1.0
sg15
I0
sS'aggregation'
p54
S'sum'
p55
sbsI1
g0
(g46
g2
Ntp56
Rp57
(dp58
g50
g51
sg52
F-5.782043516304039
sg53
F1.0
sg15
I1
sg54
g55
sbsI2
g0
(g46
g2
Ntp59
Rp60
(dp61
g50
g51
sg52
F10.153168450932851
sg53
F1.0
sg15
I2
sg54
g55
sbsI3
g0
(g46
g2
Ntp62
Rp63
(dp64
g50
g51
sg52
F-4.9010658153673
sg53
F1.0
sg15
I3
sg54
g55
sbsI4
g0
(g46
g2
Ntp65
Rp66
(dp67
g50
g51
sg52
F-1.1468846263006722
sg53
F1.0
sg15
I4
sg54
g55
sbsI5
g0
(g46
g2
Ntp68
Rp69
(dp70
g50
g51
sg52
F25.43696630462817
sg53
F1.0
sg15
I5
sg54
g55
sbsI6
g0
(g46
g2
Ntp71
Rp72
(dp73
g50
g51
sg52
F-2.8646720584382326
sg53
F1.0
sg15
I6
sg54
g55
sbsI7
g0
(g46
g2
Ntp74
Rp75
(dp76
g50
g51
sg52
F-19.833497690012678
sg53
F1.0
sg15
I7
sg54
g55
sbsI8
g0
(g46
g2
Ntp77
Rp78
(dp79
g50
g51
sg52
F8.59482020672443
sg53
F1.0
sg15
I8
sg54
g55
sbsI9
g0
(g46
g2
Ntp80
Rp81
(dp82
g50
g51
sg52
F10.033382911042136
sg53
F1.0
sg15
I9
sg54
g55
sbsI546
g0
(g46
g2
Ntp83
Rp84
(dp85
g50
g51
sg52
F0.012086975329785199
sg53
F1.0
sg15
I546
sg54
g55
sbsI1811
g0
(g46
g2
Ntp86
Rp87
(dp88
g50
g51
sg52
F-11.80212237965934
sg53
F1.0
sg15
I1811
sg54
g55
sbsI1750
g0
(g46
g2
Ntp89
Rp90
(dp91
g50
g51
sg52
F-9.808018579131165
sg53
F1.0
sg15
I1750
sg54
g55
sbssg15
I4684
sS'fitness'
p92
Nsb.