ccopy_reg
_reconstructor
p0
(cneat.genome
DefaultGenome
p1
c__builtin__
object
p2
Ntp3
Rp4
(dp5
S'connections'
p6
(dp7
(I1765
I4
tp8
g0
(cneat.genes
DefaultConnectionGene
p9
g2
Ntp10
Rp11
(dp12
S'enabled'
p13
I01
sS'weight'
p14
F1.0461134234123675
sS'key'
p15
g8
sbs(I-6
I1765
tp16
g0
(g9
g2
Ntp17
Rp18
(dp19
g13
I01
sg14
F2.110475835964723
sg15
g16
sbs(I1812
I9
tp20
g0
(g9
g2
Ntp21
Rp22
(dp23
g13
I01
sg14
F-0.38816620308915095
sg15
g20
sbs(I-6
I4
tp24
g0
(g9
g2
Ntp25
Rp26
(dp27
g13
I01
sg14
F0.3489688725746344
sg15
g24
sbs(I1645
I9
tp28
g0
(g9
g2
Ntp29
Rp30
(dp31
g13
I00
sg14
F0.9875048013125132
sg15
g28
sbs(I1645
I1812
tp32
g0
(g9
g2
Ntp33
Rp34
(dp35
g13
I01
sg14
F0.36994165082768005
sg15
g32
sbssS'nodes'
p36
(dp37
I0
g0
(cneat.genes
DefaultNodeGene
p38
g2
Ntp39
Rp40
(dp41
S'activation'
p42
S'tanh'
p43
sS'bias'
p44
F6.818987936640563
sS'response'
p45
F1.0
sg15
I0
sS'aggregation'
p46
S'sum'
p47
sbsI1
g0
(g38
g2
Ntp48
Rp49
(dp50
g42
g43
sg44
F-2.5757143305054884
sg45
F1.0
sg15
I1
sg46
g47
sbsI2
g0
(g38
g2
Ntp51
Rp52
(dp53
g42
g43
sg44
F-11.655750371491417
sg45
F1.0
sg15
I2
sg46
g47
sbsI3
g0
(g38
g2
Ntp54
Rp55
(dp56
g42
g43
sg44
F-14.213090033326504
sg45
F1.0
sg15
I3
sg46
g47
sbsI4
g0
(g38
g2
Ntp57
Rp58
(dp59
g42
g43
sg44
F3.981194099339812
sg45
F1.0
sg15
I4
sg46
g47
sbsI5
g0
(g38
g2
Ntp60
Rp61
(dp62
g42
g43
sg44
F2.5626814864402427
sg45
F1.0
sg15
I5
sg46
g47
sbsI6
g0
(g38
g2
Ntp63
Rp64
(dp65
g42
g43
sg44
F-10.157388000979035
sg45
F1.0
sg15
I6
sg46
g47
sbsI7
g0
(g38
g2
Ntp66
Rp67
(dp68
g42
g43
sg44
F-4.520159294277887
sg45
F1.0
sg15
I7
sg46
g47
sbsI8
g0
(g38
g2
Ntp69
Rp70
(dp71
g42
g43
sg44
F10.863146601346118
sg45
F1.0
sg15
I8
sg46
g47
sbsI9
g0
(g38
g2
Ntp72
Rp73
(dp74
g42
g43
sg44
F-5.704054000027325
sg45
F1.0
sg15
I9
sg46
g47
sbsI1645
g0
(g38
g2
Ntp75
Rp76
(dp77
g42
g43
sg44
F-0.3643930006900923
sg45
F1.0
sg15
I1645
sg46
g47
sbsI1812
g0
(g38
g2
Ntp78
Rp79
(dp80
g42
S'relu'
p81
sg44
F3.0339036343041546
sg45
F1.0
sg15
I1812
sg46
g47
sbsI1765
g0
(g38
g2
Ntp82
Rp83
(dp84
g42
g43
sg44
F13.217284115603913
sg45
F1.0
sg15
I1765
sg46
g47
sbssg15
I4685
sS'fitness'
p85
Nsb.