ccopy_reg
_reconstructor
p0
(cneat.genome
DefaultGenome
p1
c__builtin__
object
p2
Ntp3
Rp4
(dp5
S'connections'
p6
(dp7
(I-6
I56
tp8
g0
(cneat.genes
DefaultConnectionGene
p9
g2
Ntp10
Rp11
(dp12
S'enabled'
p13
I01
sS'weight'
p14
F1.2882860232653819
sS'key'
p15
g8
sbs(I-10
I56
tp16
g0
(g9
g2
Ntp17
Rp18
(dp19
g13
I01
sg14
F1.7325195730471001
sg15
g16
sbs(I-19
I56
tp20
g0
(g9
g2
Ntp21
Rp22
(dp23
g13
I01
sg14
F1.294140563997932
sg15
g20
sbs(I-13
I56
tp24
g0
(g9
g2
Ntp25
Rp26
(dp27
g13
I01
sg14
F1.8172634972696646
sg15
g24
sbs(I56
I3
tp28
g0
(g9
g2
Ntp29
Rp30
(dp31
g13
I01
sg14
F-1.1413288782281785
sg15
g28
sbs(I-16
I56
tp32
g0
(g9
g2
Ntp33
Rp34
(dp35
g13
I01
sg14
F0.5965055506623561
sg15
g32
sbs(I-9
I56
tp36
g0
(g9
g2
Ntp37
Rp38
(dp39
g13
I01
sg14
F0.7125957881157627
sg15
g36
sbs(I56
I8
tp40
g0
(g9
g2
Ntp41
Rp42
(dp43
g13
I01
sg14
F0.07837961336866342
sg15
g40
sbs(I56
I7
tp44
g0
(g9
g2
Ntp45
Rp46
(dp47
g13
I01
sg14
F1.899390742263643
sg15
g44
sbs(I-12
I56
tp48
g0
(g9
g2
Ntp49
Rp50
(dp51
g13
I01
sg14
F0.3228770159012608
sg15
g48
sbs(I56
I4
tp52
g0
(g9
g2
Ntp53
Rp54
(dp55
g13
I01
sg14
F1.1761819986109256
sg15
g52
sbs(I-1
I56
tp56
g0
(g9
g2
Ntp57
Rp58
(dp59
g13
I01
sg14
F0.012193274057110275
sg15
g56
sbs(I-15
I56
tp60
g0
(g9
g2
Ntp61
Rp62
(dp63
g13
I01
sg14
F0.2859658490102114
sg15
g60
sbs(I56
I0
tp64
g0
(g9
g2
Ntp65
Rp66
(dp67
g13
I01
sg14
F0.723646695262768
sg15
g64
sbs(I-2
I56
tp68
g0
(g9
g2
Ntp69
Rp70
(dp71
g13
I01
sg14
F-1.0261308477477915
sg15
g68
sbs(I-11
I56
tp72
g0
(g9
g2
Ntp73
Rp74
(dp75
g13
I01
sg14
F2.599780213661896
sg15
g72
sbs(I56
I9
tp76
g0
(g9
g2
Ntp77
Rp78
(dp79
g13
I01
sg14
F1.0331975372464226
sg15
g76
sbs(I-5
I56
tp80
g0
(g9
g2
Ntp81
Rp82
(dp83
g13
I01
sg14
F-0.00634883523183582
sg15
g80
sbs(I-14
I56
tp84
g0
(g9
g2
Ntp85
Rp86
(dp87
g13
I01
sg14
F-1.071670951162292
sg15
g84
sbs(I56
I5
tp88
g0
(g9
g2
Ntp89
Rp90
(dp91
g13
I01
sg14
F0.010506541719815585
sg15
g88
sbs(I-18
I56
tp92
g0
(g9
g2
Ntp93
Rp94
(dp95
g13
I01
sg14
F1.0880253689858141
sg15
g92
sbs(I-8
I56
tp96
g0
(g9
g2
Ntp97
Rp98
(dp99
g13
I01
sg14
F0.8209733823652533
sg15
g96
sbs(I56
I1
tp100
g0
(g9
g2
Ntp101
Rp102
(dp103
g13
I01
sg14
F0.366258533005955
sg15
g100
sbs(I-4
I56
tp104
g0
(g9
g2
Ntp105
Rp106
(dp107
g13
I01
sg14
F-1.930350680244798
sg15
g104
sbs(I-17
I56
tp108
g0
(g9
g2
Ntp109
Rp110
(dp111
g13
I01
sg14
F1.555920165087344
sg15
g108
sbs(I56
I6
tp112
g0
(g9
g2
Ntp113
Rp114
(dp115
g13
I01
sg14
F2.130170150177566
sg15
g112
sbs(I-7
I56
tp116
g0
(g9
g2
Ntp117
Rp118
(dp119
g13
I01
sg14
F-0.3899606079628908
sg15
g116
sbs(I-20
I56
tp120
g0
(g9
g2
Ntp121
Rp122
(dp123
g13
I01
sg14
F0.13602355828021392
sg15
g120
sbs(I56
I2
tp124
g0
(g9
g2
Ntp125
Rp126
(dp127
g13
I01
sg14
F-0.6540404626661603
sg15
g124
sbs(I-3
I56
tp128
g0
(g9
g2
Ntp129
Rp130
(dp131
g13
I01
sg14
F-1.0351237983089652
sg15
g128
sbssS'nodes'
p132
(dp133
I0
g0
(cneat.genes
DefaultNodeGene
p134
g2
Ntp135
Rp136
(dp137
S'activation'
p138
S'relu'
p139
sS'bias'
p140
F-1.6108869658760567
sS'response'
p141
F1.0
sg15
I0
sS'aggregation'
p142
S'sum'
p143
sbsI1
g0
(g134
g2
Ntp144
Rp145
(dp146
g138
g139
sg140
F3.531748262620046
sg141
F1.0
sg15
I1
sg142
g143
sbsI2
g0
(g134
g2
Ntp147
Rp148
(dp149
g138
g139
sg140
F6.534456173656977
sg141
F1.0
sg15
I2
sg142
g143
sbsI3
g0
(g134
g2
Ntp150
Rp151
(dp152
g138
g139
sg140
F-9.796812974093037
sg141
F1.0
sg15
I3
sg142
g143
sbsI4
g0
(g134
g2
Ntp153
Rp154
(dp155
g138
g139
sg140
F11.368061566441156
sg141
F1.0
sg15
I4
sg142
g143
sbsI5
g0
(g134
g2
Ntp156
Rp157
(dp158
g138
g139
sg140
F-5.199130135470962
sg141
F1.0
sg15
I5
sg142
g143
sbsI6
g0
(g134
g2
Ntp159
Rp160
(dp161
g138
g139
sg140
F3.2026795922930003
sg141
F1.0
sg15
I6
sg142
g143
sbsI7
g0
(g134
g2
Ntp162
Rp163
(dp164
g138
g139
sg140
F-6.217342149964531
sg141
F1.0
sg15
I7
sg142
g143
sbsI8
g0
(g134
g2
Ntp165
Rp166
(dp167
g138
g139
sg140
F-8.974894930213814
sg141
F1.0
sg15
I8
sg142
g143
sbsI9
g0
(g134
g2
Ntp168
Rp169
(dp170
g138
g139
sg140
F11.626451765203633
sg141
F1.0
sg15
I9
sg142
g143
sbsI56
g0
(g134
g2
Ntp171
Rp172
(dp173
g138
g139
sg140
F20.22626979722183
sg141
F1.0
sg15
I56
sg142
g143
sbssg15
I47
sS'fitness'
p174
Nsb.