ccopy_reg
_reconstructor
p0
(cneat.genome
DefaultGenome
p1
c__builtin__
object
p2
Ntp3
Rp4
(dp5
S'connections'
p6
(dp7
(I257
I3
tp8
g0
(cneat.genes
DefaultConnectionGene
p9
g2
Ntp10
Rp11
(dp12
S'enabled'
p13
I00
sS'weight'
p14
F-0.02973387236047441
sS'key'
p15
g8
sbs(I255
I8
tp16
g0
(g9
g2
Ntp17
Rp18
(dp19
g13
I01
sg14
F-0.0002828090405566086
sg15
g16
sbs(I-9
I255
tp20
g0
(g9
g2
Ntp21
Rp22
(dp23
g13
I01
sg14
F0.14178655957067196
sg15
g20
sbs(I6
I6
tp24
g0
(g9
g2
Ntp25
Rp26
(dp27
g13
I01
sg14
F0.1590670331901879
sg15
g24
sbs(I256
I7
tp28
g0
(g9
g2
Ntp29
Rp30
(dp31
g13
I01
sg14
F0.4938854088862002
sg15
g28
sbs(I-7
I256
tp32
g0
(g9
g2
Ntp33
Rp34
(dp35
g13
I01
sg14
F-0.8851530873210273
sg15
g32
sbs(I257
I6
tp36
g0
(g9
g2
Ntp37
Rp38
(dp39
g13
I00
sg14
F1.839036156202142
sg15
g36
sbs(I-5
I255
tp40
g0
(g9
g2
Ntp41
Rp42
(dp43
g13
I01
sg14
F-2.677505596780119
sg15
g40
sbs(I-10
I255
tp44
g0
(g9
g2
Ntp45
Rp46
(dp47
g13
I01
sg14
F2.484762523439272
sg15
g44
sbs(I257
I2
tp48
g0
(g9
g2
Ntp49
Rp50
(dp51
g13
I01
sg14
F0.2755417909491289
sg15
g48
sbs(I-5
I257
tp52
g0
(g9
g2
Ntp53
Rp54
(dp55
g13
I01
sg14
F0.22416943610225237
sg15
g52
sbs(I3
I3
tp56
g0
(g9
g2
Ntp57
Rp58
(dp59
g13
I00
sg14
F-1.2603960324515382
sg15
g56
sbs(I255
I4
tp60
g0
(g9
g2
Ntp61
Rp62
(dp63
g13
I01
sg14
F-0.26156020852778944
sg15
g60
sbs(I255
I0
tp64
g0
(g9
g2
Ntp65
Rp66
(dp67
g13
I00
sg14
F-0.018404305982186665
sg15
g64
sbs(I257
I5
tp68
g0
(g9
g2
Ntp69
Rp70
(dp71
g13
I00
sg14
F4.185862090093074
sg15
g68
sbs(I-8
I536
tp72
g0
(g9
g2
Ntp73
Rp74
(dp75
g13
I01
sg14
F1.2346878397247674
sg15
g72
sbs(I2
I2
tp76
g0
(g9
g2
Ntp77
Rp78
(dp79
g13
I01
sg14
F-2.0045108543468833
sg15
g76
sbs(I255
I3
tp80
g0
(g9
g2
Ntp81
Rp82
(dp83
g13
I01
sg14
F0.12845015323077064
sg15
g80
sbs(I257
I1
tp84
g0
(g9
g2
Ntp85
Rp86
(dp87
g13
I01
sg14
F-0.597688400070292
sg15
g84
sbs(I536
I255
tp88
g0
(g9
g2
Ntp89
Rp90
(dp91
g13
I01
sg14
F2.421887688314388
sg15
g88
sbs(I-5
I256
tp92
g0
(g9
g2
Ntp93
Rp94
(dp95
g13
I00
sg14
F-0.000538485442173886
sg15
g92
sbs(I256
I0
tp96
g0
(g9
g2
Ntp97
Rp98
(dp99
g13
I01
sg14
F0.15613388194491445
sg15
g96
sbs(I-7
I255
tp100
g0
(g9
g2
Ntp101
Rp102
(dp103
g13
I00
sg14
F0.40903523988040325
sg15
g100
sbs(I257
I4
tp104
g0
(g9
g2
Ntp105
Rp106
(dp107
g13
I01
sg14
F0.19899634378145287
sg15
g104
sbs(I-2
I255
tp108
g0
(g9
g2
Ntp109
Rp110
(dp111
g13
I00
sg14
F-0.899541371932695
sg15
g108
sbs(I257
I9
tp112
g0
(g9
g2
Ntp113
Rp114
(dp115
g13
I01
sg14
F0.6139072024793271
sg15
g112
sbs(I255
I2
tp116
g0
(g9
g2
Ntp117
Rp118
(dp119
g13
I01
sg14
F0.1821128059394379
sg15
g116
sbs(I-4
I256
tp120
g0
(g9
g2
Ntp121
Rp122
(dp123
g13
I01
sg14
F-1.2717112461497773
sg15
g120
sbs(I-10
I1
tp124
g0
(g9
g2
Ntp125
Rp126
(dp127
g13
I01
sg14
F-0.19605301124461186
sg15
g124
sbs(I256
I8
tp128
g0
(g9
g2
Ntp129
Rp130
(dp131
g13
I01
sg14
F-3.1914915698692576
sg15
g128
sbs(I-8
I255
tp132
g0
(g9
g2
Ntp133
Rp134
(dp135
g13
I00
sg14
F0.39929440251367326
sg15
g132
sbs(I256
I1
tp136
g0
(g9
g2
Ntp137
Rp138
(dp139
g13
I01
sg14
F0.8525587083229446
sg15
g136
sbs(I-3
I255
tp140
g0
(g9
g2
Ntp141
Rp142
(dp143
g13
I01
sg14
F1.723427671484171
sg15
g140
sbs(I257
I257
tp144
g0
(g9
g2
Ntp145
Rp146
(dp147
g13
I01
sg14
F1.1298761531037347
sg15
g144
sbs(I-3
I256
tp148
g0
(g9
g2
Ntp149
Rp150
(dp151
g13
I01
sg14
F2.78091323053125
sg15
g148
sbs(I255
I255
tp152
g0
(g9
g2
Ntp153
Rp154
(dp155
g13
I01
sg14
F0.34649262872987424
sg15
g152
sbs(I-8
I256
tp156
g0
(g9
g2
Ntp157
Rp158
(dp159
g13
I01
sg14
F-0.800944765264548
sg15
g156
sbs(I411
I3
tp160
g0
(g9
g2
Ntp161
Rp162
(dp163
g13
I00
sg14
F0.8289503570997557
sg15
g160
sbs(I4
I411
tp164
g0
(g9
g2
Ntp165
Rp166
(dp167
g13
I01
sg14
F-0.9343722979784198
sg15
g164
sbs(I255
I1
tp168
g0
(g9
g2
Ntp169
Rp170
(dp171
g13
I01
sg14
F-0.6470993253004185
sg15
g168
sbssS'nodes'
p172
(dp173
I0
g0
(cneat.genes
DefaultNodeGene
p174
g2
Ntp175
Rp176
(dp177
S'activation'
p178
S'tanh'
p179
sS'bias'
p180
F30.25573270834705
sS'response'
p181
F1.0
sg15
I0
sS'aggregation'
p182
S'sum'
p183
sbsI1
g0
(g174
g2
Ntp184
Rp185
(dp186
g178
S'relu'
p187
sg180
F-6.764159077579742
sg181
F1.0
sg15
I1
sg182
g183
sbsI2
g0
(g174
g2
Ntp188
Rp189
(dp190
g178
g179
sg180
F-9.300180248618656
sg181
F1.0
sg15
I2
sg182
g183
sbsI3
g0
(g174
g2
Ntp191
Rp192
(dp193
g178
g179
sg180
F6.761376240706508
sg181
F1.0
sg15
I3
sg182
g183
sbsI4
g0
(g174
g2
Ntp194
Rp195
(dp196
g178
g179
sg180
F-10.703400593343451
sg181
F1.0
sg15
I4
sg182
g183
sbsI5
g0
(g174
g2
Ntp197
Rp198
(dp199
g178
g179
sg180
F28.27791710934075
sg181
F1.0
sg15
I5
sg182
g183
sbsI6
g0
(g174
g2
Ntp200
Rp201
(dp202
g178
g179
sg180
F-15.371533322579168
sg181
F1.0
sg15
I6
sg182
g183
sbsI7
g0
(g174
g2
Ntp203
Rp204
(dp205
g178
g179
sg180
F-9.579214407896457
sg181
F1.0
sg15
I7
sg182
g183
sbsI8
g0
(g174
g2
Ntp206
Rp207
(dp208
g178
g179
sg180
F-15.060894646188757
sg181
F1.0
sg15
I8
sg182
g183
sbsI9
g0
(g174
g2
Ntp209
Rp210
(dp211
g178
g179
sg180
F5.612361652451186
sg181
F1.0
sg15
I9
sg182
g183
sbsI257
g0
(g174
g2
Ntp212
Rp213
(dp214
g178
g179
sg180
F-16.11444358968642
sg181
F1.0
sg15
I257
sg182
g183
sbsI256
g0
(g174
g2
Ntp215
Rp216
(dp217
g178
g179
sg180
F-13.165345336577467
sg181
F1.0
sg15
I256
sg182
g183
sbsI536
g0
(g174
g2
Ntp218
Rp219
(dp220
g178
g187
sg180
F-17.376527132924753
sg181
F1.0
sg15
I536
sg182
g183
sbsI411
g0
(g174
g2
Ntp221
Rp222
(dp223
g178
g179
sg180
F4.238058158299923
sg181
F1.0
sg15
I411
sg182
g183
sbsI255
g0
(g174
g2
Ntp224
Rp225
(dp226
g178
g179
sg180
F0.9236103325147388
sg181
F1.0
sg15
I255
sg182
g183
sbssg15
I47
sS'fitness'
p227
Nsb.