ccopy_reg
_reconstructor
p0
(cneat.genome
DefaultGenome
p1
c__builtin__
object
p2
Ntp3
Rp4
(dp5
S'connections'
p6
(dp7
(I-20
I57
tp8
g0
(cneat.genes
DefaultConnectionGene
p9
g2
Ntp10
Rp11
(dp12
S'enabled'
p13
I01
sS'weight'
p14
F-0.22974503108738553
sS'key'
p15
g8
sbs(I-15
I57
tp16
g0
(g9
g2
Ntp17
Rp18
(dp19
g13
I01
sg14
F1.5806481023061443
sg15
g16
sbs(I57
I2
tp20
g0
(g9
g2
Ntp21
Rp22
(dp23
g13
I01
sg14
F-2.1492543626544522
sg15
g20
sbs(I-2
I57
tp24
g0
(g9
g2
Ntp25
Rp26
(dp27
g13
I01
sg14
F-0.6670834372477832
sg15
g24
sbs(I-6
I57
tp28
g0
(g9
g2
Ntp29
Rp30
(dp31
g13
I01
sg14
F0.3189342547112725
sg15
g28
sbs(I-11
I57
tp32
g0
(g9
g2
Ntp33
Rp34
(dp35
g13
I01
sg14
F-0.2742945690942011
sg15
g32
sbs(I-10
I57
tp36
g0
(g9
g2
Ntp37
Rp38
(dp39
g13
I01
sg14
F1.547143537507714
sg15
g36
sbs(I57
I5
tp40
g0
(g9
g2
Ntp41
Rp42
(dp43
g13
I01
sg14
F-1.8035054613549122
sg15
g40
sbs(I-5
I57
tp44
g0
(g9
g2
Ntp45
Rp46
(dp47
g13
I01
sg14
F-1.0762257101589596
sg15
g44
sbs(I57
I9
tp48
g0
(g9
g2
Ntp49
Rp50
(dp51
g13
I01
sg14
F1.636857414584091
sg15
g48
sbs(I57
I1
tp52
g0
(g9
g2
Ntp53
Rp54
(dp55
g13
I01
sg14
F-0.0908387649216271
sg15
g52
sbs(I-16
I57
tp56
g0
(g9
g2
Ntp57
Rp58
(dp59
g13
I01
sg14
F-0.25780573097282955
sg15
g56
sbs(I57
I8
tp60
g0
(g9
g2
Ntp61
Rp62
(dp63
g13
I01
sg14
F0.5188306173376331
sg15
g60
sbs(I-12
I57
tp64
g0
(g9
g2
Ntp65
Rp66
(dp67
g13
I01
sg14
F-0.40065780990648614
sg15
g64
sbs(I57
I4
tp68
g0
(g9
g2
Ntp69
Rp70
(dp71
g13
I01
sg14
F-1.1547989485917804
sg15
g68
sbs(I-17
I57
tp72
g0
(g9
g2
Ntp73
Rp74
(dp75
g13
I01
sg14
F0.8958496211255872
sg15
g72
sbs(I57
I6
tp76
g0
(g9
g2
Ntp77
Rp78
(dp79
g13
I01
sg14
F-0.8263960176519232
sg15
g76
sbs(I-7
I57
tp80
g0
(g9
g2
Ntp81
Rp82
(dp83
g13
I01
sg14
F-0.10662668110648107
sg15
g80
sbs(I57
I0
tp84
g0
(g9
g2
Ntp85
Rp86
(dp87
g13
I01
sg14
F1.3710114661394242
sg15
g84
sbs(I-3
I57
tp88
g0
(g9
g2
Ntp89
Rp90
(dp91
g13
I01
sg14
F-1.2192495096678775
sg15
g88
sbs(I-1
I57
tp92
g0
(g9
g2
Ntp93
Rp94
(dp95
g13
I01
sg14
F1.3979615082404078
sg15
g92
sbs(I-14
I57
tp96
g0
(g9
g2
Ntp97
Rp98
(dp99
g13
I01
sg14
F0.021036365024044143
sg15
g96
sbs(I-19
I57
tp100
g0
(g9
g2
Ntp101
Rp102
(dp103
g13
I01
sg14
F0.7179202311881129
sg15
g100
sbs(I-18
I57
tp104
g0
(g9
g2
Ntp105
Rp106
(dp107
g13
I01
sg14
F-0.6548469358206822
sg15
g104
sbs(I57
I7
tp108
g0
(g9
g2
Ntp109
Rp110
(dp111
g13
I01
sg14
F-2.020445814328012
sg15
g108
sbs(I-8
I57
tp112
g0
(g9
g2
Ntp113
Rp114
(dp115
g13
I01
sg14
F1.79271752607508
sg15
g112
sbs(I-13
I57
tp116
g0
(g9
g2
Ntp117
Rp118
(dp119
g13
I01
sg14
F0.6288875210156486
sg15
g116
sbs(I57
I3
tp120
g0
(g9
g2
Ntp121
Rp122
(dp123
g13
I01
sg14
F0.3848651489818785
sg15
g120
sbs(I-4
I57
tp124
g0
(g9
g2
Ntp125
Rp126
(dp127
g13
I01
sg14
F0.03155353202466665
sg15
g124
sbs(I-9
I57
tp128
g0
(g9
g2
Ntp129
Rp130
(dp131
g13
I01
sg14
F0.3456204901908102
sg15
g128
sbssS'nodes'
p132
(dp133
I0
g0
(cneat.genes
DefaultNodeGene
p134
g2
Ntp135
Rp136
(dp137
S'activation'
p138
S'relu'
p139
sS'bias'
p140
F1.5981272100892665
sS'response'
p141
F1.0
sg15
I0
sS'aggregation'
p142
S'sum'
p143
sbsI1
g0
(g134
g2
Ntp144
Rp145
(dp146
g138
g139
sg140
F-5.46765948800442
sg141
F1.0
sg15
I1
sg142
g143
sbsI2
g0
(g134
g2
Ntp147
Rp148
(dp149
g138
g139
sg140
F-10.487157152031823
sg141
F1.0
sg15
I2
sg142
g143
sbsI3
g0
(g134
g2
Ntp150
Rp151
(dp152
g138
g139
sg140
F4.96220764107869
sg141
F1.0
sg15
I3
sg142
g143
sbsI4
g0
(g134
g2
Ntp153
Rp154
(dp155
g138
g139
sg140
F1.331675549876419
sg141
F1.0
sg15
I4
sg142
g143
sbsI5
g0
(g134
g2
Ntp156
Rp157
(dp158
g138
g139
sg140
F-3.6536595063213446
sg141
F1.0
sg15
I5
sg142
g143
sbsI6
g0
(g134
g2
Ntp159
Rp160
(dp161
g138
g139
sg140
F7.784676953217373
sg141
F1.0
sg15
I6
sg142
g143
sbsI7
g0
(g134
g2
Ntp162
Rp163
(dp164
g138
g139
sg140
F-1.2199215606205092
sg141
F1.0
sg15
I7
sg142
g143
sbsI8
g0
(g134
g2
Ntp165
Rp166
(dp167
g138
g139
sg140
F1.463887378520885
sg141
F1.0
sg15
I8
sg142
g143
sbsI9
g0
(g134
g2
Ntp168
Rp169
(dp170
g138
g139
sg140
F2.1148288247612514
sg141
F1.0
sg15
I9
sg142
g143
sbsI57
g0
(g134
g2
Ntp171
Rp172
(dp173
g138
g139
sg140
F7.818712659928505
sg141
F1.0
sg15
I57
sg142
g143
sbssg15
I48
sS'fitness'
p174
Nsb.