ccopy_reg
_reconstructor
p0
(cneat.genome
DefaultGenome
p1
c__builtin__
object
p2
Ntp3
Rp4
(dp5
S'connections'
p6
(dp7
(I-10
I57
tp8
g0
(cneat.genes
DefaultConnectionGene
p9
g2
Ntp10
Rp11
(dp12
S'enabled'
p13
I01
sS'weight'
p14
F-0.12383078223973544
sS'key'
p15
g8
sbs(I57
I4
tp16
g0
(g9
g2
Ntp17
Rp18
(dp19
g13
I01
sg14
F-0.11624636650704409
sg15
g16
sbs(I57
I9
tp20
g0
(g9
g2
Ntp21
Rp22
(dp23
g13
I01
sg14
F-1.5722582211594323
sg15
g20
sbs(I57
I5
tp24
g0
(g9
g2
Ntp25
Rp26
(dp27
g13
I01
sg14
F0.23748642587372798
sg15
g24
sbs(I-5
I57
tp28
g0
(g9
g2
Ntp29
Rp30
(dp31
g13
I01
sg14
F-0.756681892760179
sg15
g28
sbs(I57
I6
tp32
g0
(g9
g2
Ntp33
Rp34
(dp35
g13
I01
sg14
F0.440886987969838
sg15
g32
sbs(I-7
I57
tp36
g0
(g9
g2
Ntp37
Rp38
(dp39
g13
I01
sg14
F1.9124629618732565
sg15
g36
sbs(I57
I7
tp40
g0
(g9
g2
Ntp41
Rp42
(dp43
g13
I01
sg14
F1.5502224337612989
sg15
g40
sbs(I-8
I57
tp44
g0
(g9
g2
Ntp45
Rp46
(dp47
g13
I01
sg14
F0.4814540514163889
sg15
g44
sbs(I57
I0
tp48
g0
(g9
g2
Ntp49
Rp50
(dp51
g13
I01
sg14
F-0.8828887373894952
sg15
g48
sbs(I57
I1
tp52
g0
(g9
g2
Ntp53
Rp54
(dp55
g13
I01
sg14
F-1.1420172621562867
sg15
g52
sbs(I57
I8
tp56
g0
(g9
g2
Ntp57
Rp58
(dp59
g13
I01
sg14
F1.2607049659979535
sg15
g56
sbs(I57
I2
tp60
g0
(g9
g2
Ntp61
Rp62
(dp63
g13
I01
sg14
F-0.9588376271253206
sg15
g60
sbs(I-3
I57
tp64
g0
(g9
g2
Ntp65
Rp66
(dp67
g13
I01
sg14
F-1.6253403003104137
sg15
g64
sbs(I-1
I57
tp68
g0
(g9
g2
Ntp69
Rp70
(dp71
g13
I01
sg14
F1.082330437474104
sg15
g68
sbs(I57
I3
tp72
g0
(g9
g2
Ntp73
Rp74
(dp75
g13
I01
sg14
F0.8177379244964601
sg15
g72
sbs(I-4
I57
tp76
g0
(g9
g2
Ntp77
Rp78
(dp79
g13
I01
sg14
F0.0006842197006777844
sg15
g76
sbs(I-2
I57
tp80
g0
(g9
g2
Ntp81
Rp82
(dp83
g13
I01
sg14
F0.7674140234152591
sg15
g80
sbs(I-6
I57
tp84
g0
(g9
g2
Ntp85
Rp86
(dp87
g13
I01
sg14
F-0.2873169970159636
sg15
g84
sbs(I-9
I57
tp88
g0
(g9
g2
Ntp89
Rp90
(dp91
g13
I01
sg14
F1.8603764121598647
sg15
g88
sbssS'nodes'
p92
(dp93
I0
g0
(cneat.genes
DefaultNodeGene
p94
g2
Ntp95
Rp96
(dp97
S'activation'
p98
S'relu'
p99
sS'bias'
p100
F-0.4814385614712421
sS'response'
p101
F1.0
sg15
I0
sS'aggregation'
p102
S'sum'
p103
sbsI1
g0
(g94
g2
Ntp104
Rp105
(dp106
g98
g99
sg100
F7.35644434199454
sg101
F1.0
sg15
I1
sg102
g103
sbsI2
g0
(g94
g2
Ntp107
Rp108
(dp109
g98
g99
sg100
F5.485985456587944
sg101
F1.0
sg15
I2
sg102
g103
sbsI3
g0
(g94
g2
Ntp110
Rp111
(dp112
g98
g99
sg100
F-7.64595439518045
sg101
F1.0
sg15
I3
sg102
g103
sbsI4
g0
(g94
g2
Ntp113
Rp114
(dp115
g98
g99
sg100
F8.838870897774779
sg101
F1.0
sg15
I4
sg102
g103
sbsI5
g0
(g94
g2
Ntp116
Rp117
(dp118
g98
g99
sg100
F4.001684502802409
sg101
F1.0
sg15
I5
sg102
g103
sbsI6
g0
(g94
g2
Ntp119
Rp120
(dp121
g98
g99
sg100
F9.073379870742377
sg101
F1.0
sg15
I6
sg102
g103
sbsI7
g0
(g94
g2
Ntp122
Rp123
(dp124
g98
g99
sg100
F-3.2310361591459085
sg101
F1.0
sg15
I7
sg102
g103
sbsI8
g0
(g94
g2
Ntp125
Rp126
(dp127
g98
g99
sg100
F-3.171429678278663
sg101
F1.0
sg15
I8
sg102
g103
sbsI9
g0
(g94
g2
Ntp128
Rp129
(dp130
g98
g99
sg100
F8.440999535499175
sg101
F1.0
sg15
I9
sg102
g103
sbsI57
g0
(g94
g2
Ntp131
Rp132
(dp133
g98
g99
sg100
F-9.63238578301876
sg101
F1.0
sg15
I57
sg102
g103
sbssg15
I48
sS'fitness'
p134
F-0.11728916939146128
sb.