ccopy_reg
_reconstructor
p0
(cneat.genome
DefaultGenome
p1
c__builtin__
object
p2
Ntp3
Rp4
(dp5
S'connections'
p6
(dp7
(I-5
I58
tp8
g0
(cneat.genes
DefaultConnectionGene
p9
g2
Ntp10
Rp11
(dp12
S'enabled'
p13
I01
sS'weight'
p14
F-0.6229651225198506
sS'key'
p15
g8
sbs(I-1
I58
tp16
g0
(g9
g2
Ntp17
Rp18
(dp19
g13
I01
sg14
F-0.734736491708964
sg15
g16
sbs(I-11
I58
tp20
g0
(g9
g2
Ntp21
Rp22
(dp23
g13
I01
sg14
F0.12771900188898958
sg15
g20
sbs(I58
I1
tp24
g0
(g9
g2
Ntp25
Rp26
(dp27
g13
I01
sg14
F1.1945424457966363
sg15
g24
sbs(I-8
I58
tp28
g0
(g9
g2
Ntp29
Rp30
(dp31
g13
I01
sg14
F-0.7163961663009
sg15
g28
sbs(I-14
I58
tp32
g0
(g9
g2
Ntp33
Rp34
(dp35
g13
I01
sg14
F-0.3185095036478784
sg15
g32
sbs(I58
I5
tp36
g0
(g9
g2
Ntp37
Rp38
(dp39
g13
I01
sg14
F0.1625934438692461
sg15
g36
sbs(I-2
I58
tp40
g0
(g9
g2
Ntp41
Rp42
(dp43
g13
I01
sg14
F-1.1060513060541022
sg15
g40
sbs(I-4
I58
tp44
g0
(g9
g2
Ntp45
Rp46
(dp47
g13
I01
sg14
F0.4956527940992271
sg15
g44
sbs(I-17
I58
tp48
g0
(g9
g2
Ntp49
Rp50
(dp51
g13
I01
sg14
F-0.3930748645649998
sg15
g48
sbs(I-20
I58
tp52
g0
(g9
g2
Ntp53
Rp54
(dp55
g13
I01
sg14
F0.15674450201017046
sg15
g52
sbs(I58
I2
tp56
g0
(g9
g2
Ntp57
Rp58
(dp59
g13
I01
sg14
F-1.2448108079589477
sg15
g56
sbs(I-7
I58
tp60
g0
(g9
g2
Ntp61
Rp62
(dp63
g13
I01
sg14
F1.4174339223616652
sg15
g60
sbs(I58
I6
tp64
g0
(g9
g2
Ntp65
Rp66
(dp67
g13
I01
sg14
F0.20736409480564064
sg15
g64
sbs(I-3
I58
tp68
g0
(g9
g2
Ntp69
Rp70
(dp71
g13
I01
sg14
F1.6521359287183162
sg15
g68
sbs(I-6
I58
tp72
g0
(g9
g2
Ntp73
Rp74
(dp75
g13
I01
sg14
F0.005875313783013609
sg15
g72
sbs(I58
I3
tp76
g0
(g9
g2
Ntp77
Rp78
(dp79
g13
I01
sg14
F-1.5901369628983717
sg15
g76
sbs(I-13
I58
tp80
g0
(g9
g2
Ntp81
Rp82
(dp83
g13
I01
sg14
F2.0084779349992123
sg15
g80
sbs(I-10
I58
tp84
g0
(g9
g2
Ntp85
Rp86
(dp87
g13
I01
sg14
F-1.1784411804926769
sg15
g84
sbs(I-19
I58
tp88
g0
(g9
g2
Ntp89
Rp90
(dp91
g13
I01
sg14
F1.8323130853348422
sg15
g88
sbs(I58
I8
tp92
g0
(g9
g2
Ntp93
Rp94
(dp95
g13
I01
sg14
F0.678406207413956
sg15
g92
sbs(I-16
I58
tp96
g0
(g9
g2
Ntp97
Rp98
(dp99
g13
I01
sg14
F-0.7029300763020638
sg15
g96
sbs(I-9
I58
tp100
g0
(g9
g2
Ntp101
Rp102
(dp103
g13
I01
sg14
F-1.851482655677322
sg15
g100
sbs(I58
I7
tp104
g0
(g9
g2
Ntp105
Rp106
(dp107
g13
I01
sg14
F0.19106244701797345
sg15
g104
sbs(I-12
I58
tp108
g0
(g9
g2
Ntp109
Rp110
(dp111
g13
I01
sg14
F1.024912766151236
sg15
g108
sbs(I58
I0
tp112
g0
(g9
g2
Ntp113
Rp114
(dp115
g13
I01
sg14
F-1.3328137779554292
sg15
g112
sbs(I58
I9
tp116
g0
(g9
g2
Ntp117
Rp118
(dp119
g13
I01
sg14
F-1.1081257600632013
sg15
g116
sbs(I-18
I58
tp120
g0
(g9
g2
Ntp121
Rp122
(dp123
g13
I01
sg14
F-2.0089386080735077
sg15
g120
sbs(I58
I4
tp124
g0
(g9
g2
Ntp125
Rp126
(dp127
g13
I01
sg14
F-0.9501464530844256
sg15
g124
sbs(I-15
I58
tp128
g0
(g9
g2
Ntp129
Rp130
(dp131
g13
I01
sg14
F-0.2679787553930768
sg15
g128
sbssS'nodes'
p132
(dp133
I0
g0
(cneat.genes
DefaultNodeGene
p134
g2
Ntp135
Rp136
(dp137
S'activation'
p138
S'relu'
p139
sS'bias'
p140
F1.4575846174130425
sS'response'
p141
F1.0
sg15
I0
sS'aggregation'
p142
S'sum'
p143
sbsI1
g0
(g134
g2
Ntp144
Rp145
(dp146
g138
g139
sg140
F-9.236378189658277
sg141
F1.0
sg15
I1
sg142
g143
sbsI2
g0
(g134
g2
Ntp147
Rp148
(dp149
g138
g139
sg140
F-3.959663930247264
sg141
F1.0
sg15
I2
sg142
g143
sbsI3
g0
(g134
g2
Ntp150
Rp151
(dp152
g138
g139
sg140
F9.831211333341738
sg141
F1.0
sg15
I3
sg142
g143
sbsI4
g0
(g134
g2
Ntp153
Rp154
(dp155
g138
g139
sg140
F6.990479490101585
sg141
F1.0
sg15
I4
sg142
g143
sbsI5
g0
(g134
g2
Ntp156
Rp157
(dp158
g138
g139
sg140
F-1.5316209965857266
sg141
F1.0
sg15
I5
sg142
g143
sbsI6
g0
(g134
g2
Ntp159
Rp160
(dp161
g138
g139
sg140
F4.695422323603166
sg141
F1.0
sg15
I6
sg142
g143
sbsI7
g0
(g134
g2
Ntp162
Rp163
(dp164
g138
g139
sg140
F9.324546394174707
sg141
F1.0
sg15
I7
sg142
g143
sbsI8
g0
(g134
g2
Ntp165
Rp166
(dp167
g138
g139
sg140
F-11.149672639008108
sg141
F1.0
sg15
I8
sg142
g143
sbsI9
g0
(g134
g2
Ntp168
Rp169
(dp170
g138
g139
sg140
F23.676552073300293
sg141
F1.0
sg15
I9
sg142
g143
sbsI58
g0
(g134
g2
Ntp171
Rp172
(dp173
g138
g139
sg140
F-9.898155695658133
sg141
F1.0
sg15
I58
sg142
g143
sbssg15
I49
sS'fitness'
p174
F0.09091354324934711
sb.