ccopy_reg
_reconstructor
p0
(cneat.genome
DefaultGenome
p1
c__builtin__
object
p2
Ntp3
Rp4
(dp5
S'connections'
p6
(dp7
(I257
I3
tp8
g0
(cneat.genes
DefaultConnectionGene
p9
g2
Ntp10
Rp11
(dp12
S'enabled'
p13
I00
sS'weight'
p14
F2.168056266485117
sS'key'
p15
g8
sbs(I255
I8
tp16
g0
(g9
g2
Ntp17
Rp18
(dp19
g13
I01
sg14
F-0.24685141008594774
sg15
g16
sbs(I6
I6
tp20
g0
(g9
g2
Ntp21
Rp22
(dp23
g13
I01
sg14
F-0.1336283634396892
sg15
g20
sbs(I257
I6
tp24
g0
(g9
g2
Ntp25
Rp26
(dp27
g13
I00
sg14
F1.7009056367057744
sg15
g24
sbs(I627
I3
tp28
g0
(g9
g2
Ntp29
Rp30
(dp31
g13
I01
sg14
F2.339109240059887
sg15
g28
sbs(I-5
I255
tp32
g0
(g9
g2
Ntp33
Rp34
(dp35
g13
I01
sg14
F-2.0754769697712727
sg15
g32
sbs(I-10
I255
tp36
g0
(g9
g2
Ntp37
Rp38
(dp39
g13
I01
sg14
F3.0791797584739893
sg15
g36
sbs(I257
I2
tp40
g0
(g9
g2
Ntp41
Rp42
(dp43
g13
I01
sg14
F0.5237989837984329
sg15
g40
sbs(I-5
I257
tp44
g0
(g9
g2
Ntp45
Rp46
(dp47
g13
I00
sg14
F0.4049526215517399
sg15
g44
sbs(I3
I3
tp48
g0
(g9
g2
Ntp49
Rp50
(dp51
g13
I00
sg14
F0.9171189652900948
sg15
g48
sbs(I255
I4
tp52
g0
(g9
g2
Ntp53
Rp54
(dp55
g13
I01
sg14
F-0.7605075996793718
sg15
g52
sbs(I255
I0
tp56
g0
(g9
g2
Ntp57
Rp58
(dp59
g13
I00
sg14
F0.08277480416591032
sg15
g56
sbs(I257
I5
tp60
g0
(g9
g2
Ntp61
Rp62
(dp63
g13
I00
sg14
F5.216744679497674
sg15
g60
sbs(I-8
I536
tp64
g0
(g9
g2
Ntp65
Rp66
(dp67
g13
I01
sg14
F1.714554944122157
sg15
g64
sbs(I2
I2
tp68
g0
(g9
g2
Ntp69
Rp70
(dp71
g13
I00
sg14
F-1.7325882046082484
sg15
g68
sbs(I255
I3
tp72
g0
(g9
g2
Ntp73
Rp74
(dp75
g13
I01
sg14
F-1.0575191086010753
sg15
g72
sbs(I257
I1
tp76
g0
(g9
g2
Ntp77
Rp78
(dp79
g13
I01
sg14
F-1.1625615811995933
sg15
g76
sbs(I536
I255
tp80
g0
(g9
g2
Ntp81
Rp82
(dp83
g13
I00
sg14
F2.7009625640067916
sg15
g80
sbs(I-7
I255
tp84
g0
(g9
g2
Ntp85
Rp86
(dp87
g13
I00
sg14
F1.0461334671128657
sg15
g84
sbs(I257
I4
tp88
g0
(g9
g2
Ntp89
Rp90
(dp91
g13
I01
sg14
F-0.3126291872268048
sg15
g88
sbs(I-2
I255
tp92
g0
(g9
g2
Ntp93
Rp94
(dp95
g13
I00
sg14
F-1.3832103433626342
sg15
g92
sbs(I257
I9
tp96
g0
(g9
g2
Ntp97
Rp98
(dp99
g13
I01
sg14
F-1.119302851547925
sg15
g96
sbs(I255
I2
tp100
g0
(g9
g2
Ntp101
Rp102
(dp103
g13
I01
sg14
F0.21092444948735412
sg15
g100
sbs(I-10
I1
tp104
g0
(g9
g2
Ntp105
Rp106
(dp107
g13
I01
sg14
F1.3604900961526367
sg15
g104
sbs(I-8
I255
tp108
g0
(g9
g2
Ntp109
Rp110
(dp111
g13
I00
sg14
F1.5831482010053948
sg15
g108
sbs(I627
I255
tp112
g0
(g9
g2
Ntp113
Rp114
(dp115
g13
I01
sg14
F3.001580501852681
sg15
g112
sbs(I536
I627
tp116
g0
(g9
g2
Ntp117
Rp118
(dp119
g13
I01
sg14
F1.300678661013342
sg15
g116
sbs(I-3
I255
tp120
g0
(g9
g2
Ntp121
Rp122
(dp123
g13
I01
sg14
F1.2030454005642077
sg15
g120
sbs(I257
I257
tp124
g0
(g9
g2
Ntp125
Rp126
(dp127
g13
I01
sg14
F-1.3742444724927354
sg15
g124
sbs(I255
I255
tp128
g0
(g9
g2
Ntp129
Rp130
(dp131
g13
I01
sg14
F1.704046552610462
sg15
g128
sbs(I411
I3
tp132
g0
(g9
g2
Ntp133
Rp134
(dp135
g13
I00
sg14
F0.43559546491287704
sg15
g132
sbs(I255
I1
tp136
g0
(g9
g2
Ntp137
Rp138
(dp139
g13
I01
sg14
F0.4070989172559913
sg15
g136
sbssS'nodes'
p140
(dp141
I0
g0
(cneat.genes
DefaultNodeGene
p142
g2
Ntp143
Rp144
(dp145
S'activation'
p146
S'tanh'
p147
sS'bias'
p148
F29.66819510401265
sS'response'
p149
F1.0
sg15
I0
sS'aggregation'
p150
S'sum'
p151
sbsI1
g0
(g142
g2
Ntp152
Rp153
(dp154
g146
g147
sg148
F8.516696535506895
sg149
F1.0
sg15
I1
sg150
g151
sbsI2
g0
(g142
g2
Ntp155
Rp156
(dp157
g146
g147
sg148
F-11.561059164514802
sg149
F1.0
sg15
I2
sg150
g151
sbsI3
g0
(g142
g2
Ntp158
Rp159
(dp160
g146
g147
sg148
F7.246917515889264
sg149
F1.0
sg15
I3
sg150
g151
sbsI4
g0
(g142
g2
Ntp161
Rp162
(dp163
g146
g147
sg148
F-10.445434935396554
sg149
F1.0
sg15
I4
sg150
g151
sbsI5
g0
(g142
g2
Ntp164
Rp165
(dp166
g146
g147
sg148
F2.210959761948358
sg149
F1.0
sg15
I5
sg150
g151
sbsI6
g0
(g142
g2
Ntp167
Rp168
(dp169
g146
g147
sg148
F-15.052302083282191
sg149
F1.0
sg15
I6
sg150
g151
sbsI7
g0
(g142
g2
Ntp170
Rp171
(dp172
g146
S'relu'
p173
sg148
F-8.554010499251442
sg149
F1.0
sg15
I7
sg150
g151
sbsI8
g0
(g142
g2
Ntp174
Rp175
(dp176
g146
g147
sg148
F2.124540633446344
sg149
F1.0
sg15
I8
sg150
g151
sbsI9
g0
(g142
g2
Ntp177
Rp178
(dp179
g146
g147
sg148
F5.166683899663855
sg149
F1.0
sg15
I9
sg150
g151
sbsI257
g0
(g142
g2
Ntp180
Rp181
(dp182
g146
g147
sg148
F-8.006988329925733
sg149
F1.0
sg15
I257
sg150
g151
sbsI627
g0
(g142
g2
Ntp183
Rp184
(dp185
g146
g147
sg148
F7.651591481753887
sg149
F1.0
sg15
I627
sg150
g151
sbsI536
g0
(g142
g2
Ntp186
Rp187
(dp188
g146
g173
sg148
F-16.79116954108482
sg149
F1.0
sg15
I536
sg150
g151
sbsI411
g0
(g142
g2
Ntp189
Rp190
(dp191
g146
g147
sg148
F4.294653861663561
sg149
F1.0
sg15
I411
sg150
g151
sbsI255
g0
(g142
g2
Ntp192
Rp193
(dp194
g146
g147
sg148
F1.0228428668171086
sg149
F1.0
sg15
I255
sg150
g151
sbssg15
I49
sS'fitness'
p195
Nsb.