ccopy_reg
_reconstructor
p0
(cneat.genome
DefaultGenome
p1
c__builtin__
object
p2
Ntp3
Rp4
(dp5
S'connections'
p6
(dp7
(I-6
I91
tp8
g0
(cneat.genes
DefaultConnectionGene
p9
g2
Ntp10
Rp11
(dp12
S'enabled'
p13
I01
sS'weight'
p14
F-0.3586710079410075
sS'key'
p15
g8
sbs(I-4
I92
tp16
g0
(g9
g2
Ntp17
Rp18
(dp19
g13
I01
sg14
F1.8688700090488681
sg15
g16
sbs(I-2
I535
tp20
g0
(g9
g2
Ntp21
Rp22
(dp23
g13
I01
sg14
F-1.4086591452541666
sg15
g20
sbs(I92
I3
tp24
g0
(g9
g2
Ntp25
Rp26
(dp27
g13
I01
sg14
F-0.7888869450023224
sg15
g24
sbs(I91
I4
tp28
g0
(g9
g2
Ntp29
Rp30
(dp31
g13
I01
sg14
F0.1419035874719644
sg15
g28
sbs(I91
I9
tp32
g0
(g9
g2
Ntp33
Rp34
(dp35
g13
I01
sg14
F0.23788289438153817
sg15
g32
sbs(I91
I0
tp36
g0
(g9
g2
Ntp37
Rp38
(dp39
g13
I01
sg14
F0.6929400466920604
sg15
g36
sbs(I-3
I92
tp40
g0
(g9
g2
Ntp41
Rp42
(dp43
g13
I01
sg14
F-1.0026358465272978
sg15
g40
sbs(I3
I3
tp44
g0
(g9
g2
Ntp45
Rp46
(dp47
g13
I01
sg14
F-0.19178850463135194
sg15
g44
sbs(I-4
I93
tp48
g0
(g9
g2
Ntp49
Rp50
(dp51
g13
I01
sg14
F-0.5139418797051377
sg15
g48
sbs(I92
I0
tp52
g0
(g9
g2
Ntp53
Rp54
(dp55
g13
I00
sg14
F-0.8335888660315436
sg15
g52
sbs(I93
I5
tp56
g0
(g9
g2
Ntp57
Rp58
(dp59
g13
I01
sg14
F2.744833104845338
sg15
g56
sbs(I-3
I91
tp60
g0
(g9
g2
Ntp61
Rp62
(dp63
g13
I00
sg14
F-2.814216315804863
sg15
g60
sbs(I-2
I91
tp64
g0
(g9
g2
Ntp65
Rp66
(dp67
g13
I01
sg14
F0.054851895341581414
sg15
g64
sbs(I-10
I91
tp68
g0
(g9
g2
Ntp69
Rp70
(dp71
g13
I01
sg14
F0.21872812175803846
sg15
g68
sbs(I93
I9
tp72
g0
(g9
g2
Ntp73
Rp74
(dp75
g13
I01
sg14
F0.4729362937100367
sg15
g72
sbs(I91
I6
tp76
g0
(g9
g2
Ntp77
Rp78
(dp79
g13
I01
sg14
F2.1701842993162783
sg15
g76
sbs(I92
I8
tp80
g0
(g9
g2
Ntp81
Rp82
(dp83
g13
I01
sg14
F-0.8276588537686592
sg15
g80
sbs(I-2
I92
tp84
g0
(g9
g2
Ntp85
Rp86
(dp87
g13
I00
sg14
F-0.7777266581918614
sg15
g84
sbs(I91
I2
tp88
g0
(g9
g2
Ntp89
Rp90
(dp91
g13
I01
sg14
F-0.6184589493613903
sg15
g88
sbs(I5
I5
tp92
g0
(g9
g2
Ntp93
Rp94
(dp95
g13
I01
sg14
F0.9113939210817739
sg15
g92
sbs(I92
I5
tp96
g0
(g9
g2
Ntp97
Rp98
(dp99
g13
I00
sg14
F-2.088866133920031
sg15
g96
sbs(I-7
I93
tp100
g0
(g9
g2
Ntp101
Rp102
(dp103
g13
I01
sg14
F-0.9561899533084888
sg15
g100
sbs(I93
I93
tp104
g0
(g9
g2
Ntp105
Rp106
(dp107
g13
I01
sg14
F0.6625851481461441
sg15
g104
sbs(I-1
I92
tp108
g0
(g9
g2
Ntp109
Rp110
(dp111
g13
I01
sg14
F0.5227775835533139
sg15
g108
sbs(I-9
I93
tp112
g0
(g9
g2
Ntp113
Rp114
(dp115
g13
I00
sg14
F1.0014938263131228
sg15
g112
sbs(I92
I9
tp116
g0
(g9
g2
Ntp117
Rp118
(dp119
g13
I01
sg14
F0.02100417951557887
sg15
g116
sbs(I-1
I93
tp120
g0
(g9
g2
Ntp121
Rp122
(dp123
g13
I01
sg14
F0.4699442995491411
sg15
g120
sbs(I92
I2
tp124
g0
(g9
g2
Ntp125
Rp126
(dp127
g13
I01
sg14
F0.4118701989503877
sg15
g124
sbs(I8
I8
tp128
g0
(g9
g2
Ntp129
Rp130
(dp131
g13
I01
sg14
F0.13257590775632389
sg15
g128
sbs(I93
I2
tp132
g0
(g9
g2
Ntp133
Rp134
(dp135
g13
I01
sg14
F5.295334534969605
sg15
g132
sbssS'nodes'
p136
(dp137
I0
g0
(cneat.genes
DefaultNodeGene
p138
g2
Ntp139
Rp140
(dp141
S'activation'
p142
S'tanh'
p143
sS'bias'
p144
F-15.847284612027588
sS'response'
p145
F1.0
sg15
I0
sS'aggregation'
p146
S'sum'
p147
sbsI1
g0
(g138
g2
Ntp148
Rp149
(dp150
g142
g143
sg144
F2.061668162583501
sg145
F1.0
sg15
I1
sg146
g147
sbsI2
g0
(g138
g2
Ntp151
Rp152
(dp153
g142
g143
sg144
F-2.0615937937816193
sg145
F1.0
sg15
I2
sg146
g147
sbsI3
g0
(g138
g2
Ntp154
Rp155
(dp156
g142
g143
sg144
F1.3253313522656238
sg145
F1.0
sg15
I3
sg146
g147
sbsI4
g0
(g138
g2
Ntp157
Rp158
(dp159
g142
g143
sg144
F3.209319382996041
sg145
F1.0
sg15
I4
sg146
g147
sbsI5
g0
(g138
g2
Ntp160
Rp161
(dp162
g142
g143
sg144
F1.6595122177494372
sg145
F1.0
sg15
I5
sg146
g147
sbsI6
g0
(g138
g2
Ntp163
Rp164
(dp165
g142
g143
sg144
F7.3379786522909525
sg145
F1.0
sg15
I6
sg146
g147
sbsI7
g0
(g138
g2
Ntp166
Rp167
(dp168
g142
g143
sg144
F-14.282395183216508
sg145
F1.0
sg15
I7
sg146
g147
sbsI8
g0
(g138
g2
Ntp169
Rp170
(dp171
g142
g143
sg144
F-11.403519852913421
sg145
F1.0
sg15
I8
sg146
g147
sbsI9
g0
(g138
g2
Ntp172
Rp173
(dp174
g142
g143
sg144
F-9.42417710363782
sg145
F1.0
sg15
I9
sg146
g147
sbsI497
g0
(g138
g2
Ntp175
Rp176
(dp177
g142
g143
sg144
F7.901477397731803
sg145
F1.0
sg15
I497
sg146
g147
sbsI535
g0
(g138
g2
Ntp178
Rp179
(dp180
g142
g143
sg144
F-7.091313891481074
sg145
F1.0
sg15
I535
sg146
g147
sbsI91
g0
(g138
g2
Ntp181
Rp182
(dp183
g142
g143
sg144
F-4.582415796694399
sg145
F1.0
sg15
I91
sg146
g147
sbsI92
g0
(g138
g2
Ntp184
Rp185
(dp186
g142
g143
sg144
F8.787349508532934
sg145
F1.0
sg15
I92
sg146
g147
sbsI93
g0
(g138
g2
Ntp187
Rp188
(dp189
g142
g143
sg144
F-15.34085128044458
sg145
F1.0
sg15
I93
sg146
g147
sbssg15
I5
sS'fitness'
p190
F-0.009950254429009542
sb.