ccopy_reg
_reconstructor
p0
(cneat.genome
DefaultGenome
p1
c__builtin__
object
p2
Ntp3
Rp4
(dp5
S'connections'
p6
(dp7
(I-5
I14
tp8
g0
(cneat.genes
DefaultConnectionGene
p9
g2
Ntp10
Rp11
(dp12
S'enabled'
p13
I01
sS'weight'
p14
F1.1630426666337466
sS'key'
p15
g8
sbs(I14
I4
tp16
g0
(g9
g2
Ntp17
Rp18
(dp19
g13
I01
sg14
F0.11096578206255914
sg15
g16
sbs(I-13
I14
tp20
g0
(g9
g2
Ntp21
Rp22
(dp23
g13
I01
sg14
F-0.18609547955911734
sg15
g20
sbs(I-10
I14
tp24
g0
(g9
g2
Ntp25
Rp26
(dp27
g13
I01
sg14
F-0.06199087660121621
sg15
g24
sbs(I-8
I14
tp28
g0
(g9
g2
Ntp29
Rp30
(dp31
g13
I01
sg14
F-1.254883132237988
sg15
g28
sbs(I14
I0
tp32
g0
(g9
g2
Ntp33
Rp34
(dp35
g13
I01
sg14
F0.7797656714292874
sg15
g32
sbs(I-18
I14
tp36
g0
(g9
g2
Ntp37
Rp38
(dp39
g13
I01
sg14
F0.4332120760236799
sg15
g36
sbs(I14
I9
tp40
g0
(g9
g2
Ntp41
Rp42
(dp43
g13
I01
sg14
F-0.3984574075930911
sg15
g40
sbs(I-15
I14
tp44
g0
(g9
g2
Ntp45
Rp46
(dp47
g13
I01
sg14
F-0.12395660447798769
sg15
g44
sbs(I-20
I14
tp48
g0
(g9
g2
Ntp49
Rp50
(dp51
g13
I01
sg14
F-1.4251957011187055
sg15
g48
sbs(I14
I5
tp52
g0
(g9
g2
Ntp53
Rp54
(dp55
g13
I01
sg14
F0.6977026672186987
sg15
g52
sbs(I-2
I14
tp56
g0
(g9
g2
Ntp57
Rp58
(dp59
g13
I01
sg14
F-0.615198959272541
sg15
g56
sbs(I-9
I14
tp60
g0
(g9
g2
Ntp61
Rp62
(dp63
g13
I01
sg14
F-0.8042094512432683
sg15
g60
sbs(I14
I1
tp64
g0
(g9
g2
Ntp65
Rp66
(dp67
g13
I01
sg14
F-0.5928469956428447
sg15
g64
sbs(I-7
I14
tp68
g0
(g9
g2
Ntp69
Rp70
(dp71
g13
I01
sg14
F0.25306619557814275
sg15
g68
sbs(I-4
I14
tp72
g0
(g9
g2
Ntp73
Rp74
(dp75
g13
I01
sg14
F-1.1026249725183557
sg15
g72
sbs(I-17
I14
tp76
g0
(g9
g2
Ntp77
Rp78
(dp79
g13
I01
sg14
F0.35687332281735695
sg15
g76
sbs(I-12
I14
tp80
g0
(g9
g2
Ntp81
Rp82
(dp83
g13
I01
sg14
F-0.42267259311835226
sg15
g80
sbs(I-19
I14
tp84
g0
(g9
g2
Ntp85
Rp86
(dp87
g13
I01
sg14
F-1.3987971194187256
sg15
g84
sbs(I-14
I14
tp88
g0
(g9
g2
Ntp89
Rp90
(dp91
g13
I01
sg14
F1.1086690782406994
sg15
g88
sbs(I14
I6
tp92
g0
(g9
g2
Ntp93
Rp94
(dp95
g13
I01
sg14
F-1.1256068847288174
sg15
g92
sbs(I-3
I14
tp96
g0
(g9
g2
Ntp97
Rp98
(dp99
g13
I01
sg14
F-0.299107953056988
sg15
g96
sbs(I14
I2
tp100
g0
(g9
g2
Ntp101
Rp102
(dp103
g13
I01
sg14
F1.2736167671045104
sg15
g100
sbs(I-11
I14
tp104
g0
(g9
g2
Ntp105
Rp106
(dp107
g13
I01
sg14
F0.6280115216162268
sg15
g104
sbs(I-6
I14
tp108
g0
(g9
g2
Ntp109
Rp110
(dp111
g13
I01
sg14
F-0.7276907824127244
sg15
g108
sbs(I-1
I14
tp112
g0
(g9
g2
Ntp113
Rp114
(dp115
g13
I01
sg14
F-1.8773318901721419
sg15
g112
sbs(I14
I7
tp116
g0
(g9
g2
Ntp117
Rp118
(dp119
g13
I01
sg14
F0.32663603508751393
sg15
g116
sbs(I14
I3
tp120
g0
(g9
g2
Ntp121
Rp122
(dp123
g13
I01
sg14
F-0.5930512543953399
sg15
g120
sbs(I-16
I14
tp124
g0
(g9
g2
Ntp125
Rp126
(dp127
g13
I01
sg14
F-0.025108215961103124
sg15
g124
sbs(I14
I8
tp128
g0
(g9
g2
Ntp129
Rp130
(dp131
g13
I01
sg14
F0.6801493762091456
sg15
g128
sbssS'nodes'
p132
(dp133
I0
g0
(cneat.genes
DefaultNodeGene
p134
g2
Ntp135
Rp136
(dp137
S'activation'
p138
S'relu'
p139
sS'bias'
p140
F-9.054257151534413
sS'response'
p141
F1.0
sg15
I0
sS'aggregation'
p142
S'sum'
p143
sbsI1
g0
(g134
g2
Ntp144
Rp145
(dp146
g138
g139
sg140
F-9.013728124898062
sg141
F1.0
sg15
I1
sg142
g143
sbsI2
g0
(g134
g2
Ntp147
Rp148
(dp149
g138
g139
sg140
F11.552051165023157
sg141
F1.0
sg15
I2
sg142
g143
sbsI3
g0
(g134
g2
Ntp150
Rp151
(dp152
g138
g139
sg140
F-17.715325698596565
sg141
F1.0
sg15
I3
sg142
g143
sbsI4
g0
(g134
g2
Ntp153
Rp154
(dp155
g138
g139
sg140
F1.173729578644668
sg141
F1.0
sg15
I4
sg142
g143
sbsI5
g0
(g134
g2
Ntp156
Rp157
(dp158
g138
g139
sg140
F-0.05655836121226433
sg141
F1.0
sg15
I5
sg142
g143
sbsI6
g0
(g134
g2
Ntp159
Rp160
(dp161
g138
g139
sg140
F-9.69037484550784
sg141
F1.0
sg15
I6
sg142
g143
sbsI7
g0
(g134
g2
Ntp162
Rp163
(dp164
g138
g139
sg140
F-3.5318902749013192
sg141
F1.0
sg15
I7
sg142
g143
sbsI8
g0
(g134
g2
Ntp165
Rp166
(dp167
g138
g139
sg140
F-13.442439198935467
sg141
F1.0
sg15
I8
sg142
g143
sbsI9
g0
(g134
g2
Ntp168
Rp169
(dp170
g138
g139
sg140
F-10.503079875668481
sg141
F1.0
sg15
I9
sg142
g143
sbsI14
g0
(g134
g2
Ntp171
Rp172
(dp173
g138
g139
sg140
F-1.1117837503848116
sg141
F1.0
sg15
I14
sg142
g143
sbssg15
I5
sS'fitness'
p174
Nsb.