ccopy_reg
_reconstructor
p0
(cneat.genome
DefaultGenome
p1
c__builtin__
object
p2
Ntp3
Rp4
(dp5
S'connections'
p6
(dp7
(I34
I7
tp8
g0
(cneat.genes
DefaultConnectionGene
p9
g2
Ntp10
Rp11
(dp12
S'enabled'
p13
I01
sS'weight'
p14
F0.9695133656959987
sS'key'
p15
g8
sbs(I31
I6
tp16
g0
(g9
g2
Ntp17
Rp18
(dp19
g13
I01
sg14
F-0.4106288578915948
sg15
g16
sbs(I-1
I30
tp20
g0
(g9
g2
Ntp21
Rp22
(dp23
g13
I01
sg14
F0.0068152651568252915
sg15
g20
sbs(I-6
I34
tp24
g0
(g9
g2
Ntp25
Rp26
(dp27
g13
I01
sg14
F-1.5842522418368716
sg15
g24
sbs(I-4
I33
tp28
g0
(g9
g2
Ntp29
Rp30
(dp31
g13
I01
sg14
F-0.8754662844580604
sg15
g28
sbs(I32
I2
tp32
g0
(g9
g2
Ntp33
Rp34
(dp35
g13
I01
sg14
F0.5551252921997781
sg15
g32
sbs(I-4
I31
tp36
g0
(g9
g2
Ntp37
Rp38
(dp39
g13
I01
sg14
F-1.0156323736032369
sg15
g36
sbs(I33
I3
tp40
g0
(g9
g2
Ntp41
Rp42
(dp43
g13
I01
sg14
F-2.849759505896699
sg15
g40
sbs(I31
I8
tp44
g0
(g9
g2
Ntp45
Rp46
(dp47
g13
I01
sg14
F0.7250996191409195
sg15
g44
sbs(I30
I0
tp48
g0
(g9
g2
Ntp49
Rp50
(dp51
g13
I01
sg14
F-0.3635578321967959
sg15
g48
sbs(I-3
I30
tp52
g0
(g9
g2
Ntp53
Rp54
(dp55
g13
I01
sg14
F-0.8038867270853235
sg15
g52
sbs(I34
I8
tp56
g0
(g9
g2
Ntp57
Rp58
(dp59
g13
I01
sg14
F0.2922457670487761
sg15
g56
sbs(I31
I5
tp60
g0
(g9
g2
Ntp61
Rp62
(dp63
g13
I01
sg14
F-0.2767740310771425
sg15
g60
sbs(I-7
I32
tp64
g0
(g9
g2
Ntp65
Rp66
(dp67
g13
I01
sg14
F-0.4716981337529145
sg15
g64
sbs(I-9
I32
tp68
g0
(g9
g2
Ntp69
Rp70
(dp71
g13
I01
sg14
F-1.8753879784069485
sg15
g68
sbs(I3
I3
tp72
g0
(g9
g2
Ntp73
Rp74
(dp75
g13
I01
sg14
F1.3208780582601023
sg15
g72
sbs(I1
I1
tp76
g0
(g9
g2
Ntp77
Rp78
(dp79
g13
I01
sg14
F-0.9860663092837613
sg15
g76
sbs(I-2
I33
tp80
g0
(g9
g2
Ntp81
Rp82
(dp83
g13
I01
sg14
F0.03369951411733256
sg15
g80
sbs(I-8
I34
tp84
g0
(g9
g2
Ntp85
Rp86
(dp87
g13
I01
sg14
F-0.5622036337065991
sg15
g84
sbs(I-2
I30
tp88
g0
(g9
g2
Ntp89
Rp90
(dp91
g13
I01
sg14
F-0.8478467058459196
sg15
g88
sbs(I-5
I32
tp92
g0
(g9
g2
Ntp93
Rp94
(dp95
g13
I01
sg14
F0.33137536460135103
sg15
g92
sbs(I-2
I34
tp96
g0
(g9
g2
Ntp97
Rp98
(dp99
g13
I01
sg14
F1.3536091839816
sg15
g96
sbs(I9
I9
tp100
g0
(g9
g2
Ntp101
Rp102
(dp103
g13
I01
sg14
F-0.5436514513065087
sg15
g100
sbs(I33
I4
tp104
g0
(g9
g2
Ntp105
Rp106
(dp107
g13
I01
sg14
F0.6401944303643821
sg15
g104
sbs(I34
I3
tp108
g0
(g9
g2
Ntp109
Rp110
(dp111
g13
I01
sg14
F-2.188376728463454
sg15
g108
sbs(I33
I9
tp112
g0
(g9
g2
Ntp113
Rp114
(dp115
g13
I01
sg14
F1.6419737050999486
sg15
g112
sbs(I31
I2
tp116
g0
(g9
g2
Ntp117
Rp118
(dp119
g13
I01
sg14
F0.2962945869072882
sg15
g116
sbs(I30
I30
tp120
g0
(g9
g2
Ntp121
Rp122
(dp123
g13
I01
sg14
F-0.5649889871430013
sg15
g120
sbs(I31
I31
tp124
g0
(g9
g2
Ntp125
Rp126
(dp127
g13
I01
sg14
F-0.4961503346571669
sg15
g124
sbs(I-8
I31
tp128
g0
(g9
g2
Ntp129
Rp130
(dp131
g13
I01
sg14
F-0.17628301703232255
sg15
g128
sbs(I-1
I34
tp132
g0
(g9
g2
Ntp133
Rp134
(dp135
g13
I01
sg14
F0.993753145402675
sg15
g132
sbs(I-7
I30
tp136
g0
(g9
g2
Ntp137
Rp138
(dp139
g13
I01
sg14
F0.2144512604094667
sg15
g136
sbs(I-3
I32
tp140
g0
(g9
g2
Ntp141
Rp142
(dp143
g13
I01
sg14
F0.1358124519428346
sg15
g140
sbs(I32
I6
tp144
g0
(g9
g2
Ntp145
Rp146
(dp147
g13
I01
sg14
F-0.5569751786790483
sg15
g144
sbs(I0
I0
tp148
g0
(g9
g2
Ntp149
Rp150
(dp151
g13
I01
sg14
F-1.6830588592237221
sg15
g148
sbs(I33
I7
tp152
g0
(g9
g2
Ntp153
Rp154
(dp155
g13
I01
sg14
F0.06982214551207407
sg15
g152
sbs(I32
I9
tp156
g0
(g9
g2
Ntp157
Rp158
(dp159
g13
I01
sg14
F-1.8341994917896027
sg15
g156
sbs(I30
I4
tp160
g0
(g9
g2
Ntp161
Rp162
(dp163
g13
I01
sg14
F-1.6309622935831545
sg15
g160
sbs(I34
I4
tp164
g0
(g9
g2
Ntp165
Rp166
(dp167
g13
I01
sg14
F-0.6647870584951611
sg15
g164
sbs(I31
I1
tp168
g0
(g9
g2
Ntp169
Rp170
(dp171
g13
I01
sg14
F1.397128740891142
sg15
g168
sbs(I-4
I34
tp172
g0
(g9
g2
Ntp173
Rp174
(dp175
g13
I01
sg14
F0.3378677455015406
sg15
g172
sbs(I-6
I30
tp176
g0
(g9
g2
Ntp177
Rp178
(dp179
g13
I01
sg14
F-0.5245411499183826
sg15
g176
sbs(I2
I2
tp180
g0
(g9
g2
Ntp181
Rp182
(dp183
g13
I01
sg14
F0.944282719398897
sg15
g180
sbs(I-5
I31
tp184
g0
(g9
g2
Ntp185
Rp186
(dp187
g13
I01
sg14
F-1.0668215791282023
sg15
g184
sbs(I32
I3
tp188
g0
(g9
g2
Ntp189
Rp190
(dp191
g13
I01
sg14
F0.58986196271506
sg15
g188
sbs(I33
I2
tp192
g0
(g9
g2
Ntp193
Rp194
(dp195
g13
I01
sg14
F1.0205268075681828
sg15
g192
sbs(I30
I1
tp196
g0
(g9
g2
Ntp197
Rp198
(dp199
g13
I01
sg14
F0.8999072270464163
sg15
g196
sbs(I34
I9
tp200
g0
(g9
g2
Ntp201
Rp202
(dp203
g13
I01
sg14
F0.09766894065634327
sg15
g200
sbs(I31
I4
tp204
g0
(g9
g2
Ntp205
Rp206
(dp207
g13
I01
sg14
F0.60955771037671
sg15
g204
sbs(I34
I34
tp208
g0
(g9
g2
Ntp209
Rp210
(dp211
g13
I01
sg14
F-0.780535806029705
sg15
g208
sbs(I-10
I30
tp212
g0
(g9
g2
Ntp213
Rp214
(dp215
g13
I01
sg14
F-1.1620590075066275
sg15
g212
sbs(I32
I0
tp216
g0
(g9
g2
Ntp217
Rp218
(dp219
g13
I01
sg14
F-1.7476026065445573
sg15
g216
sbs(I-9
I31
tp220
g0
(g9
g2
Ntp221
Rp222
(dp223
g13
I01
sg14
F1.4105652289171884
sg15
g220
sbs(I30
I2
tp224
g0
(g9
g2
Ntp225
Rp226
(dp227
g13
I01
sg14
F0.513104900417842
sg15
g224
sbs(I-2
I31
tp228
g0
(g9
g2
Ntp229
Rp230
(dp231
g13
I01
sg14
F0.613762935177956
sg15
g228
sbs(I-7
I34
tp232
g0
(g9
g2
Ntp233
Rp234
(dp235
g13
I01
sg14
F0.9810657443287857
sg15
g232
sbs(I33
I33
tp236
g0
(g9
g2
Ntp237
Rp238
(dp239
g13
I01
sg14
F-0.19893263379116374
sg15
g236
sbs(I30
I8
tp240
g0
(g9
g2
Ntp241
Rp242
(dp243
g13
I01
sg14
F0.5352987041043173
sg15
g240
sbs(I34
I0
tp244
g0
(g9
g2
Ntp245
Rp246
(dp247
g13
I01
sg14
F-0.8105669230323874
sg15
g244
sbs(I33
I8
tp248
g0
(g9
g2
Ntp249
Rp250
(dp251
g13
I01
sg14
F-0.5874636724098006
sg15
g248
sbs(I32
I32
tp252
g0
(g9
g2
Ntp253
Rp254
(dp255
g13
I01
sg14
F0.7743758308727673
sg15
g252
sbs(I-8
I32
tp256
g0
(g9
g2
Ntp257
Rp258
(dp259
g13
I01
sg14
F0.40566583717877647
sg15
g256
sbs(I-10
I32
tp260
g0
(g9
g2
Ntp261
Rp262
(dp263
g13
I01
sg14
F0.40096248244814675
sg15
g260
sbs(I6
I6
tp264
g0
(g9
g2
Ntp265
Rp266
(dp267
g13
I01
sg14
F2.3029995208446845
sg15
g264
sbs(I32
I7
tp268
g0
(g9
g2
Ntp269
Rp270
(dp271
g13
I01
sg14
F-1.5998644972035458
sg15
g268
sbs(I33
I6
tp272
g0
(g9
g2
Ntp273
Rp274
(dp275
g13
I01
sg14
F-1.8242529061537776
sg15
g272
sbs(I30
I5
tp276
g0
(g9
g2
Ntp277
Rp278
(dp279
g13
I01
sg14
F-1.0000875357260666
sg15
g276
sbs(I34
I5
tp280
g0
(g9
g2
Ntp281
Rp282
(dp283
g13
I01
sg14
F-0.6356592008191287
sg15
g280
sbs(I31
I0
tp284
g0
(g9
g2
Ntp285
Rp286
(dp287
g13
I01
sg14
F-0.682841487843621
sg15
g284
sbs(I-6
I32
tp288
g0
(g9
g2
Ntp289
Rp290
(dp291
g13
I01
sg14
F1.0361909516657122
sg15
g288
sbs(I5
I5
tp292
g0
(g9
g2
Ntp293
Rp294
(dp295
g13
I01
sg14
F-0.6803901695065779
sg15
g292
sbs(I7
I7
tp296
g0
(g9
g2
Ntp297
Rp298
(dp299
g13
I01
sg14
F0.8590395722002712
sg15
g296
sbs(I-6
I31
tp300
g0
(g9
g2
Ntp301
Rp302
(dp303
g13
I01
sg14
F2.0241190958154234
sg15
g300
sbs(I-3
I34
tp304
g0
(g9
g2
Ntp305
Rp306
(dp307
g13
I01
sg14
F0.6043444329676282
sg15
g304
sbs(I-5
I30
tp308
g0
(g9
g2
Ntp309
Rp310
(dp311
g13
I01
sg14
F0.9754733032656825
sg15
g308
sbs(I32
I4
tp312
g0
(g9
g2
Ntp313
Rp314
(dp315
g13
I01
sg14
F0.29547949630218584
sg15
g312
sbs(I33
I1
tp316
g0
(g9
g2
Ntp317
Rp318
(dp319
g13
I01
sg14
F0.45004024756345434
sg15
g316
sbs(I30
I6
tp320
g0
(g9
g2
Ntp321
Rp322
(dp323
g13
I01
sg14
F-1.293197011752313
sg15
g320
sbs(I34
I6
tp324
g0
(g9
g2
Ntp325
Rp326
(dp327
g13
I01
sg14
F1.0914379634939433
sg15
g324
sbs(I31
I7
tp328
g0
(g9
g2
Ntp329
Rp330
(dp331
g13
I01
sg14
F-0.708481322192181
sg15
g328
sbs(I-9
I34
tp332
g0
(g9
g2
Ntp333
Rp334
(dp335
g13
I01
sg14
F1.3175740201357957
sg15
g332
sbs(I-4
I32
tp336
g0
(g9
g2
Ntp337
Rp338
(dp339
g13
I01
sg14
F-0.6758456000399573
sg15
g336
sbs(I-10
I31
tp340
g0
(g9
g2
Ntp341
Rp342
(dp343
g13
I01
sg14
F-1.9444733145250612
sg15
g340
sbs(I32
I1
tp344
g0
(g9
g2
Ntp345
Rp346
(dp347
g13
I01
sg14
F-1.1591650901337596
sg15
g344
sbs(I-9
I30
tp348
g0
(g9
g2
Ntp349
Rp350
(dp351
g13
I01
sg14
F-1.0323444058402542
sg15
g348
sbs(I-4
I30
tp352
g0
(g9
g2
Ntp353
Rp354
(dp355
g13
I01
sg14
F1.7360694677930404
sg15
g352
sbs(I31
I9
tp356
g0
(g9
g2
Ntp357
Rp358
(dp359
g13
I01
sg14
F1.186894752687749
sg15
g356
sbs(I30
I3
tp360
g0
(g9
g2
Ntp361
Rp362
(dp363
g13
I01
sg14
F0.6638171548395208
sg15
g360
sbs(I-3
I31
tp364
g0
(g9
g2
Ntp365
Rp366
(dp367
g13
I01
sg14
F-0.23453073876548963
sg15
g364
sbs(I-1
I33
tp368
g0
(g9
g2
Ntp369
Rp370
(dp371
g13
I01
sg14
F1.1173172754389185
sg15
g368
sbs(I-7
I33
tp372
g0
(g9
g2
Ntp373
Rp374
(dp375
g13
I01
sg14
F0.23636381302116016
sg15
g372
sbs(I-9
I33
tp376
g0
(g9
g2
Ntp377
Rp378
(dp379
g13
I01
sg14
F0.6703474123123077
sg15
g376
sbs(I-5
I34
tp380
g0
(g9
g2
Ntp381
Rp382
(dp383
g13
I01
sg14
F0.4611910666095299
sg15
g380
sbs(I-1
I32
tp384
g0
(g9
g2
Ntp385
Rp386
(dp387
g13
I01
sg14
F1.2734352103520055
sg15
g384
sbs(I30
I9
tp388
g0
(g9
g2
Ntp389
Rp390
(dp391
g13
I01
sg14
F0.3444734187315701
sg15
g388
sbs(I4
I4
tp392
g0
(g9
g2
Ntp393
Rp394
(dp395
g13
I01
sg14
F-0.5057487564752448
sg15
g392
sbs(I34
I1
tp396
g0
(g9
g2
Ntp397
Rp398
(dp399
g13
I01
sg14
F4.0001819570639
sg15
g396
sbs(I-8
I33
tp400
g0
(g9
g2
Ntp401
Rp402
(dp403
g13
I01
sg14
F1.0433377983661312
sg15
g400
sbs(I-1
I31
tp404
g0
(g9
g2
Ntp405
Rp406
(dp407
g13
I01
sg14
F0.133201639682108
sg15
g404
sbs(I-10
I33
tp408
g0
(g9
g2
Ntp409
Rp410
(dp411
g13
I01
sg14
F-0.6907232571931963
sg15
g408
sbs(I-5
I33
tp412
g0
(g9
g2
Ntp413
Rp414
(dp415
g13
I01
sg14
F0.8069948934658671
sg15
g412
sbs(I33
I5
tp416
g0
(g9
g2
Ntp417
Rp418
(dp419
g13
I01
sg14
F0.7441186151856114
sg15
g416
sbs(I34
I2
tp420
g0
(g9
g2
Ntp421
Rp422
(dp423
g13
I01
sg14
F-0.046309154613999794
sg15
g420
sbs(I31
I3
tp424
g0
(g9
g2
Ntp425
Rp426
(dp427
g13
I01
sg14
F-0.04283031743438439
sg15
g424
sbs(I-2
I32
tp428
g0
(g9
g2
Ntp429
Rp430
(dp431
g13
I01
sg14
F0.17984782834059598
sg15
g428
sbs(I-8
I30
tp432
g0
(g9
g2
Ntp433
Rp434
(dp435
g13
I01
sg14
F-0.33212178206368087
sg15
g432
sbs(I-10
I34
tp436
g0
(g9
g2
Ntp437
Rp438
(dp439
g13
I01
sg14
F-0.9612520611028172
sg15
g436
sbs(I-6
I33
tp440
g0
(g9
g2
Ntp441
Rp442
(dp443
g13
I01
sg14
F1.10753012507094
sg15
g440
sbs(I-7
I31
tp444
g0
(g9
g2
Ntp445
Rp446
(dp447
g13
I01
sg14
F-0.098479333933148
sg15
g444
sbs(I-3
I33
tp448
g0
(g9
g2
Ntp449
Rp450
(dp451
g13
I01
sg14
F0.881459920509315
sg15
g448
sbs(I8
I8
tp452
g0
(g9
g2
Ntp453
Rp454
(dp455
g13
I01
sg14
F0.058546050029701174
sg15
g452
sbs(I32
I5
tp456
g0
(g9
g2
Ntp457
Rp458
(dp459
g13
I01
sg14
F-1.02104760732222
sg15
g456
sbs(I33
I0
tp460
g0
(g9
g2
Ntp461
Rp462
(dp463
g13
I01
sg14
F3.303815720279006
sg15
g460
sbs(I32
I8
tp464
g0
(g9
g2
Ntp465
Rp466
(dp467
g13
I01
sg14
F-0.23441937557542197
sg15
g464
sbs(I30
I7
tp468
g0
(g9
g2
Ntp469
Rp470
(dp471
g13
I01
sg14
F0.1476626008453695
sg15
g468
sbssS'nodes'
p472
(dp473
I0
g0
(cneat.genes
DefaultNodeGene
p474
g2
Ntp475
Rp476
(dp477
S'activation'
p478
S'relu'
p479
sS'bias'
p480
F5.811130198341331
sS'response'
p481
F1.0
sg15
I0
sS'aggregation'
p482
S'sum'
p483
sbsI1
g0
(g474
g2
Ntp484
Rp485
(dp486
g478
g479
sg480
F-2.288424650547168
sg481
F1.0
sg15
I1
sg482
g483
sbsI2
g0
(g474
g2
Ntp487
Rp488
(dp489
g478
g479
sg480
F-6.424868419996374
sg481
F1.0
sg15
I2
sg482
g483
sbsI3
g0
(g474
g2
Ntp490
Rp491
(dp492
g478
g479
sg480
F-4.10668335660254
sg481
F1.0
sg15
I3
sg482
g483
sbsI4
g0
(g474
g2
Ntp493
Rp494
(dp495
g478
g479
sg480
F-10.05650300661349
sg481
F1.0
sg15
I4
sg482
g483
sbsI5
g0
(g474
g2
Ntp496
Rp497
(dp498
g478
g479
sg480
F-5.839257475203622
sg481
F1.0
sg15
I5
sg482
g483
sbsI6
g0
(g474
g2
Ntp499
Rp500
(dp501
g478
g479
sg480
F19.231844183347327
sg481
F1.0
sg15
I6
sg482
g483
sbsI7
g0
(g474
g2
Ntp502
Rp503
(dp504
g478
g479
sg480
F8.265755101804736
sg481
F1.0
sg15
I7
sg482
g483
sbsI8
g0
(g474
g2
Ntp505
Rp506
(dp507
g478
g479
sg480
F-2.1055062321037004
sg481
F1.0
sg15
I8
sg482
g483
sbsI9
g0
(g474
g2
Ntp508
Rp509
(dp510
g478
g479
sg480
F-0.1834319490114938
sg481
F1.0
sg15
I9
sg482
g483
sbsI34
g0
(g474
g2
Ntp511
Rp512
(dp513
g478
g479
sg480
F3.547699649362258
sg481
F1.0
sg15
I34
sg482
g483
sbsI32
g0
(g474
g2
Ntp514
Rp515
(dp516
g478
g479
sg480
F4.396017917404219
sg481
F1.0
sg15
I32
sg482
g483
sbsI33
g0
(g474
g2
Ntp517
Rp518
(dp519
g478
g479
sg480
F-0.643377614018998
sg481
F1.0
sg15
I33
sg482
g483
sbsI30
g0
(g474
g2
Ntp520
Rp521
(dp522
g478
g479
sg480
F7.928540464709833
sg481
F1.0
sg15
I30
sg482
g483
sbsI31
g0
(g474
g2
Ntp523
Rp524
(dp525
g478
g479
sg480
F10.455997603415355
sg481
F1.0
sg15
I31
sg482
g483
sbssg15
I5
sS'fitness'
p526
F-0.023795707460401605
sb.