ccopy_reg
_reconstructor
p0
(cneat.genome
DefaultGenome
p1
c__builtin__
object
p2
Ntp3
Rp4
(dp5
S'connections'
p6
(dp7
(I-5
I14
tp8
g0
(cneat.genes
DefaultConnectionGene
p9
g2
Ntp10
Rp11
(dp12
S'enabled'
p13
I01
sS'weight'
p14
F-1.471102225713475
sS'key'
p15
g8
sbs(I14
I4
tp16
g0
(g9
g2
Ntp17
Rp18
(dp19
g13
I01
sg14
F-0.051072216808976514
sg15
g16
sbs(I-13
I14
tp20
g0
(g9
g2
Ntp21
Rp22
(dp23
g13
I01
sg14
F-0.13662072414486517
sg15
g20
sbs(I-10
I14
tp24
g0
(g9
g2
Ntp25
Rp26
(dp27
g13
I01
sg14
F1.1174922588122684
sg15
g24
sbs(I-8
I14
tp28
g0
(g9
g2
Ntp29
Rp30
(dp31
g13
I01
sg14
F-0.5932127377261696
sg15
g28
sbs(I14
I0
tp32
g0
(g9
g2
Ntp33
Rp34
(dp35
g13
I01
sg14
F-0.7173440638012927
sg15
g32
sbs(I-18
I14
tp36
g0
(g9
g2
Ntp37
Rp38
(dp39
g13
I01
sg14
F1.9398445641704687
sg15
g36
sbs(I14
I9
tp40
g0
(g9
g2
Ntp41
Rp42
(dp43
g13
I01
sg14
F-0.228305466038834
sg15
g40
sbs(I-15
I14
tp44
g0
(g9
g2
Ntp45
Rp46
(dp47
g13
I01
sg14
F-0.11974143409139755
sg15
g44
sbs(I-20
I14
tp48
g0
(g9
g2
Ntp49
Rp50
(dp51
g13
I01
sg14
F-0.5817876238570632
sg15
g48
sbs(I14
I5
tp52
g0
(g9
g2
Ntp53
Rp54
(dp55
g13
I01
sg14
F-0.4773291959621692
sg15
g52
sbs(I-2
I14
tp56
g0
(g9
g2
Ntp57
Rp58
(dp59
g13
I01
sg14
F-1.2159919328332516
sg15
g56
sbs(I-9
I14
tp60
g0
(g9
g2
Ntp61
Rp62
(dp63
g13
I01
sg14
F0.37003567152667316
sg15
g60
sbs(I14
I1
tp64
g0
(g9
g2
Ntp65
Rp66
(dp67
g13
I01
sg14
F-0.2578966028715178
sg15
g64
sbs(I-7
I14
tp68
g0
(g9
g2
Ntp69
Rp70
(dp71
g13
I01
sg14
F1.0588350995711557
sg15
g68
sbs(I-4
I14
tp72
g0
(g9
g2
Ntp73
Rp74
(dp75
g13
I01
sg14
F-1.2306985960209207
sg15
g72
sbs(I-17
I14
tp76
g0
(g9
g2
Ntp77
Rp78
(dp79
g13
I01
sg14
F-0.17607144231300012
sg15
g76
sbs(I-12
I14
tp80
g0
(g9
g2
Ntp81
Rp82
(dp83
g13
I01
sg14
F1.11825963556325
sg15
g80
sbs(I-19
I14
tp84
g0
(g9
g2
Ntp85
Rp86
(dp87
g13
I01
sg14
F1.4247834308408045
sg15
g84
sbs(I-14
I14
tp88
g0
(g9
g2
Ntp89
Rp90
(dp91
g13
I01
sg14
F-2.126761691424677
sg15
g88
sbs(I14
I6
tp92
g0
(g9
g2
Ntp93
Rp94
(dp95
g13
I01
sg14
F0.9468302182267266
sg15
g92
sbs(I-3
I14
tp96
g0
(g9
g2
Ntp97
Rp98
(dp99
g13
I01
sg14
F0.20520210438905015
sg15
g96
sbs(I14
I2
tp100
g0
(g9
g2
Ntp101
Rp102
(dp103
g13
I01
sg14
F0.6249363079479491
sg15
g100
sbs(I-11
I14
tp104
g0
(g9
g2
Ntp105
Rp106
(dp107
g13
I01
sg14
F-0.09362683349744823
sg15
g104
sbs(I-6
I14
tp108
g0
(g9
g2
Ntp109
Rp110
(dp111
g13
I01
sg14
F0.52537028673398
sg15
g108
sbs(I-1
I14
tp112
g0
(g9
g2
Ntp113
Rp114
(dp115
g13
I01
sg14
F0.6104453325701584
sg15
g112
sbs(I14
I7
tp116
g0
(g9
g2
Ntp117
Rp118
(dp119
g13
I01
sg14
F0.29958279360025003
sg15
g116
sbs(I14
I3
tp120
g0
(g9
g2
Ntp121
Rp122
(dp123
g13
I01
sg14
F0.8352430750709676
sg15
g120
sbs(I-16
I14
tp124
g0
(g9
g2
Ntp125
Rp126
(dp127
g13
I01
sg14
F0.9799317961377272
sg15
g124
sbs(I14
I8
tp128
g0
(g9
g2
Ntp129
Rp130
(dp131
g13
I01
sg14
F0.004677165457883791
sg15
g128
sbssS'nodes'
p132
(dp133
I0
g0
(cneat.genes
DefaultNodeGene
p134
g2
Ntp135
Rp136
(dp137
S'activation'
p138
S'relu'
p139
sS'bias'
p140
F14.999335076957372
sS'response'
p141
F1.0
sg15
I0
sS'aggregation'
p142
S'sum'
p143
sbsI1
g0
(g134
g2
Ntp144
Rp145
(dp146
g138
g139
sg140
F6.250696577446374
sg141
F1.0
sg15
I1
sg142
g143
sbsI2
g0
(g134
g2
Ntp147
Rp148
(dp149
g138
g139
sg140
F3.864017081333841
sg141
F1.0
sg15
I2
sg142
g143
sbsI3
g0
(g134
g2
Ntp150
Rp151
(dp152
g138
g139
sg140
F19.192321329030975
sg141
F1.0
sg15
I3
sg142
g143
sbsI4
g0
(g134
g2
Ntp153
Rp154
(dp155
g138
g139
sg140
F-5.635598559564073
sg141
F1.0
sg15
I4
sg142
g143
sbsI5
g0
(g134
g2
Ntp156
Rp157
(dp158
g138
g139
sg140
F-14.305918657339854
sg141
F1.0
sg15
I5
sg142
g143
sbsI6
g0
(g134
g2
Ntp159
Rp160
(dp161
g138
g139
sg140
F8.964352956957574
sg141
F1.0
sg15
I6
sg142
g143
sbsI7
g0
(g134
g2
Ntp162
Rp163
(dp164
g138
g139
sg140
F4.84971846537406
sg141
F1.0
sg15
I7
sg142
g143
sbsI8
g0
(g134
g2
Ntp165
Rp166
(dp167
g138
g139
sg140
F6.4435960747036605
sg141
F1.0
sg15
I8
sg142
g143
sbsI9
g0
(g134
g2
Ntp168
Rp169
(dp170
g138
g139
sg140
F5.438523154246425
sg141
F1.0
sg15
I9
sg142
g143
sbsI14
g0
(g134
g2
Ntp171
Rp172
(dp173
g138
g139
sg140
F-6.925884738109542
sg141
F1.0
sg15
I14
sg142
g143
sbssg15
I5
sS'fitness'
p174
F0.10806636525609921
sb.