ccopy_reg
_reconstructor
p0
(cneat.genome
DefaultGenome
p1
c__builtin__
object
p2
Ntp3
Rp4
(dp5
S'connections'
p6
(dp7
(I59
I0
tp8
g0
(cneat.genes
DefaultConnectionGene
p9
g2
Ntp10
Rp11
(dp12
S'enabled'
p13
I01
sS'weight'
p14
F-1.6431374758742359
sS'key'
p15
g8
sbs(I-17
I59
tp16
g0
(g9
g2
Ntp17
Rp18
(dp19
g13
I01
sg14
F-0.568853166863423
sg15
g16
sbs(I59
I7
tp20
g0
(g9
g2
Ntp21
Rp22
(dp23
g13
I01
sg14
F-0.9602728336528205
sg15
g20
sbs(I-7
I59
tp24
g0
(g9
g2
Ntp25
Rp26
(dp27
g13
I01
sg14
F0.4991378320442584
sg15
g24
sbs(I59
I8
tp28
g0
(g9
g2
Ntp29
Rp30
(dp31
g13
I01
sg14
F1.4362801491692188
sg15
g28
sbs(I59
I3
tp32
g0
(g9
g2
Ntp33
Rp34
(dp35
g13
I01
sg14
F1.1080909761489777
sg15
g32
sbs(I-3
I59
tp36
g0
(g9
g2
Ntp37
Rp38
(dp39
g13
I01
sg14
F0.6735589295111104
sg15
g36
sbs(I-1
I59
tp40
g0
(g9
g2
Ntp41
Rp42
(dp43
g13
I01
sg14
F-0.9359462943419028
sg15
g40
sbs(I-8
I59
tp44
g0
(g9
g2
Ntp45
Rp46
(dp47
g13
I01
sg14
F0.19684031943311778
sg15
g44
sbs(I-14
I59
tp48
g0
(g9
g2
Ntp49
Rp50
(dp51
g13
I01
sg14
F0.9810512348745595
sg15
g48
sbs(I-13
I59
tp52
g0
(g9
g2
Ntp53
Rp54
(dp55
g13
I01
sg14
F0.664855570979351
sg15
g52
sbs(I59
I6
tp56
g0
(g9
g2
Ntp57
Rp58
(dp59
g13
I01
sg14
F0.20170985108231
sg15
g56
sbs(I-19
I59
tp60
g0
(g9
g2
Ntp61
Rp62
(dp63
g13
I01
sg14
F-0.17699244237706313
sg15
g60
sbs(I-18
I59
tp64
g0
(g9
g2
Ntp65
Rp66
(dp67
g13
I01
sg14
F-1.5547232706026097
sg15
g64
sbs(I-4
I59
tp68
g0
(g9
g2
Ntp69
Rp70
(dp71
g13
I01
sg14
F-0.07971959586573207
sg15
g68
sbs(I-9
I59
tp72
g0
(g9
g2
Ntp73
Rp74
(dp75
g13
I01
sg14
F-1.7558012105811518
sg15
g72
sbs(I59
I2
tp76
g0
(g9
g2
Ntp77
Rp78
(dp79
g13
I01
sg14
F-0.4987713321340125
sg15
g76
sbs(I-2
I59
tp80
g0
(g9
g2
Ntp81
Rp82
(dp83
g13
I01
sg14
F0.19782176423131007
sg15
g80
sbs(I-20
I59
tp84
g0
(g9
g2
Ntp85
Rp86
(dp87
g13
I01
sg14
F0.39478172958587554
sg15
g84
sbs(I59
I5
tp88
g0
(g9
g2
Ntp89
Rp90
(dp91
g13
I01
sg14
F0.6298929203862557
sg15
g88
sbs(I-15
I59
tp92
g0
(g9
g2
Ntp93
Rp94
(dp95
g13
I01
sg14
F-1.4339781044982733
sg15
g92
sbs(I59
I1
tp96
g0
(g9
g2
Ntp97
Rp98
(dp99
g13
I01
sg14
F-0.3533214687395289
sg15
g96
sbs(I-6
I59
tp100
g0
(g9
g2
Ntp101
Rp102
(dp103
g13
I01
sg14
F0.31922947502633736
sg15
g100
sbs(I-5
I59
tp104
g0
(g9
g2
Ntp105
Rp106
(dp107
g13
I01
sg14
F-0.9742157632974597
sg15
g104
sbs(I-11
I59
tp108
g0
(g9
g2
Ntp109
Rp110
(dp111
g13
I01
sg14
F0.9251374159067169
sg15
g108
sbs(I-10
I59
tp112
g0
(g9
g2
Ntp113
Rp114
(dp115
g13
I01
sg14
F0.7169688782341701
sg15
g112
sbs(I-16
I59
tp116
g0
(g9
g2
Ntp117
Rp118
(dp119
g13
I01
sg14
F-0.04304238776345343
sg15
g116
sbs(I59
I4
tp120
g0
(g9
g2
Ntp121
Rp122
(dp123
g13
I01
sg14
F1.0254417875018262
sg15
g120
sbs(I59
I9
tp124
g0
(g9
g2
Ntp125
Rp126
(dp127
g13
I01
sg14
F-2.1266849225827573
sg15
g124
sbs(I-12
I59
tp128
g0
(g9
g2
Ntp129
Rp130
(dp131
g13
I01
sg14
F1.2825061887821159
sg15
g128
sbssS'nodes'
p132
(dp133
I0
g0
(cneat.genes
DefaultNodeGene
p134
g2
Ntp135
Rp136
(dp137
S'activation'
p138
S'relu'
p139
sS'bias'
p140
F-6.144418678685585
sS'response'
p141
F1.0
sg15
I0
sS'aggregation'
p142
S'sum'
p143
sbsI1
g0
(g134
g2
Ntp144
Rp145
(dp146
g138
g139
sg140
F-21.810238395123157
sg141
F1.0
sg15
I1
sg142
g143
sbsI2
g0
(g134
g2
Ntp147
Rp148
(dp149
g138
g139
sg140
F-0.02955831726236967
sg141
F1.0
sg15
I2
sg142
g143
sbsI3
g0
(g134
g2
Ntp150
Rp151
(dp152
g138
g139
sg140
F-5.285974624363966
sg141
F1.0
sg15
I3
sg142
g143
sbsI4
g0
(g134
g2
Ntp153
Rp154
(dp155
g138
g139
sg140
F15.323751640190565
sg141
F1.0
sg15
I4
sg142
g143
sbsI5
g0
(g134
g2
Ntp156
Rp157
(dp158
g138
g139
sg140
F-2.760930595020602
sg141
F1.0
sg15
I5
sg142
g143
sbsI6
g0
(g134
g2
Ntp159
Rp160
(dp161
g138
g139
sg140
F-11.100853295671051
sg141
F1.0
sg15
I6
sg142
g143
sbsI7
g0
(g134
g2
Ntp162
Rp163
(dp164
g138
g139
sg140
F4.698729920862902
sg141
F1.0
sg15
I7
sg142
g143
sbsI8
g0
(g134
g2
Ntp165
Rp166
(dp167
g138
g139
sg140
F-8.361791834904164
sg141
F1.0
sg15
I8
sg142
g143
sbsI9
g0
(g134
g2
Ntp168
Rp169
(dp170
g138
g139
sg140
F-0.5221348312431118
sg141
F1.0
sg15
I9
sg142
g143
sbsI59
g0
(g134
g2
Ntp171
Rp172
(dp173
g138
g139
sg140
F-5.641305180179504
sg141
F1.0
sg15
I59
sg142
g143
sbssg15
I50
sS'fitness'
p174
Nsb.