ccopy_reg
_reconstructor
p0
(cneat.genome
DefaultGenome
p1
c__builtin__
object
p2
Ntp3
Rp4
(dp5
S'connections'
p6
(dp7
(I23
I4
tp8
g0
(cneat.genes
DefaultConnectionGene
p9
g2
Ntp10
Rp11
(dp12
S'enabled'
p13
I00
sS'weight'
p14
F0.6373709675425865
sS'key'
p15
g8
sbs(I-2
I521
tp16
g0
(g9
g2
Ntp17
Rp18
(dp19
g13
I01
sg14
F-2.194123619975198
sg15
g16
sbs(I-2
I23
tp20
g0
(g9
g2
Ntp21
Rp22
(dp23
g13
I00
sg14
F1.8546144004741436
sg15
g20
sbs(I7
I7
tp24
g0
(g9
g2
Ntp25
Rp26
(dp27
g13
I01
sg14
F0.812530504637132
sg15
g24
sbs(I23
I610
tp28
g0
(g9
g2
Ntp29
Rp30
(dp31
g13
I01
sg14
F-1.9608294783031839
sg15
g28
sbs(I23
I3
tp32
g0
(g9
g2
Ntp33
Rp34
(dp35
g13
I00
sg14
F0.9966296973145062
sg15
g32
sbs(I-3
I3
tp36
g0
(g9
g2
Ntp37
Rp38
(dp39
g13
I01
sg14
F-0.4870941319926495
sg15
g36
sbs(I23
I7
tp40
g0
(g9
g2
Ntp41
Rp42
(dp43
g13
I00
sg14
F0.3955281516578626
sg15
g40
sbs(I-5
I23
tp44
g0
(g9
g2
Ntp45
Rp46
(dp47
g13
I00
sg14
F-0.273391992882575
sg15
g44
sbs(I-1
I1
tp48
g0
(g9
g2
Ntp49
Rp50
(dp51
g13
I01
sg14
F-0.1680579068999557
sg15
g48
sbs(I694
I23
tp52
g0
(g9
g2
Ntp53
Rp54
(dp55
g13
I00
sg14
F2.937698876729573
sg15
g52
sbs(I-6
I9
tp56
g0
(g9
g2
Ntp57
Rp58
(dp59
g13
I01
sg14
F3.112782865814027
sg15
g56
sbs(I2
I2
tp60
g0
(g9
g2
Ntp61
Rp62
(dp63
g13
I00
sg14
F-1.3318047838833447
sg15
g60
sbs(I-7
I694
tp64
g0
(g9
g2
Ntp65
Rp66
(dp67
g13
I01
sg14
F0.7465082645200372
sg15
g64
sbs(I610
I7
tp68
g0
(g9
g2
Ntp69
Rp70
(dp71
g13
I01
sg14
F-1.3572230230204356
sg15
g68
sbs(I-2
I663
tp72
g0
(g9
g2
Ntp73
Rp74
(dp75
g13
I00
sg14
F0.332550648835206
sg15
g72
sbs(I559
I0
tp76
g0
(g9
g2
Ntp77
Rp78
(dp79
g13
I00
sg14
F-2.0483535606422336
sg15
g76
sbs(I735
I23
tp80
g0
(g9
g2
Ntp81
Rp82
(dp83
g13
I01
sg14
F2.6538528614950168
sg15
g80
sbs(I23
I1
tp84
g0
(g9
g2
Ntp85
Rp86
(dp87
g13
I01
sg14
F0.16352765861064672
sg15
g84
sbs(I-5
I694
tp88
g0
(g9
g2
Ntp89
Rp90
(dp91
g13
I00
sg14
F0.2890437559315894
sg15
g88
sbs(I-1
I559
tp92
g0
(g9
g2
Ntp93
Rp94
(dp95
g13
I00
sg14
F0.7476277261932531
sg15
g92
sbs(I617
I559
tp96
g0
(g9
g2
Ntp97
Rp98
(dp99
g13
I00
sg14
F0.4561154062526649
sg15
g96
sbs(I-1
I617
tp100
g0
(g9
g2
Ntp101
Rp102
(dp103
g13
I00
sg14
F0.38181585143996327
sg15
g100
sbs(I9
I9
tp104
g0
(g9
g2
Ntp105
Rp106
(dp107
g13
I01
sg14
F0.42467098510848433
sg15
g104
sbs(I663
I521
tp108
g0
(g9
g2
Ntp109
Rp110
(dp111
g13
I01
sg14
F0.47865082777599666
sg15
g108
sbs(I8
I8
tp112
g0
(g9
g2
Ntp113
Rp114
(dp115
g13
I00
sg14
F-1.4743260055691094
sg15
g112
sbs(I610
I610
tp116
g0
(g9
g2
Ntp117
Rp118
(dp119
g13
I01
sg14
F-0.3361518549949267
sg15
g116
sbs(I694
I735
tp120
g0
(g9
g2
Ntp121
Rp122
(dp123
g13
I01
sg14
F-1.3048819807248728
sg15
g120
sbs(I-7
I23
tp124
g0
(g9
g2
Ntp125
Rp126
(dp127
g13
I00
sg14
F-0.13546301104539799
sg15
g124
sbssS'nodes'
p128
(dp129
I0
g0
(cneat.genes
DefaultNodeGene
p130
g2
Ntp131
Rp132
(dp133
S'activation'
p134
S'tanh'
p135
sS'bias'
p136
F3.2774872006927533
sS'response'
p137
F1.0
sg15
I0
sS'aggregation'
p138
S'sum'
p139
sbsI1
g0
(g130
g2
Ntp140
Rp141
(dp142
g134
g135
sg136
F-15.635077363305912
sg137
F1.0
sg15
I1
sg138
g139
sbsI2
g0
(g130
g2
Ntp143
Rp144
(dp145
g134
g135
sg136
F10.707131703598549
sg137
F1.0
sg15
I2
sg138
g139
sbsI3
g0
(g130
g2
Ntp146
Rp147
(dp148
g134
g135
sg136
F0.4990706366323311
sg137
F1.0
sg15
I3
sg138
g139
sbsI4
g0
(g130
g2
Ntp149
Rp150
(dp151
g134
g135
sg136
F-8.153954733434853
sg137
F1.0
sg15
I4
sg138
g139
sbsI5
g0
(g130
g2
Ntp152
Rp153
(dp154
g134
g135
sg136
F-3.058450958116704
sg137
F1.0
sg15
I5
sg138
g139
sbsI6
g0
(g130
g2
Ntp155
Rp156
(dp157
g134
g135
sg136
F20.687009042535546
sg137
F1.0
sg15
I6
sg138
g139
sbsI7
g0
(g130
g2
Ntp158
Rp159
(dp160
g134
g135
sg136
F5.165945246481818
sg137
F1.0
sg15
I7
sg138
g139
sbsI8
g0
(g130
g2
Ntp161
Rp162
(dp163
g134
g135
sg136
F-12.265625899335907
sg137
F1.0
sg15
I8
sg138
g139
sbsI9
g0
(g130
g2
Ntp164
Rp165
(dp166
g134
g135
sg136
F-0.16618703575199625
sg137
F1.0
sg15
I9
sg138
g139
sbsI551
g0
(g130
g2
Ntp167
Rp168
(dp169
g134
g135
sg136
F-1.0491324726570477
sg137
F1.0
sg15
I551
sg138
g139
sbsI663
g0
(g130
g2
Ntp170
Rp171
(dp172
g134
g135
sg136
F-15.286863150229912
sg137
F1.0
sg15
I663
sg138
g139
sbsI610
g0
(g130
g2
Ntp173
Rp174
(dp175
g134
g135
sg136
F-3.984580518315268
sg137
F1.0
sg15
I610
sg138
g139
sbsI559
g0
(g130
g2
Ntp176
Rp177
(dp178
g134
g135
sg136
F16.326296072346125
sg137
F1.0
sg15
I559
sg138
g139
sbsI521
g0
(g130
g2
Ntp179
Rp180
(dp181
g134
g135
sg136
F-5.577447143519805
sg137
F1.0
sg15
I521
sg138
g139
sbsI694
g0
(g130
g2
Ntp182
Rp183
(dp184
g134
g135
sg136
F-1.0265664129853425
sg137
F1.0
sg15
I694
sg138
g139
sbsI617
g0
(g130
g2
Ntp185
Rp186
(dp187
g134
g135
sg136
F6.025621316049283
sg137
F1.0
sg15
I617
sg138
g139
sbsI23
g0
(g130
g2
Ntp188
Rp189
(dp190
g134
g135
sg136
F-1.7030842133223223
sg137
F1.0
sg15
I23
sg138
g139
sbsI735
g0
(g130
g2
Ntp191
Rp192
(dp193
g134
g135
sg136
F-0.9203863173011573
sg137
F1.0
sg15
I735
sg138
g139
sbssg15
I51
sS'fitness'
p194
F0.165753427755436
sb.