ccopy_reg
_reconstructor
p0
(cneat.genome
DefaultGenome
p1
c__builtin__
object
p2
Ntp3
Rp4
(dp5
S'connections'
p6
(dp7
(I61
I6
tp8
g0
(cneat.genes
DefaultConnectionGene
p9
g2
Ntp10
Rp11
(dp12
S'enabled'
p13
I01
sS'weight'
p14
F0.11609428120376575
sS'key'
p15
g8
sbs(I-4
I61
tp16
g0
(g9
g2
Ntp17
Rp18
(dp19
g13
I01
sg14
F-1.024161469231536
sg15
g16
sbs(I-15
I61
tp20
g0
(g9
g2
Ntp21
Rp22
(dp23
g13
I01
sg14
F-0.1666904747694541
sg15
g20
sbs(I-9
I61
tp24
g0
(g9
g2
Ntp25
Rp26
(dp27
g13
I01
sg14
F0.18248885661664624
sg15
g24
sbs(I61
I1
tp28
g0
(g9
g2
Ntp29
Rp30
(dp31
g13
I01
sg14
F0.28273196272385476
sg15
g28
sbs(I-10
I61
tp32
g0
(g9
g2
Ntp33
Rp34
(dp35
g13
I01
sg14
F-1.083645276697561
sg15
g32
sbs(I-20
I61
tp36
g0
(g9
g2
Ntp37
Rp38
(dp39
g13
I01
sg14
F1.11817002012147
sg15
g36
sbs(I61
I5
tp40
g0
(g9
g2
Ntp41
Rp42
(dp43
g13
I01
sg14
F-0.414977162125293
sg15
g40
sbs(I-5
I61
tp44
g0
(g9
g2
Ntp45
Rp46
(dp47
g13
I01
sg14
F0.4214252562411284
sg15
g44
sbs(I61
I9
tp48
g0
(g9
g2
Ntp49
Rp50
(dp51
g13
I01
sg14
F0.3709763505013187
sg15
g48
sbs(I-6
I61
tp52
g0
(g9
g2
Ntp53
Rp54
(dp55
g13
I01
sg14
F-0.4094976113099987
sg15
g52
sbs(I-16
I61
tp56
g0
(g9
g2
Ntp57
Rp58
(dp59
g13
I01
sg14
F0.4760083354640635
sg15
g56
sbs(I-11
I61
tp60
g0
(g9
g2
Ntp61
Rp62
(dp63
g13
I01
sg14
F-0.029405647953147915
sg15
g60
sbs(I61
I0
tp64
g0
(g9
g2
Ntp65
Rp66
(dp67
g13
I01
sg14
F-0.9122708186785972
sg15
g64
sbs(I61
I4
tp68
g0
(g9
g2
Ntp69
Rp70
(dp71
g13
I01
sg14
F0.706216251000107
sg15
g68
sbs(I-7
I61
tp72
g0
(g9
g2
Ntp73
Rp74
(dp75
g13
I01
sg14
F0.5572416675401847
sg15
g72
sbs(I61
I8
tp76
g0
(g9
g2
Ntp77
Rp78
(dp79
g13
I01
sg14
F-0.19847785820709837
sg15
g76
sbs(I-2
I61
tp80
g0
(g9
g2
Ntp81
Rp82
(dp83
g13
I01
sg14
F-0.9185810532431337
sg15
g80
sbs(I-12
I61
tp84
g0
(g9
g2
Ntp85
Rp86
(dp87
g13
I01
sg14
F0.3941659979114816
sg15
g84
sbs(I-17
I61
tp88
g0
(g9
g2
Ntp89
Rp90
(dp91
g13
I01
sg14
F-0.9563838140140046
sg15
g88
sbs(I-1
I61
tp92
g0
(g9
g2
Ntp93
Rp94
(dp95
g13
I01
sg14
F-0.33927308770746034
sg15
g92
sbs(I61
I3
tp96
g0
(g9
g2
Ntp97
Rp98
(dp99
g13
I01
sg14
F-0.3793684025960156
sg15
g96
sbs(I-18
I61
tp100
g0
(g9
g2
Ntp101
Rp102
(dp103
g13
I01
sg14
F-0.05039274830984641
sg15
g100
sbs(I61
I7
tp104
g0
(g9
g2
Ntp105
Rp106
(dp107
g13
I01
sg14
F1.3199839511723668
sg15
g104
sbs(I-8
I61
tp108
g0
(g9
g2
Ntp109
Rp110
(dp111
g13
I01
sg14
F-1.0661785111692146
sg15
g108
sbs(I-3
I61
tp112
g0
(g9
g2
Ntp113
Rp114
(dp115
g13
I01
sg14
F0.6800710210683172
sg15
g112
sbs(I-13
I61
tp116
g0
(g9
g2
Ntp117
Rp118
(dp119
g13
I01
sg14
F-0.025703003022364255
sg15
g116
sbs(I-14
I61
tp120
g0
(g9
g2
Ntp121
Rp122
(dp123
g13
I01
sg14
F-0.3023770101664348
sg15
g120
sbs(I61
I2
tp124
g0
(g9
g2
Ntp125
Rp126
(dp127
g13
I01
sg14
F-1.8019886241411964
sg15
g124
sbs(I-19
I61
tp128
g0
(g9
g2
Ntp129
Rp130
(dp131
g13
I01
sg14
F-0.6877267493211575
sg15
g128
sbssS'nodes'
p132
(dp133
I0
g0
(cneat.genes
DefaultNodeGene
p134
g2
Ntp135
Rp136
(dp137
S'activation'
p138
S'relu'
p139
sS'bias'
p140
F3.6310761512104524
sS'response'
p141
F1.0
sg15
I0
sS'aggregation'
p142
S'sum'
p143
sbsI1
g0
(g134
g2
Ntp144
Rp145
(dp146
g138
g139
sg140
F11.355007877245475
sg141
F1.0
sg15
I1
sg142
g143
sbsI2
g0
(g134
g2
Ntp147
Rp148
(dp149
g138
g139
sg140
F-1.164731447425421
sg141
F1.0
sg15
I2
sg142
g143
sbsI3
g0
(g134
g2
Ntp150
Rp151
(dp152
g138
g139
sg140
F10.561252006208777
sg141
F1.0
sg15
I3
sg142
g143
sbsI4
g0
(g134
g2
Ntp153
Rp154
(dp155
g138
g139
sg140
F-6.160033621495931
sg141
F1.0
sg15
I4
sg142
g143
sbsI5
g0
(g134
g2
Ntp156
Rp157
(dp158
g138
g139
sg140
F-4.715438321992027
sg141
F1.0
sg15
I5
sg142
g143
sbsI6
g0
(g134
g2
Ntp159
Rp160
(dp161
g138
g139
sg140
F-6.770337638290419
sg141
F1.0
sg15
I6
sg142
g143
sbsI7
g0
(g134
g2
Ntp162
Rp163
(dp164
g138
g139
sg140
F10.159140013123798
sg141
F1.0
sg15
I7
sg142
g143
sbsI8
g0
(g134
g2
Ntp165
Rp166
(dp167
g138
g139
sg140
F-13.56214636703547
sg141
F1.0
sg15
I8
sg142
g143
sbsI9
g0
(g134
g2
Ntp168
Rp169
(dp170
g138
g139
sg140
F-4.365598402497878
sg141
F1.0
sg15
I9
sg142
g143
sbsI61
g0
(g134
g2
Ntp171
Rp172
(dp173
g138
g139
sg140
F2.260608295664931
sg141
F1.0
sg15
I61
sg142
g143
sbssg15
I52
sS'fitness'
p174
F0.04234373890291905
sb.