ccopy_reg
_reconstructor
p0
(cneat.genome
DefaultGenome
p1
c__builtin__
object
p2
Ntp3
Rp4
(dp5
S'connections'
p6
(dp7
(I-8
I62
tp8
g0
(cneat.genes
DefaultConnectionGene
p9
g2
Ntp10
Rp11
(dp12
S'enabled'
p13
I01
sS'weight'
p14
F0.3877122545568161
sS'key'
p15
g8
sbs(I-18
I62
tp16
g0
(g9
g2
Ntp17
Rp18
(dp19
g13
I01
sg14
F0.1655916986504601
sg15
g16
sbs(I62
I2
tp20
g0
(g9
g2
Ntp21
Rp22
(dp23
g13
I01
sg14
F1.3657371543210075
sg15
g20
sbs(I-11
I62
tp24
g0
(g9
g2
Ntp25
Rp26
(dp27
g13
I01
sg14
F1.1008766651197879
sg15
g24
sbs(I-14
I62
tp28
g0
(g9
g2
Ntp29
Rp30
(dp31
g13
I01
sg14
F1.9436908094601109
sg15
g28
sbs(I62
I7
tp32
g0
(g9
g2
Ntp33
Rp34
(dp35
g13
I01
sg14
F0.08685509058691628
sg15
g32
sbs(I-7
I62
tp36
g0
(g9
g2
Ntp37
Rp38
(dp39
g13
I01
sg14
F-0.7620940904820687
sg15
g36
sbs(I-4
I62
tp40
g0
(g9
g2
Ntp41
Rp42
(dp43
g13
I01
sg14
F0.4873295773560044
sg15
g40
sbs(I62
I3
tp44
g0
(g9
g2
Ntp45
Rp46
(dp47
g13
I01
sg14
F-0.5615841113067952
sg15
g44
sbs(I-17
I62
tp48
g0
(g9
g2
Ntp49
Rp50
(dp51
g13
I01
sg14
F1.049458600258327
sg15
g48
sbs(I62
I8
tp52
g0
(g9
g2
Ntp53
Rp54
(dp55
g13
I01
sg14
F0.6812535545889108
sg15
g52
sbs(I-20
I62
tp56
g0
(g9
g2
Ntp57
Rp58
(dp59
g13
I01
sg14
F-2.3010391457979154
sg15
g56
sbs(I62
I4
tp60
g0
(g9
g2
Ntp61
Rp62
(dp63
g13
I01
sg14
F-1.5000017768676752
sg15
g60
sbs(I-13
I62
tp64
g0
(g9
g2
Ntp65
Rp66
(dp67
g13
I01
sg14
F-0.8474751593957105
sg15
g64
sbs(I-10
I62
tp68
g0
(g9
g2
Ntp69
Rp70
(dp71
g13
I01
sg14
F-0.4359268706725615
sg15
g68
sbs(I62
I0
tp72
g0
(g9
g2
Ntp73
Rp74
(dp75
g13
I01
sg14
F-0.21527334873896573
sg15
g72
sbs(I-3
I62
tp76
g0
(g9
g2
Ntp77
Rp78
(dp79
g13
I01
sg14
F0.4085433996226522
sg15
g76
sbs(I-16
I62
tp80
g0
(g9
g2
Ntp81
Rp82
(dp83
g13
I01
sg14
F-0.29010799666553655
sg15
g80
sbs(I62
I9
tp84
g0
(g9
g2
Ntp85
Rp86
(dp87
g13
I01
sg14
F-0.5799095675682884
sg15
g84
sbs(I-2
I62
tp88
g0
(g9
g2
Ntp89
Rp90
(dp91
g13
I01
sg14
F-0.2362324089177015
sg15
g88
sbs(I62
I1
tp92
g0
(g9
g2
Ntp93
Rp94
(dp95
g13
I01
sg14
F0.15436700699403602
sg15
g92
sbs(I-6
I62
tp96
g0
(g9
g2
Ntp97
Rp98
(dp99
g13
I01
sg14
F-1.879434644323101
sg15
g96
sbs(I62
I5
tp100
g0
(g9
g2
Ntp101
Rp102
(dp103
g13
I01
sg14
F0.8073435206734522
sg15
g100
sbs(I-19
I62
tp104
g0
(g9
g2
Ntp105
Rp106
(dp107
g13
I01
sg14
F0.8668177928752693
sg15
g104
sbs(I-9
I62
tp108
g0
(g9
g2
Ntp109
Rp110
(dp111
g13
I01
sg14
F1.4253565855398405
sg15
g108
sbs(I-15
I62
tp112
g0
(g9
g2
Ntp113
Rp114
(dp115
g13
I01
sg14
F-1.0820903886059088
sg15
g112
sbs(I-12
I62
tp116
g0
(g9
g2
Ntp117
Rp118
(dp119
g13
I01
sg14
F-0.21506805293562314
sg15
g116
sbs(I-5
I62
tp120
g0
(g9
g2
Ntp121
Rp122
(dp123
g13
I01
sg14
F0.4506347261326555
sg15
g120
sbs(I-1
I62
tp124
g0
(g9
g2
Ntp125
Rp126
(dp127
g13
I01
sg14
F-0.13590179434931224
sg15
g124
sbs(I62
I6
tp128
g0
(g9
g2
Ntp129
Rp130
(dp131
g13
I01
sg14
F-1.1181959562777741
sg15
g128
sbssS'nodes'
p132
(dp133
I0
g0
(cneat.genes
DefaultNodeGene
p134
g2
Ntp135
Rp136
(dp137
S'activation'
p138
S'relu'
p139
sS'bias'
p140
F2.381590205642354
sS'response'
p141
F1.0
sg15
I0
sS'aggregation'
p142
S'sum'
p143
sbsI1
g0
(g134
g2
Ntp144
Rp145
(dp146
g138
g139
sg140
F-28.839906151728897
sg141
F1.0
sg15
I1
sg142
g143
sbsI2
g0
(g134
g2
Ntp147
Rp148
(dp149
g138
g139
sg140
F11.200907686314597
sg141
F1.0
sg15
I2
sg142
g143
sbsI3
g0
(g134
g2
Ntp150
Rp151
(dp152
g138
g139
sg140
F-5.475972839897153
sg141
F1.0
sg15
I3
sg142
g143
sbsI4
g0
(g134
g2
Ntp153
Rp154
(dp155
g138
g139
sg140
F-0.45997305844049907
sg141
F1.0
sg15
I4
sg142
g143
sbsI5
g0
(g134
g2
Ntp156
Rp157
(dp158
g138
g139
sg140
F26.809131662214014
sg141
F1.0
sg15
I5
sg142
g143
sbsI6
g0
(g134
g2
Ntp159
Rp160
(dp161
g138
g139
sg140
F-8.463940738257577
sg141
F1.0
sg15
I6
sg142
g143
sbsI7
g0
(g134
g2
Ntp162
Rp163
(dp164
g138
g139
sg140
F-0.43141261015939314
sg141
F1.0
sg15
I7
sg142
g143
sbsI8
g0
(g134
g2
Ntp165
Rp166
(dp167
g138
g139
sg140
F7.165517461334985
sg141
F1.0
sg15
I8
sg142
g143
sbsI9
g0
(g134
g2
Ntp168
Rp169
(dp170
g138
g139
sg140
F6.8391337329345605
sg141
F1.0
sg15
I9
sg142
g143
sbsI62
g0
(g134
g2
Ntp171
Rp172
(dp173
g138
g139
sg140
F1.928231380594453
sg141
F1.0
sg15
I62
sg142
g143
sbssg15
I53
sS'fitness'
p174
F0.01810272919631281
sb.