ccopy_reg
_reconstructor
p0
(cneat.genome
DefaultGenome
p1
c__builtin__
object
p2
Ntp3
Rp4
(dp5
S'connections'
p6
(dp7
(I23
I4
tp8
g0
(cneat.genes
DefaultConnectionGene
p9
g2
Ntp10
Rp11
(dp12
S'enabled'
p13
I01
sS'weight'
p14
F-4.141528469031972
sS'key'
p15
g8
sbs(I2
I551
tp16
g0
(g9
g2
Ntp17
Rp18
(dp19
g13
I00
sg14
F2.1311261666764842
sg15
g16
sbs(I-2
I23
tp20
g0
(g9
g2
Ntp21
Rp22
(dp23
g13
I01
sg14
F0.977150988379818
sg15
g20
sbs(I7
I7
tp24
g0
(g9
g2
Ntp25
Rp26
(dp27
g13
I01
sg14
F3.5026209516215547
sg15
g24
sbs(I23
I610
tp28
g0
(g9
g2
Ntp29
Rp30
(dp31
g13
I01
sg14
F0.9157278788823349
sg15
g28
sbs(I23
I3
tp32
g0
(g9
g2
Ntp33
Rp34
(dp35
g13
I00
sg14
F-1.5137397414118137
sg15
g32
sbs(I23
I9
tp36
g0
(g9
g2
Ntp37
Rp38
(dp39
g13
I01
sg14
F1.3769327404205198
sg15
g36
sbs(I23
I7
tp40
g0
(g9
g2
Ntp41
Rp42
(dp43
g13
I00
sg14
F-0.16444013310458871
sg15
g40
sbs(I-5
I23
tp44
g0
(g9
g2
Ntp45
Rp46
(dp47
g13
I00
sg14
F1.7111231948932515
sg15
g44
sbs(I-5
I4
tp48
g0
(g9
g2
Ntp49
Rp50
(dp51
g13
I00
sg14
F0.03861588287281754
sg15
g48
sbs(I669
I3
tp52
g0
(g9
g2
Ntp53
Rp54
(dp55
g13
I00
sg14
F-1.5271768462093798
sg15
g52
sbs(I610
I7
tp56
g0
(g9
g2
Ntp57
Rp58
(dp59
g13
I01
sg14
F1.2065281447116492
sg15
g56
sbs(I-3
I669
tp60
g0
(g9
g2
Ntp61
Rp62
(dp63
g13
I01
sg14
F2.1809500740334062
sg15
g60
sbs(I2
I2
tp64
g0
(g9
g2
Ntp65
Rp66
(dp67
g13
I00
sg14
F0.21455132792208098
sg15
g64
sbs(I559
I0
tp68
g0
(g9
g2
Ntp69
Rp70
(dp71
g13
I01
sg14
F-0.4129182701111435
sg15
g68
sbs(I23
I1
tp72
g0
(g9
g2
Ntp73
Rp74
(dp75
g13
I01
sg14
F0.10398228897532125
sg15
g72
sbs(I23
I5
tp76
g0
(g9
g2
Ntp77
Rp78
(dp79
g13
I01
sg14
F0.5179330716254312
sg15
g76
sbs(I-1
I559
tp80
g0
(g9
g2
Ntp81
Rp82
(dp83
g13
I00
sg14
F-1.5869457437786292
sg15
g80
sbs(I9
I9
tp84
g0
(g9
g2
Ntp85
Rp86
(dp87
g13
I01
sg14
F3.7109812110546527
sg15
g84
sbs(I9
I23
tp88
g0
(g9
g2
Ntp89
Rp90
(dp91
g13
I01
sg14
F1.0788038010919903
sg15
g88
sbs(I8
I8
tp92
g0
(g9
g2
Ntp93
Rp94
(dp95
g13
I01
sg14
F-1.7623483991286388
sg15
g92
sbs(I-7
I23
tp96
g0
(g9
g2
Ntp97
Rp98
(dp99
g13
I00
sg14
F-0.5875410192895683
sg15
g96
sbssS'nodes'
p100
(dp101
I0
g0
(cneat.genes
DefaultNodeGene
p102
g2
Ntp103
Rp104
(dp105
S'activation'
p106
S'tanh'
p107
sS'bias'
p108
F4.438102130501772
sS'response'
p109
F1.0
sg15
I0
sS'aggregation'
p110
S'sum'
p111
sbsI1
g0
(g102
g2
Ntp112
Rp113
(dp114
g106
g107
sg108
F-15.56534064701827
sg109
F1.0
sg15
I1
sg110
g111
sbsI2
g0
(g102
g2
Ntp115
Rp116
(dp117
g106
g107
sg108
F16.188265443329513
sg109
F1.0
sg15
I2
sg110
g111
sbsI3
g0
(g102
g2
Ntp118
Rp119
(dp120
g106
g107
sg108
F-0.3496329657026122
sg109
F1.0
sg15
I3
sg110
g111
sbsI4
g0
(g102
g2
Ntp121
Rp122
(dp123
g106
S'relu'
p124
sg108
F3.78596850168706
sg109
F1.0
sg15
I4
sg110
g111
sbsI5
g0
(g102
g2
Ntp125
Rp126
(dp127
g106
g107
sg108
F-2.957693104402896
sg109
F1.0
sg15
I5
sg110
g111
sbsI6
g0
(g102
g2
Ntp128
Rp129
(dp130
g106
g107
sg108
F18.640127956823328
sg109
F1.0
sg15
I6
sg110
g111
sbsI7
g0
(g102
g2
Ntp131
Rp132
(dp133
g106
g107
sg108
F6.92820615695894
sg109
F1.0
sg15
I7
sg110
g111
sbsI8
g0
(g102
g2
Ntp134
Rp135
(dp136
g106
g107
sg108
F2.541064698866481
sg109
F1.0
sg15
I8
sg110
g111
sbsI9
g0
(g102
g2
Ntp137
Rp138
(dp139
g106
g107
sg108
F13.464638744504212
sg109
F1.0
sg15
I9
sg110
g111
sbsI551
g0
(g102
g2
Ntp140
Rp141
(dp142
g106
g107
sg108
F1.5104223291608734
sg109
F1.0
sg15
I551
sg110
g111
sbsI610
g0
(g102
g2
Ntp143
Rp144
(dp145
g106
g107
sg108
F0.503324750926911
sg109
F1.0
sg15
I610
sg110
g111
sbsI559
g0
(g102
g2
Ntp146
Rp147
(dp148
g106
g107
sg108
F13.162970746858026
sg109
F1.0
sg15
I559
sg110
g111
sbsI23
g0
(g102
g2
Ntp149
Rp150
(dp151
g106
g107
sg108
F-4.414530791308959
sg109
F1.0
sg15
I23
sg110
g111
sbsI669
g0
(g102
g2
Ntp152
Rp153
(dp154
g106
g124
sg108
F0.5746760245863718
sg109
F1.0
sg15
I669
sg110
g111
sbssg15
I53
sS'fitness'
p155
F0.07350202591811739
sb.