ccopy_reg
_reconstructor
p0
(cneat.genome
DefaultGenome
p1
c__builtin__
object
p2
Ntp3
Rp4
(dp5
S'connections'
p6
(dp7
(I-8
I62
tp8
g0
(cneat.genes
DefaultConnectionGene
p9
g2
Ntp10
Rp11
(dp12
S'enabled'
p13
I01
sS'weight'
p14
F-0.8265387217735116
sS'key'
p15
g8
sbs(I-18
I62
tp16
g0
(g9
g2
Ntp17
Rp18
(dp19
g13
I01
sg14
F-0.5816645047760765
sg15
g16
sbs(I62
I2
tp20
g0
(g9
g2
Ntp21
Rp22
(dp23
g13
I01
sg14
F-0.47888115173717033
sg15
g20
sbs(I-11
I62
tp24
g0
(g9
g2
Ntp25
Rp26
(dp27
g13
I01
sg14
F-0.8800983315082808
sg15
g24
sbs(I-14
I62
tp28
g0
(g9
g2
Ntp29
Rp30
(dp31
g13
I01
sg14
F0.06552038029485226
sg15
g28
sbs(I62
I7
tp32
g0
(g9
g2
Ntp33
Rp34
(dp35
g13
I01
sg14
F-0.7783364633176206
sg15
g32
sbs(I-7
I62
tp36
g0
(g9
g2
Ntp37
Rp38
(dp39
g13
I01
sg14
F0.2232387805661707
sg15
g36
sbs(I-4
I62
tp40
g0
(g9
g2
Ntp41
Rp42
(dp43
g13
I01
sg14
F1.6067880542187643
sg15
g40
sbs(I62
I3
tp44
g0
(g9
g2
Ntp45
Rp46
(dp47
g13
I01
sg14
F-0.40516866994906964
sg15
g44
sbs(I-17
I62
tp48
g0
(g9
g2
Ntp49
Rp50
(dp51
g13
I01
sg14
F1.7878677465647996
sg15
g48
sbs(I62
I8
tp52
g0
(g9
g2
Ntp53
Rp54
(dp55
g13
I01
sg14
F-0.10379086178920545
sg15
g52
sbs(I-20
I62
tp56
g0
(g9
g2
Ntp57
Rp58
(dp59
g13
I01
sg14
F0.5368570243775237
sg15
g56
sbs(I62
I4
tp60
g0
(g9
g2
Ntp61
Rp62
(dp63
g13
I01
sg14
F0.09425678183902506
sg15
g60
sbs(I-13
I62
tp64
g0
(g9
g2
Ntp65
Rp66
(dp67
g13
I01
sg14
F1.5137349685749413
sg15
g64
sbs(I-10
I62
tp68
g0
(g9
g2
Ntp69
Rp70
(dp71
g13
I01
sg14
F-0.09822124040880557
sg15
g68
sbs(I62
I0
tp72
g0
(g9
g2
Ntp73
Rp74
(dp75
g13
I01
sg14
F-1.834784366057861
sg15
g72
sbs(I-3
I62
tp76
g0
(g9
g2
Ntp77
Rp78
(dp79
g13
I01
sg14
F-0.24192132083578607
sg15
g76
sbs(I-16
I62
tp80
g0
(g9
g2
Ntp81
Rp82
(dp83
g13
I01
sg14
F0.5345212809063398
sg15
g80
sbs(I62
I9
tp84
g0
(g9
g2
Ntp85
Rp86
(dp87
g13
I01
sg14
F-1.4323095305537374
sg15
g84
sbs(I-2
I62
tp88
g0
(g9
g2
Ntp89
Rp90
(dp91
g13
I01
sg14
F0.5923935461815119
sg15
g88
sbs(I62
I1
tp92
g0
(g9
g2
Ntp93
Rp94
(dp95
g13
I01
sg14
F0.5715554796885332
sg15
g92
sbs(I-6
I62
tp96
g0
(g9
g2
Ntp97
Rp98
(dp99
g13
I01
sg14
F-0.30926654710002754
sg15
g96
sbs(I62
I5
tp100
g0
(g9
g2
Ntp101
Rp102
(dp103
g13
I01
sg14
F0.049531826612480956
sg15
g100
sbs(I-19
I62
tp104
g0
(g9
g2
Ntp105
Rp106
(dp107
g13
I01
sg14
F-0.9785493846286941
sg15
g104
sbs(I-9
I62
tp108
g0
(g9
g2
Ntp109
Rp110
(dp111
g13
I01
sg14
F1.0035730901098738
sg15
g108
sbs(I-15
I62
tp112
g0
(g9
g2
Ntp113
Rp114
(dp115
g13
I01
sg14
F-0.11108003016381639
sg15
g112
sbs(I-12
I62
tp116
g0
(g9
g2
Ntp117
Rp118
(dp119
g13
I01
sg14
F0.028260349823053067
sg15
g116
sbs(I-5
I62
tp120
g0
(g9
g2
Ntp121
Rp122
(dp123
g13
I01
sg14
F-0.26071671030318144
sg15
g120
sbs(I-1
I62
tp124
g0
(g9
g2
Ntp125
Rp126
(dp127
g13
I01
sg14
F-0.4138063713909772
sg15
g124
sbs(I62
I6
tp128
g0
(g9
g2
Ntp129
Rp130
(dp131
g13
I01
sg14
F1.0836241510152078
sg15
g128
sbssS'nodes'
p132
(dp133
I0
g0
(cneat.genes
DefaultNodeGene
p134
g2
Ntp135
Rp136
(dp137
S'activation'
p138
S'relu'
p139
sS'bias'
p140
F-13.191615632135171
sS'response'
p141
F1.0
sg15
I0
sS'aggregation'
p142
S'sum'
p143
sbsI1
g0
(g134
g2
Ntp144
Rp145
(dp146
g138
g139
sg140
F-9.409104783536984
sg141
F1.0
sg15
I1
sg142
g143
sbsI2
g0
(g134
g2
Ntp147
Rp148
(dp149
g138
g139
sg140
F2.6744927087933634
sg141
F1.0
sg15
I2
sg142
g143
sbsI3
g0
(g134
g2
Ntp150
Rp151
(dp152
g138
g139
sg140
F10.841832241951842
sg141
F1.0
sg15
I3
sg142
g143
sbsI4
g0
(g134
g2
Ntp153
Rp154
(dp155
g138
g139
sg140
F1.005318750814401
sg141
F1.0
sg15
I4
sg142
g143
sbsI5
g0
(g134
g2
Ntp156
Rp157
(dp158
g138
g139
sg140
F-8.041796593857349
sg141
F1.0
sg15
I5
sg142
g143
sbsI6
g0
(g134
g2
Ntp159
Rp160
(dp161
g138
g139
sg140
F0.21783979670057005
sg141
F1.0
sg15
I6
sg142
g143
sbsI7
g0
(g134
g2
Ntp162
Rp163
(dp164
g138
g139
sg140
F-13.749127015789334
sg141
F1.0
sg15
I7
sg142
g143
sbsI8
g0
(g134
g2
Ntp165
Rp166
(dp167
g138
g139
sg140
F17.409088948672398
sg141
F1.0
sg15
I8
sg142
g143
sbsI9
g0
(g134
g2
Ntp168
Rp169
(dp170
g138
g139
sg140
F5.714023056330552
sg141
F1.0
sg15
I9
sg142
g143
sbsI62
g0
(g134
g2
Ntp171
Rp172
(dp173
g138
g139
sg140
F-2.646680066589794
sg141
F1.0
sg15
I62
sg142
g143
sbssg15
I53
sS'fitness'
p174
Nsb.