ccopy_reg
_reconstructor
p0
(cneat.genome
DefaultGenome
p1
c__builtin__
object
p2
Ntp3
Rp4
(dp5
S'connections'
p6
(dp7
(I63
I7
tp8
g0
(cneat.genes
DefaultConnectionGene
p9
g2
Ntp10
Rp11
(dp12
S'enabled'
p13
I01
sS'weight'
p14
F1.242461263569196
sS'key'
p15
g8
sbs(I-7
I63
tp16
g0
(g9
g2
Ntp17
Rp18
(dp19
g13
I01
sg14
F-1.4868793623717271
sg15
g16
sbs(I-12
I63
tp20
g0
(g9
g2
Ntp21
Rp22
(dp23
g13
I01
sg14
F0.710763817715273
sg15
g20
sbs(I-17
I63
tp24
g0
(g9
g2
Ntp25
Rp26
(dp27
g13
I01
sg14
F1.1127170913161615
sg15
g24
sbs(I-2
I63
tp28
g0
(g9
g2
Ntp29
Rp30
(dp31
g13
I01
sg14
F-0.4041620001995896
sg15
g28
sbs(I63
I2
tp32
g0
(g9
g2
Ntp33
Rp34
(dp35
g13
I01
sg14
F0.7135610783912192
sg15
g32
sbs(I-8
I63
tp36
g0
(g9
g2
Ntp37
Rp38
(dp39
g13
I01
sg14
F-0.45136131593818685
sg15
g36
sbs(I-13
I63
tp40
g0
(g9
g2
Ntp41
Rp42
(dp43
g13
I01
sg14
F-0.13111344788243012
sg15
g40
sbs(I63
I6
tp44
g0
(g9
g2
Ntp45
Rp46
(dp47
g13
I01
sg14
F0.26048237758689874
sg15
g44
sbs(I-18
I63
tp48
g0
(g9
g2
Ntp49
Rp50
(dp51
g13
I01
sg14
F-1.8470845262651148
sg15
g48
sbs(I63
I9
tp52
g0
(g9
g2
Ntp53
Rp54
(dp55
g13
I01
sg14
F0.38064010930695236
sg15
g52
sbs(I-10
I63
tp56
g0
(g9
g2
Ntp57
Rp58
(dp59
g13
I01
sg14
F1.7527557259216733
sg15
g56
sbs(I-3
I63
tp60
g0
(g9
g2
Ntp61
Rp62
(dp63
g13
I01
sg14
F0.006059005483746132
sg15
g60
sbs(I-14
I63
tp64
g0
(g9
g2
Ntp65
Rp66
(dp67
g13
I01
sg14
F1.840151619808319
sg15
g64
sbs(I-19
I63
tp68
g0
(g9
g2
Ntp69
Rp70
(dp71
g13
I01
sg14
F-0.32645975437696517
sg15
g68
sbs(I63
I1
tp72
g0
(g9
g2
Ntp73
Rp74
(dp75
g13
I01
sg14
F0.6002607805193372
sg15
g72
sbs(I-4
I63
tp76
g0
(g9
g2
Ntp77
Rp78
(dp79
g13
I01
sg14
F-0.6730843387927353
sg15
g76
sbs(I63
I8
tp80
g0
(g9
g2
Ntp81
Rp82
(dp83
g13
I01
sg14
F0.06711595084382353
sg15
g80
sbs(I-9
I63
tp84
g0
(g9
g2
Ntp85
Rp86
(dp87
g13
I01
sg14
F1.4526837120869116
sg15
g84
sbs(I63
I5
tp88
g0
(g9
g2
Ntp89
Rp90
(dp91
g13
I01
sg14
F0.5810820277901125
sg15
g88
sbs(I-15
I63
tp92
g0
(g9
g2
Ntp93
Rp94
(dp95
g13
I01
sg14
F1.084151117180342
sg15
g92
sbs(I-20
I63
tp96
g0
(g9
g2
Ntp97
Rp98
(dp99
g13
I01
sg14
F-1.1705397637784765
sg15
g96
sbs(I63
I3
tp100
g0
(g9
g2
Ntp101
Rp102
(dp103
g13
I01
sg14
F-0.2831054542931929
sg15
g100
sbs(I-5
I63
tp104
g0
(g9
g2
Ntp105
Rp106
(dp107
g13
I01
sg14
F1.0202934558377295
sg15
g104
sbs(I63
I0
tp108
g0
(g9
g2
Ntp109
Rp110
(dp111
g13
I01
sg14
F0.24352164218274777
sg15
g108
sbs(I-16
I63
tp112
g0
(g9
g2
Ntp113
Rp114
(dp115
g13
I01
sg14
F-0.2405916809271798
sg15
g112
sbs(I63
I4
tp116
g0
(g9
g2
Ntp117
Rp118
(dp119
g13
I01
sg14
F-0.27919019053138366
sg15
g116
sbs(I-6
I63
tp120
g0
(g9
g2
Ntp121
Rp122
(dp123
g13
I01
sg14
F-0.060944863159647186
sg15
g120
sbs(I-11
I63
tp124
g0
(g9
g2
Ntp125
Rp126
(dp127
g13
I01
sg14
F-1.0782071000724351
sg15
g124
sbs(I-1
I63
tp128
g0
(g9
g2
Ntp129
Rp130
(dp131
g13
I01
sg14
F-0.5997001100859592
sg15
g128
sbssS'nodes'
p132
(dp133
I0
g0
(cneat.genes
DefaultNodeGene
p134
g2
Ntp135
Rp136
(dp137
S'activation'
p138
S'relu'
p139
sS'bias'
p140
F8.374237075485114
sS'response'
p141
F1.0
sg15
I0
sS'aggregation'
p142
S'sum'
p143
sbsI1
g0
(g134
g2
Ntp144
Rp145
(dp146
g138
g139
sg140
F14.879018226617767
sg141
F1.0
sg15
I1
sg142
g143
sbsI2
g0
(g134
g2
Ntp147
Rp148
(dp149
g138
g139
sg140
F23.020438567799957
sg141
F1.0
sg15
I2
sg142
g143
sbsI3
g0
(g134
g2
Ntp150
Rp151
(dp152
g138
g139
sg140
F-5.071206341187997
sg141
F1.0
sg15
I3
sg142
g143
sbsI4
g0
(g134
g2
Ntp153
Rp154
(dp155
g138
g139
sg140
F-1.4628856756735367
sg141
F1.0
sg15
I4
sg142
g143
sbsI5
g0
(g134
g2
Ntp156
Rp157
(dp158
g138
g139
sg140
F-18.347690763585923
sg141
F1.0
sg15
I5
sg142
g143
sbsI6
g0
(g134
g2
Ntp159
Rp160
(dp161
g138
g139
sg140
F-5.979405116887698
sg141
F1.0
sg15
I6
sg142
g143
sbsI7
g0
(g134
g2
Ntp162
Rp163
(dp164
g138
g139
sg140
F-3.8806737009353167
sg141
F1.0
sg15
I7
sg142
g143
sbsI8
g0
(g134
g2
Ntp165
Rp166
(dp167
g138
g139
sg140
F-3.0256626609759643
sg141
F1.0
sg15
I8
sg142
g143
sbsI9
g0
(g134
g2
Ntp168
Rp169
(dp170
g138
g139
sg140
F-5.245061960104302
sg141
F1.0
sg15
I9
sg142
g143
sbsI63
g0
(g134
g2
Ntp171
Rp172
(dp173
g138
g139
sg140
F2.7056783904012924
sg141
F1.0
sg15
I63
sg142
g143
sbssg15
I54
sS'fitness'
p174
Nsb.