ccopy_reg
_reconstructor
p0
(cneat.genome
DefaultGenome
p1
c__builtin__
object
p2
Ntp3
Rp4
(dp5
S'connections'
p6
(dp7
(I63
I7
tp8
g0
(cneat.genes
DefaultConnectionGene
p9
g2
Ntp10
Rp11
(dp12
S'enabled'
p13
I01
sS'weight'
p14
F-1.251217808639767
sS'key'
p15
g8
sbs(I-4
I63
tp16
g0
(g9
g2
Ntp17
Rp18
(dp19
g13
I01
sg14
F0.9905334761834653
sg15
g16
sbs(I63
I5
tp20
g0
(g9
g2
Ntp21
Rp22
(dp23
g13
I01
sg14
F-1.1703206823380432
sg15
g20
sbs(I63
I8
tp24
g0
(g9
g2
Ntp25
Rp26
(dp27
g13
I01
sg14
F-0.7627718855550003
sg15
g24
sbs(I-9
I63
tp28
g0
(g9
g2
Ntp29
Rp30
(dp31
g13
I01
sg14
F-0.7137199487097049
sg15
g28
sbs(I-7
I63
tp32
g0
(g9
g2
Ntp33
Rp34
(dp35
g13
I01
sg14
F-1.0711420083116303
sg15
g32
sbs(I63
I4
tp36
g0
(g9
g2
Ntp37
Rp38
(dp39
g13
I01
sg14
F-0.22353805608809063
sg15
g36
sbs(I63
I0
tp40
g0
(g9
g2
Ntp41
Rp42
(dp43
g13
I01
sg14
F1.219407753228331
sg15
g40
sbs(I63
I3
tp44
g0
(g9
g2
Ntp45
Rp46
(dp47
g13
I01
sg14
F1.6777041615491095
sg15
g44
sbs(I-3
I63
tp48
g0
(g9
g2
Ntp49
Rp50
(dp51
g13
I01
sg14
F0.889146994003001
sg15
g48
sbs(I63
I6
tp52
g0
(g9
g2
Ntp53
Rp54
(dp55
g13
I01
sg14
F-1.104606255222771
sg15
g52
sbs(I-6
I63
tp56
g0
(g9
g2
Ntp57
Rp58
(dp59
g13
I01
sg14
F0.5662296674004639
sg15
g56
sbs(I-2
I63
tp60
g0
(g9
g2
Ntp61
Rp62
(dp63
g13
I01
sg14
F0.7751725064519821
sg15
g60
sbs(I63
I2
tp64
g0
(g9
g2
Ntp65
Rp66
(dp67
g13
I01
sg14
F-1.943394238868042
sg15
g64
sbs(I-5
I63
tp68
g0
(g9
g2
Ntp69
Rp70
(dp71
g13
I01
sg14
F0.2909061515752825
sg15
g68
sbs(I-1
I63
tp72
g0
(g9
g2
Ntp73
Rp74
(dp75
g13
I01
sg14
F1.6416545657262274
sg15
g72
sbs(I63
I9
tp76
g0
(g9
g2
Ntp77
Rp78
(dp79
g13
I01
sg14
F1.169143895078062
sg15
g76
sbs(I-10
I63
tp80
g0
(g9
g2
Ntp81
Rp82
(dp83
g13
I01
sg14
F0.2721249025959467
sg15
g80
sbs(I-8
I63
tp84
g0
(g9
g2
Ntp85
Rp86
(dp87
g13
I01
sg14
F0.1326611449717378
sg15
g84
sbs(I63
I1
tp88
g0
(g9
g2
Ntp89
Rp90
(dp91
g13
I01
sg14
F1.2748508214148664
sg15
g88
sbssS'nodes'
p92
(dp93
I0
g0
(cneat.genes
DefaultNodeGene
p94
g2
Ntp95
Rp96
(dp97
S'activation'
p98
S'relu'
p99
sS'bias'
p100
F2.7481399960991455
sS'response'
p101
F1.0
sg15
I0
sS'aggregation'
p102
S'sum'
p103
sbsI1
g0
(g94
g2
Ntp104
Rp105
(dp106
g98
g99
sg100
F-8.523451189216399
sg101
F1.0
sg15
I1
sg102
g103
sbsI2
g0
(g94
g2
Ntp107
Rp108
(dp109
g98
g99
sg100
F3.911981208902856
sg101
F1.0
sg15
I2
sg102
g103
sbsI3
g0
(g94
g2
Ntp110
Rp111
(dp112
g98
g99
sg100
F-1.9363912571047914
sg101
F1.0
sg15
I3
sg102
g103
sbsI4
g0
(g94
g2
Ntp113
Rp114
(dp115
g98
g99
sg100
F-0.06437885863649266
sg101
F1.0
sg15
I4
sg102
g103
sbsI5
g0
(g94
g2
Ntp116
Rp117
(dp118
g98
g99
sg100
F8.45670733812442
sg101
F1.0
sg15
I5
sg102
g103
sbsI6
g0
(g94
g2
Ntp119
Rp120
(dp121
g98
g99
sg100
F9.865103646046657
sg101
F1.0
sg15
I6
sg102
g103
sbsI7
g0
(g94
g2
Ntp122
Rp123
(dp124
g98
g99
sg100
F-2.0722322467950534
sg101
F1.0
sg15
I7
sg102
g103
sbsI8
g0
(g94
g2
Ntp125
Rp126
(dp127
g98
g99
sg100
F17.889614363198675
sg101
F1.0
sg15
I8
sg102
g103
sbsI9
g0
(g94
g2
Ntp128
Rp129
(dp130
g98
g99
sg100
F5.021311164004677
sg101
F1.0
sg15
I9
sg102
g103
sbsI63
g0
(g94
g2
Ntp131
Rp132
(dp133
g98
g99
sg100
F-2.7725566055207516
sg101
F1.0
sg15
I63
sg102
g103
sbssg15
I54
sS'fitness'
p134
F-0.2984432990769954
sb.