ccopy_reg
_reconstructor
p0
(cneat.genome
DefaultGenome
p1
c__builtin__
object
p2
Ntp3
Rp4
(dp5
S'connections'
p6
(dp7
(I23
I4
tp8
g0
(cneat.genes
DefaultConnectionGene
p9
g2
Ntp10
Rp11
(dp12
S'enabled'
p13
I01
sS'weight'
p14
F-3.5940011511398575
sS'key'
p15
g8
sbs(I2
I551
tp16
g0
(g9
g2
Ntp17
Rp18
(dp19
g13
I00
sg14
F1.1033485767578275
sg15
g16
sbs(I-2
I23
tp20
g0
(g9
g2
Ntp21
Rp22
(dp23
g13
I01
sg14
F1.3500204808905287
sg15
g20
sbs(I7
I7
tp24
g0
(g9
g2
Ntp25
Rp26
(dp27
g13
I01
sg14
F1.4923400783466696
sg15
g24
sbs(I23
I610
tp28
g0
(g9
g2
Ntp29
Rp30
(dp31
g13
I01
sg14
F0.13301826331228656
sg15
g28
sbs(I23
I3
tp32
g0
(g9
g2
Ntp33
Rp34
(dp35
g13
I00
sg14
F-0.9605979819366028
sg15
g32
sbs(I-3
I3
tp36
g0
(g9
g2
Ntp37
Rp38
(dp39
g13
I00
sg14
F-0.4798191365379325
sg15
g36
sbs(I23
I9
tp40
g0
(g9
g2
Ntp41
Rp42
(dp43
g13
I01
sg14
F0.8676874109877508
sg15
g40
sbs(I23
I7
tp44
g0
(g9
g2
Ntp45
Rp46
(dp47
g13
I00
sg14
F0.31189848889089244
sg15
g44
sbs(I-5
I23
tp48
g0
(g9
g2
Ntp49
Rp50
(dp51
g13
I00
sg14
F1.3547964982381304
sg15
g48
sbs(I669
I3
tp52
g0
(g9
g2
Ntp53
Rp54
(dp55
g13
I00
sg14
F-0.8934327181870221
sg15
g52
sbs(I610
I7
tp56
g0
(g9
g2
Ntp57
Rp58
(dp59
g13
I01
sg14
F0.65454004942839
sg15
g56
sbs(I-3
I669
tp60
g0
(g9
g2
Ntp61
Rp62
(dp63
g13
I01
sg14
F0.7980789193902933
sg15
g60
sbs(I2
I2
tp64
g0
(g9
g2
Ntp65
Rp66
(dp67
g13
I00
sg14
F-0.3341530571155085
sg15
g64
sbs(I559
I0
tp68
g0
(g9
g2
Ntp69
Rp70
(dp71
g13
I01
sg14
F-1.5076022883870968
sg15
g68
sbs(I23
I1
tp72
g0
(g9
g2
Ntp73
Rp74
(dp75
g13
I01
sg14
F2.4647172709984493
sg15
g72
sbs(I23
I5
tp76
g0
(g9
g2
Ntp77
Rp78
(dp79
g13
I01
sg14
F0.4078858802488001
sg15
g76
sbs(I-1
I559
tp80
g0
(g9
g2
Ntp81
Rp82
(dp83
g13
I00
sg14
F-1.4704687888604573
sg15
g80
sbs(I-9
I8
tp84
g0
(g9
g2
Ntp85
Rp86
(dp87
g13
I01
sg14
F-1.0262168475297035
sg15
g84
sbs(I9
I9
tp88
g0
(g9
g2
Ntp89
Rp90
(dp91
g13
I01
sg14
F3.68564257314626
sg15
g88
sbs(I9
I23
tp92
g0
(g9
g2
Ntp93
Rp94
(dp95
g13
I01
sg14
F1.3274782291191702
sg15
g92
sbs(I8
I8
tp96
g0
(g9
g2
Ntp97
Rp98
(dp99
g13
I01
sg14
F-2.0472198595821505
sg15
g96
sbs(I-7
I23
tp100
g0
(g9
g2
Ntp101
Rp102
(dp103
g13
I00
sg14
F-0.6601024566605624
sg15
g100
sbssS'nodes'
p104
(dp105
I0
g0
(cneat.genes
DefaultNodeGene
p106
g2
Ntp107
Rp108
(dp109
S'activation'
p110
S'tanh'
p111
sS'bias'
p112
F4.405478591088233
sS'response'
p113
F1.0
sg15
I0
sS'aggregation'
p114
S'sum'
p115
sbsI1
g0
(g106
g2
Ntp116
Rp117
(dp118
g110
g111
sg112
F-10.59265930405595
sg113
F1.0
sg15
I1
sg114
g115
sbsI2
g0
(g106
g2
Ntp119
Rp120
(dp121
g110
g111
sg112
F16.197385991080107
sg113
F1.0
sg15
I2
sg114
g115
sbsI3
g0
(g106
g2
Ntp122
Rp123
(dp124
g110
g111
sg112
F-0.8257545753385832
sg113
F1.0
sg15
I3
sg114
g115
sbsI4
g0
(g106
g2
Ntp125
Rp126
(dp127
g110
g111
sg112
F3.537252869291432
sg113
F1.0
sg15
I4
sg114
g115
sbsI5
g0
(g106
g2
Ntp128
Rp129
(dp130
g110
g111
sg112
F-3.4465031441392675
sg113
F1.0
sg15
I5
sg114
g115
sbsI6
g0
(g106
g2
Ntp131
Rp132
(dp133
g110
g111
sg112
F19.24059384604484
sg113
F1.0
sg15
I6
sg114
g115
sbsI7
g0
(g106
g2
Ntp134
Rp135
(dp136
g110
g111
sg112
F6.37349266190089
sg113
F1.0
sg15
I7
sg114
g115
sbsI8
g0
(g106
g2
Ntp137
Rp138
(dp139
g110
g111
sg112
F2.376573715235544
sg113
F1.0
sg15
I8
sg114
g115
sbsI9
g0
(g106
g2
Ntp140
Rp141
(dp142
g110
g111
sg112
F13.909344049099463
sg113
F1.0
sg15
I9
sg114
g115
sbsI551
g0
(g106
g2
Ntp143
Rp144
(dp145
g110
g111
sg112
F0.9398373340118692
sg113
F1.0
sg15
I551
sg114
g115
sbsI610
g0
(g106
g2
Ntp146
Rp147
(dp148
g110
g111
sg112
F-3.2944705218184027
sg113
F1.0
sg15
I610
sg114
g115
sbsI559
g0
(g106
g2
Ntp149
Rp150
(dp151
g110
g111
sg112
F13.845003269723778
sg113
F1.0
sg15
I559
sg114
g115
sbsI23
g0
(g106
g2
Ntp152
Rp153
(dp154
g110
g111
sg112
F-4.417270009520993
sg113
F1.0
sg15
I23
sg114
g115
sbsI669
g0
(g106
g2
Ntp155
Rp156
(dp157
g110
S'relu'
p158
sg112
F0.7776662527005438
sg113
F1.0
sg15
I669
sg114
g115
sbssg15
I55
sS'fitness'
p159
F0.07350202591811583
sb.