ccopy_reg
_reconstructor
p0
(cneat.genome
DefaultGenome
p1
c__builtin__
object
p2
Ntp3
Rp4
(dp5
S'connections'
p6
(dp7
(I-19
I65
tp8
g0
(cneat.genes
DefaultConnectionGene
p9
g2
Ntp10
Rp11
(dp12
S'enabled'
p13
I01
sS'weight'
p14
F0.9494828552695592
sS'key'
p15
g8
sbs(I-6
I65
tp16
g0
(g9
g2
Ntp17
Rp18
(dp19
g13
I01
sg14
F-0.20031959368503444
sg15
g16
sbs(I65
I4
tp20
g0
(g9
g2
Ntp21
Rp22
(dp23
g13
I01
sg14
F-1.7116704259213251
sg15
g20
sbs(I-16
I65
tp24
g0
(g9
g2
Ntp25
Rp26
(dp27
g13
I01
sg14
F0.860539497749865
sg15
g24
sbs(I-3
I65
tp28
g0
(g9
g2
Ntp29
Rp30
(dp31
g13
I01
sg14
F0.14608114247852624
sg15
g28
sbs(I65
I9
tp32
g0
(g9
g2
Ntp33
Rp34
(dp35
g13
I01
sg14
F-1.4991944731672373
sg15
g32
sbs(I65
I0
tp36
g0
(g9
g2
Ntp37
Rp38
(dp39
g13
I01
sg14
F0.11838842706268528
sg15
g36
sbs(I-13
I65
tp40
g0
(g9
g2
Ntp41
Rp42
(dp43
g13
I01
sg14
F0.06637978167965024
sg15
g40
sbs(I-10
I65
tp44
g0
(g9
g2
Ntp45
Rp46
(dp47
g13
I01
sg14
F-1.2671249235513433
sg15
g44
sbs(I-20
I65
tp48
g0
(g9
g2
Ntp49
Rp50
(dp51
g13
I01
sg14
F1.579747009832763
sg15
g48
sbs(I-17
I65
tp52
g0
(g9
g2
Ntp53
Rp54
(dp55
g13
I01
sg14
F-0.47958157235043836
sg15
g52
sbs(I65
I8
tp56
g0
(g9
g2
Ntp57
Rp58
(dp59
g13
I01
sg14
F0.32017099676745914
sg15
g56
sbs(I-4
I65
tp60
g0
(g9
g2
Ntp61
Rp62
(dp63
g13
I01
sg14
F-3.2122060636962764
sg15
g60
sbs(I-7
I65
tp64
g0
(g9
g2
Ntp65
Rp66
(dp67
g13
I01
sg14
F-0.3580007191591478
sg15
g64
sbs(I65
I7
tp68
g0
(g9
g2
Ntp69
Rp70
(dp71
g13
I01
sg14
F-0.26299006761885774
sg15
g68
sbs(I-14
I65
tp72
g0
(g9
g2
Ntp73
Rp74
(dp75
g13
I01
sg14
F0.9249647575356305
sg15
g72
sbs(I65
I3
tp76
g0
(g9
g2
Ntp77
Rp78
(dp79
g13
I01
sg14
F1.2174584269604392
sg15
g76
sbs(I-11
I65
tp80
g0
(g9
g2
Ntp81
Rp82
(dp83
g13
I01
sg14
F-0.49753231941629805
sg15
g80
sbs(I-2
I65
tp84
g0
(g9
g2
Ntp85
Rp86
(dp87
g13
I01
sg14
F-1.6179030801454006
sg15
g84
sbs(I-18
I65
tp88
g0
(g9
g2
Ntp89
Rp90
(dp91
g13
I01
sg14
F-0.7622401235686785
sg15
g88
sbs(I65
I6
tp92
g0
(g9
g2
Ntp93
Rp94
(dp95
g13
I01
sg14
F-1.0999008182860075
sg15
g92
sbs(I-8
I65
tp96
g0
(g9
g2
Ntp97
Rp98
(dp99
g13
I01
sg14
F0.061000388483399046
sg15
g96
sbs(I65
I2
tp100
g0
(g9
g2
Ntp101
Rp102
(dp103
g13
I01
sg14
F1.1410104999867294
sg15
g100
sbs(I-1
I65
tp104
g0
(g9
g2
Ntp105
Rp106
(dp107
g13
I01
sg14
F1.3838535638160097
sg15
g104
sbs(I-5
I65
tp108
g0
(g9
g2
Ntp109
Rp110
(dp111
g13
I01
sg14
F0.545050319436138
sg15
g108
sbs(I-12
I65
tp112
g0
(g9
g2
Ntp113
Rp114
(dp115
g13
I01
sg14
F0.48519350591125343
sg15
g112
sbs(I-15
I65
tp116
g0
(g9
g2
Ntp117
Rp118
(dp119
g13
I01
sg14
F0.18277046396129543
sg15
g116
sbs(I65
I5
tp120
g0
(g9
g2
Ntp121
Rp122
(dp123
g13
I01
sg14
F-1.82971656919643
sg15
g120
sbs(I-9
I65
tp124
g0
(g9
g2
Ntp125
Rp126
(dp127
g13
I01
sg14
F-0.12047208147304235
sg15
g124
sbs(I65
I1
tp128
g0
(g9
g2
Ntp129
Rp130
(dp131
g13
I01
sg14
F0.758037024905177
sg15
g128
sbssS'nodes'
p132
(dp133
I0
g0
(cneat.genes
DefaultNodeGene
p134
g2
Ntp135
Rp136
(dp137
S'activation'
p138
S'relu'
p139
sS'bias'
p140
F-7.02867937731047
sS'response'
p141
F1.0
sg15
I0
sS'aggregation'
p142
S'sum'
p143
sbsI1
g0
(g134
g2
Ntp144
Rp145
(dp146
g138
g139
sg140
F-2.4755516762214276
sg141
F1.0
sg15
I1
sg142
g143
sbsI2
g0
(g134
g2
Ntp147
Rp148
(dp149
g138
g139
sg140
F3.2811976244715053
sg141
F1.0
sg15
I2
sg142
g143
sbsI3
g0
(g134
g2
Ntp150
Rp151
(dp152
g138
g139
sg140
F-5.355004055039404
sg141
F1.0
sg15
I3
sg142
g143
sbsI4
g0
(g134
g2
Ntp153
Rp154
(dp155
g138
g139
sg140
F-24.50622377946023
sg141
F1.0
sg15
I4
sg142
g143
sbsI5
g0
(g134
g2
Ntp156
Rp157
(dp158
g138
g139
sg140
F4.561843769156964
sg141
F1.0
sg15
I5
sg142
g143
sbsI6
g0
(g134
g2
Ntp159
Rp160
(dp161
g138
g139
sg140
F12.213928049161327
sg141
F1.0
sg15
I6
sg142
g143
sbsI7
g0
(g134
g2
Ntp162
Rp163
(dp164
g138
g139
sg140
F-5.760552844854304
sg141
F1.0
sg15
I7
sg142
g143
sbsI8
g0
(g134
g2
Ntp165
Rp166
(dp167
g138
g139
sg140
F-7.783027789245716
sg141
F1.0
sg15
I8
sg142
g143
sbsI9
g0
(g134
g2
Ntp168
Rp169
(dp170
g138
g139
sg140
F4.883767493766472
sg141
F1.0
sg15
I9
sg142
g143
sbsI65
g0
(g134
g2
Ntp171
Rp172
(dp173
g138
g139
sg140
F2.3335398644823373
sg141
F1.0
sg15
I65
sg142
g143
sbssg15
I56
sS'fitness'
p174
F0.07814777802537064
sb.