ccopy_reg
_reconstructor
p0
(cneat.genome
DefaultGenome
p1
c__builtin__
object
p2
Ntp3
Rp4
(dp5
S'connections'
p6
(dp7
(I-19
I65
tp8
g0
(cneat.genes
DefaultConnectionGene
p9
g2
Ntp10
Rp11
(dp12
S'enabled'
p13
I01
sS'weight'
p14
F-1.0841051050558252
sS'key'
p15
g8
sbs(I-6
I65
tp16
g0
(g9
g2
Ntp17
Rp18
(dp19
g13
I01
sg14
F0.9942762779953266
sg15
g16
sbs(I65
I4
tp20
g0
(g9
g2
Ntp21
Rp22
(dp23
g13
I01
sg14
F-0.17721158866532494
sg15
g20
sbs(I-16
I65
tp24
g0
(g9
g2
Ntp25
Rp26
(dp27
g13
I01
sg14
F-1.6881464415591236
sg15
g24
sbs(I-3
I65
tp28
g0
(g9
g2
Ntp29
Rp30
(dp31
g13
I01
sg14
F1.0169947856243053
sg15
g28
sbs(I65
I9
tp32
g0
(g9
g2
Ntp33
Rp34
(dp35
g13
I01
sg14
F-0.19635085504984434
sg15
g32
sbs(I65
I0
tp36
g0
(g9
g2
Ntp37
Rp38
(dp39
g13
I01
sg14
F0.5417680485925868
sg15
g36
sbs(I-13
I65
tp40
g0
(g9
g2
Ntp41
Rp42
(dp43
g13
I01
sg14
F0.6742927728259921
sg15
g40
sbs(I-10
I65
tp44
g0
(g9
g2
Ntp45
Rp46
(dp47
g13
I01
sg14
F0.23093611669559078
sg15
g44
sbs(I-20
I65
tp48
g0
(g9
g2
Ntp49
Rp50
(dp51
g13
I01
sg14
F1.170259912288777
sg15
g48
sbs(I-17
I65
tp52
g0
(g9
g2
Ntp53
Rp54
(dp55
g13
I01
sg14
F-0.10599270189986007
sg15
g52
sbs(I65
I8
tp56
g0
(g9
g2
Ntp57
Rp58
(dp59
g13
I01
sg14
F-0.9886423570650217
sg15
g56
sbs(I-4
I65
tp60
g0
(g9
g2
Ntp61
Rp62
(dp63
g13
I01
sg14
F1.2127804039942103
sg15
g60
sbs(I-7
I65
tp64
g0
(g9
g2
Ntp65
Rp66
(dp67
g13
I01
sg14
F0.6532036407943154
sg15
g64
sbs(I65
I7
tp68
g0
(g9
g2
Ntp69
Rp70
(dp71
g13
I01
sg14
F-0.8539790161014205
sg15
g68
sbs(I-14
I65
tp72
g0
(g9
g2
Ntp73
Rp74
(dp75
g13
I01
sg14
F-0.8814868237995318
sg15
g72
sbs(I65
I3
tp76
g0
(g9
g2
Ntp77
Rp78
(dp79
g13
I01
sg14
F0.0505385036005817
sg15
g76
sbs(I-11
I65
tp80
g0
(g9
g2
Ntp81
Rp82
(dp83
g13
I01
sg14
F0.9450508835848676
sg15
g80
sbs(I-2
I65
tp84
g0
(g9
g2
Ntp85
Rp86
(dp87
g13
I01
sg14
F-1.214978002661918
sg15
g84
sbs(I-18
I65
tp88
g0
(g9
g2
Ntp89
Rp90
(dp91
g13
I01
sg14
F-0.6191441895963402
sg15
g88
sbs(I65
I6
tp92
g0
(g9
g2
Ntp93
Rp94
(dp95
g13
I01
sg14
F-2.1495872466727164
sg15
g92
sbs(I-8
I65
tp96
g0
(g9
g2
Ntp97
Rp98
(dp99
g13
I01
sg14
F0.17241056339897318
sg15
g96
sbs(I65
I2
tp100
g0
(g9
g2
Ntp101
Rp102
(dp103
g13
I01
sg14
F0.619562570654536
sg15
g100
sbs(I-1
I65
tp104
g0
(g9
g2
Ntp105
Rp106
(dp107
g13
I01
sg14
F0.9509399117668446
sg15
g104
sbs(I-5
I65
tp108
g0
(g9
g2
Ntp109
Rp110
(dp111
g13
I01
sg14
F0.16779003903075454
sg15
g108
sbs(I-12
I65
tp112
g0
(g9
g2
Ntp113
Rp114
(dp115
g13
I01
sg14
F-0.6654635239398887
sg15
g112
sbs(I-15
I65
tp116
g0
(g9
g2
Ntp117
Rp118
(dp119
g13
I01
sg14
F1.0509940810960117
sg15
g116
sbs(I65
I5
tp120
g0
(g9
g2
Ntp121
Rp122
(dp123
g13
I01
sg14
F0.7606552072260109
sg15
g120
sbs(I-9
I65
tp124
g0
(g9
g2
Ntp125
Rp126
(dp127
g13
I01
sg14
F1.1414150577365387
sg15
g124
sbs(I65
I1
tp128
g0
(g9
g2
Ntp129
Rp130
(dp131
g13
I01
sg14
F0.24396388943370606
sg15
g128
sbssS'nodes'
p132
(dp133
I0
g0
(cneat.genes
DefaultNodeGene
p134
g2
Ntp135
Rp136
(dp137
S'activation'
p138
S'relu'
p139
sS'bias'
p140
F-0.3605657368423061
sS'response'
p141
F1.0
sg15
I0
sS'aggregation'
p142
S'sum'
p143
sbsI1
g0
(g134
g2
Ntp144
Rp145
(dp146
g138
g139
sg140
F-6.243784116458793
sg141
F1.0
sg15
I1
sg142
g143
sbsI2
g0
(g134
g2
Ntp147
Rp148
(dp149
g138
g139
sg140
F7.081712464026662
sg141
F1.0
sg15
I2
sg142
g143
sbsI3
g0
(g134
g2
Ntp150
Rp151
(dp152
g138
g139
sg140
F13.56587389876344
sg141
F1.0
sg15
I3
sg142
g143
sbsI4
g0
(g134
g2
Ntp153
Rp154
(dp155
g138
g139
sg140
F1.1590810919287082
sg141
F1.0
sg15
I4
sg142
g143
sbsI5
g0
(g134
g2
Ntp156
Rp157
(dp158
g138
g139
sg140
F-15.348030742637533
sg141
F1.0
sg15
I5
sg142
g143
sbsI6
g0
(g134
g2
Ntp159
Rp160
(dp161
g138
g139
sg140
F1.5265676705778635
sg141
F1.0
sg15
I6
sg142
g143
sbsI7
g0
(g134
g2
Ntp162
Rp163
(dp164
g138
g139
sg140
F0.2050149942974852
sg141
F1.0
sg15
I7
sg142
g143
sbsI8
g0
(g134
g2
Ntp165
Rp166
(dp167
g138
g139
sg140
F-16.01231046517748
sg141
F1.0
sg15
I8
sg142
g143
sbsI9
g0
(g134
g2
Ntp168
Rp169
(dp170
g138
g139
sg140
F19.92585390470482
sg141
F1.0
sg15
I9
sg142
g143
sbsI65
g0
(g134
g2
Ntp171
Rp172
(dp173
g138
g139
sg140
F5.579918927787592
sg141
F1.0
sg15
I65
sg142
g143
sbssg15
I56
sS'fitness'
p174
Nsb.