ccopy_reg
_reconstructor
p0
(cneat.genome
DefaultGenome
p1
c__builtin__
object
p2
Ntp3
Rp4
(dp5
S'connections'
p6
(dp7
(I66
I6
tp8
g0
(cneat.genes
DefaultConnectionGene
p9
g2
Ntp10
Rp11
(dp12
S'enabled'
p13
I01
sS'weight'
p14
F1.3158948772854686
sS'key'
p15
g8
sbs(I-17
I66
tp16
g0
(g9
g2
Ntp17
Rp18
(dp19
g13
I01
sg14
F0.21748205022401665
sg15
g16
sbs(I-12
I66
tp20
g0
(g9
g2
Ntp21
Rp22
(dp23
g13
I01
sg14
F-0.7331571310371413
sg15
g20
sbs(I-1
I66
tp24
g0
(g9
g2
Ntp25
Rp26
(dp27
g13
I01
sg14
F0.27956713667114313
sg15
g24
sbs(I-10
I66
tp28
g0
(g9
g2
Ntp29
Rp30
(dp31
g13
I01
sg14
F0.9297048469227892
sg15
g28
sbs(I66
I3
tp32
g0
(g9
g2
Ntp33
Rp34
(dp35
g13
I01
sg14
F0.6632095205361743
sg15
g32
sbs(I-7
I66
tp36
g0
(g9
g2
Ntp37
Rp38
(dp39
g13
I01
sg14
F-1.0864398430492044
sg15
g36
sbs(I66
I7
tp40
g0
(g9
g2
Ntp41
Rp42
(dp43
g13
I01
sg14
F0.24191486069671225
sg15
g40
sbs(I-11
I66
tp44
g0
(g9
g2
Ntp45
Rp46
(dp47
g13
I01
sg14
F1.3747503121424118
sg15
g44
sbs(I-16
I66
tp48
g0
(g9
g2
Ntp49
Rp50
(dp51
g13
I01
sg14
F-1.6590861650968776
sg15
g48
sbs(I-6
I66
tp52
g0
(g9
g2
Ntp53
Rp54
(dp55
g13
I01
sg14
F0.2668629188058152
sg15
g52
sbs(I66
I0
tp56
g0
(g9
g2
Ntp57
Rp58
(dp59
g13
I01
sg14
F-0.36681762319229383
sg15
g56
sbs(I-5
I66
tp60
g0
(g9
g2
Ntp61
Rp62
(dp63
g13
I01
sg14
F1.2274334546587342
sg15
g60
sbs(I66
I4
tp64
g0
(g9
g2
Ntp65
Rp66
(dp67
g13
I01
sg14
F-0.037088484299794444
sg15
g64
sbs(I-20
I66
tp68
g0
(g9
g2
Ntp69
Rp70
(dp71
g13
I01
sg14
F-0.8956671694652693
sg15
g68
sbs(I-2
I66
tp72
g0
(g9
g2
Ntp73
Rp74
(dp75
g13
I01
sg14
F1.1666315039938369
sg15
g72
sbs(I66
I8
tp76
g0
(g9
g2
Ntp77
Rp78
(dp79
g13
I01
sg14
F-0.2056206284062184
sg15
g76
sbs(I66
I1
tp80
g0
(g9
g2
Ntp81
Rp82
(dp83
g13
I01
sg14
F-1.1590299409064433
sg15
g80
sbs(I-15
I66
tp84
g0
(g9
g2
Ntp85
Rp86
(dp87
g13
I01
sg14
F-2.361093290834962
sg15
g84
sbs(I-4
I66
tp88
g0
(g9
g2
Ntp89
Rp90
(dp91
g13
I01
sg14
F-0.5293988506369236
sg15
g88
sbs(I-9
I66
tp92
g0
(g9
g2
Ntp93
Rp94
(dp95
g13
I01
sg14
F0.28384047763686715
sg15
g92
sbs(I66
I5
tp96
g0
(g9
g2
Ntp97
Rp98
(dp99
g13
I01
sg14
F-0.367067270407837
sg15
g96
sbs(I-19
I66
tp100
g0
(g9
g2
Ntp101
Rp102
(dp103
g13
I01
sg14
F-1.238153703408422
sg15
g100
sbs(I66
I9
tp104
g0
(g9
g2
Ntp105
Rp106
(dp107
g13
I01
sg14
F-0.6183946541760706
sg15
g104
sbs(I-14
I66
tp108
g0
(g9
g2
Ntp109
Rp110
(dp111
g13
I01
sg14
F-0.5236046603339817
sg15
g108
sbs(I-13
I66
tp112
g0
(g9
g2
Ntp113
Rp114
(dp115
g13
I01
sg14
F-0.2676292992708985
sg15
g112
sbs(I-3
I66
tp116
g0
(g9
g2
Ntp117
Rp118
(dp119
g13
I01
sg14
F-0.7790910951163136
sg15
g116
sbs(I-8
I66
tp120
g0
(g9
g2
Ntp121
Rp122
(dp123
g13
I01
sg14
F1.2598876674561554
sg15
g120
sbs(I66
I2
tp124
g0
(g9
g2
Ntp125
Rp126
(dp127
g13
I01
sg14
F0.14838097508563033
sg15
g124
sbs(I-18
I66
tp128
g0
(g9
g2
Ntp129
Rp130
(dp131
g13
I01
sg14
F-1.6281451766105919
sg15
g128
sbssS'nodes'
p132
(dp133
I0
g0
(cneat.genes
DefaultNodeGene
p134
g2
Ntp135
Rp136
(dp137
S'activation'
p138
S'relu'
p139
sS'bias'
p140
F0.44773214475633116
sS'response'
p141
F1.0
sg15
I0
sS'aggregation'
p142
S'sum'
p143
sbsI1
g0
(g134
g2
Ntp144
Rp145
(dp146
g138
g139
sg140
F-5.027888573654494
sg141
F1.0
sg15
I1
sg142
g143
sbsI2
g0
(g134
g2
Ntp147
Rp148
(dp149
g138
g139
sg140
F8.275924686895987
sg141
F1.0
sg15
I2
sg142
g143
sbsI3
g0
(g134
g2
Ntp150
Rp151
(dp152
g138
g139
sg140
F-6.810670310420811
sg141
F1.0
sg15
I3
sg142
g143
sbsI4
g0
(g134
g2
Ntp153
Rp154
(dp155
g138
g139
sg140
F-8.04918929746122
sg141
F1.0
sg15
I4
sg142
g143
sbsI5
g0
(g134
g2
Ntp156
Rp157
(dp158
g138
g139
sg140
F-3.2054050272753716
sg141
F1.0
sg15
I5
sg142
g143
sbsI6
g0
(g134
g2
Ntp159
Rp160
(dp161
g138
g139
sg140
F18.02864391185838
sg141
F1.0
sg15
I6
sg142
g143
sbsI7
g0
(g134
g2
Ntp162
Rp163
(dp164
g138
g139
sg140
F-5.957322575996536
sg141
F1.0
sg15
I7
sg142
g143
sbsI8
g0
(g134
g2
Ntp165
Rp166
(dp167
g138
g139
sg140
F-13.155810556710215
sg141
F1.0
sg15
I8
sg142
g143
sbsI9
g0
(g134
g2
Ntp168
Rp169
(dp170
g138
g139
sg140
F-16.324756497426968
sg141
F1.0
sg15
I9
sg142
g143
sbsI66
g0
(g134
g2
Ntp171
Rp172
(dp173
g138
g139
sg140
F-6.444711443853199
sg141
F1.0
sg15
I66
sg142
g143
sbssg15
I57
sS'fitness'
p174
Nsb.