ccopy_reg
_reconstructor
p0
(cneat.genome
DefaultGenome
p1
c__builtin__
object
p2
Ntp3
Rp4
(dp5
S'connections'
p6
(dp7
(I67
I2
tp8
g0
(cneat.genes
DefaultConnectionGene
p9
g2
Ntp10
Rp11
(dp12
S'enabled'
p13
I01
sS'weight'
p14
F0.26344278654248215
sS'key'
p15
g8
sbs(I-14
I67
tp16
g0
(g9
g2
Ntp17
Rp18
(dp19
g13
I01
sg14
F0.5484844931659348
sg15
g16
sbs(I-11
I67
tp20
g0
(g9
g2
Ntp21
Rp22
(dp23
g13
I01
sg14
F0.8389498899408604
sg15
g20
sbs(I-8
I67
tp24
g0
(g9
g2
Ntp25
Rp26
(dp27
g13
I01
sg14
F0.4615609681038001
sg15
g24
sbs(I67
I9
tp28
g0
(g9
g2
Ntp29
Rp30
(dp31
g13
I01
sg14
F-2.399728652712937
sg15
g28
sbs(I-18
I67
tp32
g0
(g9
g2
Ntp33
Rp34
(dp35
g13
I01
sg14
F1.5407107532876967
sg15
g32
sbs(I-5
I67
tp36
g0
(g9
g2
Ntp37
Rp38
(dp39
g13
I01
sg14
F0.8565182291570476
sg15
g36
sbs(I67
I5
tp40
g0
(g9
g2
Ntp41
Rp42
(dp43
g13
I01
sg14
F-0.03433014694706554
sg15
g40
sbs(I-12
I67
tp44
g0
(g9
g2
Ntp45
Rp46
(dp47
g13
I01
sg14
F1.2669813168040978
sg15
g44
sbs(I-1
I67
tp48
g0
(g9
g2
Ntp49
Rp50
(dp51
g13
I01
sg14
F-1.3437504326771978
sg15
g48
sbs(I67
I1
tp52
g0
(g9
g2
Ntp53
Rp54
(dp55
g13
I01
sg14
F-0.1493788154280501
sg15
g52
sbs(I67
I8
tp56
g0
(g9
g2
Ntp57
Rp58
(dp59
g13
I01
sg14
F0.09832937504505034
sg15
g56
sbs(I-9
I67
tp60
g0
(g9
g2
Ntp61
Rp62
(dp63
g13
I01
sg14
F0.647958173952991
sg15
g60
sbs(I-15
I67
tp64
g0
(g9
g2
Ntp65
Rp66
(dp67
g13
I01
sg14
F-1.1676981763414216
sg15
g64
sbs(I67
I4
tp68
g0
(g9
g2
Ntp69
Rp70
(dp71
g13
I01
sg14
F0.996865177183216
sg15
g68
sbs(I-19
I67
tp72
g0
(g9
g2
Ntp73
Rp74
(dp75
g13
I01
sg14
F0.8713808740613989
sg15
g72
sbs(I67
I0
tp76
g0
(g9
g2
Ntp77
Rp78
(dp79
g13
I01
sg14
F-0.5903040127516956
sg15
g76
sbs(I-16
I67
tp80
g0
(g9
g2
Ntp81
Rp82
(dp83
g13
I01
sg14
F-1.448320571149178
sg15
g80
sbs(I-6
I67
tp84
g0
(g9
g2
Ntp85
Rp86
(dp87
g13
I01
sg14
F-1.0607207359387127
sg15
g84
sbs(I-13
I67
tp88
g0
(g9
g2
Ntp89
Rp90
(dp91
g13
I01
sg14
F-0.7666591372875413
sg15
g88
sbs(I-3
I67
tp92
g0
(g9
g2
Ntp93
Rp94
(dp95
g13
I01
sg14
F1.1194340872129767
sg15
g92
sbs(I67
I7
tp96
g0
(g9
g2
Ntp97
Rp98
(dp99
g13
I01
sg14
F0.3359449685407804
sg15
g96
sbs(I-20
I67
tp100
g0
(g9
g2
Ntp101
Rp102
(dp103
g13
I01
sg14
F1.7199955629475998
sg15
g100
sbs(I-10
I67
tp104
g0
(g9
g2
Ntp105
Rp106
(dp107
g13
I01
sg14
F0.3443213309719897
sg15
g104
sbs(I67
I3
tp108
g0
(g9
g2
Ntp109
Rp110
(dp111
g13
I01
sg14
F-0.4403576934755034
sg15
g108
sbs(I-17
I67
tp112
g0
(g9
g2
Ntp113
Rp114
(dp115
g13
I01
sg14
F-1.9106287550027679
sg15
g112
sbs(I-4
I67
tp116
g0
(g9
g2
Ntp117
Rp118
(dp119
g13
I01
sg14
F1.3826466445719303
sg15
g116
sbs(I-2
I67
tp120
g0
(g9
g2
Ntp121
Rp122
(dp123
g13
I01
sg14
F-0.9449788200552028
sg15
g120
sbs(I67
I6
tp124
g0
(g9
g2
Ntp125
Rp126
(dp127
g13
I01
sg14
F-0.44255040690556247
sg15
g124
sbs(I-7
I67
tp128
g0
(g9
g2
Ntp129
Rp130
(dp131
g13
I01
sg14
F0.7957063626865016
sg15
g128
sbssS'nodes'
p132
(dp133
I0
g0
(cneat.genes
DefaultNodeGene
p134
g2
Ntp135
Rp136
(dp137
S'activation'
p138
S'relu'
p139
sS'bias'
p140
F6.887807161532892
sS'response'
p141
F1.0
sg15
I0
sS'aggregation'
p142
S'sum'
p143
sbsI1
g0
(g134
g2
Ntp144
Rp145
(dp146
g138
g139
sg140
F-3.4408670932158896
sg141
F1.0
sg15
I1
sg142
g143
sbsI2
g0
(g134
g2
Ntp147
Rp148
(dp149
g138
g139
sg140
F-8.763502858259285
sg141
F1.0
sg15
I2
sg142
g143
sbsI3
g0
(g134
g2
Ntp150
Rp151
(dp152
g138
g139
sg140
F21.283181541669876
sg141
F1.0
sg15
I3
sg142
g143
sbsI4
g0
(g134
g2
Ntp153
Rp154
(dp155
g138
g139
sg140
F-2.698219597260483
sg141
F1.0
sg15
I4
sg142
g143
sbsI5
g0
(g134
g2
Ntp156
Rp157
(dp158
g138
g139
sg140
F2.370134210791825
sg141
F1.0
sg15
I5
sg142
g143
sbsI6
g0
(g134
g2
Ntp159
Rp160
(dp161
g138
g139
sg140
F4.200471904967774
sg141
F1.0
sg15
I6
sg142
g143
sbsI7
g0
(g134
g2
Ntp162
Rp163
(dp164
g138
g139
sg140
F7.278506747711544
sg141
F1.0
sg15
I7
sg142
g143
sbsI8
g0
(g134
g2
Ntp165
Rp166
(dp167
g138
g139
sg140
F-9.945986368584101
sg141
F1.0
sg15
I8
sg142
g143
sbsI9
g0
(g134
g2
Ntp168
Rp169
(dp170
g138
g139
sg140
F-9.504329729841963
sg141
F1.0
sg15
I9
sg142
g143
sbsI67
g0
(g134
g2
Ntp171
Rp172
(dp173
g138
g139
sg140
F5.908424834644733
sg141
F1.0
sg15
I67
sg142
g143
sbssg15
I58
sS'fitness'
p174
Nsb.