ccopy_reg
_reconstructor
p0
(cneat.genome
DefaultGenome
p1
c__builtin__
object
p2
Ntp3
Rp4
(dp5
S'connections'
p6
(dp7
(I67
I2
tp8
g0
(cneat.genes
DefaultConnectionGene
p9
g2
Ntp10
Rp11
(dp12
S'enabled'
p13
I01
sS'weight'
p14
F0.09968685064983891
sS'key'
p15
g8
sbs(I-14
I67
tp16
g0
(g9
g2
Ntp17
Rp18
(dp19
g13
I01
sg14
F-1.8763047899049468
sg15
g16
sbs(I-11
I67
tp20
g0
(g9
g2
Ntp21
Rp22
(dp23
g13
I01
sg14
F-1.4118692457217643
sg15
g20
sbs(I-8
I67
tp24
g0
(g9
g2
Ntp25
Rp26
(dp27
g13
I01
sg14
F0.5319219092124311
sg15
g24
sbs(I67
I9
tp28
g0
(g9
g2
Ntp29
Rp30
(dp31
g13
I01
sg14
F-2.3783422834086805
sg15
g28
sbs(I-18
I67
tp32
g0
(g9
g2
Ntp33
Rp34
(dp35
g13
I01
sg14
F-1.3215417723023237
sg15
g32
sbs(I-5
I67
tp36
g0
(g9
g2
Ntp37
Rp38
(dp39
g13
I01
sg14
F-0.4918697472492292
sg15
g36
sbs(I67
I5
tp40
g0
(g9
g2
Ntp41
Rp42
(dp43
g13
I01
sg14
F0.16519191606317765
sg15
g40
sbs(I-12
I67
tp44
g0
(g9
g2
Ntp45
Rp46
(dp47
g13
I01
sg14
F0.2926149541788698
sg15
g44
sbs(I-1
I67
tp48
g0
(g9
g2
Ntp49
Rp50
(dp51
g13
I01
sg14
F1.624969427019754
sg15
g48
sbs(I67
I1
tp52
g0
(g9
g2
Ntp53
Rp54
(dp55
g13
I01
sg14
F-0.4579299988517244
sg15
g52
sbs(I67
I8
tp56
g0
(g9
g2
Ntp57
Rp58
(dp59
g13
I01
sg14
F-0.6404071894357601
sg15
g56
sbs(I-9
I67
tp60
g0
(g9
g2
Ntp61
Rp62
(dp63
g13
I01
sg14
F-0.8002491485848772
sg15
g60
sbs(I-15
I67
tp64
g0
(g9
g2
Ntp65
Rp66
(dp67
g13
I01
sg14
F-1.0980232646657273
sg15
g64
sbs(I67
I4
tp68
g0
(g9
g2
Ntp69
Rp70
(dp71
g13
I01
sg14
F-0.5779549909575575
sg15
g68
sbs(I-19
I67
tp72
g0
(g9
g2
Ntp73
Rp74
(dp75
g13
I01
sg14
F0.4608825639738505
sg15
g72
sbs(I67
I0
tp76
g0
(g9
g2
Ntp77
Rp78
(dp79
g13
I01
sg14
F-1.0000293019181832
sg15
g76
sbs(I-16
I67
tp80
g0
(g9
g2
Ntp81
Rp82
(dp83
g13
I01
sg14
F-0.10751355736022714
sg15
g80
sbs(I-6
I67
tp84
g0
(g9
g2
Ntp85
Rp86
(dp87
g13
I01
sg14
F-0.6216928679488841
sg15
g84
sbs(I-13
I67
tp88
g0
(g9
g2
Ntp89
Rp90
(dp91
g13
I01
sg14
F0.08212002864625503
sg15
g88
sbs(I-3
I67
tp92
g0
(g9
g2
Ntp93
Rp94
(dp95
g13
I01
sg14
F-0.03667077448532079
sg15
g92
sbs(I67
I7
tp96
g0
(g9
g2
Ntp97
Rp98
(dp99
g13
I01
sg14
F0.5004896421916089
sg15
g96
sbs(I-20
I67
tp100
g0
(g9
g2
Ntp101
Rp102
(dp103
g13
I01
sg14
F-1.5670942988842045
sg15
g100
sbs(I-10
I67
tp104
g0
(g9
g2
Ntp105
Rp106
(dp107
g13
I01
sg14
F0.6491960828834681
sg15
g104
sbs(I67
I3
tp108
g0
(g9
g2
Ntp109
Rp110
(dp111
g13
I01
sg14
F0.047376329127009974
sg15
g108
sbs(I-17
I67
tp112
g0
(g9
g2
Ntp113
Rp114
(dp115
g13
I01
sg14
F0.1787866390598527
sg15
g112
sbs(I-4
I67
tp116
g0
(g9
g2
Ntp117
Rp118
(dp119
g13
I01
sg14
F-0.5318089839358674
sg15
g116
sbs(I-2
I67
tp120
g0
(g9
g2
Ntp121
Rp122
(dp123
g13
I01
sg14
F2.1292484377575267
sg15
g120
sbs(I67
I6
tp124
g0
(g9
g2
Ntp125
Rp126
(dp127
g13
I01
sg14
F0.8015740400448661
sg15
g124
sbs(I-7
I67
tp128
g0
(g9
g2
Ntp129
Rp130
(dp131
g13
I01
sg14
F0.4906449589845641
sg15
g128
sbssS'nodes'
p132
(dp133
I0
g0
(cneat.genes
DefaultNodeGene
p134
g2
Ntp135
Rp136
(dp137
S'activation'
p138
S'relu'
p139
sS'bias'
p140
F8.25084947268572
sS'response'
p141
F1.0
sg15
I0
sS'aggregation'
p142
S'sum'
p143
sbsI1
g0
(g134
g2
Ntp144
Rp145
(dp146
g138
g139
sg140
F-15.391808074258858
sg141
F1.0
sg15
I1
sg142
g143
sbsI2
g0
(g134
g2
Ntp147
Rp148
(dp149
g138
g139
sg140
F-5.021744409101791
sg141
F1.0
sg15
I2
sg142
g143
sbsI3
g0
(g134
g2
Ntp150
Rp151
(dp152
g138
g139
sg140
F4.917841956577961
sg141
F1.0
sg15
I3
sg142
g143
sbsI4
g0
(g134
g2
Ntp153
Rp154
(dp155
g138
g139
sg140
F-2.146037144744754
sg141
F1.0
sg15
I4
sg142
g143
sbsI5
g0
(g134
g2
Ntp156
Rp157
(dp158
g138
g139
sg140
F-12.747573897539539
sg141
F1.0
sg15
I5
sg142
g143
sbsI6
g0
(g134
g2
Ntp159
Rp160
(dp161
g138
g139
sg140
F5.555283765204252
sg141
F1.0
sg15
I6
sg142
g143
sbsI7
g0
(g134
g2
Ntp162
Rp163
(dp164
g138
g139
sg140
F-0.717555050409388
sg141
F1.0
sg15
I7
sg142
g143
sbsI8
g0
(g134
g2
Ntp165
Rp166
(dp167
g138
g139
sg140
F-15.05900033020196
sg141
F1.0
sg15
I8
sg142
g143
sbsI9
g0
(g134
g2
Ntp168
Rp169
(dp170
g138
g139
sg140
F6.744552486274213
sg141
F1.0
sg15
I9
sg142
g143
sbsI67
g0
(g134
g2
Ntp171
Rp172
(dp173
g138
g139
sg140
F-10.751380071000483
sg141
F1.0
sg15
I67
sg142
g143
sbssg15
I58
sS'fitness'
p174
F0.04722795852244617
sb.