ccopy_reg
_reconstructor
p0
(cneat.genome
DefaultGenome
p1
c__builtin__
object
p2
Ntp3
Rp4
(dp5
S'connections'
p6
(dp7
(I327
I3
tp8
g0
(cneat.genes
DefaultConnectionGene
p9
g2
Ntp10
Rp11
(dp12
S'enabled'
p13
I01
sS'weight'
p14
F2.224965001315925
sS'key'
p15
g8
sbs(I0
I0
tp16
g0
(g9
g2
Ntp17
Rp18
(dp19
g13
I00
sg14
F-2.067507362687846
sg15
g16
sbs(I3
I3
tp20
g0
(g9
g2
Ntp21
Rp22
(dp23
g13
I01
sg14
F-2.352919447093882
sg15
g20
sbs(I-8
I327
tp24
g0
(g9
g2
Ntp25
Rp26
(dp27
g13
I00
sg14
F2.0359234614901354
sg15
g24
sbs(I1
I622
tp28
g0
(g9
g2
Ntp29
Rp30
(dp31
g13
I00
sg14
F0.5640999926858047
sg15
g28
sbs(I327
I6
tp32
g0
(g9
g2
Ntp33
Rp34
(dp35
g13
I00
sg14
F2.99175048613687
sg15
g32
sbs(I622
I327
tp36
g0
(g9
g2
Ntp37
Rp38
(dp39
g13
I01
sg14
F0.8340407313814929
sg15
g36
sbs(I327
I7
tp40
g0
(g9
g2
Ntp41
Rp42
(dp43
g13
I01
sg14
F0.23822309946399534
sg15
g40
sbs(I8
I8
tp44
g0
(g9
g2
Ntp45
Rp46
(dp47
g13
I01
sg14
F-1.8872917004531573
sg15
g44
sbs(I-3
I327
tp48
g0
(g9
g2
Ntp49
Rp50
(dp51
g13
I00
sg14
F-1.0877214012044958
sg15
g48
sbs(I-10
I327
tp52
g0
(g9
g2
Ntp53
Rp54
(dp55
g13
I01
sg14
F-0.2122212732861133
sg15
g52
sbs(I2
I2
tp56
g0
(g9
g2
Ntp57
Rp58
(dp59
g13
I01
sg14
F-1.909380953151688
sg15
g56
sbs(I-7
I2
tp60
g0
(g9
g2
Ntp61
Rp62
(dp63
g13
I01
sg14
F2.04524372921324
sg15
g60
sbs(I-4
I327
tp64
g0
(g9
g2
Ntp65
Rp66
(dp67
g13
I01
sg14
F-1.2292726267683955
sg15
g64
sbs(I327
I8
tp68
g0
(g9
g2
Ntp69
Rp70
(dp71
g13
I00
sg14
F-3.397666428153726
sg15
g68
sbs(I1
I1
tp72
g0
(g9
g2
Ntp73
Rp74
(dp75
g13
I01
sg14
F2.863431446259596
sg15
g72
sbs(I327
I2
tp76
g0
(g9
g2
Ntp77
Rp78
(dp79
g13
I01
sg14
F-3.1923600063225335
sg15
g76
sbs(I327
I9
tp80
g0
(g9
g2
Ntp81
Rp82
(dp83
g13
I01
sg14
F0.19743910579487944
sg15
g80
sbssS'nodes'
p84
(dp85
I0
g0
(cneat.genes
DefaultNodeGene
p86
g2
Ntp87
Rp88
(dp89
S'activation'
p90
S'tanh'
p91
sS'bias'
p92
F-0.36880974256250626
sS'response'
p93
F1.0
sg15
I0
sS'aggregation'
p94
S'sum'
p95
sbsI1
g0
(g86
g2
Ntp96
Rp97
(dp98
g90
g91
sg92
F4.803247024251242
sg93
F1.0
sg15
I1
sg94
g95
sbsI2
g0
(g86
g2
Ntp99
Rp100
(dp101
g90
g91
sg92
F-13.06318011524859
sg93
F1.0
sg15
I2
sg94
g95
sbsI3
g0
(g86
g2
Ntp102
Rp103
(dp104
g90
g91
sg92
F-3.242830583019231
sg93
F1.0
sg15
I3
sg94
g95
sbsI4
g0
(g86
g2
Ntp105
Rp106
(dp107
g90
g91
sg92
F-14.175016825495764
sg93
F1.0
sg15
I4
sg94
g95
sbsI5
g0
(g86
g2
Ntp108
Rp109
(dp110
g90
g91
sg92
F5.105316879505031
sg93
F1.0
sg15
I5
sg94
g95
sbsI6
g0
(g86
g2
Ntp111
Rp112
(dp113
g90
g91
sg92
F-11.368253022940866
sg93
F1.0
sg15
I6
sg94
g95
sbsI7
g0
(g86
g2
Ntp114
Rp115
(dp116
g90
g91
sg92
F-8.669030588769388
sg93
F1.0
sg15
I7
sg94
g95
sbsI8
g0
(g86
g2
Ntp117
Rp118
(dp119
g90
g91
sg92
F-6.428385910514165
sg93
F1.0
sg15
I8
sg94
g95
sbsI9
g0
(g86
g2
Ntp120
Rp121
(dp122
g90
g91
sg92
F0.966649773921602
sg93
F1.0
sg15
I9
sg94
g95
sbsI327
g0
(g86
g2
Ntp123
Rp124
(dp125
g90
g91
sg92
F-4.80718990031766
sg93
F1.0
sg15
I327
sg94
g95
sbsI622
g0
(g86
g2
Ntp126
Rp127
(dp128
g90
g91
sg92
F-1.8050008343900958
sg93
F1.0
sg15
I622
sg94
g95
sbssg15
I59
sS'fitness'
p129
F0.07366281455069168
sb.