ccopy_reg
_reconstructor
p0
(cneat.genome
DefaultGenome
p1
c__builtin__
object
p2
Ntp3
Rp4
(dp5
S'connections'
p6
(dp7
(I68
I5
tp8
g0
(cneat.genes
DefaultConnectionGene
p9
g2
Ntp10
Rp11
(dp12
S'enabled'
p13
I01
sS'weight'
p14
F0.1449743236059866
sS'key'
p15
g8
sbs(I-20
I68
tp16
g0
(g9
g2
Ntp17
Rp18
(dp19
g13
I01
sg14
F-0.6448150443138464
sg15
g16
sbs(I68
I2
tp20
g0
(g9
g2
Ntp21
Rp22
(dp23
g13
I01
sg14
F1.296905092930078
sg15
g20
sbs(I-9
I68
tp24
g0
(g9
g2
Ntp25
Rp26
(dp27
g13
I01
sg14
F0.730843887450041
sg15
g24
sbs(I-4
I68
tp28
g0
(g9
g2
Ntp29
Rp30
(dp31
g13
I01
sg14
F-0.9310402431323956
sg15
g28
sbs(I68
I6
tp32
g0
(g9
g2
Ntp33
Rp34
(dp35
g13
I01
sg14
F0.5005300045444537
sg15
g32
sbs(I-18
I68
tp36
g0
(g9
g2
Ntp37
Rp38
(dp39
g13
I01
sg14
F-2.3889184489451947
sg15
g36
sbs(I-19
I68
tp40
g0
(g9
g2
Ntp41
Rp42
(dp43
g13
I01
sg14
F0.8491634128770202
sg15
g40
sbs(I-13
I68
tp44
g0
(g9
g2
Ntp45
Rp46
(dp47
g13
I01
sg14
F-0.3662590645645592
sg15
g44
sbs(I-14
I68
tp48
g0
(g9
g2
Ntp49
Rp50
(dp51
g13
I01
sg14
F2.413168166260071
sg15
g48
sbs(I-8
I68
tp52
g0
(g9
g2
Ntp53
Rp54
(dp55
g13
I01
sg14
F0.29232470170323344
sg15
g52
sbs(I68
I3
tp56
g0
(g9
g2
Ntp57
Rp58
(dp59
g13
I01
sg14
F-1.8670962616189177
sg15
g56
sbs(I-2
I68
tp60
g0
(g9
g2
Ntp61
Rp62
(dp63
g13
I01
sg14
F1.6244327472020588
sg15
g60
sbs(I-3
I68
tp64
g0
(g9
g2
Ntp65
Rp66
(dp67
g13
I01
sg14
F-0.22011255888215717
sg15
g64
sbs(I68
I7
tp68
g0
(g9
g2
Ntp69
Rp70
(dp71
g13
I01
sg14
F0.8886230267773607
sg15
g68
sbs(I-7
I68
tp72
g0
(g9
g2
Ntp73
Rp74
(dp75
g13
I01
sg14
F-0.018705163193673567
sg15
g72
sbs(I68
I8
tp76
g0
(g9
g2
Ntp77
Rp78
(dp79
g13
I01
sg14
F0.6630078656708881
sg15
g76
sbs(I-1
I68
tp80
g0
(g9
g2
Ntp81
Rp82
(dp83
g13
I01
sg14
F2.235413638118575
sg15
g80
sbs(I-17
I68
tp84
g0
(g9
g2
Ntp85
Rp86
(dp87
g13
I01
sg14
F-0.5518713986906815
sg15
g84
sbs(I-12
I68
tp88
g0
(g9
g2
Ntp89
Rp90
(dp91
g13
I01
sg14
F0.24566852911414933
sg15
g88
sbs(I68
I0
tp92
g0
(g9
g2
Ntp93
Rp94
(dp95
g13
I01
sg14
F-0.2833556217598103
sg15
g92
sbs(I68
I9
tp96
g0
(g9
g2
Ntp97
Rp98
(dp99
g13
I01
sg14
F1.8955852445537718
sg15
g96
sbs(I-16
I68
tp100
g0
(g9
g2
Ntp101
Rp102
(dp103
g13
I01
sg14
F0.009884012530749001
sg15
g100
sbs(I68
I4
tp104
g0
(g9
g2
Ntp105
Rp106
(dp107
g13
I01
sg14
F-0.008272765514810336
sg15
g104
sbs(I-10
I68
tp108
g0
(g9
g2
Ntp109
Rp110
(dp111
g13
I01
sg14
F0.6771053214330208
sg15
g108
sbs(I-11
I68
tp112
g0
(g9
g2
Ntp113
Rp114
(dp115
g13
I01
sg14
F-0.31482149015529914
sg15
g112
sbs(I-5
I68
tp116
g0
(g9
g2
Ntp117
Rp118
(dp119
g13
I01
sg14
F0.3472102613766887
sg15
g116
sbs(I-6
I68
tp120
g0
(g9
g2
Ntp121
Rp122
(dp123
g13
I01
sg14
F-0.8198748070296403
sg15
g120
sbs(I68
I1
tp124
g0
(g9
g2
Ntp125
Rp126
(dp127
g13
I01
sg14
F0.0123980221974393
sg15
g124
sbs(I-15
I68
tp128
g0
(g9
g2
Ntp129
Rp130
(dp131
g13
I01
sg14
F-0.16036325930273929
sg15
g128
sbssS'nodes'
p132
(dp133
I0
g0
(cneat.genes
DefaultNodeGene
p134
g2
Ntp135
Rp136
(dp137
S'activation'
p138
S'relu'
p139
sS'bias'
p140
F-16.288585869682088
sS'response'
p141
F1.0
sg15
I0
sS'aggregation'
p142
S'sum'
p143
sbsI1
g0
(g134
g2
Ntp144
Rp145
(dp146
g138
g139
sg140
F2.0897242736663233
sg141
F1.0
sg15
I1
sg142
g143
sbsI2
g0
(g134
g2
Ntp147
Rp148
(dp149
g138
g139
sg140
F-23.93006551039788
sg141
F1.0
sg15
I2
sg142
g143
sbsI3
g0
(g134
g2
Ntp150
Rp151
(dp152
g138
g139
sg140
F-6.1513968025061185
sg141
F1.0
sg15
I3
sg142
g143
sbsI4
g0
(g134
g2
Ntp153
Rp154
(dp155
g138
g139
sg140
F4.41663653628456
sg141
F1.0
sg15
I4
sg142
g143
sbsI5
g0
(g134
g2
Ntp156
Rp157
(dp158
g138
g139
sg140
F27.574462310497015
sg141
F1.0
sg15
I5
sg142
g143
sbsI6
g0
(g134
g2
Ntp159
Rp160
(dp161
g138
g139
sg140
F-4.237660399914565
sg141
F1.0
sg15
I6
sg142
g143
sbsI7
g0
(g134
g2
Ntp162
Rp163
(dp164
g138
g139
sg140
F8.0141902317045
sg141
F1.0
sg15
I7
sg142
g143
sbsI8
g0
(g134
g2
Ntp165
Rp166
(dp167
g138
g139
sg140
F-5.152532155942494
sg141
F1.0
sg15
I8
sg142
g143
sbsI9
g0
(g134
g2
Ntp168
Rp169
(dp170
g138
g139
sg140
F16.36210036938116
sg141
F1.0
sg15
I9
sg142
g143
sbsI68
g0
(g134
g2
Ntp171
Rp172
(dp173
g138
g139
sg140
F3.552445296363525
sg141
F1.0
sg15
I68
sg142
g143
sbssg15
I59
sS'fitness'
p174
F0.12921935507914958
sb.