ccopy_reg
_reconstructor
p0
(cneat.genome
DefaultGenome
p1
c__builtin__
object
p2
Ntp3
Rp4
(dp5
S'connections'
p6
(dp7
(I124
I5
tp8
g0
(cneat.genes
DefaultConnectionGene
p9
g2
Ntp10
Rp11
(dp12
S'enabled'
p13
I01
sS'weight'
p14
F1.6493277630158238
sS'key'
p15
g8
sbs(I-1
I0
tp16
g0
(g9
g2
Ntp17
Rp18
(dp19
g13
I01
sg14
F2.5609098668038044
sg15
g16
sbs(I-6
I122
tp20
g0
(g9
g2
Ntp21
Rp22
(dp23
g13
I01
sg14
F1.2464105309709699
sg15
g20
sbs(I-10
I122
tp24
g0
(g9
g2
Ntp25
Rp26
(dp27
g13
I01
sg14
F-1.7073092886510097
sg15
g24
sbs(I124
I9
tp28
g0
(g9
g2
Ntp29
Rp30
(dp31
g13
I01
sg14
F1.0267416590469973
sg15
g28
sbs(I7
I7
tp32
g0
(g9
g2
Ntp33
Rp34
(dp35
g13
I01
sg14
F3.792820463522956
sg15
g32
sbs(I124
I3
tp36
g0
(g9
g2
Ntp37
Rp38
(dp39
g13
I00
sg14
F-0.5806902999886229
sg15
g36
sbs(I6
I566
tp40
g0
(g9
g2
Ntp41
Rp42
(dp43
g13
I01
sg14
F0.8102151992621879
sg15
g40
sbs(I120
I4
tp44
g0
(g9
g2
Ntp45
Rp46
(dp47
g13
I00
sg14
F-1.2017892516727158
sg15
g44
sbs(I-6
I123
tp48
g0
(g9
g2
Ntp49
Rp50
(dp51
g13
I00
sg14
F-1.5869193315875034
sg15
g48
sbs(I-5
I123
tp52
g0
(g9
g2
Ntp53
Rp54
(dp55
g13
I01
sg14
F-0.8977278380031425
sg15
g52
sbs(I-2
I124
tp56
g0
(g9
g2
Ntp57
Rp58
(dp59
g13
I01
sg14
F0.49828602678808337
sg15
g56
sbs(I122
I0
tp60
g0
(g9
g2
Ntp61
Rp62
(dp63
g13
I00
sg14
F-2.0707455389888665
sg15
g60
sbs(I-7
I120
tp64
g0
(g9
g2
Ntp65
Rp66
(dp67
g13
I01
sg14
F0.003762102652652014
sg15
g64
sbs(I6
I6
tp68
g0
(g9
g2
Ntp69
Rp70
(dp71
g13
I00
sg14
F-1.2441235144867118
sg15
g68
sbs(I122
I9
tp72
g0
(g9
g2
Ntp73
Rp74
(dp75
g13
I01
sg14
F1.2123311914390753
sg15
g72
sbs(I122
I4
tp76
g0
(g9
g2
Ntp77
Rp78
(dp79
g13
I00
sg14
F0.16359089839927182
sg15
g76
sbs(I566
I6
tp80
g0
(g9
g2
Ntp81
Rp82
(dp83
g13
I01
sg14
F0.36417050130311124
sg15
g80
sbs(I124
I1
tp84
g0
(g9
g2
Ntp85
Rp86
(dp87
g13
I01
sg14
F-2.0766090157642636
sg15
g84
sbs(I124
I7
tp88
g0
(g9
g2
Ntp89
Rp90
(dp91
g13
I01
sg14
F-0.04297368201755836
sg15
g88
sbs(I122
I6
tp92
g0
(g9
g2
Ntp93
Rp94
(dp95
g13
I01
sg14
F0.45541045637733024
sg15
g92
sbs(I-6
I120
tp96
g0
(g9
g2
Ntp97
Rp98
(dp99
g13
I01
sg14
F-0.3516947135406275
sg15
g96
sbs(I-2
I122
tp100
g0
(g9
g2
Ntp101
Rp102
(dp103
g13
I01
sg14
F-1.388875740527593
sg15
g100
sbs(I122
I5
tp104
g0
(g9
g2
Ntp105
Rp106
(dp107
g13
I00
sg14
F2.1371482933414536
sg15
g104
sbs(I120
I8
tp108
g0
(g9
g2
Ntp109
Rp110
(dp111
g13
I01
sg14
F0.18480084366211746
sg15
g108
sbs(I124
I0
tp112
g0
(g9
g2
Ntp113
Rp114
(dp115
g13
I01
sg14
F-0.7539139119154247
sg15
g112
sbs(I123
I8
tp116
g0
(g9
g2
Ntp117
Rp118
(dp119
g13
I00
sg14
F-0.2453035986480349
sg15
g116
sbs(I-4
I122
tp120
g0
(g9
g2
Ntp121
Rp122
(dp123
g13
I00
sg14
F1.777127132564944
sg15
g120
sbs(I-9
I120
tp124
g0
(g9
g2
Ntp125
Rp126
(dp127
g13
I01
sg14
F-0.20289610905657918
sg15
g124
sbs(I123
I3
tp128
g0
(g9
g2
Ntp129
Rp130
(dp131
g13
I00
sg14
F1.2501307090652292
sg15
g128
sbs(I3
I3
tp132
g0
(g9
g2
Ntp133
Rp134
(dp135
g13
I01
sg14
F-0.6277094637963303
sg15
g132
sbs(I-2
I123
tp136
g0
(g9
g2
Ntp137
Rp138
(dp139
g13
I01
sg14
F0.9620445806314817
sg15
g136
sbs(I-1
I123
tp140
g0
(g9
g2
Ntp141
Rp142
(dp143
g13
I01
sg14
F0.3710905819525149
sg15
g140
sbs(I124
I4
tp144
g0
(g9
g2
Ntp145
Rp146
(dp147
g13
I01
sg14
F1.3374264502798594
sg15
g144
sbs(I-9
I124
tp148
g0
(g9
g2
Ntp149
Rp150
(dp151
g13
I01
sg14
F-1.2597998297557687
sg15
g148
sbs(I-3
I122
tp152
g0
(g9
g2
Ntp153
Rp154
(dp155
g13
I01
sg14
F-1.2556282555704894
sg15
g152
sbs(I-2
I120
tp156
g0
(g9
g2
Ntp157
Rp158
(dp159
g13
I01
sg14
F-0.17172145811168704
sg15
g156
sbs(I-6
I5
tp160
g0
(g9
g2
Ntp161
Rp162
(dp163
g13
I01
sg14
F0.280190623681991
sg15
g160
sbs(I122
I2
tp164
g0
(g9
g2
Ntp165
Rp166
(dp167
g13
I01
sg14
F-1.4425396750155175
sg15
g164
sbs(I-7
I122
tp168
g0
(g9
g2
Ntp169
Rp170
(dp171
g13
I01
sg14
F1.8956679041714573
sg15
g168
sbs(I-1
I124
tp172
g0
(g9
g2
Ntp173
Rp174
(dp175
g13
I01
sg14
F-1.7075486874050416
sg15
g172
sbs(I8
I8
tp176
g0
(g9
g2
Ntp177
Rp178
(dp179
g13
I01
sg14
F0.10919195433892731
sg15
g176
sbs(I-8
I124
tp180
g0
(g9
g2
Ntp181
Rp182
(dp183
g13
I01
sg14
F-0.22785030800813272
sg15
g180
sbs(I120
I0
tp184
g0
(g9
g2
Ntp185
Rp186
(dp187
g13
I00
sg14
F-3.740926262962108
sg15
g184
sbs(I-5
I124
tp188
g0
(g9
g2
Ntp189
Rp190
(dp191
g13
I01
sg14
F-2.380324588913749
sg15
g188
sbs(I-1
I120
tp192
g0
(g9
g2
Ntp193
Rp194
(dp195
g13
I01
sg14
F-0.3886183303437428
sg15
g192
sbssS'nodes'
p196
(dp197
I0
g0
(cneat.genes
DefaultNodeGene
p198
g2
Ntp199
Rp200
(dp201
S'activation'
p202
S'tanh'
p203
sS'bias'
p204
F-23.926828173786664
sS'response'
p205
F1.0
sg15
I0
sS'aggregation'
p206
S'sum'
p207
sbsI1
g0
(g198
g2
Ntp208
Rp209
(dp210
g202
g203
sg204
F-3.1896122321378426
sg205
F1.0
sg15
I1
sg206
g207
sbsI2
g0
(g198
g2
Ntp211
Rp212
(dp213
g202
g203
sg204
F-3.3877842213016662
sg205
F1.0
sg15
I2
sg206
g207
sbsI3
g0
(g198
g2
Ntp214
Rp215
(dp216
g202
g203
sg204
F2.8090469629245507
sg205
F1.0
sg15
I3
sg206
g207
sbsI4
g0
(g198
g2
Ntp217
Rp218
(dp219
g202
S'relu'
p220
sg204
F13.705817767883275
sg205
F1.0
sg15
I4
sg206
g207
sbsI5
g0
(g198
g2
Ntp221
Rp222
(dp223
g202
g203
sg204
F6.680661518668802
sg205
F1.0
sg15
I5
sg206
g207
sbsI6
g0
(g198
g2
Ntp224
Rp225
(dp226
g202
g203
sg204
F0.6388601921159556
sg205
F1.0
sg15
I6
sg206
g207
sbsI7
g0
(g198
g2
Ntp227
Rp228
(dp229
g202
g203
sg204
F-13.887588650244563
sg205
F1.0
sg15
I7
sg206
g207
sbsI8
g0
(g198
g2
Ntp230
Rp231
(dp232
g202
g203
sg204
F-7.465697429080815
sg205
F1.0
sg15
I8
sg206
g207
sbsI9
g0
(g198
g2
Ntp233
Rp234
(dp235
g202
g203
sg204
F-1.4963207006821013
sg205
F1.0
sg15
I9
sg206
g207
sbsI566
g0
(g198
g2
Ntp236
Rp237
(dp238
g202
g203
sg204
F-7.78755503430572
sg205
F1.0
sg15
I566
sg206
g207
sbsI120
g0
(g198
g2
Ntp239
Rp240
(dp241
g202
g203
sg204
F-0.6817370921038477
sg205
F1.0
sg15
I120
sg206
g207
sbsI122
g0
(g198
g2
Ntp242
Rp243
(dp244
g202
g203
sg204
F13.061190245372819
sg205
F1.0
sg15
I122
sg206
g207
sbsI123
g0
(g198
g2
Ntp245
Rp246
(dp247
g202
g203
sg204
F-1.1473664344000978
sg205
F1.0
sg15
I123
sg206
g207
sbsI124
g0
(g198
g2
Ntp248
Rp249
(dp250
g202
g203
sg204
F13.796079738368363
sg205
F1.0
sg15
I124
sg206
g207
sbssg15
I6
sS'fitness'
p251
Nsb.