ccopy_reg
_reconstructor
p0
(cneat.genome
DefaultGenome
p1
c__builtin__
object
p2
Ntp3
Rp4
(dp5
S'connections'
p6
(dp7
(I-6
I15
tp8
g0
(cneat.genes
DefaultConnectionGene
p9
g2
Ntp10
Rp11
(dp12
S'enabled'
p13
I01
sS'weight'
p14
F-0.16764447779177963
sS'key'
p15
g8
sbs(I15
I0
tp16
g0
(g9
g2
Ntp17
Rp18
(dp19
g13
I01
sg14
F0.295499485301285
sg15
g16
sbs(I15
I1
tp20
g0
(g9
g2
Ntp21
Rp22
(dp23
g13
I01
sg14
F-1.2428998874437378
sg15
g20
sbs(I15
I8
tp24
g0
(g9
g2
Ntp25
Rp26
(dp27
g13
I01
sg14
F0.45979354069743567
sg15
g24
sbs(I-9
I15
tp28
g0
(g9
g2
Ntp29
Rp30
(dp31
g13
I01
sg14
F0.2283891946947816
sg15
g28
sbs(I-16
I15
tp32
g0
(g9
g2
Ntp33
Rp34
(dp35
g13
I01
sg14
F-0.1360419888883133
sg15
g32
sbs(I-7
I15
tp36
g0
(g9
g2
Ntp37
Rp38
(dp39
g13
I01
sg14
F0.5594557871783039
sg15
g36
sbs(I-1
I15
tp40
g0
(g9
g2
Ntp41
Rp42
(dp43
g13
I01
sg14
F1.9856921385431527
sg15
g40
sbs(I15
I5
tp44
g0
(g9
g2
Ntp45
Rp46
(dp47
g13
I01
sg14
F0.0059028352985902085
sg15
g44
sbs(I-17
I15
tp48
g0
(g9
g2
Ntp49
Rp50
(dp51
g13
I01
sg14
F-1.3215439984703607
sg15
g48
sbs(I-19
I15
tp52
g0
(g9
g2
Ntp53
Rp54
(dp55
g13
I01
sg14
F0.2431078878434017
sg15
g52
sbs(I-10
I15
tp56
g0
(g9
g2
Ntp57
Rp58
(dp59
g13
I01
sg14
F0.0604912925650975
sg15
g56
sbs(I-8
I15
tp60
g0
(g9
g2
Ntp61
Rp62
(dp63
g13
I01
sg14
F0.5608046185104284
sg15
g60
sbs(I-18
I15
tp64
g0
(g9
g2
Ntp65
Rp66
(dp67
g13
I01
sg14
F0.0014081112375920455
sg15
g64
sbs(I15
I4
tp68
g0
(g9
g2
Ntp69
Rp70
(dp71
g13
I01
sg14
F0.12371507140632702
sg15
g68
sbs(I-3
I15
tp72
g0
(g9
g2
Ntp73
Rp74
(dp75
g13
I01
sg14
F0.6819124092977691
sg15
g72
sbs(I-20
I15
tp76
g0
(g9
g2
Ntp77
Rp78
(dp79
g13
I01
sg14
F-0.21735582016408314
sg15
g76
sbs(I-11
I15
tp80
g0
(g9
g2
Ntp81
Rp82
(dp83
g13
I01
sg14
F0.34931627043639085
sg15
g80
sbs(I-2
I15
tp84
g0
(g9
g2
Ntp85
Rp86
(dp87
g13
I01
sg14
F1.841494171528826
sg15
g84
sbs(I15
I3
tp88
g0
(g9
g2
Ntp89
Rp90
(dp91
g13
I01
sg14
F-0.03691195329720863
sg15
g88
sbs(I-4
I15
tp92
g0
(g9
g2
Ntp93
Rp94
(dp95
g13
I01
sg14
F0.23995878425280132
sg15
g92
sbs(I15
I7
tp96
g0
(g9
g2
Ntp97
Rp98
(dp99
g13
I01
sg14
F0.5353440558691258
sg15
g96
sbs(I-12
I15
tp100
g0
(g9
g2
Ntp101
Rp102
(dp103
g13
I01
sg14
F-0.8125841461006914
sg15
g100
sbs(I15
I2
tp104
g0
(g9
g2
Ntp105
Rp106
(dp107
g13
I01
sg14
F-0.7138139156948082
sg15
g104
sbs(I-14
I15
tp108
g0
(g9
g2
Ntp109
Rp110
(dp111
g13
I01
sg14
F-1.2044725207457294
sg15
g108
sbs(I-5
I15
tp112
g0
(g9
g2
Ntp113
Rp114
(dp115
g13
I01
sg14
F-1.9233151819384544
sg15
g112
sbs(I-13
I15
tp116
g0
(g9
g2
Ntp117
Rp118
(dp119
g13
I01
sg14
F-1.22260081995998
sg15
g116
sbs(I15
I6
tp120
g0
(g9
g2
Ntp121
Rp122
(dp123
g13
I01
sg14
F1.1628492112374396
sg15
g120
sbs(I15
I9
tp124
g0
(g9
g2
Ntp125
Rp126
(dp127
g13
I01
sg14
F-1.9858701769852611
sg15
g124
sbs(I-15
I15
tp128
g0
(g9
g2
Ntp129
Rp130
(dp131
g13
I01
sg14
F-1.440240891497289
sg15
g128
sbssS'nodes'
p132
(dp133
I0
g0
(cneat.genes
DefaultNodeGene
p134
g2
Ntp135
Rp136
(dp137
S'activation'
p138
S'relu'
p139
sS'bias'
p140
F13.943537688130847
sS'response'
p141
F1.0
sg15
I0
sS'aggregation'
p142
S'sum'
p143
sbsI1
g0
(g134
g2
Ntp144
Rp145
(dp146
g138
g139
sg140
F22.591326702260947
sg141
F1.0
sg15
I1
sg142
g143
sbsI2
g0
(g134
g2
Ntp147
Rp148
(dp149
g138
g139
sg140
F-13.09987581789295
sg141
F1.0
sg15
I2
sg142
g143
sbsI3
g0
(g134
g2
Ntp150
Rp151
(dp152
g138
g139
sg140
F-35.013149167914776
sg141
F1.0
sg15
I3
sg142
g143
sbsI4
g0
(g134
g2
Ntp153
Rp154
(dp155
g138
g139
sg140
F-13.68647894567233
sg141
F1.0
sg15
I4
sg142
g143
sbsI5
g0
(g134
g2
Ntp156
Rp157
(dp158
g138
g139
sg140
F3.8364013520892133
sg141
F1.0
sg15
I5
sg142
g143
sbsI6
g0
(g134
g2
Ntp159
Rp160
(dp161
g138
g139
sg140
F-3.9468964448065758
sg141
F1.0
sg15
I6
sg142
g143
sbsI7
g0
(g134
g2
Ntp162
Rp163
(dp164
g138
g139
sg140
F7.902581045373226
sg141
F1.0
sg15
I7
sg142
g143
sbsI8
g0
(g134
g2
Ntp165
Rp166
(dp167
g138
g139
sg140
F16.364388985453655
sg141
F1.0
sg15
I8
sg142
g143
sbsI9
g0
(g134
g2
Ntp168
Rp169
(dp170
g138
g139
sg140
F-12.056392389705024
sg141
F1.0
sg15
I9
sg142
g143
sbsI15
g0
(g134
g2
Ntp171
Rp172
(dp173
g138
g139
sg140
F-22.570012564352684
sg141
F1.0
sg15
I15
sg142
g143
sbssg15
I6
sS'fitness'
p174
Nsb.