ccopy_reg
_reconstructor
p0
(cneat.genome
DefaultGenome
p1
c__builtin__
object
p2
Ntp3
Rp4
(dp5
S'connections'
p6
(dp7
(I69
I4
tp8
g0
(cneat.genes
DefaultConnectionGene
p9
g2
Ntp10
Rp11
(dp12
S'enabled'
p13
I01
sS'weight'
p14
F-1.698122174961459
sS'key'
p15
g8
sbs(I-9
I69
tp16
g0
(g9
g2
Ntp17
Rp18
(dp19
g13
I01
sg14
F-2.2769597711372156
sg15
g16
sbs(I-16
I69
tp20
g0
(g9
g2
Ntp21
Rp22
(dp23
g13
I01
sg14
F-0.02280575213895944
sg15
g20
sbs(I-2
I69
tp24
g0
(g9
g2
Ntp25
Rp26
(dp27
g13
I01
sg14
F1.6278402252916926
sg15
g24
sbs(I-19
I69
tp28
g0
(g9
g2
Ntp29
Rp30
(dp31
g13
I01
sg14
F-0.4589502931320864
sg15
g28
sbs(I-10
I69
tp32
g0
(g9
g2
Ntp33
Rp34
(dp35
g13
I01
sg14
F-1.6437540395907353
sg15
g32
sbs(I-13
I69
tp36
g0
(g9
g2
Ntp37
Rp38
(dp39
g13
I01
sg14
F-0.2037487795105906
sg15
g36
sbs(I-6
I69
tp40
g0
(g9
g2
Ntp41
Rp42
(dp43
g13
I01
sg14
F0.17375039459521996
sg15
g40
sbs(I-3
I69
tp44
g0
(g9
g2
Ntp45
Rp46
(dp47
g13
I01
sg14
F0.21980226113735452
sg15
g44
sbs(I69
I3
tp48
g0
(g9
g2
Ntp49
Rp50
(dp51
g13
I01
sg14
F-1.121854260717369
sg15
g48
sbs(I-7
I69
tp52
g0
(g9
g2
Ntp53
Rp54
(dp55
g13
I01
sg14
F-1.9061551703964708
sg15
g52
sbs(I69
I7
tp56
g0
(g9
g2
Ntp57
Rp58
(dp59
g13
I01
sg14
F1.3362493993088826
sg15
g56
sbs(I-20
I69
tp60
g0
(g9
g2
Ntp61
Rp62
(dp63
g13
I01
sg14
F0.8188842326225849
sg15
g60
sbs(I-17
I69
tp64
g0
(g9
g2
Ntp65
Rp66
(dp67
g13
I01
sg14
F2.197896508051758
sg15
g64
sbs(I69
I2
tp68
g0
(g9
g2
Ntp69
Rp70
(dp71
g13
I01
sg14
F-0.49374132119038294
sg15
g68
sbs(I-4
I69
tp72
g0
(g9
g2
Ntp73
Rp74
(dp75
g13
I01
sg14
F-0.6495151047247202
sg15
g72
sbs(I69
I9
tp76
g0
(g9
g2
Ntp77
Rp78
(dp79
g13
I01
sg14
F-0.4024633689879254
sg15
g76
sbs(I-18
I69
tp80
g0
(g9
g2
Ntp81
Rp82
(dp83
g13
I01
sg14
F0.02512140713695824
sg15
g80
sbs(I69
I6
tp84
g0
(g9
g2
Ntp85
Rp86
(dp87
g13
I01
sg14
F1.5396088229628975
sg15
g84
sbs(I-14
I69
tp88
g0
(g9
g2
Ntp89
Rp90
(dp91
g13
I01
sg14
F-1.4895691032123781
sg15
g88
sbs(I-8
I69
tp92
g0
(g9
g2
Ntp93
Rp94
(dp95
g13
I01
sg14
F0.7693240471956639
sg15
g92
sbs(I-11
I69
tp96
g0
(g9
g2
Ntp97
Rp98
(dp99
g13
I01
sg14
F-0.9124697342220367
sg15
g96
sbs(I-1
I69
tp100
g0
(g9
g2
Ntp101
Rp102
(dp103
g13
I01
sg14
F0.8531675994925381
sg15
g100
sbs(I-5
I69
tp104
g0
(g9
g2
Ntp105
Rp106
(dp107
g13
I01
sg14
F0.7342136384343496
sg15
g104
sbs(I69
I1
tp108
g0
(g9
g2
Ntp109
Rp110
(dp111
g13
I01
sg14
F1.7926902966835028
sg15
g108
sbs(I69
I8
tp112
g0
(g9
g2
Ntp113
Rp114
(dp115
g13
I01
sg14
F1.5254348470291115
sg15
g112
sbs(I-15
I69
tp116
g0
(g9
g2
Ntp117
Rp118
(dp119
g13
I01
sg14
F0.028733810298963783
sg15
g116
sbs(I69
I5
tp120
g0
(g9
g2
Ntp121
Rp122
(dp123
g13
I01
sg14
F-0.2933502045625122
sg15
g120
sbs(I69
I0
tp124
g0
(g9
g2
Ntp125
Rp126
(dp127
g13
I01
sg14
F-0.33603806588804425
sg15
g124
sbs(I-12
I69
tp128
g0
(g9
g2
Ntp129
Rp130
(dp131
g13
I01
sg14
F-0.21060691507908097
sg15
g128
sbssS'nodes'
p132
(dp133
I0
g0
(cneat.genes
DefaultNodeGene
p134
g2
Ntp135
Rp136
(dp137
S'activation'
p138
S'relu'
p139
sS'bias'
p140
F3.4054958209533397
sS'response'
p141
F1.0
sg15
I0
sS'aggregation'
p142
S'sum'
p143
sbsI1
g0
(g134
g2
Ntp144
Rp145
(dp146
g138
g139
sg140
F7.585430861920689
sg141
F1.0
sg15
I1
sg142
g143
sbsI2
g0
(g134
g2
Ntp147
Rp148
(dp149
g138
g139
sg140
F4.317812806056704
sg141
F1.0
sg15
I2
sg142
g143
sbsI3
g0
(g134
g2
Ntp150
Rp151
(dp152
g138
g139
sg140
F0.45134091341779026
sg141
F1.0
sg15
I3
sg142
g143
sbsI4
g0
(g134
g2
Ntp153
Rp154
(dp155
g138
g139
sg140
F-4.406599637406648
sg141
F1.0
sg15
I4
sg142
g143
sbsI5
g0
(g134
g2
Ntp156
Rp157
(dp158
g138
g139
sg140
F0.41721758611142246
sg141
F1.0
sg15
I5
sg142
g143
sbsI6
g0
(g134
g2
Ntp159
Rp160
(dp161
g138
g139
sg140
F-1.5637742274543844
sg141
F1.0
sg15
I6
sg142
g143
sbsI7
g0
(g134
g2
Ntp162
Rp163
(dp164
g138
g139
sg140
F1.5023170585356982
sg141
F1.0
sg15
I7
sg142
g143
sbsI8
g0
(g134
g2
Ntp165
Rp166
(dp167
g138
g139
sg140
F-4.558341205946945
sg141
F1.0
sg15
I8
sg142
g143
sbsI9
g0
(g134
g2
Ntp168
Rp169
(dp170
g138
g139
sg140
F-8.058099995408162
sg141
F1.0
sg15
I9
sg142
g143
sbsI69
g0
(g134
g2
Ntp171
Rp172
(dp173
g138
g139
sg140
F-5.0897444642726875
sg141
F1.0
sg15
I69
sg142
g143
sbssg15
I60
sS'fitness'
p174
Nsb.