ccopy_reg
_reconstructor
p0
(cneat.genome
DefaultGenome
p1
c__builtin__
object
p2
Ntp3
Rp4
(dp5
S'connections'
p6
(dp7
(I31
I6
tp8
g0
(cneat.genes
DefaultConnectionGene
p9
g2
Ntp10
Rp11
(dp12
S'enabled'
p13
I01
sS'weight'
p14
F2.457592512751329
sS'key'
p15
g8
sbs(I-3
I31
tp16
g0
(g9
g2
Ntp17
Rp18
(dp19
g13
I01
sg14
F-1.528592416075535
sg15
g16
sbs(I5
I5
tp20
g0
(g9
g2
Ntp21
Rp22
(dp23
g13
I00
sg14
F-1.424313226751388
sg15
g20
sbs(I9
I31
tp24
g0
(g9
g2
Ntp25
Rp26
(dp27
g13
I01
sg14
F3.8417177576837584
sg15
g24
sbs(I485
I4
tp28
g0
(g9
g2
Ntp29
Rp30
(dp31
g13
I01
sg14
F0.5362648018801907
sg15
g28
sbs(I31
I4
tp32
g0
(g9
g2
Ntp33
Rp34
(dp35
g13
I00
sg14
F0.395540853849519
sg15
g32
sbs(I31
I0
tp36
g0
(g9
g2
Ntp37
Rp38
(dp39
g13
I00
sg14
F-0.7652893667431372
sg15
g36
sbs(I31
I485
tp40
g0
(g9
g2
Ntp41
Rp42
(dp43
g13
I00
sg14
F0.1399617809727579
sg15
g40
sbs(I4
I4
tp44
g0
(g9
g2
Ntp45
Rp46
(dp47
g13
I01
sg14
F1.173636141260027
sg15
g44
sbs(I7
I7
tp48
g0
(g9
g2
Ntp49
Rp50
(dp51
g13
I01
sg14
F1.5855297305094287
sg15
g48
sbs(I-6
I31
tp52
g0
(g9
g2
Ntp53
Rp54
(dp55
g13
I00
sg14
F3.5347634662728415
sg15
g52
sbs(I8
I8
tp56
g0
(g9
g2
Ntp57
Rp58
(dp59
g13
I01
sg14
F2.8376457684084753
sg15
g56
sbs(I-1
I31
tp60
g0
(g9
g2
Ntp61
Rp62
(dp63
g13
I01
sg14
F-1.0157936655179234
sg15
g60
sbs(I31
I2
tp64
g0
(g9
g2
Ntp65
Rp66
(dp67
g13
I01
sg14
F-1.527171892335413
sg15
g64
sbs(I2
I2
tp68
g0
(g9
g2
Ntp69
Rp70
(dp71
g13
I01
sg14
F-0.9530380877450784
sg15
g68
sbs(I31
I3
tp72
g0
(g9
g2
Ntp73
Rp74
(dp75
g13
I01
sg14
F0.2204295301142912
sg15
g72
sbs(I-10
I31
tp76
g0
(g9
g2
Ntp77
Rp78
(dp79
g13
I01
sg14
F1.6133072849961487
sg15
g76
sbs(I770
I4
tp80
g0
(g9
g2
Ntp81
Rp82
(dp83
g13
I01
sg14
F-0.09722786499171512
sg15
g80
sbs(I31
I770
tp84
g0
(g9
g2
Ntp85
Rp86
(dp87
g13
I01
sg14
F1.245917489032809
sg15
g84
sbs(I-9
I31
tp88
g0
(g9
g2
Ntp89
Rp90
(dp91
g13
I01
sg14
F-1.2092131940358088
sg15
g88
sbssS'nodes'
p92
(dp93
I0
g0
(cneat.genes
DefaultNodeGene
p94
g2
Ntp95
Rp96
(dp97
S'activation'
p98
S'tanh'
p99
sS'bias'
p100
F4.399135997989436
sS'response'
p101
F1.0
sg15
I0
sS'aggregation'
p102
S'sum'
p103
sbsI1
g0
(g94
g2
Ntp104
Rp105
(dp106
g98
g99
sg100
F-11.858503893883935
sg101
F1.0
sg15
I1
sg102
g103
sbsI2
g0
(g94
g2
Ntp107
Rp108
(dp109
g98
g99
sg100
F2.502356804834151
sg101
F1.0
sg15
I2
sg102
g103
sbsI3
g0
(g94
g2
Ntp110
Rp111
(dp112
g98
g99
sg100
F-2.9171767176510945
sg101
F1.0
sg15
I3
sg102
g103
sbsI4
g0
(g94
g2
Ntp113
Rp114
(dp115
g98
g99
sg100
F-11.725110541843001
sg101
F1.0
sg15
I4
sg102
g103
sbsI5
g0
(g94
g2
Ntp116
Rp117
(dp118
g98
g99
sg100
F-5.313069379133653
sg101
F1.0
sg15
I5
sg102
g103
sbsI6
g0
(g94
g2
Ntp119
Rp120
(dp121
g98
g99
sg100
F-15.33646899127247
sg101
F1.0
sg15
I6
sg102
g103
sbsI7
g0
(g94
g2
Ntp122
Rp123
(dp124
g98
g99
sg100
F1.053892950157442
sg101
F1.0
sg15
I7
sg102
g103
sbsI8
g0
(g94
g2
Ntp125
Rp126
(dp127
g98
g99
sg100
F5.30179325475167
sg101
F1.0
sg15
I8
sg102
g103
sbsI9
g0
(g94
g2
Ntp128
Rp129
(dp130
g98
g99
sg100
F14.591962553297808
sg101
F1.0
sg15
I9
sg102
g103
sbsI770
g0
(g94
g2
Ntp131
Rp132
(dp133
g98
g99
sg100
F5.281189933516359
sg101
F1.0
sg15
I770
sg102
g103
sbsI31
g0
(g94
g2
Ntp134
Rp135
(dp136
g98
g99
sg100
F-3.547694582024782
sg101
F1.0
sg15
I31
sg102
g103
sbsI485
g0
(g94
g2
Ntp137
Rp138
(dp139
g98
g99
sg100
F3.644538414004035
sg101
F1.0
sg15
I485
sg102
g103
sbssg15
I61
sS'fitness'
p140
F0.07350202591811739
sb.