ccopy_reg
_reconstructor
p0
(cneat.genome
DefaultGenome
p1
c__builtin__
object
p2
Ntp3
Rp4
(dp5
S'connections'
p6
(dp7
(I-3
I70
tp8
g0
(cneat.genes
DefaultConnectionGene
p9
g2
Ntp10
Rp11
(dp12
S'enabled'
p13
I01
sS'weight'
p14
F0.34287476262032884
sS'key'
p15
g8
sbs(I70
I4
tp16
g0
(g9
g2
Ntp17
Rp18
(dp19
g13
I01
sg14
F-0.6926426260943656
sg15
g16
sbs(I-7
I70
tp20
g0
(g9
g2
Ntp21
Rp22
(dp23
g13
I01
sg14
F-0.020158273110440286
sg15
g20
sbs(I70
I0
tp24
g0
(g9
g2
Ntp25
Rp26
(dp27
g13
I01
sg14
F-0.9371435848487776
sg15
g24
sbs(I-17
I70
tp28
g0
(g9
g2
Ntp29
Rp30
(dp31
g13
I01
sg14
F0.5145029820748608
sg15
g28
sbs(I-12
I70
tp32
g0
(g9
g2
Ntp33
Rp34
(dp35
g13
I01
sg14
F0.5121329571286151
sg15
g32
sbs(I70
I5
tp36
g0
(g9
g2
Ntp37
Rp38
(dp39
g13
I01
sg14
F1.1947586108404047
sg15
g36
sbs(I-16
I70
tp40
g0
(g9
g2
Ntp41
Rp42
(dp43
g13
I01
sg14
F1.415059941014068
sg15
g40
sbs(I70
I8
tp44
g0
(g9
g2
Ntp45
Rp46
(dp47
g13
I01
sg14
F0.1291588336600389
sg15
g44
sbs(I70
I1
tp48
g0
(g9
g2
Ntp49
Rp50
(dp51
g13
I01
sg14
F0.45706958139294185
sg15
g48
sbs(I-5
I70
tp52
g0
(g9
g2
Ntp53
Rp54
(dp55
g13
I01
sg14
F-0.07989584208022124
sg15
g52
sbs(I-10
I70
tp56
g0
(g9
g2
Ntp57
Rp58
(dp59
g13
I01
sg14
F-0.7506122731123996
sg15
g56
sbs(I-11
I70
tp60
g0
(g9
g2
Ntp61
Rp62
(dp63
g13
I01
sg14
F-1.5285796124502122
sg15
g60
sbs(I-6
I70
tp64
g0
(g9
g2
Ntp65
Rp66
(dp67
g13
I01
sg14
F-0.29957760432036523
sg15
g64
sbs(I70
I9
tp68
g0
(g9
g2
Ntp69
Rp70
(dp71
g13
I01
sg14
F-1.9717617040290498
sg15
g68
sbs(I-15
I70
tp72
g0
(g9
g2
Ntp73
Rp74
(dp75
g13
I01
sg14
F1.3096830175435341
sg15
g72
sbs(I70
I6
tp76
g0
(g9
g2
Ntp77
Rp78
(dp79
g13
I01
sg14
F-0.23259187458818473
sg15
g76
sbs(I-20
I70
tp80
g0
(g9
g2
Ntp81
Rp82
(dp83
g13
I01
sg14
F0.9375042718285894
sg15
g80
sbs(I70
I2
tp84
g0
(g9
g2
Ntp85
Rp86
(dp87
g13
I01
sg14
F-0.5663239719796133
sg15
g84
sbs(I-9
I70
tp88
g0
(g9
g2
Ntp89
Rp90
(dp91
g13
I01
sg14
F0.24512210042505583
sg15
g88
sbs(I-4
I70
tp92
g0
(g9
g2
Ntp93
Rp94
(dp95
g13
I01
sg14
F1.4356184973889832
sg15
g92
sbs(I70
I7
tp96
g0
(g9
g2
Ntp97
Rp98
(dp99
g13
I01
sg14
F0.4540378496108503
sg15
g96
sbs(I-13
I70
tp100
g0
(g9
g2
Ntp101
Rp102
(dp103
g13
I01
sg14
F1.0153658180289373
sg15
g100
sbs(I-8
I70
tp104
g0
(g9
g2
Ntp105
Rp106
(dp107
g13
I01
sg14
F-1.1018898073827974
sg15
g104
sbs(I-18
I70
tp108
g0
(g9
g2
Ntp109
Rp110
(dp111
g13
I01
sg14
F-0.2172157215906435
sg15
g108
sbs(I-19
I70
tp112
g0
(g9
g2
Ntp113
Rp114
(dp115
g13
I01
sg14
F0.8096829609528127
sg15
g112
sbs(I-14
I70
tp116
g0
(g9
g2
Ntp117
Rp118
(dp119
g13
I01
sg14
F-0.6693438279852454
sg15
g116
sbs(I70
I3
tp120
g0
(g9
g2
Ntp121
Rp122
(dp123
g13
I01
sg14
F-0.2696038341513631
sg15
g120
sbs(I-2
I70
tp124
g0
(g9
g2
Ntp125
Rp126
(dp127
g13
I01
sg14
F1.573621629139912
sg15
g124
sbs(I-1
I70
tp128
g0
(g9
g2
Ntp129
Rp130
(dp131
g13
I01
sg14
F0.8218409743524868
sg15
g128
sbssS'nodes'
p132
(dp133
I0
g0
(cneat.genes
DefaultNodeGene
p134
g2
Ntp135
Rp136
(dp137
S'activation'
p138
S'relu'
p139
sS'bias'
p140
F18.596284859207735
sS'response'
p141
F1.0
sg15
I0
sS'aggregation'
p142
S'sum'
p143
sbsI1
g0
(g134
g2
Ntp144
Rp145
(dp146
g138
g139
sg140
F10.889207342189678
sg141
F1.0
sg15
I1
sg142
g143
sbsI2
g0
(g134
g2
Ntp147
Rp148
(dp149
g138
g139
sg140
F-3.691704272395943
sg141
F1.0
sg15
I2
sg142
g143
sbsI3
g0
(g134
g2
Ntp150
Rp151
(dp152
g138
g139
sg140
F6.502458108166461
sg141
F1.0
sg15
I3
sg142
g143
sbsI4
g0
(g134
g2
Ntp153
Rp154
(dp155
g138
g139
sg140
F23.09129389592732
sg141
F1.0
sg15
I4
sg142
g143
sbsI5
g0
(g134
g2
Ntp156
Rp157
(dp158
g138
g139
sg140
F-3.5659418510093395
sg141
F1.0
sg15
I5
sg142
g143
sbsI6
g0
(g134
g2
Ntp159
Rp160
(dp161
g138
g139
sg140
F4.140876776897506
sg141
F1.0
sg15
I6
sg142
g143
sbsI7
g0
(g134
g2
Ntp162
Rp163
(dp164
g138
g139
sg140
F4.747335176723574
sg141
F1.0
sg15
I7
sg142
g143
sbsI8
g0
(g134
g2
Ntp165
Rp166
(dp167
g138
g139
sg140
F-4.900578770004239
sg141
F1.0
sg15
I8
sg142
g143
sbsI9
g0
(g134
g2
Ntp168
Rp169
(dp170
g138
g139
sg140
F2.550923985067991
sg141
F1.0
sg15
I9
sg142
g143
sbsI70
g0
(g134
g2
Ntp171
Rp172
(dp173
g138
g139
sg140
F-17.653696367322024
sg141
F1.0
sg15
I70
sg142
g143
sbssg15
I61
sS'fitness'
p174
F0.09549228668765511
sb.