ccopy_reg
_reconstructor
p0
(cneat.genome
DefaultGenome
p1
c__builtin__
object
p2
Ntp3
Rp4
(dp5
S'connections'
p6
(dp7
(I-8
I71
tp8
g0
(cneat.genes
DefaultConnectionGene
p9
g2
Ntp10
Rp11
(dp12
S'enabled'
p13
I01
sS'weight'
p14
F0.7597600934663401
sS'key'
p15
g8
sbs(I71
I1
tp16
g0
(g9
g2
Ntp17
Rp18
(dp19
g13
I01
sg14
F2.1329724163564787
sg15
g16
sbs(I-18
I71
tp20
g0
(g9
g2
Ntp21
Rp22
(dp23
g13
I01
sg14
F-1.2739544974238979
sg15
g20
sbs(I-14
I71
tp24
g0
(g9
g2
Ntp25
Rp26
(dp27
g13
I01
sg14
F-0.43403547352182087
sg15
g24
sbs(I-5
I71
tp28
g0
(g9
g2
Ntp29
Rp30
(dp31
g13
I01
sg14
F-0.7571747024642497
sg15
g28
sbs(I71
I5
tp32
g0
(g9
g2
Ntp33
Rp34
(dp35
g13
I01
sg14
F0.8978634762622696
sg15
g32
sbs(I-11
I71
tp36
g0
(g9
g2
Ntp37
Rp38
(dp39
g13
I01
sg14
F0.41641622524935296
sg15
g36
sbs(I-1
I71
tp40
g0
(g9
g2
Ntp41
Rp42
(dp43
g13
I01
sg14
F-0.6226807878202191
sg15
g40
sbs(I71
I9
tp44
g0
(g9
g2
Ntp45
Rp46
(dp47
g13
I01
sg14
F-0.9522803728915245
sg15
g44
sbs(I71
I0
tp48
g0
(g9
g2
Ntp49
Rp50
(dp51
g13
I01
sg14
F0.14938686235843218
sg15
g48
sbs(I-15
I71
tp52
g0
(g9
g2
Ntp53
Rp54
(dp55
g13
I01
sg14
F-0.7816503996972152
sg15
g52
sbs(I-2
I71
tp56
g0
(g9
g2
Ntp57
Rp58
(dp59
g13
I01
sg14
F-0.4797059455256634
sg15
g56
sbs(I71
I4
tp60
g0
(g9
g2
Ntp61
Rp62
(dp63
g13
I01
sg14
F-0.9467793382934896
sg15
g60
sbs(I-12
I71
tp64
g0
(g9
g2
Ntp65
Rp66
(dp67
g13
I01
sg14
F-1.777951768745883
sg15
g64
sbs(I71
I8
tp68
g0
(g9
g2
Ntp69
Rp70
(dp71
g13
I01
sg14
F0.3540834712009209
sg15
g68
sbs(I-9
I71
tp72
g0
(g9
g2
Ntp73
Rp74
(dp75
g13
I01
sg14
F-0.4554749421503014
sg15
g72
sbs(I-16
I71
tp76
g0
(g9
g2
Ntp77
Rp78
(dp79
g13
I01
sg14
F-1.449747440627251
sg15
g76
sbs(I71
I3
tp80
g0
(g9
g2
Ntp81
Rp82
(dp83
g13
I01
sg14
F-0.897681003226609
sg15
g80
sbs(I-13
I71
tp84
g0
(g9
g2
Ntp85
Rp86
(dp87
g13
I01
sg14
F2.2206946432512122
sg15
g84
sbs(I71
I7
tp88
g0
(g9
g2
Ntp89
Rp90
(dp91
g13
I01
sg14
F-0.934995135946458
sg15
g88
sbs(I-19
I71
tp92
g0
(g9
g2
Ntp93
Rp94
(dp95
g13
I01
sg14
F-1.6082329078238593
sg15
g92
sbs(I-10
I71
tp96
g0
(g9
g2
Ntp97
Rp98
(dp99
g13
I01
sg14
F-0.3097404938520952
sg15
g96
sbs(I-6
I71
tp100
g0
(g9
g2
Ntp101
Rp102
(dp103
g13
I01
sg14
F1.9781613433199494
sg15
g100
sbs(I71
I2
tp104
g0
(g9
g2
Ntp105
Rp106
(dp107
g13
I01
sg14
F-1.4623779548260636
sg15
g104
sbs(I-3
I71
tp108
g0
(g9
g2
Ntp109
Rp110
(dp111
g13
I01
sg14
F0.1917167970882468
sg15
g108
sbs(I-20
I71
tp112
g0
(g9
g2
Ntp113
Rp114
(dp115
g13
I01
sg14
F2.106722602626522
sg15
g112
sbs(I-7
I71
tp116
g0
(g9
g2
Ntp117
Rp118
(dp119
g13
I01
sg14
F-0.893233408193064
sg15
g116
sbs(I-17
I71
tp120
g0
(g9
g2
Ntp121
Rp122
(dp123
g13
I01
sg14
F0.08522820333587468
sg15
g120
sbs(I-4
I71
tp124
g0
(g9
g2
Ntp125
Rp126
(dp127
g13
I01
sg14
F0.4075560096877234
sg15
g124
sbs(I71
I6
tp128
g0
(g9
g2
Ntp129
Rp130
(dp131
g13
I01
sg14
F-2.1348943042234096
sg15
g128
sbssS'nodes'
p132
(dp133
I0
g0
(cneat.genes
DefaultNodeGene
p134
g2
Ntp135
Rp136
(dp137
S'activation'
p138
S'relu'
p139
sS'bias'
p140
F13.670385236710294
sS'response'
p141
F1.0
sg15
I0
sS'aggregation'
p142
S'sum'
p143
sbsI1
g0
(g134
g2
Ntp144
Rp145
(dp146
g138
g139
sg140
F0.5061884233325453
sg141
F1.0
sg15
I1
sg142
g143
sbsI2
g0
(g134
g2
Ntp147
Rp148
(dp149
g138
g139
sg140
F0.6575635163746927
sg141
F1.0
sg15
I2
sg142
g143
sbsI3
g0
(g134
g2
Ntp150
Rp151
(dp152
g138
g139
sg140
F17.30443234066646
sg141
F1.0
sg15
I3
sg142
g143
sbsI4
g0
(g134
g2
Ntp153
Rp154
(dp155
g138
g139
sg140
F22.97233432650539
sg141
F1.0
sg15
I4
sg142
g143
sbsI5
g0
(g134
g2
Ntp156
Rp157
(dp158
g138
g139
sg140
F5.589725773030923
sg141
F1.0
sg15
I5
sg142
g143
sbsI6
g0
(g134
g2
Ntp159
Rp160
(dp161
g138
g139
sg140
F8.116973304666935
sg141
F1.0
sg15
I6
sg142
g143
sbsI7
g0
(g134
g2
Ntp162
Rp163
(dp164
g138
g139
sg140
F4.472286233010648
sg141
F1.0
sg15
I7
sg142
g143
sbsI8
g0
(g134
g2
Ntp165
Rp166
(dp167
g138
g139
sg140
F11.862062262814895
sg141
F1.0
sg15
I8
sg142
g143
sbsI9
g0
(g134
g2
Ntp168
Rp169
(dp170
g138
g139
sg140
F13.8088851742946
sg141
F1.0
sg15
I9
sg142
g143
sbsI71
g0
(g134
g2
Ntp171
Rp172
(dp173
g138
g139
sg140
F0.30207146650855193
sg141
F1.0
sg15
I71
sg142
g143
sbssg15
I62
sS'fitness'
p174
F0.033369700992154604
sb.