ccopy_reg
_reconstructor
p0
(cneat.genome
DefaultGenome
p1
c__builtin__
object
p2
Ntp3
Rp4
(dp5
S'connections'
p6
(dp7
(I-8
I71
tp8
g0
(cneat.genes
DefaultConnectionGene
p9
g2
Ntp10
Rp11
(dp12
S'enabled'
p13
I01
sS'weight'
p14
F0.6116294299595911
sS'key'
p15
g8
sbs(I71
I1
tp16
g0
(g9
g2
Ntp17
Rp18
(dp19
g13
I01
sg14
F-0.980265419796997
sg15
g16
sbs(I-18
I71
tp20
g0
(g9
g2
Ntp21
Rp22
(dp23
g13
I01
sg14
F-1.1056796080415234
sg15
g20
sbs(I-14
I71
tp24
g0
(g9
g2
Ntp25
Rp26
(dp27
g13
I01
sg14
F-0.5707107204189782
sg15
g24
sbs(I-5
I71
tp28
g0
(g9
g2
Ntp29
Rp30
(dp31
g13
I01
sg14
F0.76610270997841
sg15
g28
sbs(I71
I5
tp32
g0
(g9
g2
Ntp33
Rp34
(dp35
g13
I01
sg14
F0.477962115328214
sg15
g32
sbs(I-11
I71
tp36
g0
(g9
g2
Ntp37
Rp38
(dp39
g13
I01
sg14
F0.6418793739500069
sg15
g36
sbs(I-1
I71
tp40
g0
(g9
g2
Ntp41
Rp42
(dp43
g13
I01
sg14
F0.15736646082491457
sg15
g40
sbs(I71
I9
tp44
g0
(g9
g2
Ntp45
Rp46
(dp47
g13
I01
sg14
F-0.6763937016954213
sg15
g44
sbs(I71
I0
tp48
g0
(g9
g2
Ntp49
Rp50
(dp51
g13
I01
sg14
F0.14921492372322012
sg15
g48
sbs(I-15
I71
tp52
g0
(g9
g2
Ntp53
Rp54
(dp55
g13
I01
sg14
F-0.5254111991074341
sg15
g52
sbs(I-2
I71
tp56
g0
(g9
g2
Ntp57
Rp58
(dp59
g13
I01
sg14
F-0.5944709696481704
sg15
g56
sbs(I71
I4
tp60
g0
(g9
g2
Ntp61
Rp62
(dp63
g13
I01
sg14
F-0.11730917655571632
sg15
g60
sbs(I-12
I71
tp64
g0
(g9
g2
Ntp65
Rp66
(dp67
g13
I01
sg14
F0.8953444663626835
sg15
g64
sbs(I71
I8
tp68
g0
(g9
g2
Ntp69
Rp70
(dp71
g13
I01
sg14
F1.1656033768731293
sg15
g68
sbs(I-9
I71
tp72
g0
(g9
g2
Ntp73
Rp74
(dp75
g13
I01
sg14
F-1.0208252245052911
sg15
g72
sbs(I-16
I71
tp76
g0
(g9
g2
Ntp77
Rp78
(dp79
g13
I01
sg14
F0.8462999414695738
sg15
g76
sbs(I71
I3
tp80
g0
(g9
g2
Ntp81
Rp82
(dp83
g13
I01
sg14
F0.25113161252916827
sg15
g80
sbs(I-13
I71
tp84
g0
(g9
g2
Ntp85
Rp86
(dp87
g13
I01
sg14
F-0.04201475580252592
sg15
g84
sbs(I71
I7
tp88
g0
(g9
g2
Ntp89
Rp90
(dp91
g13
I01
sg14
F-1.5778181379158085
sg15
g88
sbs(I-19
I71
tp92
g0
(g9
g2
Ntp93
Rp94
(dp95
g13
I01
sg14
F0.5505615237522906
sg15
g92
sbs(I-10
I71
tp96
g0
(g9
g2
Ntp97
Rp98
(dp99
g13
I01
sg14
F-1.1727755496300702
sg15
g96
sbs(I-6
I71
tp100
g0
(g9
g2
Ntp101
Rp102
(dp103
g13
I01
sg14
F-0.39892434847882924
sg15
g100
sbs(I71
I2
tp104
g0
(g9
g2
Ntp105
Rp106
(dp107
g13
I01
sg14
F1.7046550589161882
sg15
g104
sbs(I-3
I71
tp108
g0
(g9
g2
Ntp109
Rp110
(dp111
g13
I01
sg14
F0.39976529059367594
sg15
g108
sbs(I-20
I71
tp112
g0
(g9
g2
Ntp113
Rp114
(dp115
g13
I01
sg14
F-0.7403376233253223
sg15
g112
sbs(I-7
I71
tp116
g0
(g9
g2
Ntp117
Rp118
(dp119
g13
I01
sg14
F-1.524649477614772
sg15
g116
sbs(I-17
I71
tp120
g0
(g9
g2
Ntp121
Rp122
(dp123
g13
I01
sg14
F2.097715447894743
sg15
g120
sbs(I-4
I71
tp124
g0
(g9
g2
Ntp125
Rp126
(dp127
g13
I01
sg14
F0.5558955159385972
sg15
g124
sbs(I71
I6
tp128
g0
(g9
g2
Ntp129
Rp130
(dp131
g13
I01
sg14
F-0.5649489288403715
sg15
g128
sbssS'nodes'
p132
(dp133
I0
g0
(cneat.genes
DefaultNodeGene
p134
g2
Ntp135
Rp136
(dp137
S'activation'
p138
S'relu'
p139
sS'bias'
p140
F7.75364278979569
sS'response'
p141
F1.0
sg15
I0
sS'aggregation'
p142
S'sum'
p143
sbsI1
g0
(g134
g2
Ntp144
Rp145
(dp146
g138
g139
sg140
F-4.8312039948820695
sg141
F1.0
sg15
I1
sg142
g143
sbsI2
g0
(g134
g2
Ntp147
Rp148
(dp149
g138
g139
sg140
F7.448788513888883
sg141
F1.0
sg15
I2
sg142
g143
sbsI3
g0
(g134
g2
Ntp150
Rp151
(dp152
g138
g139
sg140
F3.36336114628977
sg141
F1.0
sg15
I3
sg142
g143
sbsI4
g0
(g134
g2
Ntp153
Rp154
(dp155
g138
g139
sg140
F-15.246031684379627
sg141
F1.0
sg15
I4
sg142
g143
sbsI5
g0
(g134
g2
Ntp156
Rp157
(dp158
g138
g139
sg140
F19.661353678732226
sg141
F1.0
sg15
I5
sg142
g143
sbsI6
g0
(g134
g2
Ntp159
Rp160
(dp161
g138
g139
sg140
F-15.880077991758025
sg141
F1.0
sg15
I6
sg142
g143
sbsI7
g0
(g134
g2
Ntp162
Rp163
(dp164
g138
g139
sg140
F8.82178686306203
sg141
F1.0
sg15
I7
sg142
g143
sbsI8
g0
(g134
g2
Ntp165
Rp166
(dp167
g138
g139
sg140
F-8.023138921288313
sg141
F1.0
sg15
I8
sg142
g143
sbsI9
g0
(g134
g2
Ntp168
Rp169
(dp170
g138
g139
sg140
F-11.14076707923905
sg141
F1.0
sg15
I9
sg142
g143
sbsI71
g0
(g134
g2
Ntp171
Rp172
(dp173
g138
g139
sg140
F-10.76610799413041
sg141
F1.0
sg15
I71
sg142
g143
sbssg15
I62
sS'fitness'
p174
Nsb.