ccopy_reg
_reconstructor
p0
(cneat.genome
DefaultGenome
p1
c__builtin__
object
p2
Ntp3
Rp4
(dp5
S'connections'
p6
(dp7
(I332
I495
tp8
g0
(cneat.genes
DefaultConnectionGene
p9
g2
Ntp10
Rp11
(dp12
S'enabled'
p13
I01
sS'weight'
p14
F1.1164178809623526
sS'key'
p15
g8
sbs(I331
I331
tp16
g0
(g9
g2
Ntp17
Rp18
(dp19
g13
I01
sg14
F-0.4579433005130786
sg15
g16
sbs(I332
I7
tp20
g0
(g9
g2
Ntp21
Rp22
(dp23
g13
I01
sg14
F0.6349491782038174
sg15
g20
sbs(I333
I5
tp24
g0
(g9
g2
Ntp25
Rp26
(dp27
g13
I01
sg14
F1.6799129955132697
sg15
g24
sbs(I-1
I331
tp28
g0
(g9
g2
Ntp29
Rp30
(dp31
g13
I01
sg14
F-2.616237595638213
sg15
g28
sbs(I-8
I332
tp32
g0
(g9
g2
Ntp33
Rp34
(dp35
g13
I01
sg14
F-0.7029353845717343
sg15
g32
sbs(I-1
I332
tp36
g0
(g9
g2
Ntp37
Rp38
(dp39
g13
I01
sg14
F2.0833447703004335
sg15
g36
sbs(I3
I3
tp40
g0
(g9
g2
Ntp41
Rp42
(dp43
g13
I01
sg14
F1.6764483744707592
sg15
g40
sbs(I-10
I333
tp44
g0
(g9
g2
Ntp45
Rp46
(dp47
g13
I01
sg14
F0.134760244819897
sg15
g44
sbs(I332
I0
tp48
g0
(g9
g2
Ntp49
Rp50
(dp51
g13
I01
sg14
F0.5048996539224276
sg15
g48
sbs(I331
I8
tp52
g0
(g9
g2
Ntp53
Rp54
(dp55
g13
I01
sg14
F-0.557940310049212
sg15
g52
sbs(I4
I4
tp56
g0
(g9
g2
Ntp57
Rp58
(dp59
g13
I01
sg14
F-1.158238115815514
sg15
g56
sbs(I331
I3
tp60
g0
(g9
g2
Ntp61
Rp62
(dp63
g13
I01
sg14
F-0.716302485965017
sg15
g60
sbs(I-7
I332
tp64
g0
(g9
g2
Ntp65
Rp66
(dp67
g13
I01
sg14
F2.222879833447489
sg15
g64
sbs(I-6
I331
tp68
g0
(g9
g2
Ntp69
Rp70
(dp71
g13
I01
sg14
F-1.2095779651618868
sg15
g68
sbs(I-3
I333
tp72
g0
(g9
g2
Ntp73
Rp74
(dp75
g13
I01
sg14
F-0.9217326092919188
sg15
g72
sbs(I333
I0
tp76
g0
(g9
g2
Ntp77
Rp78
(dp79
g13
I00
sg14
F-1.535519380503934
sg15
g76
sbs(I-5
I331
tp80
g0
(g9
g2
Ntp81
Rp82
(dp83
g13
I01
sg14
F-1.9642271269116969
sg15
g80
sbs(I0
I0
tp84
g0
(g9
g2
Ntp85
Rp86
(dp87
g13
I01
sg14
F2.6228526964081187
sg15
g84
sbs(I332
I1
tp88
g0
(g9
g2
Ntp89
Rp90
(dp91
g13
I01
sg14
F-0.9162622769683708
sg15
g88
sbs(I-2
I332
tp92
g0
(g9
g2
Ntp93
Rp94
(dp95
g13
I01
sg14
F2.3004169116350948
sg15
g92
sbs(I-9
I331
tp96
g0
(g9
g2
Ntp97
Rp98
(dp99
g13
I01
sg14
F-0.3498132993268075
sg15
g96
sbs(I333
I4
tp100
g0
(g9
g2
Ntp101
Rp102
(dp103
g13
I01
sg14
F0.3571596950091416
sg15
g100
sbs(I332
I5
tp104
g0
(g9
g2
Ntp105
Rp106
(dp107
g13
I00
sg14
F-1.0438439532371755
sg15
g104
sbs(I-3
I332
tp108
g0
(g9
g2
Ntp109
Rp110
(dp111
g13
I01
sg14
F-1.9294455377398896
sg15
g108
sbs(I332
I9
tp112
g0
(g9
g2
Ntp113
Rp114
(dp115
g13
I01
sg14
F-0.6264779784871134
sg15
g112
sbs(I-6
I332
tp116
g0
(g9
g2
Ntp117
Rp118
(dp119
g13
I01
sg14
F-1.6119605431439576
sg15
g116
sbs(I5
I5
tp120
g0
(g9
g2
Ntp121
Rp122
(dp123
g13
I01
sg14
F0.9142232162740506
sg15
g120
sbs(I331
I0
tp124
g0
(g9
g2
Ntp125
Rp126
(dp127
g13
I01
sg14
F-0.2898582699633807
sg15
g124
sbs(I-7
I331
tp128
g0
(g9
g2
Ntp129
Rp130
(dp131
g13
I01
sg14
F-0.5824684557951485
sg15
g128
sbs(I332
I6
tp132
g0
(g9
g2
Ntp133
Rp134
(dp135
g13
I01
sg14
F-1.0512181448037614
sg15
g132
sbs(I333
I7
tp136
g0
(g9
g2
Ntp137
Rp138
(dp139
g13
I01
sg14
F2.5087489108399974
sg15
g136
sbs(I-2
I333
tp140
g0
(g9
g2
Ntp141
Rp142
(dp143
g13
I01
sg14
F-0.5496554488134844
sg15
g140
sbs(I333
I6
tp144
g0
(g9
g2
Ntp145
Rp146
(dp147
g13
I01
sg14
F0.0555283682005317
sg15
g144
sbs(I-10
I331
tp148
g0
(g9
g2
Ntp149
Rp150
(dp151
g13
I01
sg14
F0.8436272104700375
sg15
g148
sbs(I-8
I331
tp152
g0
(g9
g2
Ntp153
Rp154
(dp155
g13
I01
sg14
F-0.38245210355242565
sg15
g152
sbs(I495
I5
tp156
g0
(g9
g2
Ntp157
Rp158
(dp159
g13
I01
sg14
F-1.7409881929499595
sg15
g156
sbs(I332
I3
tp160
g0
(g9
g2
Ntp161
Rp162
(dp163
g13
I01
sg14
F1.5314257432809328
sg15
g160
sbssS'nodes'
p164
(dp165
I0
g0
(cneat.genes
DefaultNodeGene
p166
g2
Ntp167
Rp168
(dp169
S'activation'
p170
S'tanh'
p171
sS'bias'
p172
F-1.4287666031830204
sS'response'
p173
F1.0
sg15
I0
sS'aggregation'
p174
S'sum'
p175
sbsI1
g0
(g166
g2
Ntp176
Rp177
(dp178
g170
g171
sg172
F9.927536374572597
sg173
F1.0
sg15
I1
sg174
g175
sbsI2
g0
(g166
g2
Ntp179
Rp180
(dp181
g170
g171
sg172
F23.232632882869286
sg173
F1.0
sg15
I2
sg174
g175
sbsI3
g0
(g166
g2
Ntp182
Rp183
(dp184
g170
g171
sg172
F-8.51840913994893
sg173
F1.0
sg15
I3
sg174
g175
sbsI4
g0
(g166
g2
Ntp185
Rp186
(dp187
g170
g171
sg172
F-4.524440139072944
sg173
F1.0
sg15
I4
sg174
g175
sbsI5
g0
(g166
g2
Ntp188
Rp189
(dp190
g170
g171
sg172
F-9.55910542925875
sg173
F1.0
sg15
I5
sg174
g175
sbsI6
g0
(g166
g2
Ntp191
Rp192
(dp193
g170
g171
sg172
F0.4640232490814158
sg173
F1.0
sg15
I6
sg174
g175
sbsI7
g0
(g166
g2
Ntp194
Rp195
(dp196
g170
g171
sg172
F-5.867827347943354
sg173
F1.0
sg15
I7
sg174
g175
sbsI8
g0
(g166
g2
Ntp197
Rp198
(dp199
g170
g171
sg172
F8.660060666441845
sg173
F1.0
sg15
I8
sg174
g175
sbsI9
g0
(g166
g2
Ntp200
Rp201
(dp202
g170
g171
sg172
F6.850761706283061
sg173
F1.0
sg15
I9
sg174
g175
sbsI331
g0
(g166
g2
Ntp203
Rp204
(dp205
g170
g171
sg172
F-12.019623593803232
sg173
F1.0
sg15
I331
sg174
g175
sbsI332
g0
(g166
g2
Ntp206
Rp207
(dp208
g170
g171
sg172
F-4.642922934577289
sg173
F1.0
sg15
I332
sg174
g175
sbsI333
g0
(g166
g2
Ntp209
Rp210
(dp211
g170
g171
sg172
F-2.915415344066053
sg173
F1.0
sg15
I333
sg174
g175
sbsI495
g0
(g166
g2
Ntp212
Rp213
(dp214
g170
g171
sg172
F8.120694623676032
sg173
F1.0
sg15
I495
sg174
g175
sbssg15
I62
sS'fitness'
p215
F0.8682014469089714
sb.