ccopy_reg
_reconstructor
p0
(cneat.genome
DefaultGenome
p1
c__builtin__
object
p2
Ntp3
Rp4
(dp5
S'connections'
p6
(dp7
(I72
I2
tp8
g0
(cneat.genes
DefaultConnectionGene
p9
g2
Ntp10
Rp11
(dp12
S'enabled'
p13
I01
sS'weight'
p14
F-1.0679494208738578
sS'key'
p15
g8
sbs(I-16
I72
tp16
g0
(g9
g2
Ntp17
Rp18
(dp19
g13
I01
sg14
F1.1916293997915557
sg15
g16
sbs(I-2
I72
tp20
g0
(g9
g2
Ntp21
Rp22
(dp23
g13
I01
sg14
F-0.6411384283469469
sg15
g20
sbs(I-10
I72
tp24
g0
(g9
g2
Ntp25
Rp26
(dp27
g13
I01
sg14
F0.5861560994354457
sg15
g24
sbs(I72
I7
tp28
g0
(g9
g2
Ntp29
Rp30
(dp31
g13
I01
sg14
F0.014435034959907344
sg15
g28
sbs(I-5
I72
tp32
g0
(g9
g2
Ntp33
Rp34
(dp35
g13
I01
sg14
F1.772595456709033
sg15
g32
sbs(I-18
I72
tp36
g0
(g9
g2
Ntp37
Rp38
(dp39
g13
I01
sg14
F1.01996447970358
sg15
g36
sbs(I-20
I72
tp40
g0
(g9
g2
Ntp41
Rp42
(dp43
g13
I01
sg14
F-0.7993508180535888
sg15
g40
sbs(I-13
I72
tp44
g0
(g9
g2
Ntp45
Rp46
(dp47
g13
I01
sg14
F0.7164844961022654
sg15
g44
sbs(I-15
I72
tp48
g0
(g9
g2
Ntp49
Rp50
(dp51
g13
I01
sg14
F-0.7546253386769196
sg15
g48
sbs(I-8
I72
tp52
g0
(g9
g2
Ntp53
Rp54
(dp55
g13
I01
sg14
F0.4238305217946947
sg15
g52
sbs(I-9
I72
tp56
g0
(g9
g2
Ntp57
Rp58
(dp59
g13
I01
sg14
F0.5150634801096258
sg15
g56
sbs(I-1
I72
tp60
g0
(g9
g2
Ntp61
Rp62
(dp63
g13
I01
sg14
F1.6075417803914844
sg15
g60
sbs(I-4
I72
tp64
g0
(g9
g2
Ntp65
Rp66
(dp67
g13
I01
sg14
F-0.9720233689360832
sg15
g64
sbs(I72
I8
tp68
g0
(g9
g2
Ntp69
Rp70
(dp71
g13
I01
sg14
F-0.05668311252699219
sg15
g68
sbs(I-17
I72
tp72
g0
(g9
g2
Ntp73
Rp74
(dp75
g13
I01
sg14
F-0.6373011750465152
sg15
g72
sbs(I-19
I72
tp76
g0
(g9
g2
Ntp77
Rp78
(dp79
g13
I01
sg14
F1.068665625500409
sg15
g76
sbs(I-12
I72
tp80
g0
(g9
g2
Ntp81
Rp82
(dp83
g13
I01
sg14
F-0.6894491496773953
sg15
g80
sbs(I-14
I72
tp84
g0
(g9
g2
Ntp85
Rp86
(dp87
g13
I01
sg14
F3.181341617988024
sg15
g84
sbs(I-7
I72
tp88
g0
(g9
g2
Ntp89
Rp90
(dp91
g13
I01
sg14
F1.3210805619615755
sg15
g88
sbs(I72
I4
tp92
g0
(g9
g2
Ntp93
Rp94
(dp95
g13
I01
sg14
F-0.35541807322013025
sg15
g92
sbs(I-3
I72
tp96
g0
(g9
g2
Ntp97
Rp98
(dp99
g13
I01
sg14
F-1.8379193761332604
sg15
g96
sbs(I72
I0
tp100
g0
(g9
g2
Ntp101
Rp102
(dp103
g13
I01
sg14
F1.4310190967791454
sg15
g100
sbs(I72
I3
tp104
g0
(g9
g2
Ntp105
Rp106
(dp107
g13
I01
sg14
F-0.9446364125740419
sg15
g104
sbs(I-11
I72
tp108
g0
(g9
g2
Ntp109
Rp110
(dp111
g13
I01
sg14
F-0.5852379031601695
sg15
g108
sbs(I72
I9
tp112
g0
(g9
g2
Ntp113
Rp114
(dp115
g13
I01
sg14
F0.0510818478825108
sg15
g112
sbs(I-6
I72
tp116
g0
(g9
g2
Ntp117
Rp118
(dp119
g13
I01
sg14
F-1.3570918307133608
sg15
g116
sbs(I72
I5
tp120
g0
(g9
g2
Ntp121
Rp122
(dp123
g13
I01
sg14
F0.9553331951832199
sg15
g120
sbs(I72
I1
tp124
g0
(g9
g2
Ntp125
Rp126
(dp127
g13
I01
sg14
F0.03673832681202119
sg15
g124
sbs(I72
I6
tp128
g0
(g9
g2
Ntp129
Rp130
(dp131
g13
I01
sg14
F-0.27541988146267943
sg15
g128
sbssS'nodes'
p132
(dp133
I0
g0
(cneat.genes
DefaultNodeGene
p134
g2
Ntp135
Rp136
(dp137
S'activation'
p138
S'relu'
p139
sS'bias'
p140
F1.4167592588651061
sS'response'
p141
F1.0
sg15
I0
sS'aggregation'
p142
S'sum'
p143
sbsI1
g0
(g134
g2
Ntp144
Rp145
(dp146
g138
g139
sg140
F17.934585695460946
sg141
F1.0
sg15
I1
sg142
g143
sbsI2
g0
(g134
g2
Ntp147
Rp148
(dp149
g138
g139
sg140
F-6.687985147647424
sg141
F1.0
sg15
I2
sg142
g143
sbsI3
g0
(g134
g2
Ntp150
Rp151
(dp152
g138
g139
sg140
F-4.813515529254221
sg141
F1.0
sg15
I3
sg142
g143
sbsI4
g0
(g134
g2
Ntp153
Rp154
(dp155
g138
g139
sg140
F0.42438901455892575
sg141
F1.0
sg15
I4
sg142
g143
sbsI5
g0
(g134
g2
Ntp156
Rp157
(dp158
g138
g139
sg140
F-16.776296137545668
sg141
F1.0
sg15
I5
sg142
g143
sbsI6
g0
(g134
g2
Ntp159
Rp160
(dp161
g138
g139
sg140
F0.4892786526210662
sg141
F1.0
sg15
I6
sg142
g143
sbsI7
g0
(g134
g2
Ntp162
Rp163
(dp164
g138
g139
sg140
F0.3892468311284975
sg141
F1.0
sg15
I7
sg142
g143
sbsI8
g0
(g134
g2
Ntp165
Rp166
(dp167
g138
g139
sg140
F-0.6326255377561782
sg141
F1.0
sg15
I8
sg142
g143
sbsI9
g0
(g134
g2
Ntp168
Rp169
(dp170
g138
g139
sg140
F-5.498329183531508
sg141
F1.0
sg15
I9
sg142
g143
sbsI72
g0
(g134
g2
Ntp171
Rp172
(dp173
g138
g139
sg140
F-18.87332131491692
sg141
F1.0
sg15
I72
sg142
g143
sbssg15
I63
sS'fitness'
p174
Nsb.