ccopy_reg
_reconstructor
p0
(cneat.genome
DefaultGenome
p1
c__builtin__
object
p2
Ntp3
Rp4
(dp5
S'connections'
p6
(dp7
(I-9
I8
tp8
g0
(cneat.genes
DefaultConnectionGene
p9
g2
Ntp10
Rp11
(dp12
S'enabled'
p13
I01
sS'weight'
p14
F1.796787353722617
sS'key'
p15
g8
sbs(I-10
I4
tp16
g0
(g9
g2
Ntp17
Rp18
(dp19
g13
I01
sg14
F-2.9451146931620844
sg15
g16
sbs(I8
I8
tp20
g0
(g9
g2
Ntp21
Rp22
(dp23
g13
I01
sg14
F-2.740727451040472
sg15
g20
sbs(I2
I2
tp24
g0
(g9
g2
Ntp25
Rp26
(dp27
g13
I01
sg14
F0.18927477396183368
sg15
g24
sbs(I-1
I7
tp28
g0
(g9
g2
Ntp29
Rp30
(dp31
g13
I01
sg14
F2.4570408504716337
sg15
g28
sbs(I1
I1
tp32
g0
(g9
g2
Ntp33
Rp34
(dp35
g13
I01
sg14
F-1.5106082596889934
sg15
g32
sbssS'nodes'
p36
(dp37
I0
g0
(cneat.genes
DefaultNodeGene
p38
g2
Ntp39
Rp40
(dp41
S'activation'
p42
S'tanh'
p43
sS'bias'
p44
F-1.7497438728013182
sS'response'
p45
F1.0
sg15
I0
sS'aggregation'
p46
S'sum'
p47
sbsI1
g0
(g38
g2
Ntp48
Rp49
(dp50
g42
g43
sg44
F-4.785061006764605
sg45
F1.0
sg15
I1
sg46
g47
sbsI2
g0
(g38
g2
Ntp51
Rp52
(dp53
g42
g43
sg44
F1.118822399577913
sg45
F1.0
sg15
I2
sg46
g47
sbsI3
g0
(g38
g2
Ntp54
Rp55
(dp56
g42
g43
sg44
F3.134596877171874
sg45
F1.0
sg15
I3
sg46
g47
sbsI4
g0
(g38
g2
Ntp57
Rp58
(dp59
g42
g43
sg44
F3.953869135531714
sg45
F1.0
sg15
I4
sg46
g47
sbsI5
g0
(g38
g2
Ntp60
Rp61
(dp62
g42
g43
sg44
F9.92539776259291
sg45
F1.0
sg15
I5
sg46
g47
sbsI6
g0
(g38
g2
Ntp63
Rp64
(dp65
g42
g43
sg44
F4.5106889388601505
sg45
F1.0
sg15
I6
sg46
g47
sbsI7
g0
(g38
g2
Ntp66
Rp67
(dp68
g42
g43
sg44
F5.279151099282879
sg45
F1.0
sg15
I7
sg46
g47
sbsI8
g0
(g38
g2
Ntp69
Rp70
(dp71
g42
g43
sg44
F-4.110635347102907
sg45
F1.0
sg15
I8
sg46
g47
sbsI9
g0
(g38
g2
Ntp72
Rp73
(dp74
g42
g43
sg44
F1.319586936509125
sg45
F1.0
sg15
I9
sg46
g47
sbssg15
I63
sS'fitness'
p75
F-0.06544683754469394
sb.