ccopy_reg
_reconstructor
p0
(cneat.genome
DefaultGenome
p1
c__builtin__
object
p2
Ntp3
Rp4
(dp5
S'connections'
p6
(dp7
(I73
I4
tp8
g0
(cneat.genes
DefaultConnectionGene
p9
g2
Ntp10
Rp11
(dp12
S'enabled'
p13
I01
sS'weight'
p14
F0.9616816271314418
sS'key'
p15
g8
sbs(I-13
I73
tp16
g0
(g9
g2
Ntp17
Rp18
(dp19
g13
I01
sg14
F-1.961060836108324
sg15
g16
sbs(I-15
I73
tp20
g0
(g9
g2
Ntp21
Rp22
(dp23
g13
I01
sg14
F-0.7694794425196644
sg15
g20
sbs(I73
I3
tp24
g0
(g9
g2
Ntp25
Rp26
(dp27
g13
I01
sg14
F-0.5642442730671157
sg15
g24
sbs(I-9
I73
tp28
g0
(g9
g2
Ntp29
Rp30
(dp31
g13
I01
sg14
F0.835771111286702
sg15
g28
sbs(I-17
I73
tp32
g0
(g9
g2
Ntp33
Rp34
(dp35
g13
I01
sg14
F-2.2916775513390624
sg15
g32
sbs(I-19
I73
tp36
g0
(g9
g2
Ntp37
Rp38
(dp39
g13
I01
sg14
F1.1321718048257166
sg15
g36
sbs(I73
I6
tp40
g0
(g9
g2
Ntp41
Rp42
(dp43
g13
I01
sg14
F0.8151752819040924
sg15
g40
sbs(I-7
I73
tp44
g0
(g9
g2
Ntp45
Rp46
(dp47
g13
I01
sg14
F-0.3886185454967986
sg15
g44
sbs(I-16
I73
tp48
g0
(g9
g2
Ntp49
Rp50
(dp51
g13
I01
sg14
F0.9389816298974829
sg15
g48
sbs(I-3
I73
tp52
g0
(g9
g2
Ntp53
Rp54
(dp55
g13
I01
sg14
F-0.5980644516413502
sg15
g52
sbs(I73
I8
tp56
g0
(g9
g2
Ntp57
Rp58
(dp59
g13
I01
sg14
F-2.2215619904292416
sg15
g56
sbs(I73
I9
tp60
g0
(g9
g2
Ntp61
Rp62
(dp63
g13
I01
sg14
F0.46695015276494783
sg15
g60
sbs(I-11
I73
tp64
g0
(g9
g2
Ntp65
Rp66
(dp67
g13
I01
sg14
F0.4306707990837411
sg15
g64
sbs(I-10
I73
tp68
g0
(g9
g2
Ntp69
Rp70
(dp71
g13
I01
sg14
F-0.7596446421613563
sg15
g68
sbs(I73
I5
tp72
g0
(g9
g2
Ntp73
Rp74
(dp75
g13
I01
sg14
F-0.06608230697179143
sg15
g72
sbs(I-18
I73
tp76
g0
(g9
g2
Ntp77
Rp78
(dp79
g13
I01
sg14
F-0.5357594808235749
sg15
g76
sbs(I-20
I73
tp80
g0
(g9
g2
Ntp81
Rp82
(dp83
g13
I01
sg14
F0.8116756659489716
sg15
g80
sbs(I-2
I73
tp84
g0
(g9
g2
Ntp85
Rp86
(dp87
g13
I01
sg14
F0.7551039872002511
sg15
g84
sbs(I-8
I73
tp88
g0
(g9
g2
Ntp89
Rp90
(dp91
g13
I01
sg14
F-1.1593555240589715
sg15
g88
sbs(I73
I1
tp92
g0
(g9
g2
Ntp93
Rp94
(dp95
g13
I01
sg14
F0.3478440316703465
sg15
g92
sbs(I-1
I73
tp96
g0
(g9
g2
Ntp97
Rp98
(dp99
g13
I01
sg14
F1.018621334780383
sg15
g96
sbs(I-4
I73
tp100
g0
(g9
g2
Ntp101
Rp102
(dp103
g13
I01
sg14
F1.0810118342853083
sg15
g100
sbs(I-12
I73
tp104
g0
(g9
g2
Ntp105
Rp106
(dp107
g13
I01
sg14
F0.2660983793445526
sg15
g104
sbs(I-14
I73
tp108
g0
(g9
g2
Ntp109
Rp110
(dp111
g13
I01
sg14
F-0.8947381117035845
sg15
g108
sbs(I73
I0
tp112
g0
(g9
g2
Ntp113
Rp114
(dp115
g13
I01
sg14
F0.3774318081888388
sg15
g112
sbs(I-6
I73
tp116
g0
(g9
g2
Ntp117
Rp118
(dp119
g13
I01
sg14
F0.481046992492814
sg15
g116
sbs(I73
I2
tp120
g0
(g9
g2
Ntp121
Rp122
(dp123
g13
I01
sg14
F-2.2899101142421845
sg15
g120
sbs(I-5
I73
tp124
g0
(g9
g2
Ntp125
Rp126
(dp127
g13
I01
sg14
F-1.0829630388471378
sg15
g124
sbs(I73
I7
tp128
g0
(g9
g2
Ntp129
Rp130
(dp131
g13
I01
sg14
F-0.1152606705899352
sg15
g128
sbssS'nodes'
p132
(dp133
I0
g0
(cneat.genes
DefaultNodeGene
p134
g2
Ntp135
Rp136
(dp137
S'activation'
p138
S'relu'
p139
sS'bias'
p140
F-5.961950455022311
sS'response'
p141
F1.0
sg15
I0
sS'aggregation'
p142
S'sum'
p143
sbsI1
g0
(g134
g2
Ntp144
Rp145
(dp146
g138
g139
sg140
F2.0077331116466013
sg141
F1.0
sg15
I1
sg142
g143
sbsI2
g0
(g134
g2
Ntp147
Rp148
(dp149
g138
g139
sg140
F27.787332613894907
sg141
F1.0
sg15
I2
sg142
g143
sbsI3
g0
(g134
g2
Ntp150
Rp151
(dp152
g138
g139
sg140
F-12.57128206533417
sg141
F1.0
sg15
I3
sg142
g143
sbsI4
g0
(g134
g2
Ntp153
Rp154
(dp155
g138
g139
sg140
F3.0364670001055316
sg141
F1.0
sg15
I4
sg142
g143
sbsI5
g0
(g134
g2
Ntp156
Rp157
(dp158
g138
g139
sg140
F11.10989852374589
sg141
F1.0
sg15
I5
sg142
g143
sbsI6
g0
(g134
g2
Ntp159
Rp160
(dp161
g138
g139
sg140
F-0.004359554828665969
sg141
F1.0
sg15
I6
sg142
g143
sbsI7
g0
(g134
g2
Ntp162
Rp163
(dp164
g138
g139
sg140
F5.259670253156616
sg141
F1.0
sg15
I7
sg142
g143
sbsI8
g0
(g134
g2
Ntp165
Rp166
(dp167
g138
g139
sg140
F14.974814237088605
sg141
F1.0
sg15
I8
sg142
g143
sbsI9
g0
(g134
g2
Ntp168
Rp169
(dp170
g138
g139
sg140
F-7.935353983418429
sg141
F1.0
sg15
I9
sg142
g143
sbsI73
g0
(g134
g2
Ntp171
Rp172
(dp173
g138
g139
sg140
F-6.094159497706084
sg141
F1.0
sg15
I73
sg142
g143
sbssg15
I64
sS'fitness'
p174
Nsb.