ccopy_reg
_reconstructor
p0
(cneat.genome
DefaultGenome
p1
c__builtin__
object
p2
Ntp3
Rp4
(dp5
S'connections'
p6
(dp7
(I-8
I73
tp8
g0
(cneat.genes
DefaultConnectionGene
p9
g2
Ntp10
Rp11
(dp12
S'enabled'
p13
I01
sS'weight'
p14
F0.4595452695744727
sS'key'
p15
g8
sbs(I73
I0
tp16
g0
(g9
g2
Ntp17
Rp18
(dp19
g13
I01
sg14
F1.6449275505736507
sg15
g16
sbs(I73
I1
tp20
g0
(g9
g2
Ntp21
Rp22
(dp23
g13
I01
sg14
F0.09841918116946016
sg15
g20
sbs(I73
I2
tp24
g0
(g9
g2
Ntp25
Rp26
(dp27
g13
I01
sg14
F-0.4859130574088203
sg15
g24
sbs(I-3
I73
tp28
g0
(g9
g2
Ntp29
Rp30
(dp31
g13
I01
sg14
F1.4478073839473367
sg15
g28
sbs(I-1
I73
tp32
g0
(g9
g2
Ntp33
Rp34
(dp35
g13
I01
sg14
F1.0995162477583338
sg15
g32
sbs(I73
I3
tp36
g0
(g9
g2
Ntp37
Rp38
(dp39
g13
I01
sg14
F0.9819520773417398
sg15
g36
sbs(I-4
I73
tp40
g0
(g9
g2
Ntp41
Rp42
(dp43
g13
I01
sg14
F0.5273789658829219
sg15
g40
sbs(I73
I9
tp44
g0
(g9
g2
Ntp45
Rp46
(dp47
g13
I01
sg14
F-0.21283935015799893
sg15
g44
sbs(I-6
I73
tp48
g0
(g9
g2
Ntp49
Rp50
(dp51
g13
I01
sg14
F0.3478351252677795
sg15
g48
sbs(I-7
I73
tp52
g0
(g9
g2
Ntp53
Rp54
(dp55
g13
I01
sg14
F-0.3463350470670963
sg15
g52
sbs(I-9
I73
tp56
g0
(g9
g2
Ntp57
Rp58
(dp59
g13
I01
sg14
F0.3568372979841699
sg15
g56
sbs(I-10
I73
tp60
g0
(g9
g2
Ntp61
Rp62
(dp63
g13
I01
sg14
F-0.19068631201408157
sg15
g60
sbs(I73
I8
tp64
g0
(g9
g2
Ntp65
Rp66
(dp67
g13
I01
sg14
F1.7569546030921543
sg15
g64
sbs(I73
I4
tp68
g0
(g9
g2
Ntp69
Rp70
(dp71
g13
I01
sg14
F-1.801057580254379
sg15
g68
sbs(I73
I5
tp72
g0
(g9
g2
Ntp73
Rp74
(dp75
g13
I01
sg14
F1.7219195375719498
sg15
g72
sbs(I-5
I73
tp76
g0
(g9
g2
Ntp77
Rp78
(dp79
g13
I01
sg14
F0.043299651914654715
sg15
g76
sbs(I73
I6
tp80
g0
(g9
g2
Ntp81
Rp82
(dp83
g13
I01
sg14
F1.7690028443781214
sg15
g80
sbs(I-2
I73
tp84
g0
(g9
g2
Ntp85
Rp86
(dp87
g13
I01
sg14
F-0.05993277435064537
sg15
g84
sbs(I73
I7
tp88
g0
(g9
g2
Ntp89
Rp90
(dp91
g13
I01
sg14
F-1.1205051225429015
sg15
g88
sbssS'nodes'
p92
(dp93
I0
g0
(cneat.genes
DefaultNodeGene
p94
g2
Ntp95
Rp96
(dp97
S'activation'
p98
S'relu'
p99
sS'bias'
p100
F3.938677651948333
sS'response'
p101
F1.0
sg15
I0
sS'aggregation'
p102
S'sum'
p103
sbsI1
g0
(g94
g2
Ntp104
Rp105
(dp106
g98
g99
sg100
F-12.11779978861173
sg101
F1.0
sg15
I1
sg102
g103
sbsI2
g0
(g94
g2
Ntp107
Rp108
(dp109
g98
g99
sg100
F3.530961924514058
sg101
F1.0
sg15
I2
sg102
g103
sbsI3
g0
(g94
g2
Ntp110
Rp111
(dp112
g98
g99
sg100
F0.3974415476004798
sg101
F1.0
sg15
I3
sg102
g103
sbsI4
g0
(g94
g2
Ntp113
Rp114
(dp115
g98
g99
sg100
F-15.11180985409607
sg101
F1.0
sg15
I4
sg102
g103
sbsI5
g0
(g94
g2
Ntp116
Rp117
(dp118
g98
g99
sg100
F16.581167302951656
sg101
F1.0
sg15
I5
sg102
g103
sbsI6
g0
(g94
g2
Ntp119
Rp120
(dp121
g98
g99
sg100
F5.828231823748125
sg101
F1.0
sg15
I6
sg102
g103
sbsI7
g0
(g94
g2
Ntp122
Rp123
(dp124
g98
g99
sg100
F-1.863499840937787
sg101
F1.0
sg15
I7
sg102
g103
sbsI8
g0
(g94
g2
Ntp125
Rp126
(dp127
g98
g99
sg100
F5.446014998031123
sg101
F1.0
sg15
I8
sg102
g103
sbsI9
g0
(g94
g2
Ntp128
Rp129
(dp130
g98
g99
sg100
F-6.7741694079975945
sg101
F1.0
sg15
I9
sg102
g103
sbsI73
g0
(g94
g2
Ntp131
Rp132
(dp133
g98
g99
sg100
F-3.4417080225627235
sg101
F1.0
sg15
I73
sg102
g103
sbssg15
I64
sS'fitness'
p134
F-0.1035335143471563
sb.