ccopy_reg
_reconstructor
p0
(cneat.genome
DefaultGenome
p1
c__builtin__
object
p2
Ntp3
Rp4
(dp5
S'connections'
p6
(dp7
(I-7
I74
tp8
g0
(cneat.genes
DefaultConnectionGene
p9
g2
Ntp10
Rp11
(dp12
S'enabled'
p13
I01
sS'weight'
p14
F0.39419339666699665
sS'key'
p15
g8
sbs(I74
I4
tp16
g0
(g9
g2
Ntp17
Rp18
(dp19
g13
I01
sg14
F0.529048077599526
sg15
g16
sbs(I-3
I74
tp20
g0
(g9
g2
Ntp21
Rp22
(dp23
g13
I01
sg14
F0.1165356467365209
sg15
g20
sbs(I-11
I74
tp24
g0
(g9
g2
Ntp25
Rp26
(dp27
g13
I01
sg14
F-0.8831550002587994
sg15
g24
sbs(I74
I1
tp28
g0
(g9
g2
Ntp29
Rp30
(dp31
g13
I01
sg14
F-0.4123971875420093
sg15
g28
sbs(I-6
I74
tp32
g0
(g9
g2
Ntp33
Rp34
(dp35
g13
I01
sg14
F-0.6700538840582053
sg15
g32
sbs(I74
I5
tp36
g0
(g9
g2
Ntp37
Rp38
(dp39
g13
I01
sg14
F0.027451353309714346
sg15
g36
sbs(I-1
I74
tp40
g0
(g9
g2
Ntp41
Rp42
(dp43
g13
I01
sg14
F0.4382782190555217
sg15
g40
sbs(I74
I2
tp44
g0
(g9
g2
Ntp45
Rp46
(dp47
g13
I01
sg14
F0.5674125597120531
sg15
g44
sbs(I-16
I74
tp48
g0
(g9
g2
Ntp49
Rp50
(dp51
g13
I01
sg14
F-0.6695955626600406
sg15
g48
sbs(I74
I7
tp52
g0
(g9
g2
Ntp53
Rp54
(dp55
g13
I01
sg14
F1.0626813100002053
sg15
g52
sbs(I74
I6
tp56
g0
(g9
g2
Ntp57
Rp58
(dp59
g13
I01
sg14
F0.3891147821049117
sg15
g56
sbs(I-5
I74
tp60
g0
(g9
g2
Ntp61
Rp62
(dp63
g13
I01
sg14
F1.2175875168124557
sg15
g60
sbs(I-20
I74
tp64
g0
(g9
g2
Ntp65
Rp66
(dp67
g13
I01
sg14
F-0.22116276376769556
sg15
g64
sbs(I-13
I74
tp68
g0
(g9
g2
Ntp69
Rp70
(dp71
g13
I01
sg14
F2.2546020378781324
sg15
g68
sbs(I-10
I74
tp72
g0
(g9
g2
Ntp73
Rp74
(dp75
g13
I01
sg14
F-0.19048470681117446
sg15
g72
sbs(I74
I3
tp76
g0
(g9
g2
Ntp77
Rp78
(dp79
g13
I01
sg14
F-0.9602621389983614
sg15
g76
sbs(I-8
I74
tp80
g0
(g9
g2
Ntp81
Rp82
(dp83
g13
I01
sg14
F0.5191474785143221
sg15
g80
sbs(I74
I8
tp84
g0
(g9
g2
Ntp85
Rp86
(dp87
g13
I01
sg14
F1.3308050597068748
sg15
g84
sbs(I-18
I74
tp88
g0
(g9
g2
Ntp89
Rp90
(dp91
g13
I01
sg14
F-0.09576816685113602
sg15
g88
sbs(I-9
I74
tp92
g0
(g9
g2
Ntp93
Rp94
(dp95
g13
I01
sg14
F1.3857259579264336
sg15
g92
sbs(I-15
I74
tp96
g0
(g9
g2
Ntp97
Rp98
(dp99
g13
I01
sg14
F-2.672058716871991
sg15
g96
sbs(I-4
I74
tp100
g0
(g9
g2
Ntp101
Rp102
(dp103
g13
I01
sg14
F-2.475117978204463
sg15
g100
sbs(I-17
I74
tp104
g0
(g9
g2
Ntp105
Rp106
(dp107
g13
I01
sg14
F-0.9882339493853266
sg15
g104
sbs(I-12
I74
tp108
g0
(g9
g2
Ntp109
Rp110
(dp111
g13
I01
sg14
F-0.9681926711568306
sg15
g108
sbs(I-2
I74
tp112
g0
(g9
g2
Ntp113
Rp114
(dp115
g13
I01
sg14
F-2.537390248377803
sg15
g112
sbs(I74
I0
tp116
g0
(g9
g2
Ntp117
Rp118
(dp119
g13
I01
sg14
F0.7095134868979223
sg15
g116
sbs(I-19
I74
tp120
g0
(g9
g2
Ntp121
Rp122
(dp123
g13
I01
sg14
F0.7690827155677683
sg15
g120
sbs(I74
I9
tp124
g0
(g9
g2
Ntp125
Rp126
(dp127
g13
I01
sg14
F0.4503197701053575
sg15
g124
sbs(I-14
I74
tp128
g0
(g9
g2
Ntp129
Rp130
(dp131
g13
I01
sg14
F1.2529651804666
sg15
g128
sbssS'nodes'
p132
(dp133
I0
g0
(cneat.genes
DefaultNodeGene
p134
g2
Ntp135
Rp136
(dp137
S'activation'
p138
S'relu'
p139
sS'bias'
p140
F-4.1160801536096105
sS'response'
p141
F1.0
sg15
I0
sS'aggregation'
p142
S'sum'
p143
sbsI1
g0
(g134
g2
Ntp144
Rp145
(dp146
g138
g139
sg140
F-12.789840803196276
sg141
F1.0
sg15
I1
sg142
g143
sbsI2
g0
(g134
g2
Ntp147
Rp148
(dp149
g138
g139
sg140
F16.03382676398234
sg141
F1.0
sg15
I2
sg142
g143
sbsI3
g0
(g134
g2
Ntp150
Rp151
(dp152
g138
g139
sg140
F-7.584701616280489
sg141
F1.0
sg15
I3
sg142
g143
sbsI4
g0
(g134
g2
Ntp153
Rp154
(dp155
g138
g139
sg140
F2.050980749532871
sg141
F1.0
sg15
I4
sg142
g143
sbsI5
g0
(g134
g2
Ntp156
Rp157
(dp158
g138
g139
sg140
F-1.9186551400529597
sg141
F1.0
sg15
I5
sg142
g143
sbsI6
g0
(g134
g2
Ntp159
Rp160
(dp161
g138
g139
sg140
F-4.001792837076351
sg141
F1.0
sg15
I6
sg142
g143
sbsI7
g0
(g134
g2
Ntp162
Rp163
(dp164
g138
g139
sg140
F1.0104356747529428
sg141
F1.0
sg15
I7
sg142
g143
sbsI8
g0
(g134
g2
Ntp165
Rp166
(dp167
g138
g139
sg140
F11.305560324879453
sg141
F1.0
sg15
I8
sg142
g143
sbsI9
g0
(g134
g2
Ntp168
Rp169
(dp170
g138
g139
sg140
F-2.9184015939933228
sg141
F1.0
sg15
I9
sg142
g143
sbsI74
g0
(g134
g2
Ntp171
Rp172
(dp173
g138
g139
sg140
F6.8875180888108245
sg141
F1.0
sg15
I74
sg142
g143
sbssg15
I65
sS'fitness'
p174
F0.07505628785291041
sb.