ccopy_reg
_reconstructor
p0
(cneat.genome
DefaultGenome
p1
c__builtin__
object
p2
Ntp3
Rp4
(dp5
S'connections'
p6
(dp7
(I-7
I74
tp8
g0
(cneat.genes
DefaultConnectionGene
p9
g2
Ntp10
Rp11
(dp12
S'enabled'
p13
I01
sS'weight'
p14
F-0.044624934500448875
sS'key'
p15
g8
sbs(I74
I4
tp16
g0
(g9
g2
Ntp17
Rp18
(dp19
g13
I01
sg14
F-1.47903534332251
sg15
g16
sbs(I-3
I74
tp20
g0
(g9
g2
Ntp21
Rp22
(dp23
g13
I01
sg14
F-0.5264247437034182
sg15
g20
sbs(I-11
I74
tp24
g0
(g9
g2
Ntp25
Rp26
(dp27
g13
I01
sg14
F0.4795654037337105
sg15
g24
sbs(I74
I1
tp28
g0
(g9
g2
Ntp29
Rp30
(dp31
g13
I01
sg14
F-0.17057120563199943
sg15
g28
sbs(I-6
I74
tp32
g0
(g9
g2
Ntp33
Rp34
(dp35
g13
I01
sg14
F-1.538102417519736
sg15
g32
sbs(I74
I5
tp36
g0
(g9
g2
Ntp37
Rp38
(dp39
g13
I01
sg14
F0.7479229265646536
sg15
g36
sbs(I-1
I74
tp40
g0
(g9
g2
Ntp41
Rp42
(dp43
g13
I01
sg14
F0.6215488723265328
sg15
g40
sbs(I74
I2
tp44
g0
(g9
g2
Ntp45
Rp46
(dp47
g13
I01
sg14
F-0.5358035384769885
sg15
g44
sbs(I-16
I74
tp48
g0
(g9
g2
Ntp49
Rp50
(dp51
g13
I01
sg14
F0.42975230508940915
sg15
g48
sbs(I74
I7
tp52
g0
(g9
g2
Ntp53
Rp54
(dp55
g13
I01
sg14
F-0.5237532996948182
sg15
g52
sbs(I74
I6
tp56
g0
(g9
g2
Ntp57
Rp58
(dp59
g13
I01
sg14
F2.1911103734504858
sg15
g56
sbs(I-5
I74
tp60
g0
(g9
g2
Ntp61
Rp62
(dp63
g13
I01
sg14
F-0.8663388981532135
sg15
g60
sbs(I-20
I74
tp64
g0
(g9
g2
Ntp65
Rp66
(dp67
g13
I01
sg14
F-0.738775690752821
sg15
g64
sbs(I-13
I74
tp68
g0
(g9
g2
Ntp69
Rp70
(dp71
g13
I01
sg14
F0.009619232269963343
sg15
g68
sbs(I-10
I74
tp72
g0
(g9
g2
Ntp73
Rp74
(dp75
g13
I01
sg14
F1.0370527930704272
sg15
g72
sbs(I74
I3
tp76
g0
(g9
g2
Ntp77
Rp78
(dp79
g13
I01
sg14
F-1.9136415328121554
sg15
g76
sbs(I-8
I74
tp80
g0
(g9
g2
Ntp81
Rp82
(dp83
g13
I01
sg14
F-0.923151169626393
sg15
g80
sbs(I74
I8
tp84
g0
(g9
g2
Ntp85
Rp86
(dp87
g13
I01
sg14
F1.0254252725358501
sg15
g84
sbs(I-18
I74
tp88
g0
(g9
g2
Ntp89
Rp90
(dp91
g13
I01
sg14
F1.7095422770296709
sg15
g88
sbs(I-9
I74
tp92
g0
(g9
g2
Ntp93
Rp94
(dp95
g13
I01
sg14
F-0.37819590331861125
sg15
g92
sbs(I-15
I74
tp96
g0
(g9
g2
Ntp97
Rp98
(dp99
g13
I01
sg14
F0.29755180908988843
sg15
g96
sbs(I-4
I74
tp100
g0
(g9
g2
Ntp101
Rp102
(dp103
g13
I01
sg14
F1.0044483829506055
sg15
g100
sbs(I-17
I74
tp104
g0
(g9
g2
Ntp105
Rp106
(dp107
g13
I01
sg14
F-0.9744719284472184
sg15
g104
sbs(I-12
I74
tp108
g0
(g9
g2
Ntp109
Rp110
(dp111
g13
I01
sg14
F0.8983302058409098
sg15
g108
sbs(I-2
I74
tp112
g0
(g9
g2
Ntp113
Rp114
(dp115
g13
I01
sg14
F1.0762516342008757
sg15
g112
sbs(I74
I0
tp116
g0
(g9
g2
Ntp117
Rp118
(dp119
g13
I01
sg14
F1.8036965289353701
sg15
g116
sbs(I-19
I74
tp120
g0
(g9
g2
Ntp121
Rp122
(dp123
g13
I01
sg14
F-1.5757428027150913
sg15
g120
sbs(I74
I9
tp124
g0
(g9
g2
Ntp125
Rp126
(dp127
g13
I01
sg14
F0.23517302405712504
sg15
g124
sbs(I-14
I74
tp128
g0
(g9
g2
Ntp129
Rp130
(dp131
g13
I01
sg14
F1.8528206367752174
sg15
g128
sbssS'nodes'
p132
(dp133
I0
g0
(cneat.genes
DefaultNodeGene
p134
g2
Ntp135
Rp136
(dp137
S'activation'
p138
S'relu'
p139
sS'bias'
p140
F12.869479804747597
sS'response'
p141
F1.0
sg15
I0
sS'aggregation'
p142
S'sum'
p143
sbsI1
g0
(g134
g2
Ntp144
Rp145
(dp146
g138
g139
sg140
F-8.00637302074116
sg141
F1.0
sg15
I1
sg142
g143
sbsI2
g0
(g134
g2
Ntp147
Rp148
(dp149
g138
g139
sg140
F-3.374979748782561
sg141
F1.0
sg15
I2
sg142
g143
sbsI3
g0
(g134
g2
Ntp150
Rp151
(dp152
g138
g139
sg140
F-1.0870290292613456
sg141
F1.0
sg15
I3
sg142
g143
sbsI4
g0
(g134
g2
Ntp153
Rp154
(dp155
g138
g139
sg140
F-4.0196712865629145
sg141
F1.0
sg15
I4
sg142
g143
sbsI5
g0
(g134
g2
Ntp156
Rp157
(dp158
g138
g139
sg140
F6.563461781216898
sg141
F1.0
sg15
I5
sg142
g143
sbsI6
g0
(g134
g2
Ntp159
Rp160
(dp161
g138
g139
sg140
F11.752831731830302
sg141
F1.0
sg15
I6
sg142
g143
sbsI7
g0
(g134
g2
Ntp162
Rp163
(dp164
g138
g139
sg140
F2.516061456459787
sg141
F1.0
sg15
I7
sg142
g143
sbsI8
g0
(g134
g2
Ntp165
Rp166
(dp167
g138
g139
sg140
F0.15118494983110775
sg141
F1.0
sg15
I8
sg142
g143
sbsI9
g0
(g134
g2
Ntp168
Rp169
(dp170
g138
g139
sg140
F8.494088982208307
sg141
F1.0
sg15
I9
sg142
g143
sbsI74
g0
(g134
g2
Ntp171
Rp172
(dp173
g138
g139
sg140
F-14.957061967963035
sg141
F1.0
sg15
I74
sg142
g143
sbssg15
I65
sS'fitness'
p174
Nsb.