ccopy_reg
_reconstructor
p0
(cneat.genome
DefaultGenome
p1
c__builtin__
object
p2
Ntp3
Rp4
(dp5
S'connections'
p6
(dp7
(I329
I3
tp8
g0
(cneat.genes
DefaultConnectionGene
p9
g2
Ntp10
Rp11
(dp12
S'enabled'
p13
I01
sS'weight'
p14
F1.922706424272839
sS'key'
p15
g8
sbs(I-8
I1
tp16
g0
(g9
g2
Ntp17
Rp18
(dp19
g13
I01
sg14
F-0.7676710234009271
sg15
g16
sbs(I328
I7
tp20
g0
(g9
g2
Ntp21
Rp22
(dp23
g13
I01
sg14
F-2.460094762185475
sg15
g20
sbs(I-5
I328
tp24
g0
(g9
g2
Ntp25
Rp26
(dp27
g13
I01
sg14
F-0.3873754458428178
sg15
g24
sbs(I329
I6
tp28
g0
(g9
g2
Ntp29
Rp30
(dp31
g13
I00
sg14
F-2.0633718060620603
sg15
g28
sbs(I-7
I329
tp32
g0
(g9
g2
Ntp33
Rp34
(dp35
g13
I01
sg14
F-0.15455107744403684
sg15
g32
sbs(I3
I3
tp36
g0
(g9
g2
Ntp37
Rp38
(dp39
g13
I01
sg14
F1.6345298965479196
sg15
g36
sbs(I-3
I329
tp40
g0
(g9
g2
Ntp41
Rp42
(dp43
g13
I00
sg14
F-0.26011620569899674
sg15
g40
sbs(I4
I4
tp44
g0
(g9
g2
Ntp45
Rp46
(dp47
g13
I01
sg14
F0.22848687721346383
sg15
g44
sbs(I-9
I328
tp48
g0
(g9
g2
Ntp49
Rp50
(dp51
g13
I01
sg14
F0.7763336833719398
sg15
g48
sbs(I-4
I3
tp52
g0
(g9
g2
Ntp53
Rp54
(dp55
g13
I01
sg14
F0.817484317034699
sg15
g52
sbs(I3
I328
tp56
g0
(g9
g2
Ntp57
Rp58
(dp59
g13
I00
sg14
F-0.17589130282908474
sg15
g56
sbs(I328
I8
tp60
g0
(g9
g2
Ntp61
Rp62
(dp63
g13
I00
sg14
F1.6923894136112958
sg15
g60
sbs(I726
I1
tp64
g0
(g9
g2
Ntp65
Rp66
(dp67
g13
I01
sg14
F-0.4781123430509906
sg15
g64
sbs(I1
I1
tp68
g0
(g9
g2
Ntp69
Rp70
(dp71
g13
I01
sg14
F4.629956797895043
sg15
g68
sbs(I-8
I329
tp72
g0
(g9
g2
Ntp73
Rp74
(dp75
g13
I01
sg14
F-0.8104753897916137
sg15
g72
sbs(I0
I0
tp76
g0
(g9
g2
Ntp77
Rp78
(dp79
g13
I00
sg14
F0.14683464999732176
sg15
g76
sbs(I-4
I329
tp80
g0
(g9
g2
Ntp81
Rp82
(dp83
g13
I01
sg14
F-1.4114315828618134
sg15
g80
sbs(I328
I9
tp84
g0
(g9
g2
Ntp85
Rp86
(dp87
g13
I01
sg14
F0.23605015497777831
sg15
g84
sbs(I-3
I1
tp88
g0
(g9
g2
Ntp89
Rp90
(dp91
g13
I01
sg14
F-0.03867527465818066
sg15
g88
sbs(I8
I754
tp92
g0
(g9
g2
Ntp93
Rp94
(dp95
g13
I01
sg14
F1.7016310853514756
sg15
g92
sbs(I328
I5
tp96
g0
(g9
g2
Ntp97
Rp98
(dp99
g13
I00
sg14
F0.22414962289207427
sg15
g96
sbs(I329
I0
tp100
g0
(g9
g2
Ntp101
Rp102
(dp103
g13
I01
sg14
F-0.15942324517471637
sg15
g100
sbs(I328
I1
tp104
g0
(g9
g2
Ntp105
Rp106
(dp107
g13
I00
sg14
F0.91615556250926
sg15
g104
sbs(I328
I726
tp108
g0
(g9
g2
Ntp109
Rp110
(dp111
g13
I01
sg14
F-0.3187816858232418
sg15
g108
sbs(I8
I8
tp112
g0
(g9
g2
Ntp113
Rp114
(dp115
g13
I00
sg14
F2.4241329404719902
sg15
g112
sbs(I754
I8
tp116
g0
(g9
g2
Ntp117
Rp118
(dp119
g13
I01
sg14
F2.653934848097156
sg15
g116
sbs(I-5
I329
tp120
g0
(g9
g2
Ntp121
Rp122
(dp123
g13
I00
sg14
F2.997139066801786
sg15
g120
sbssS'nodes'
p124
(dp125
I0
g0
(cneat.genes
DefaultNodeGene
p126
g2
Ntp127
Rp128
(dp129
S'activation'
p130
S'tanh'
p131
sS'bias'
p132
F3.6017911353082237
sS'response'
p133
F1.0
sg15
I0
sS'aggregation'
p134
S'sum'
p135
sbsI1
g0
(g126
g2
Ntp136
Rp137
(dp138
g130
g131
sg132
F-16.972948703461217
sg133
F1.0
sg15
I1
sg134
g135
sbsI2
g0
(g126
g2
Ntp139
Rp140
(dp141
g130
g131
sg132
F1.2391746962611125
sg133
F1.0
sg15
I2
sg134
g135
sbsI3
g0
(g126
g2
Ntp142
Rp143
(dp144
g130
g131
sg132
F12.422825490496574
sg133
F1.0
sg15
I3
sg134
g135
sbsI4
g0
(g126
g2
Ntp145
Rp146
(dp147
g130
g131
sg132
F3.563835230354517
sg133
F1.0
sg15
I4
sg134
g135
sbsI5
g0
(g126
g2
Ntp148
Rp149
(dp150
g130
g131
sg132
F1.3445823223815019
sg133
F1.0
sg15
I5
sg134
g135
sbsI6
g0
(g126
g2
Ntp151
Rp152
(dp153
g130
g131
sg132
F-4.0332905360695
sg133
F1.0
sg15
I6
sg134
g135
sbsI7
g0
(g126
g2
Ntp154
Rp155
(dp156
g130
g131
sg132
F-10.618403673302549
sg133
F1.0
sg15
I7
sg134
g135
sbsI8
g0
(g126
g2
Ntp157
Rp158
(dp159
g130
g131
sg132
F26.893501927667305
sg133
F1.0
sg15
I8
sg134
g135
sbsI9
g0
(g126
g2
Ntp160
Rp161
(dp162
g130
g131
sg132
F18.9159174165229
sg133
F1.0
sg15
I9
sg134
g135
sbsI328
g0
(g126
g2
Ntp163
Rp164
(dp165
g130
g131
sg132
F-15.391626247401682
sg133
F1.0
sg15
I328
sg134
g135
sbsI754
g0
(g126
g2
Ntp166
Rp167
(dp168
g130
S'relu'
p169
sg132
F-12.038384988145236
sg133
F1.0
sg15
I754
sg134
g135
sbsI726
g0
(g126
g2
Ntp170
Rp171
(dp172
g130
g131
sg132
F-13.96321051236865
sg133
F1.0
sg15
I726
sg134
g135
sbsI329
g0
(g126
g2
Ntp173
Rp174
(dp175
g130
g131
sg132
F-9.316583937919848
sg133
F1.0
sg15
I329
sg134
g135
sbssg15
I65
sS'fitness'
p176
F0.10871304558530448
sb.