ccopy_reg
_reconstructor
p0
(cneat.genome
DefaultGenome
p1
c__builtin__
object
p2
Ntp3
Rp4
(dp5
S'connections'
p6
(dp7
(I-18
I75
tp8
g0
(cneat.genes
DefaultConnectionGene
p9
g2
Ntp10
Rp11
(dp12
S'enabled'
p13
I01
sS'weight'
p14
F-0.9272788611755352
sS'key'
p15
g8
sbs(I75
I4
tp16
g0
(g9
g2
Ntp17
Rp18
(dp19
g13
I01
sg14
F0.979102263265266
sg15
g16
sbs(I-4
I75
tp20
g0
(g9
g2
Ntp21
Rp22
(dp23
g13
I01
sg14
F-0.2748696259237375
sg15
g20
sbs(I75
I9
tp24
g0
(g9
g2
Ntp25
Rp26
(dp27
g13
I01
sg14
F1.60563230200105
sg15
g24
sbs(I-12
I75
tp28
g0
(g9
g2
Ntp29
Rp30
(dp31
g13
I01
sg14
F-0.486805471133842
sg15
g28
sbs(I-2
I75
tp32
g0
(g9
g2
Ntp33
Rp34
(dp35
g13
I01
sg14
F-0.9455777778107668
sg15
g32
sbs(I-14
I75
tp36
g0
(g9
g2
Ntp37
Rp38
(dp39
g13
I01
sg14
F0.8470761893208363
sg15
g36
sbs(I75
I7
tp40
g0
(g9
g2
Ntp41
Rp42
(dp43
g13
I01
sg14
F0.756959072899715
sg15
g40
sbs(I75
I8
tp44
g0
(g9
g2
Ntp45
Rp46
(dp47
g13
I01
sg14
F1.7794609769457423
sg15
g44
sbs(I75
I3
tp48
g0
(g9
g2
Ntp49
Rp50
(dp51
g13
I01
sg14
F-0.5176718097155976
sg15
g48
sbs(I-1
I75
tp52
g0
(g9
g2
Ntp53
Rp54
(dp55
g13
I01
sg14
F0.6625825628273829
sg15
g52
sbs(I-6
I75
tp56
g0
(g9
g2
Ntp57
Rp58
(dp59
g13
I01
sg14
F1.1176226287716724
sg15
g56
sbs(I-5
I75
tp60
g0
(g9
g2
Ntp61
Rp62
(dp63
g13
I01
sg14
F-0.5609242651060709
sg15
g60
sbs(I-13
I75
tp64
g0
(g9
g2
Ntp65
Rp66
(dp67
g13
I01
sg14
F1.8736157206759443
sg15
g64
sbs(I75
I6
tp68
g0
(g9
g2
Ntp69
Rp70
(dp71
g13
I01
sg14
F-0.24943598431748085
sg15
g68
sbs(I-9
I75
tp72
g0
(g9
g2
Ntp73
Rp74
(dp75
g13
I01
sg14
F1.077170805103025
sg15
g72
sbs(I75
I2
tp76
g0
(g9
g2
Ntp77
Rp78
(dp79
g13
I01
sg14
F1.8252282677142273
sg15
g76
sbs(I-15
I75
tp80
g0
(g9
g2
Ntp81
Rp82
(dp83
g13
I01
sg14
F-1.1605215383418637
sg15
g80
sbs(I-17
I75
tp84
g0
(g9
g2
Ntp85
Rp86
(dp87
g13
I01
sg14
F-1.3233619691615992
sg15
g84
sbs(I-19
I75
tp88
g0
(g9
g2
Ntp89
Rp90
(dp91
g13
I01
sg14
F0.7793422062669101
sg15
g88
sbs(I75
I0
tp92
g0
(g9
g2
Ntp93
Rp94
(dp95
g13
I01
sg14
F0.5181226971341577
sg15
g92
sbs(I-16
I75
tp96
g0
(g9
g2
Ntp97
Rp98
(dp99
g13
I01
sg14
F-0.360732551106927
sg15
g96
sbs(I-7
I75
tp100
g0
(g9
g2
Ntp101
Rp102
(dp103
g13
I01
sg14
F0.08582849003088301
sg15
g100
sbs(I75
I5
tp104
g0
(g9
g2
Ntp105
Rp106
(dp107
g13
I01
sg14
F0.05044134604969033
sg15
g104
sbs(I-3
I75
tp108
g0
(g9
g2
Ntp109
Rp110
(dp111
g13
I01
sg14
F-0.2671413531724956
sg15
g108
sbs(I75
I1
tp112
g0
(g9
g2
Ntp113
Rp114
(dp115
g13
I01
sg14
F-1.132127677958263
sg15
g112
sbs(I-20
I75
tp116
g0
(g9
g2
Ntp117
Rp118
(dp119
g13
I01
sg14
F-0.6742728022514569
sg15
g116
sbs(I-11
I75
tp120
g0
(g9
g2
Ntp121
Rp122
(dp123
g13
I01
sg14
F0.5121884793720328
sg15
g120
sbs(I-10
I75
tp124
g0
(g9
g2
Ntp125
Rp126
(dp127
g13
I01
sg14
F-0.3792601075497614
sg15
g124
sbs(I-8
I75
tp128
g0
(g9
g2
Ntp129
Rp130
(dp131
g13
I01
sg14
F-0.14707998205861714
sg15
g128
sbssS'nodes'
p132
(dp133
I0
g0
(cneat.genes
DefaultNodeGene
p134
g2
Ntp135
Rp136
(dp137
S'activation'
p138
S'relu'
p139
sS'bias'
p140
F7.893381655351572
sS'response'
p141
F1.0
sg15
I0
sS'aggregation'
p142
S'sum'
p143
sbsI1
g0
(g134
g2
Ntp144
Rp145
(dp146
g138
g139
sg140
F0.10245321471550847
sg141
F1.0
sg15
I1
sg142
g143
sbsI2
g0
(g134
g2
Ntp147
Rp148
(dp149
g138
g139
sg140
F-3.52452265215021
sg141
F1.0
sg15
I2
sg142
g143
sbsI3
g0
(g134
g2
Ntp150
Rp151
(dp152
g138
g139
sg140
F2.3544848399857505
sg141
F1.0
sg15
I3
sg142
g143
sbsI4
g0
(g134
g2
Ntp153
Rp154
(dp155
g138
g139
sg140
F9.14325188601871
sg141
F1.0
sg15
I4
sg142
g143
sbsI5
g0
(g134
g2
Ntp156
Rp157
(dp158
g138
g139
sg140
F-0.35456317148926614
sg141
F1.0
sg15
I5
sg142
g143
sbsI6
g0
(g134
g2
Ntp159
Rp160
(dp161
g138
g139
sg140
F7.352858790596689
sg141
F1.0
sg15
I6
sg142
g143
sbsI7
g0
(g134
g2
Ntp162
Rp163
(dp164
g138
g139
sg140
F-9.815719354411257
sg141
F1.0
sg15
I7
sg142
g143
sbsI8
g0
(g134
g2
Ntp165
Rp166
(dp167
g138
g139
sg140
F-2.0612152638271657
sg141
F1.0
sg15
I8
sg142
g143
sbsI9
g0
(g134
g2
Ntp168
Rp169
(dp170
g138
g139
sg140
F-6.6128828873894925
sg141
F1.0
sg15
I9
sg142
g143
sbsI75
g0
(g134
g2
Ntp171
Rp172
(dp173
g138
g139
sg140
F-11.345996791841335
sg141
F1.0
sg15
I75
sg142
g143
sbssg15
I66
sS'fitness'
p174
Nsb.