ccopy_reg
_reconstructor
p0
(cneat.genome
DefaultGenome
p1
c__builtin__
object
p2
Ntp3
Rp4
(dp5
S'connections'
p6
(dp7
(I76
I2
tp8
g0
(cneat.genes
DefaultConnectionGene
p9
g2
Ntp10
Rp11
(dp12
S'enabled'
p13
I01
sS'weight'
p14
F-0.14141532921478575
sS'key'
p15
g8
sbs(I-1
I76
tp16
g0
(g9
g2
Ntp17
Rp18
(dp19
g13
I01
sg14
F-0.014891225731489922
sg15
g16
sbs(I76
I1
tp20
g0
(g9
g2
Ntp21
Rp22
(dp23
g13
I01
sg14
F0.3774183529244303
sg15
g20
sbs(I-2
I76
tp24
g0
(g9
g2
Ntp25
Rp26
(dp27
g13
I01
sg14
F-1.6818944114072374
sg15
g24
sbs(I-10
I76
tp28
g0
(g9
g2
Ntp29
Rp30
(dp31
g13
I01
sg14
F0.4847571897679016
sg15
g28
sbs(I76
I7
tp32
g0
(g9
g2
Ntp33
Rp34
(dp35
g13
I01
sg14
F-0.9358186836904889
sg15
g32
sbs(I76
I0
tp36
g0
(g9
g2
Ntp37
Rp38
(dp39
g13
I01
sg14
F1.5129042636244538
sg15
g36
sbs(I-5
I76
tp40
g0
(g9
g2
Ntp41
Rp42
(dp43
g13
I01
sg14
F-0.09118611915754447
sg15
g40
sbs(I76
I6
tp44
g0
(g9
g2
Ntp45
Rp46
(dp47
g13
I01
sg14
F-0.25169577479043875
sg15
g44
sbs(I-7
I76
tp48
g0
(g9
g2
Ntp49
Rp50
(dp51
g13
I01
sg14
F-0.5458100815588769
sg15
g48
sbs(I76
I5
tp52
g0
(g9
g2
Ntp53
Rp54
(dp55
g13
I01
sg14
F0.5041277045131826
sg15
g52
sbs(I-3
I76
tp56
g0
(g9
g2
Ntp57
Rp58
(dp59
g13
I01
sg14
F-0.9340546299727774
sg15
g56
sbs(I76
I4
tp60
g0
(g9
g2
Ntp61
Rp62
(dp63
g13
I01
sg14
F-0.5188944532899167
sg15
g60
sbs(I-8
I76
tp64
g0
(g9
g2
Ntp65
Rp66
(dp67
g13
I01
sg14
F0.8548707248958878
sg15
g64
sbs(I-9
I76
tp68
g0
(g9
g2
Ntp69
Rp70
(dp71
g13
I01
sg14
F3.1972700169699535
sg15
g68
sbs(I-4
I76
tp72
g0
(g9
g2
Ntp73
Rp74
(dp75
g13
I01
sg14
F0.3509653533874527
sg15
g72
sbs(I76
I9
tp76
g0
(g9
g2
Ntp77
Rp78
(dp79
g13
I01
sg14
F-1.423028552425971
sg15
g76
sbs(I-6
I76
tp80
g0
(g9
g2
Ntp81
Rp82
(dp83
g13
I01
sg14
F-0.2944827774446335
sg15
g80
sbs(I76
I3
tp84
g0
(g9
g2
Ntp85
Rp86
(dp87
g13
I01
sg14
F0.8122961326324161
sg15
g84
sbs(I76
I8
tp88
g0
(g9
g2
Ntp89
Rp90
(dp91
g13
I01
sg14
F-0.3455224340771589
sg15
g88
sbssS'nodes'
p92
(dp93
I0
g0
(cneat.genes
DefaultNodeGene
p94
g2
Ntp95
Rp96
(dp97
S'activation'
p98
S'relu'
p99
sS'bias'
p100
F-1.854056662515847
sS'response'
p101
F1.0
sg15
I0
sS'aggregation'
p102
S'sum'
p103
sbsI1
g0
(g94
g2
Ntp104
Rp105
(dp106
g98
g99
sg100
F-7.425086947998851
sg101
F1.0
sg15
I1
sg102
g103
sbsI2
g0
(g94
g2
Ntp107
Rp108
(dp109
g98
g99
sg100
F-0.27952138114904723
sg101
F1.0
sg15
I2
sg102
g103
sbsI3
g0
(g94
g2
Ntp110
Rp111
(dp112
g98
g99
sg100
F-9.724049174675882
sg101
F1.0
sg15
I3
sg102
g103
sbsI4
g0
(g94
g2
Ntp113
Rp114
(dp115
g98
g99
sg100
F3.069643096300025
sg101
F1.0
sg15
I4
sg102
g103
sbsI5
g0
(g94
g2
Ntp116
Rp117
(dp118
g98
g99
sg100
F-1.7249749749320453
sg101
F1.0
sg15
I5
sg102
g103
sbsI6
g0
(g94
g2
Ntp119
Rp120
(dp121
g98
g99
sg100
F-14.288241310036705
sg101
F1.0
sg15
I6
sg102
g103
sbsI7
g0
(g94
g2
Ntp122
Rp123
(dp124
g98
g99
sg100
F-6.100237012634473
sg101
F1.0
sg15
I7
sg102
g103
sbsI8
g0
(g94
g2
Ntp125
Rp126
(dp127
g98
g99
sg100
F1.4302543884241832
sg101
F1.0
sg15
I8
sg102
g103
sbsI9
g0
(g94
g2
Ntp128
Rp129
(dp130
g98
g99
sg100
F7.346269055066235
sg101
F1.0
sg15
I9
sg102
g103
sbsI76
g0
(g94
g2
Ntp131
Rp132
(dp133
g98
g99
sg100
F-3.0679104778731814
sg101
F1.0
sg15
I76
sg102
g103
sbssg15
I67
sS'fitness'
p134
F-0.024075609249539554
sb.