ccopy_reg
_reconstructor
p0
(cneat.genome
DefaultGenome
p1
c__builtin__
object
p2
Ntp3
Rp4
(dp5
S'connections'
p6
(dp7
(I-10
I76
tp8
g0
(cneat.genes
DefaultConnectionGene
p9
g2
Ntp10
Rp11
(dp12
S'enabled'
p13
I01
sS'weight'
p14
F0.8927807588742246
sS'key'
p15
g8
sbs(I76
I7
tp16
g0
(g9
g2
Ntp17
Rp18
(dp19
g13
I01
sg14
F-1.2681146491758957
sg15
g16
sbs(I-5
I76
tp20
g0
(g9
g2
Ntp21
Rp22
(dp23
g13
I01
sg14
F-0.25295004821380157
sg15
g20
sbs(I-18
I76
tp24
g0
(g9
g2
Ntp25
Rp26
(dp27
g13
I01
sg14
F0.26305854153394265
sg15
g24
sbs(I-13
I76
tp28
g0
(g9
g2
Ntp29
Rp30
(dp31
g13
I01
sg14
F-0.9009556620023191
sg15
g28
sbs(I-15
I76
tp32
g0
(g9
g2
Ntp33
Rp34
(dp35
g13
I01
sg14
F0.07096054837922591
sg15
g32
sbs(I-8
I76
tp36
g0
(g9
g2
Ntp37
Rp38
(dp39
g13
I01
sg14
F-0.4365049898177463
sg15
g36
sbs(I-1
I76
tp40
g0
(g9
g2
Ntp41
Rp42
(dp43
g13
I01
sg14
F-0.22004423909603654
sg15
g40
sbs(I76
I0
tp44
g0
(g9
g2
Ntp45
Rp46
(dp47
g13
I01
sg14
F-0.14436788589919983
sg15
g44
sbs(I-20
I76
tp48
g0
(g9
g2
Ntp49
Rp50
(dp51
g13
I01
sg14
F0.20029589188058414
sg15
g48
sbs(I-7
I76
tp52
g0
(g9
g2
Ntp53
Rp54
(dp55
g13
I01
sg14
F0.2515843412065312
sg15
g52
sbs(I76
I4
tp56
g0
(g9
g2
Ntp57
Rp58
(dp59
g13
I01
sg14
F-0.2595948806444389
sg15
g56
sbs(I-9
I76
tp60
g0
(g9
g2
Ntp61
Rp62
(dp63
g13
I01
sg14
F0.4964773153996792
sg15
g60
sbs(I-4
I76
tp64
g0
(g9
g2
Ntp65
Rp66
(dp67
g13
I01
sg14
F-1.794085442553387
sg15
g64
sbs(I76
I8
tp68
g0
(g9
g2
Ntp69
Rp70
(dp71
g13
I01
sg14
F0.3270607672563466
sg15
g68
sbs(I-17
I76
tp72
g0
(g9
g2
Ntp73
Rp74
(dp75
g13
I01
sg14
F1.0955377086050684
sg15
g72
sbs(I-19
I76
tp76
g0
(g9
g2
Ntp77
Rp78
(dp79
g13
I01
sg14
F-0.11832258872012053
sg15
g76
sbs(I-12
I76
tp80
g0
(g9
g2
Ntp81
Rp82
(dp83
g13
I01
sg14
F-1.6083069109314425
sg15
g80
sbs(I76
I1
tp84
g0
(g9
g2
Ntp85
Rp86
(dp87
g13
I01
sg14
F-1.866203124881115
sg15
g84
sbs(I-14
I76
tp88
g0
(g9
g2
Ntp89
Rp90
(dp91
g13
I01
sg14
F0.7467554306624187
sg15
g88
sbs(I-2
I76
tp92
g0
(g9
g2
Ntp93
Rp94
(dp95
g13
I01
sg14
F0.18502438227883103
sg15
g92
sbs(I76
I5
tp96
g0
(g9
g2
Ntp97
Rp98
(dp99
g13
I01
sg14
F-1.7097007086427773
sg15
g96
sbs(I-3
I76
tp100
g0
(g9
g2
Ntp101
Rp102
(dp103
g13
I01
sg14
F1.4951736913810205
sg15
g100
sbs(I-11
I76
tp104
g0
(g9
g2
Ntp105
Rp106
(dp107
g13
I01
sg14
F0.3088431923251899
sg15
g104
sbs(I76
I9
tp108
g0
(g9
g2
Ntp109
Rp110
(dp111
g13
I01
sg14
F-1.667801660924438
sg15
g108
sbs(I-6
I76
tp112
g0
(g9
g2
Ntp113
Rp114
(dp115
g13
I01
sg14
F0.46450622798235364
sg15
g112
sbs(I76
I2
tp116
g0
(g9
g2
Ntp117
Rp118
(dp119
g13
I01
sg14
F1.3621606183392636
sg15
g116
sbs(I76
I6
tp120
g0
(g9
g2
Ntp121
Rp122
(dp123
g13
I01
sg14
F-0.05417507185459979
sg15
g120
sbs(I76
I3
tp124
g0
(g9
g2
Ntp125
Rp126
(dp127
g13
I01
sg14
F0.9888239640143642
sg15
g124
sbs(I-16
I76
tp128
g0
(g9
g2
Ntp129
Rp130
(dp131
g13
I01
sg14
F-1.214728102340697
sg15
g128
sbssS'nodes'
p132
(dp133
I0
g0
(cneat.genes
DefaultNodeGene
p134
g2
Ntp135
Rp136
(dp137
S'activation'
p138
S'relu'
p139
sS'bias'
p140
F-9.478029224189175
sS'response'
p141
F1.0
sg15
I0
sS'aggregation'
p142
S'sum'
p143
sbsI1
g0
(g134
g2
Ntp144
Rp145
(dp146
g138
g139
sg140
F6.472580218732923
sg141
F1.0
sg15
I1
sg142
g143
sbsI2
g0
(g134
g2
Ntp147
Rp148
(dp149
g138
g139
sg140
F-7.282791759734087
sg141
F1.0
sg15
I2
sg142
g143
sbsI3
g0
(g134
g2
Ntp150
Rp151
(dp152
g138
g139
sg140
F11.971248939845678
sg141
F1.0
sg15
I3
sg142
g143
sbsI4
g0
(g134
g2
Ntp153
Rp154
(dp155
g138
g139
sg140
F6.405138761590221
sg141
F1.0
sg15
I4
sg142
g143
sbsI5
g0
(g134
g2
Ntp156
Rp157
(dp158
g138
g139
sg140
F-1.1520238373053109
sg141
F1.0
sg15
I5
sg142
g143
sbsI6
g0
(g134
g2
Ntp159
Rp160
(dp161
g138
g139
sg140
F-1.0538946316202074
sg141
F1.0
sg15
I6
sg142
g143
sbsI7
g0
(g134
g2
Ntp162
Rp163
(dp164
g138
g139
sg140
F15.110008320085246
sg141
F1.0
sg15
I7
sg142
g143
sbsI8
g0
(g134
g2
Ntp165
Rp166
(dp167
g138
g139
sg140
F10.921288651388235
sg141
F1.0
sg15
I8
sg142
g143
sbsI9
g0
(g134
g2
Ntp168
Rp169
(dp170
g138
g139
sg140
F21.12098135089734
sg141
F1.0
sg15
I9
sg142
g143
sbsI76
g0
(g134
g2
Ntp171
Rp172
(dp173
g138
g139
sg140
F-1.4439683102223997
sg141
F1.0
sg15
I76
sg142
g143
sbssg15
I67
sS'fitness'
p174
F0.056861252494341104
sb.