ccopy_reg
_reconstructor
p0
(cneat.genome
DefaultGenome
p1
c__builtin__
object
p2
Ntp3
Rp4
(dp5
S'connections'
p6
(dp7
(I77
I2
tp8
g0
(cneat.genes
DefaultConnectionGene
p9
g2
Ntp10
Rp11
(dp12
S'enabled'
p13
I01
sS'weight'
p14
F-0.1556638492683955
sS'key'
p15
g8
sbs(I77
I6
tp16
g0
(g9
g2
Ntp17
Rp18
(dp19
g13
I01
sg14
F-1.5151881758613095
sg15
g16
sbs(I-7
I77
tp20
g0
(g9
g2
Ntp21
Rp22
(dp23
g13
I01
sg14
F0.5258629230176979
sg15
g20
sbs(I-9
I77
tp24
g0
(g9
g2
Ntp25
Rp26
(dp27
g13
I01
sg14
F0.5694914298411274
sg15
g24
sbs(I-16
I77
tp28
g0
(g9
g2
Ntp29
Rp30
(dp31
g13
I01
sg14
F0.6778078338544556
sg15
g28
sbs(I77
I1
tp32
g0
(g9
g2
Ntp33
Rp34
(dp35
g13
I01
sg14
F0.8198312050415308
sg15
g32
sbs(I-17
I77
tp36
g0
(g9
g2
Ntp37
Rp38
(dp39
g13
I01
sg14
F0.7148778323722184
sg15
g36
sbs(I-19
I77
tp40
g0
(g9
g2
Ntp41
Rp42
(dp43
g13
I01
sg14
F-0.34058993760124895
sg15
g40
sbs(I-10
I77
tp44
g0
(g9
g2
Ntp45
Rp46
(dp47
g13
I01
sg14
F0.23943972210366177
sg15
g44
sbs(I77
I5
tp48
g0
(g9
g2
Ntp49
Rp50
(dp51
g13
I01
sg14
F0.09119307163396684
sg15
g48
sbs(I-18
I77
tp52
g0
(g9
g2
Ntp53
Rp54
(dp55
g13
I01
sg14
F-0.23401117603008642
sg15
g52
sbs(I77
I7
tp56
g0
(g9
g2
Ntp57
Rp58
(dp59
g13
I01
sg14
F0.449860528751891
sg15
g56
sbs(I-8
I77
tp60
g0
(g9
g2
Ntp61
Rp62
(dp63
g13
I01
sg14
F1.9242475164118913
sg15
g60
sbs(I-3
I77
tp64
g0
(g9
g2
Ntp65
Rp66
(dp67
g13
I01
sg14
F-1.159078479038329
sg15
g64
sbs(I77
I9
tp68
g0
(g9
g2
Ntp69
Rp70
(dp71
g13
I01
sg14
F2.7913653419435267
sg15
g68
sbs(I-11
I77
tp72
g0
(g9
g2
Ntp73
Rp74
(dp75
g13
I01
sg14
F-0.6149431111203167
sg15
g72
sbs(I77
I0
tp76
g0
(g9
g2
Ntp77
Rp78
(dp79
g13
I01
sg14
F0.7383930499554432
sg15
g76
sbs(I-20
I77
tp80
g0
(g9
g2
Ntp81
Rp82
(dp83
g13
I01
sg14
F0.7090968437973167
sg15
g80
sbs(I77
I4
tp84
g0
(g9
g2
Ntp85
Rp86
(dp87
g13
I01
sg14
F1.0178365863653414
sg15
g84
sbs(I77
I8
tp88
g0
(g9
g2
Ntp89
Rp90
(dp91
g13
I01
sg14
F0.6826971506803737
sg15
g88
sbs(I-4
I77
tp92
g0
(g9
g2
Ntp93
Rp94
(dp95
g13
I01
sg14
F-1.2114962626585293
sg15
g92
sbs(I-12
I77
tp96
g0
(g9
g2
Ntp97
Rp98
(dp99
g13
I01
sg14
F-0.05818260397976149
sg15
g96
sbs(I-14
I77
tp100
g0
(g9
g2
Ntp101
Rp102
(dp103
g13
I01
sg14
F-0.5971598888887862
sg15
g100
sbs(I77
I3
tp104
g0
(g9
g2
Ntp105
Rp106
(dp107
g13
I01
sg14
F-1.9368701727146735
sg15
g104
sbs(I-5
I77
tp108
g0
(g9
g2
Ntp109
Rp110
(dp111
g13
I01
sg14
F1.9743619174853404
sg15
g108
sbs(I-2
I77
tp112
g0
(g9
g2
Ntp113
Rp114
(dp115
g13
I01
sg14
F0.34340110148271064
sg15
g112
sbs(I-1
I77
tp116
g0
(g9
g2
Ntp117
Rp118
(dp119
g13
I01
sg14
F-0.16953170223087125
sg15
g116
sbs(I-13
I77
tp120
g0
(g9
g2
Ntp121
Rp122
(dp123
g13
I01
sg14
F-2.3703378288800447
sg15
g120
sbs(I-15
I77
tp124
g0
(g9
g2
Ntp125
Rp126
(dp127
g13
I01
sg14
F1.2206437851247294
sg15
g124
sbs(I-6
I77
tp128
g0
(g9
g2
Ntp129
Rp130
(dp131
g13
I01
sg14
F-0.02467099161432568
sg15
g128
sbssS'nodes'
p132
(dp133
I0
g0
(cneat.genes
DefaultNodeGene
p134
g2
Ntp135
Rp136
(dp137
S'activation'
p138
S'relu'
p139
sS'bias'
p140
F-2.1888873476416864
sS'response'
p141
F1.0
sg15
I0
sS'aggregation'
p142
S'sum'
p143
sbsI1
g0
(g134
g2
Ntp144
Rp145
(dp146
g138
g139
sg140
F5.6182226376854505
sg141
F1.0
sg15
I1
sg142
g143
sbsI2
g0
(g134
g2
Ntp147
Rp148
(dp149
g138
g139
sg140
F1.7334969688403359
sg141
F1.0
sg15
I2
sg142
g143
sbsI3
g0
(g134
g2
Ntp150
Rp151
(dp152
g138
g139
sg140
F-9.477918761278175
sg141
F1.0
sg15
I3
sg142
g143
sbsI4
g0
(g134
g2
Ntp153
Rp154
(dp155
g138
g139
sg140
F-5.0200353200947205
sg141
F1.0
sg15
I4
sg142
g143
sbsI5
g0
(g134
g2
Ntp156
Rp157
(dp158
g138
g139
sg140
F-9.784073713596932
sg141
F1.0
sg15
I5
sg142
g143
sbsI6
g0
(g134
g2
Ntp159
Rp160
(dp161
g138
g139
sg140
F-3.5830370745398348
sg141
F1.0
sg15
I6
sg142
g143
sbsI7
g0
(g134
g2
Ntp162
Rp163
(dp164
g138
g139
sg140
F9.685372961210362
sg141
F1.0
sg15
I7
sg142
g143
sbsI8
g0
(g134
g2
Ntp165
Rp166
(dp167
g138
g139
sg140
F2.9927794740301494
sg141
F1.0
sg15
I8
sg142
g143
sbsI9
g0
(g134
g2
Ntp168
Rp169
(dp170
g138
g139
sg140
F-14.0848015968274
sg141
F1.0
sg15
I9
sg142
g143
sbsI77
g0
(g134
g2
Ntp171
Rp172
(dp173
g138
g139
sg140
F13.556905575465377
sg141
F1.0
sg15
I77
sg142
g143
sbssg15
I68
sS'fitness'
p174
Nsb.