ccopy_reg
_reconstructor
p0
(cneat.genome
DefaultGenome
p1
c__builtin__
object
p2
Ntp3
Rp4
(dp5
S'connections'
p6
(dp7
(I77
I2
tp8
g0
(cneat.genes
DefaultConnectionGene
p9
g2
Ntp10
Rp11
(dp12
S'enabled'
p13
I01
sS'weight'
p14
F0.9968178005191203
sS'key'
p15
g8
sbs(I77
I6
tp16
g0
(g9
g2
Ntp17
Rp18
(dp19
g13
I01
sg14
F0.24733749967980853
sg15
g16
sbs(I-7
I77
tp20
g0
(g9
g2
Ntp21
Rp22
(dp23
g13
I01
sg14
F-0.3277376544830014
sg15
g20
sbs(I-9
I77
tp24
g0
(g9
g2
Ntp25
Rp26
(dp27
g13
I01
sg14
F-2.0058650907503615
sg15
g24
sbs(I-16
I77
tp28
g0
(g9
g2
Ntp29
Rp30
(dp31
g13
I01
sg14
F1.0014100867271913
sg15
g28
sbs(I77
I1
tp32
g0
(g9
g2
Ntp33
Rp34
(dp35
g13
I01
sg14
F0.03972473950475362
sg15
g32
sbs(I-17
I77
tp36
g0
(g9
g2
Ntp37
Rp38
(dp39
g13
I01
sg14
F-0.6673737421422113
sg15
g36
sbs(I-19
I77
tp40
g0
(g9
g2
Ntp41
Rp42
(dp43
g13
I01
sg14
F0.005111847028731267
sg15
g40
sbs(I-10
I77
tp44
g0
(g9
g2
Ntp45
Rp46
(dp47
g13
I01
sg14
F0.91327246689805
sg15
g44
sbs(I77
I5
tp48
g0
(g9
g2
Ntp49
Rp50
(dp51
g13
I01
sg14
F0.07618936185159729
sg15
g48
sbs(I-18
I77
tp52
g0
(g9
g2
Ntp53
Rp54
(dp55
g13
I01
sg14
F0.7960419088253798
sg15
g52
sbs(I77
I7
tp56
g0
(g9
g2
Ntp57
Rp58
(dp59
g13
I01
sg14
F-0.4351751545934787
sg15
g56
sbs(I-8
I77
tp60
g0
(g9
g2
Ntp61
Rp62
(dp63
g13
I01
sg14
F-0.5969012410043831
sg15
g60
sbs(I-3
I77
tp64
g0
(g9
g2
Ntp65
Rp66
(dp67
g13
I01
sg14
F-0.6408511252987578
sg15
g64
sbs(I77
I9
tp68
g0
(g9
g2
Ntp69
Rp70
(dp71
g13
I01
sg14
F2.2462777637121496
sg15
g68
sbs(I-11
I77
tp72
g0
(g9
g2
Ntp73
Rp74
(dp75
g13
I01
sg14
F0.5768687122774424
sg15
g72
sbs(I77
I0
tp76
g0
(g9
g2
Ntp77
Rp78
(dp79
g13
I01
sg14
F0.37646701025554596
sg15
g76
sbs(I-20
I77
tp80
g0
(g9
g2
Ntp81
Rp82
(dp83
g13
I01
sg14
F0.8718286800743088
sg15
g80
sbs(I77
I4
tp84
g0
(g9
g2
Ntp85
Rp86
(dp87
g13
I01
sg14
F-0.7557291404045933
sg15
g84
sbs(I77
I8
tp88
g0
(g9
g2
Ntp89
Rp90
(dp91
g13
I01
sg14
F-0.29592779001411484
sg15
g88
sbs(I-4
I77
tp92
g0
(g9
g2
Ntp93
Rp94
(dp95
g13
I01
sg14
F-0.21121361007094536
sg15
g92
sbs(I-12
I77
tp96
g0
(g9
g2
Ntp97
Rp98
(dp99
g13
I01
sg14
F0.10679832686132927
sg15
g96
sbs(I-14
I77
tp100
g0
(g9
g2
Ntp101
Rp102
(dp103
g13
I01
sg14
F0.10766367334150385
sg15
g100
sbs(I77
I3
tp104
g0
(g9
g2
Ntp105
Rp106
(dp107
g13
I01
sg14
F0.6524558646440836
sg15
g104
sbs(I-5
I77
tp108
g0
(g9
g2
Ntp109
Rp110
(dp111
g13
I01
sg14
F0.7907031140105584
sg15
g108
sbs(I-2
I77
tp112
g0
(g9
g2
Ntp113
Rp114
(dp115
g13
I01
sg14
F0.5897781091699149
sg15
g112
sbs(I-1
I77
tp116
g0
(g9
g2
Ntp117
Rp118
(dp119
g13
I01
sg14
F0.9256786454533092
sg15
g116
sbs(I-13
I77
tp120
g0
(g9
g2
Ntp121
Rp122
(dp123
g13
I01
sg14
F-0.7294817032167695
sg15
g120
sbs(I-15
I77
tp124
g0
(g9
g2
Ntp125
Rp126
(dp127
g13
I01
sg14
F0.5328727810461709
sg15
g124
sbs(I-6
I77
tp128
g0
(g9
g2
Ntp129
Rp130
(dp131
g13
I01
sg14
F-1.5793793444782718
sg15
g128
sbssS'nodes'
p132
(dp133
I0
g0
(cneat.genes
DefaultNodeGene
p134
g2
Ntp135
Rp136
(dp137
S'activation'
p138
S'relu'
p139
sS'bias'
p140
F16.44821791182402
sS'response'
p141
F1.0
sg15
I0
sS'aggregation'
p142
S'sum'
p143
sbsI1
g0
(g134
g2
Ntp144
Rp145
(dp146
g138
g139
sg140
F9.335478188548551
sg141
F1.0
sg15
I1
sg142
g143
sbsI2
g0
(g134
g2
Ntp147
Rp148
(dp149
g138
g139
sg140
F13.86879936073285
sg141
F1.0
sg15
I2
sg142
g143
sbsI3
g0
(g134
g2
Ntp150
Rp151
(dp152
g138
g139
sg140
F-9.949306131756831
sg141
F1.0
sg15
I3
sg142
g143
sbsI4
g0
(g134
g2
Ntp153
Rp154
(dp155
g138
g139
sg140
F6.644049070368511
sg141
F1.0
sg15
I4
sg142
g143
sbsI5
g0
(g134
g2
Ntp156
Rp157
(dp158
g138
g139
sg140
F0.7017232616122195
sg141
F1.0
sg15
I5
sg142
g143
sbsI6
g0
(g134
g2
Ntp159
Rp160
(dp161
g138
g139
sg140
F1.3302454198736011
sg141
F1.0
sg15
I6
sg142
g143
sbsI7
g0
(g134
g2
Ntp162
Rp163
(dp164
g138
g139
sg140
F-2.976887936801627
sg141
F1.0
sg15
I7
sg142
g143
sbsI8
g0
(g134
g2
Ntp165
Rp166
(dp167
g138
g139
sg140
F-6.263254521261223
sg141
F1.0
sg15
I8
sg142
g143
sbsI9
g0
(g134
g2
Ntp168
Rp169
(dp170
g138
g139
sg140
F-7.496621572525543
sg141
F1.0
sg15
I9
sg142
g143
sbsI77
g0
(g134
g2
Ntp171
Rp172
(dp173
g138
g139
sg140
F-15.943278703547099
sg141
F1.0
sg15
I77
sg142
g143
sbssg15
I68
sS'fitness'
p174
F0.034237266816144835
sb.