ccopy_reg
_reconstructor
p0
(cneat.genome
DefaultGenome
p1
c__builtin__
object
p2
Ntp3
Rp4
(dp5
S'connections'
p6
(dp7
(I-19
I78
tp8
g0
(cneat.genes
DefaultConnectionGene
p9
g2
Ntp10
Rp11
(dp12
S'enabled'
p13
I01
sS'weight'
p14
F-1.124480965355253
sS'key'
p15
g8
sbs(I-14
I78
tp16
g0
(g9
g2
Ntp17
Rp18
(dp19
g13
I01
sg14
F-0.6510953535317796
sg15
g16
sbs(I78
I6
tp20
g0
(g9
g2
Ntp21
Rp22
(dp23
g13
I01
sg14
F1.0846121394309893
sg15
g20
sbs(I-3
I78
tp24
g0
(g9
g2
Ntp25
Rp26
(dp27
g13
I01
sg14
F-0.34561972113236505
sg15
g24
sbs(I78
I2
tp28
g0
(g9
g2
Ntp29
Rp30
(dp31
g13
I01
sg14
F0.45551012090238774
sg15
g28
sbs(I-11
I78
tp32
g0
(g9
g2
Ntp33
Rp34
(dp35
g13
I01
sg14
F-0.046357072105455664
sg15
g32
sbs(I-6
I78
tp36
g0
(g9
g2
Ntp37
Rp38
(dp39
g13
I01
sg14
F0.7213190420064228
sg15
g36
sbs(I78
I7
tp40
g0
(g9
g2
Ntp41
Rp42
(dp43
g13
I01
sg14
F-0.9809661935781238
sg15
g40
sbs(I-9
I78
tp44
g0
(g9
g2
Ntp45
Rp46
(dp47
g13
I01
sg14
F0.3511783894545033
sg15
g44
sbs(I78
I3
tp48
g0
(g9
g2
Ntp49
Rp50
(dp51
g13
I01
sg14
F-0.3441632261662457
sg15
g48
sbs(I-16
I78
tp52
g0
(g9
g2
Ntp53
Rp54
(dp55
g13
I01
sg14
F-1.296168737222047
sg15
g52
sbs(I78
I8
tp56
g0
(g9
g2
Ntp57
Rp58
(dp59
g13
I01
sg14
F-1.3954054165589596
sg15
g56
sbs(I-5
I78
tp60
g0
(g9
g2
Ntp61
Rp62
(dp63
g13
I01
sg14
F-0.21333773032187103
sg15
g60
sbs(I78
I4
tp64
g0
(g9
g2
Ntp65
Rp66
(dp67
g13
I01
sg14
F0.5988348916587679
sg15
g64
sbs(I-13
I78
tp68
g0
(g9
g2
Ntp69
Rp70
(dp71
g13
I01
sg14
F-0.8408921300447921
sg15
g68
sbs(I-10
I78
tp72
g0
(g9
g2
Ntp73
Rp74
(dp75
g13
I01
sg14
F1.5906008696206144
sg15
g72
sbs(I-8
I78
tp76
g0
(g9
g2
Ntp77
Rp78
(dp79
g13
I01
sg14
F0.10788907417839846
sg15
g76
sbs(I78
I0
tp80
g0
(g9
g2
Ntp81
Rp82
(dp83
g13
I01
sg14
F-1.0515324765261616
sg15
g80
sbs(I-18
I78
tp84
g0
(g9
g2
Ntp85
Rp86
(dp87
g13
I01
sg14
F0.5822255200668326
sg15
g84
sbs(I78
I9
tp88
g0
(g9
g2
Ntp89
Rp90
(dp91
g13
I01
sg14
F1.6457070717764866
sg15
g88
sbs(I-15
I78
tp92
g0
(g9
g2
Ntp93
Rp94
(dp95
g13
I01
sg14
F-0.17522101505107993
sg15
g92
sbs(I-20
I78
tp96
g0
(g9
g2
Ntp97
Rp98
(dp99
g13
I01
sg14
F-0.41149904533617176
sg15
g96
sbs(I78
I5
tp100
g0
(g9
g2
Ntp101
Rp102
(dp103
g13
I01
sg14
F-0.2706378710958294
sg15
g100
sbs(I-2
I78
tp104
g0
(g9
g2
Ntp105
Rp106
(dp107
g13
I01
sg14
F0.8947591006015473
sg15
g104
sbs(I-1
I78
tp108
g0
(g9
g2
Ntp109
Rp110
(dp111
g13
I01
sg14
F0.42516108278671083
sg15
g108
sbs(I78
I1
tp112
g0
(g9
g2
Ntp113
Rp114
(dp115
g13
I01
sg14
F-0.514952936531296
sg15
g112
sbs(I-7
I78
tp116
g0
(g9
g2
Ntp117
Rp118
(dp119
g13
I01
sg14
F-0.03191787906063426
sg15
g116
sbs(I-4
I78
tp120
g0
(g9
g2
Ntp121
Rp122
(dp123
g13
I01
sg14
F-0.5648661553540095
sg15
g120
sbs(I-17
I78
tp124
g0
(g9
g2
Ntp125
Rp126
(dp127
g13
I01
sg14
F-0.5003082010807945
sg15
g124
sbs(I-12
I78
tp128
g0
(g9
g2
Ntp129
Rp130
(dp131
g13
I01
sg14
F0.42179822648640575
sg15
g128
sbssS'nodes'
p132
(dp133
I0
g0
(cneat.genes
DefaultNodeGene
p134
g2
Ntp135
Rp136
(dp137
S'activation'
p138
S'relu'
p139
sS'bias'
p140
F6.357916364758458
sS'response'
p141
F1.0
sg15
I0
sS'aggregation'
p142
S'sum'
p143
sbsI1
g0
(g134
g2
Ntp144
Rp145
(dp146
g138
g139
sg140
F-25.360128835127327
sg141
F1.0
sg15
I1
sg142
g143
sbsI2
g0
(g134
g2
Ntp147
Rp148
(dp149
g138
g139
sg140
F-26.758142332170518
sg141
F1.0
sg15
I2
sg142
g143
sbsI3
g0
(g134
g2
Ntp150
Rp151
(dp152
g138
g139
sg140
F1.344567413855973
sg141
F1.0
sg15
I3
sg142
g143
sbsI4
g0
(g134
g2
Ntp153
Rp154
(dp155
g138
g139
sg140
F-1.6218694092065145
sg141
F1.0
sg15
I4
sg142
g143
sbsI5
g0
(g134
g2
Ntp156
Rp157
(dp158
g138
g139
sg140
F-2.9743364050756043
sg141
F1.0
sg15
I5
sg142
g143
sbsI6
g0
(g134
g2
Ntp159
Rp160
(dp161
g138
g139
sg140
F-0.006700201983774115
sg141
F1.0
sg15
I6
sg142
g143
sbsI7
g0
(g134
g2
Ntp162
Rp163
(dp164
g138
g139
sg140
F-19.21642460233341
sg141
F1.0
sg15
I7
sg142
g143
sbsI8
g0
(g134
g2
Ntp165
Rp166
(dp167
g138
g139
sg140
F-5.513827235325751
sg141
F1.0
sg15
I8
sg142
g143
sbsI9
g0
(g134
g2
Ntp168
Rp169
(dp170
g138
g139
sg140
F-20.768492271202327
sg141
F1.0
sg15
I9
sg142
g143
sbsI78
g0
(g134
g2
Ntp171
Rp172
(dp173
g138
g139
sg140
F14.677244897877229
sg141
F1.0
sg15
I78
sg142
g143
sbssg15
I69
sS'fitness'
p174
Nsb.