ccopy_reg
_reconstructor
p0
(cneat.genome
DefaultGenome
p1
c__builtin__
object
p2
Ntp3
Rp4
(dp5
S'connections'
p6
(dp7
(I16
I6
tp8
g0
(cneat.genes
DefaultConnectionGene
p9
g2
Ntp10
Rp11
(dp12
S'enabled'
p13
I01
sS'weight'
p14
F1.607141107238072
sS'key'
p15
g8
sbs(I16
I9
tp16
g0
(g9
g2
Ntp17
Rp18
(dp19
g13
I01
sg14
F0.7834323087955188
sg15
g16
sbs(I-10
I16
tp20
g0
(g9
g2
Ntp21
Rp22
(dp23
g13
I01
sg14
F-1.4741977149899792
sg15
g20
sbs(I-19
I16
tp24
g0
(g9
g2
Ntp25
Rp26
(dp27
g13
I01
sg14
F-0.1799267709922053
sg15
g24
sbs(I-5
I16
tp28
g0
(g9
g2
Ntp29
Rp30
(dp31
g13
I01
sg14
F-0.662734777419817
sg15
g28
sbs(I-14
I16
tp32
g0
(g9
g2
Ntp33
Rp34
(dp35
g13
I01
sg14
F0.8896427226073697
sg15
g32
sbs(I16
I7
tp36
g0
(g9
g2
Ntp37
Rp38
(dp39
g13
I01
sg14
F0.2916177804548806
sg15
g36
sbs(I-9
I16
tp40
g0
(g9
g2
Ntp41
Rp42
(dp43
g13
I01
sg14
F0.3824124606887967
sg15
g40
sbs(I-4
I16
tp44
g0
(g9
g2
Ntp45
Rp46
(dp47
g13
I01
sg14
F-0.2531617094874673
sg15
g44
sbs(I16
I3
tp48
g0
(g9
g2
Ntp49
Rp50
(dp51
g13
I01
sg14
F-1.021125024616005
sg15
g48
sbs(I-1
I16
tp52
g0
(g9
g2
Ntp53
Rp54
(dp55
g13
I01
sg14
F1.2828487296798752
sg15
g52
sbs(I-3
I16
tp56
g0
(g9
g2
Ntp57
Rp58
(dp59
g13
I01
sg14
F2.114104926674341
sg15
g56
sbs(I-2
I16
tp60
g0
(g9
g2
Ntp61
Rp62
(dp63
g13
I01
sg14
F-0.5364794226389622
sg15
g60
sbs(I-18
I16
tp64
g0
(g9
g2
Ntp65
Rp66
(dp67
g13
I01
sg14
F0.15450715081897035
sg15
g64
sbs(I16
I4
tp68
g0
(g9
g2
Ntp69
Rp70
(dp71
g13
I01
sg14
F1.0597680291567553
sg15
g68
sbs(I-13
I16
tp72
g0
(g9
g2
Ntp73
Rp74
(dp75
g13
I01
sg14
F-0.04914809230248007
sg15
g72
sbs(I-8
I16
tp76
g0
(g9
g2
Ntp77
Rp78
(dp79
g13
I01
sg14
F-1.5408398320427736
sg15
g76
sbs(I16
I2
tp80
g0
(g9
g2
Ntp81
Rp82
(dp83
g13
I01
sg14
F0.3156729238519008
sg15
g80
sbs(I16
I0
tp84
g0
(g9
g2
Ntp85
Rp86
(dp87
g13
I01
sg14
F1.2888099011287226
sg15
g84
sbs(I-17
I16
tp88
g0
(g9
g2
Ntp89
Rp90
(dp91
g13
I01
sg14
F0.08569321651415081
sg15
g88
sbs(I-12
I16
tp92
g0
(g9
g2
Ntp93
Rp94
(dp95
g13
I01
sg14
F0.4169814274789188
sg15
g92
sbs(I-7
I16
tp96
g0
(g9
g2
Ntp97
Rp98
(dp99
g13
I01
sg14
F-0.6056095859389046
sg15
g96
sbs(I-16
I16
tp100
g0
(g9
g2
Ntp101
Rp102
(dp103
g13
I01
sg14
F-0.5667309688699871
sg15
g100
sbs(I16
I5
tp104
g0
(g9
g2
Ntp105
Rp106
(dp107
g13
I01
sg14
F1.001309761588694
sg15
g104
sbs(I16
I8
tp108
g0
(g9
g2
Ntp109
Rp110
(dp111
g13
I01
sg14
F-1.6930733319746916
sg15
g108
sbs(I16
I1
tp112
g0
(g9
g2
Ntp113
Rp114
(dp115
g13
I01
sg14
F1.7908500924136146
sg15
g112
sbs(I-11
I16
tp116
g0
(g9
g2
Ntp117
Rp118
(dp119
g13
I01
sg14
F0.5709059165129768
sg15
g116
sbs(I-20
I16
tp120
g0
(g9
g2
Ntp121
Rp122
(dp123
g13
I01
sg14
F-2.273490516300807
sg15
g120
sbs(I-6
I16
tp124
g0
(g9
g2
Ntp125
Rp126
(dp127
g13
I01
sg14
F0.21493738537505874
sg15
g124
sbs(I-15
I16
tp128
g0
(g9
g2
Ntp129
Rp130
(dp131
g13
I01
sg14
F0.41084449147133734
sg15
g128
sbssS'nodes'
p132
(dp133
I0
g0
(cneat.genes
DefaultNodeGene
p134
g2
Ntp135
Rp136
(dp137
S'activation'
p138
S'relu'
p139
sS'bias'
p140
F-16.052675021600606
sS'response'
p141
F1.0
sg15
I0
sS'aggregation'
p142
S'sum'
p143
sbsI1
g0
(g134
g2
Ntp144
Rp145
(dp146
g138
g139
sg140
F-17.909092014896103
sg141
F1.0
sg15
I1
sg142
g143
sbsI2
g0
(g134
g2
Ntp147
Rp148
(dp149
g138
g139
sg140
F4.14227327974117
sg141
F1.0
sg15
I2
sg142
g143
sbsI3
g0
(g134
g2
Ntp150
Rp151
(dp152
g138
g139
sg140
F14.50543109842936
sg141
F1.0
sg15
I3
sg142
g143
sbsI4
g0
(g134
g2
Ntp153
Rp154
(dp155
g138
g139
sg140
F4.612344899731855
sg141
F1.0
sg15
I4
sg142
g143
sbsI5
g0
(g134
g2
Ntp156
Rp157
(dp158
g138
g139
sg140
F-2.6632270214610125
sg141
F1.0
sg15
I5
sg142
g143
sbsI6
g0
(g134
g2
Ntp159
Rp160
(dp161
g138
g139
sg140
F11.75692664770458
sg141
F1.0
sg15
I6
sg142
g143
sbsI7
g0
(g134
g2
Ntp162
Rp163
(dp164
g138
g139
sg140
F-2.9242287908718883
sg141
F1.0
sg15
I7
sg142
g143
sbsI8
g0
(g134
g2
Ntp165
Rp166
(dp167
g138
g139
sg140
F-2.720149962272647
sg141
F1.0
sg15
I8
sg142
g143
sbsI9
g0
(g134
g2
Ntp168
Rp169
(dp170
g138
g139
sg140
F5.375036371777574
sg141
F1.0
sg15
I9
sg142
g143
sbsI16
g0
(g134
g2
Ntp171
Rp172
(dp173
g138
g139
sg140
F3.5676801867588104
sg141
F1.0
sg15
I16
sg142
g143
sbssg15
I7
sS'fitness'
p174
F0.07160499123736491
sb.