ccopy_reg
_reconstructor
p0
(cneat.genome
DefaultGenome
p1
c__builtin__
object
p2
Ntp3
Rp4
(dp5
S'connections'
p6
(dp7
(I16
I6
tp8
g0
(cneat.genes
DefaultConnectionGene
p9
g2
Ntp10
Rp11
(dp12
S'enabled'
p13
I01
sS'weight'
p14
F0.03275785389251801
sS'key'
p15
g8
sbs(I16
I9
tp16
g0
(g9
g2
Ntp17
Rp18
(dp19
g13
I01
sg14
F-0.027712274358091427
sg15
g16
sbs(I-10
I16
tp20
g0
(g9
g2
Ntp21
Rp22
(dp23
g13
I01
sg14
F-0.8355023590311206
sg15
g20
sbs(I-19
I16
tp24
g0
(g9
g2
Ntp25
Rp26
(dp27
g13
I01
sg14
F0.5198331186087738
sg15
g24
sbs(I-5
I16
tp28
g0
(g9
g2
Ntp29
Rp30
(dp31
g13
I01
sg14
F-1.1079095896242586
sg15
g28
sbs(I-14
I16
tp32
g0
(g9
g2
Ntp33
Rp34
(dp35
g13
I01
sg14
F-0.020236747239325368
sg15
g32
sbs(I16
I7
tp36
g0
(g9
g2
Ntp37
Rp38
(dp39
g13
I01
sg14
F-1.7695665044953175
sg15
g36
sbs(I-9
I16
tp40
g0
(g9
g2
Ntp41
Rp42
(dp43
g13
I01
sg14
F-0.4918735255202929
sg15
g40
sbs(I-4
I16
tp44
g0
(g9
g2
Ntp45
Rp46
(dp47
g13
I01
sg14
F-0.4556995228605105
sg15
g44
sbs(I16
I3
tp48
g0
(g9
g2
Ntp49
Rp50
(dp51
g13
I01
sg14
F-0.9145583466291984
sg15
g48
sbs(I-1
I16
tp52
g0
(g9
g2
Ntp53
Rp54
(dp55
g13
I01
sg14
F1.397825737088493
sg15
g52
sbs(I-3
I16
tp56
g0
(g9
g2
Ntp57
Rp58
(dp59
g13
I01
sg14
F-0.4662186937126413
sg15
g56
sbs(I-2
I16
tp60
g0
(g9
g2
Ntp61
Rp62
(dp63
g13
I01
sg14
F-0.6809496897301291
sg15
g60
sbs(I-18
I16
tp64
g0
(g9
g2
Ntp65
Rp66
(dp67
g13
I01
sg14
F-2.130798252198148
sg15
g64
sbs(I16
I4
tp68
g0
(g9
g2
Ntp69
Rp70
(dp71
g13
I01
sg14
F-0.47359523428595185
sg15
g68
sbs(I-13
I16
tp72
g0
(g9
g2
Ntp73
Rp74
(dp75
g13
I01
sg14
F1.1458016055404274
sg15
g72
sbs(I-8
I16
tp76
g0
(g9
g2
Ntp77
Rp78
(dp79
g13
I01
sg14
F-0.7321874113365756
sg15
g76
sbs(I16
I2
tp80
g0
(g9
g2
Ntp81
Rp82
(dp83
g13
I01
sg14
F-0.9426671848092879
sg15
g80
sbs(I16
I0
tp84
g0
(g9
g2
Ntp85
Rp86
(dp87
g13
I01
sg14
F0.3547160428184464
sg15
g84
sbs(I-17
I16
tp88
g0
(g9
g2
Ntp89
Rp90
(dp91
g13
I01
sg14
F-0.7274569141940578
sg15
g88
sbs(I-12
I16
tp92
g0
(g9
g2
Ntp93
Rp94
(dp95
g13
I01
sg14
F0.880525858848449
sg15
g92
sbs(I-7
I16
tp96
g0
(g9
g2
Ntp97
Rp98
(dp99
g13
I01
sg14
F1.3628030881901307
sg15
g96
sbs(I-16
I16
tp100
g0
(g9
g2
Ntp101
Rp102
(dp103
g13
I01
sg14
F1.1457029352992059
sg15
g100
sbs(I16
I5
tp104
g0
(g9
g2
Ntp105
Rp106
(dp107
g13
I01
sg14
F-0.9007681897984158
sg15
g104
sbs(I16
I8
tp108
g0
(g9
g2
Ntp109
Rp110
(dp111
g13
I01
sg14
F-1.0918932215972477
sg15
g108
sbs(I16
I1
tp112
g0
(g9
g2
Ntp113
Rp114
(dp115
g13
I01
sg14
F-1.25982554483227
sg15
g112
sbs(I-11
I16
tp116
g0
(g9
g2
Ntp117
Rp118
(dp119
g13
I01
sg14
F-0.9252953927083913
sg15
g116
sbs(I-20
I16
tp120
g0
(g9
g2
Ntp121
Rp122
(dp123
g13
I01
sg14
F0.3089374174640481
sg15
g120
sbs(I-6
I16
tp124
g0
(g9
g2
Ntp125
Rp126
(dp127
g13
I01
sg14
F1.7678791261252325
sg15
g124
sbs(I-15
I16
tp128
g0
(g9
g2
Ntp129
Rp130
(dp131
g13
I01
sg14
F0.34061067171958703
sg15
g128
sbssS'nodes'
p132
(dp133
I0
g0
(cneat.genes
DefaultNodeGene
p134
g2
Ntp135
Rp136
(dp137
S'activation'
p138
S'relu'
p139
sS'bias'
p140
F16.282252028256053
sS'response'
p141
F1.0
sg15
I0
sS'aggregation'
p142
S'sum'
p143
sbsI1
g0
(g134
g2
Ntp144
Rp145
(dp146
g138
g139
sg140
F-5.817242466226099
sg141
F1.0
sg15
I1
sg142
g143
sbsI2
g0
(g134
g2
Ntp147
Rp148
(dp149
g138
g139
sg140
F-10.778636610567577
sg141
F1.0
sg15
I2
sg142
g143
sbsI3
g0
(g134
g2
Ntp150
Rp151
(dp152
g138
g139
sg140
F6.790795087786339
sg141
F1.0
sg15
I3
sg142
g143
sbsI4
g0
(g134
g2
Ntp153
Rp154
(dp155
g138
g139
sg140
F6.738308259840927
sg141
F1.0
sg15
I4
sg142
g143
sbsI5
g0
(g134
g2
Ntp156
Rp157
(dp158
g138
g139
sg140
F-15.269002648090863
sg141
F1.0
sg15
I5
sg142
g143
sbsI6
g0
(g134
g2
Ntp159
Rp160
(dp161
g138
g139
sg140
F-5.119452831201081
sg141
F1.0
sg15
I6
sg142
g143
sbsI7
g0
(g134
g2
Ntp162
Rp163
(dp164
g138
g139
sg140
F-5.72204348032395
sg141
F1.0
sg15
I7
sg142
g143
sbsI8
g0
(g134
g2
Ntp165
Rp166
(dp167
g138
g139
sg140
F7.11228474211953
sg141
F1.0
sg15
I8
sg142
g143
sbsI9
g0
(g134
g2
Ntp168
Rp169
(dp170
g138
g139
sg140
F-5.975791392444209
sg141
F1.0
sg15
I9
sg142
g143
sbsI16
g0
(g134
g2
Ntp171
Rp172
(dp173
g138
g139
sg140
F-0.6363175026242028
sg141
F1.0
sg15
I16
sg142
g143
sbssg15
I7
sS'fitness'
p174
Nsb.