ccopy_reg
_reconstructor
p0
(cneat.genome
DefaultGenome
p1
c__builtin__
object
p2
Ntp3
Rp4
(dp5
S'connections'
p6
(dp7
(I32
I1
tp8
g0
(cneat.genes
DefaultConnectionGene
p9
g2
Ntp10
Rp11
(dp12
S'enabled'
p13
I01
sS'weight'
p14
F1.7282164046231208
sS'key'
p15
g8
sbs(I-7
I30
tp16
g0
(g9
g2
Ntp17
Rp18
(dp19
g13
I01
sg14
F-0.025437196732916778
sg15
g16
sbs(I-4
I30
tp20
g0
(g9
g2
Ntp21
Rp22
(dp23
g13
I01
sg14
F1.2562833800004223
sg15
g20
sbs(I6
I6
tp24
g0
(g9
g2
Ntp25
Rp26
(dp27
g13
I01
sg14
F0.9136681217041411
sg15
g24
sbs(I30
I8
tp28
g0
(g9
g2
Ntp29
Rp30
(dp31
g13
I01
sg14
F-0.2734473804333082
sg15
g28
sbs(I32
I6
tp32
g0
(g9
g2
Ntp33
Rp34
(dp35
g13
I01
sg14
F-0.40790480185037703
sg15
g32
sbs(I-4
I33
tp36
g0
(g9
g2
Ntp37
Rp38
(dp39
g13
I01
sg14
F-1.4994655791235294
sg15
g36
sbs(I32
I7
tp40
g0
(g9
g2
Ntp41
Rp42
(dp43
g13
I00
sg14
F-0.1914100440979557
sg15
g40
sbs(I-9
I33
tp44
g0
(g9
g2
Ntp45
Rp46
(dp47
g13
I01
sg14
F-0.17665193938823953
sg15
g44
sbs(I32
I9
tp48
g0
(g9
g2
Ntp49
Rp50
(dp51
g13
I00
sg14
F-1.6194670701890455
sg15
g48
sbs(I-8
I32
tp52
g0
(g9
g2
Ntp53
Rp54
(dp55
g13
I01
sg14
F-2.3050391743653487
sg15
g52
sbs(I33
I3
tp56
g0
(g9
g2
Ntp57
Rp58
(dp59
g13
I01
sg14
F2.2444708095024044
sg15
g56
sbs(I5
I5
tp60
g0
(g9
g2
Ntp61
Rp62
(dp63
g13
I00
sg14
F-0.7620922099827454
sg15
g60
sbs(I30
I9
tp64
g0
(g9
g2
Ntp65
Rp66
(dp67
g13
I00
sg14
F2.5707735672228647
sg15
g64
sbs(I4
I4
tp68
g0
(g9
g2
Ntp69
Rp70
(dp71
g13
I01
sg14
F1.0320319179420705
sg15
g68
sbs(I-4
I3
tp72
g0
(g9
g2
Ntp73
Rp74
(dp75
g13
I01
sg14
F1.4791279141531268
sg15
g72
sbs(I-6
I30
tp76
g0
(g9
g2
Ntp77
Rp78
(dp79
g13
I01
sg14
F-1.5521693428506174
sg15
g76
sbs(I30
I5
tp80
g0
(g9
g2
Ntp81
Rp82
(dp83
g13
I01
sg14
F-0.03985549667970384
sg15
g80
sbs(I2
I2
tp84
g0
(g9
g2
Ntp85
Rp86
(dp87
g13
I01
sg14
F-0.8887528837605336
sg15
g84
sbs(I-10
I33
tp88
g0
(g9
g2
Ntp89
Rp90
(dp91
g13
I01
sg14
F-0.2910240600281504
sg15
g88
sbs(I1
I1
tp92
g0
(g9
g2
Ntp93
Rp94
(dp95
g13
I00
sg14
F2.0406933365211177
sg15
g92
sbs(I-5
I33
tp96
g0
(g9
g2
Ntp97
Rp98
(dp99
g13
I00
sg14
F-0.09342138374806935
sg15
g96
sbs(I-5
I530
tp100
g0
(g9
g2
Ntp101
Rp102
(dp103
g13
I01
sg14
F2.2662280780035022
sg15
g100
sbs(I7
I7
tp104
g0
(g9
g2
Ntp105
Rp106
(dp107
g13
I01
sg14
F-1.980004219266813
sg15
g104
sbs(I33
I5
tp108
g0
(g9
g2
Ntp109
Rp110
(dp111
g13
I01
sg14
F1.2005444582960838
sg15
g108
sbs(I-5
I30
tp112
g0
(g9
g2
Ntp113
Rp114
(dp115
g13
I01
sg14
F-1.0932106166075617
sg15
g112
sbs(I32
I3
tp116
g0
(g9
g2
Ntp117
Rp118
(dp119
g13
I01
sg14
F1.5782638520318992
sg15
g116
sbs(I-10
I30
tp120
g0
(g9
g2
Ntp121
Rp122
(dp123
g13
I01
sg14
F-3.8484319980241897
sg15
g120
sbs(I-6
I33
tp124
g0
(g9
g2
Ntp125
Rp126
(dp127
g13
I01
sg14
F-1.5150322876668048
sg15
g124
sbs(I33
I4
tp128
g0
(g9
g2
Ntp129
Rp130
(dp131
g13
I01
sg14
F0.3196061295123519
sg15
g128
sbs(I-3
I33
tp132
g0
(g9
g2
Ntp133
Rp134
(dp135
g13
I01
sg14
F1.0260526121603082
sg15
g132
sbs(I8
I8
tp136
g0
(g9
g2
Ntp137
Rp138
(dp139
g13
I01
sg14
F-0.5052279640536199
sg15
g136
sbs(I-4
I32
tp140
g0
(g9
g2
Ntp141
Rp142
(dp143
g13
I01
sg14
F-0.5327778703706492
sg15
g140
sbs(I33
I0
tp144
g0
(g9
g2
Ntp145
Rp146
(dp147
g13
I01
sg14
F0.8481058504554514
sg15
g144
sbs(I32
I8
tp148
g0
(g9
g2
Ntp149
Rp150
(dp151
g13
I00
sg14
F-1.9446840084763521
sg15
g148
sbs(I530
I33
tp152
g0
(g9
g2
Ntp153
Rp154
(dp155
g13
I01
sg14
F-2.13557123134352
sg15
g152
sbs(I-7
I33
tp156
g0
(g9
g2
Ntp157
Rp158
(dp159
g13
I01
sg14
F-0.39674501164704234
sg15
g156
sbssS'nodes'
p160
(dp161
I0
g0
(cneat.genes
DefaultNodeGene
p162
g2
Ntp163
Rp164
(dp165
S'activation'
p166
S'tanh'
p167
sS'bias'
p168
F-2.3949673610837054
sS'response'
p169
F1.0
sg15
I0
sS'aggregation'
p170
S'sum'
p171
sbsI1
g0
(g162
g2
Ntp172
Rp173
(dp174
g166
g167
sg168
F-5.7294015024498135
sg169
F1.0
sg15
I1
sg170
g171
sbsI2
g0
(g162
g2
Ntp175
Rp176
(dp177
g166
g167
sg168
F0.10043814015196484
sg169
F1.0
sg15
I2
sg170
g171
sbsI3
g0
(g162
g2
Ntp178
Rp179
(dp180
g166
g167
sg168
F9.859161955120527
sg169
F1.0
sg15
I3
sg170
g171
sbsI4
g0
(g162
g2
Ntp181
Rp182
(dp183
g166
g167
sg168
F-15.912137688763048
sg169
F1.0
sg15
I4
sg170
g171
sbsI5
g0
(g162
g2
Ntp184
Rp185
(dp186
g166
S'relu'
p187
sg168
F14.463229895361726
sg169
F1.0
sg15
I5
sg170
g171
sbsI6
g0
(g162
g2
Ntp188
Rp189
(dp190
g166
g167
sg168
F-15.156866745351627
sg169
F1.0
sg15
I6
sg170
g171
sbsI7
g0
(g162
g2
Ntp191
Rp192
(dp193
g166
g167
sg168
F-5.526314609574385
sg169
F1.0
sg15
I7
sg170
g171
sbsI8
g0
(g162
g2
Ntp194
Rp195
(dp196
g166
g167
sg168
F2.069338709995524
sg169
F1.0
sg15
I8
sg170
g171
sbsI9
g0
(g162
g2
Ntp197
Rp198
(dp199
g166
g167
sg168
F15.689370603513195
sg169
F1.0
sg15
I9
sg170
g171
sbsI530
g0
(g162
g2
Ntp200
Rp201
(dp202
g166
g167
sg168
F5.32354640126194
sg169
F1.0
sg15
I530
sg170
g171
sbsI32
g0
(g162
g2
Ntp203
Rp204
(dp205
g166
g167
sg168
F-19.716800390444053
sg169
F1.0
sg15
I32
sg170
g171
sbsI33
g0
(g162
g2
Ntp206
Rp207
(dp208
g166
g167
sg168
F21.00105699955982
sg169
F1.0
sg15
I33
sg170
g171
sbsI30
g0
(g162
g2
Ntp209
Rp210
(dp211
g166
g167
sg168
F9.142829991211334
sg169
F1.0
sg15
I30
sg170
g171
sbssg15
I7
sS'fitness'
p212
Nsb.