ccopy_reg
_reconstructor
p0
(cneat.genome
DefaultGenome
p1
c__builtin__
object
p2
Ntp3
Rp4
(dp5
S'connections'
p6
(dp7
(I23
I4
tp8
g0
(cneat.genes
DefaultConnectionGene
p9
g2
Ntp10
Rp11
(dp12
S'enabled'
p13
I01
sS'weight'
p14
F-1.7914680248039403
sS'key'
p15
g8
sbs(I-2
I23
tp16
g0
(g9
g2
Ntp17
Rp18
(dp19
g13
I01
sg14
F-1.9870248302678677
sg15
g16
sbs(I7
I7
tp20
g0
(g9
g2
Ntp21
Rp22
(dp23
g13
I01
sg14
F-0.801125774660632
sg15
g20
sbs(I9
I9
tp24
g0
(g9
g2
Ntp25
Rp26
(dp27
g13
I01
sg14
F1.1722760562447878
sg15
g24
sbs(I23
I3
tp28
g0
(g9
g2
Ntp29
Rp30
(dp31
g13
I01
sg14
F1.8552699073262835
sg15
g28
sbs(I-2
I22
tp32
g0
(g9
g2
Ntp33
Rp34
(dp35
g13
I01
sg14
F3.443617881029501
sg15
g32
sbs(I-3
I3
tp36
g0
(g9
g2
Ntp37
Rp38
(dp39
g13
I01
sg14
F1.2475637837208375
sg15
g36
sbs(I-1
I22
tp40
g0
(g9
g2
Ntp41
Rp42
(dp43
g13
I00
sg14
F-2.5656592914017877
sg15
g40
sbs(I-7
I22
tp44
g0
(g9
g2
Ntp45
Rp46
(dp47
g13
I01
sg14
F1.6217112072777549
sg15
g44
sbs(I23
I7
tp48
g0
(g9
g2
Ntp49
Rp50
(dp51
g13
I01
sg14
F-3.1262637776062063
sg15
g48
sbs(I-5
I23
tp52
g0
(g9
g2
Ntp53
Rp54
(dp55
g13
I00
sg14
F0.24295274080562868
sg15
g52
sbs(I-1
I1
tp56
g0
(g9
g2
Ntp57
Rp58
(dp59
g13
I01
sg14
F0.08512872532411396
sg15
g56
sbs(I22
I7
tp60
g0
(g9
g2
Ntp61
Rp62
(dp63
g13
I01
sg14
F-2.0184566852754156
sg15
g60
sbs(I2
I2
tp64
g0
(g9
g2
Ntp65
Rp66
(dp67
g13
I00
sg14
F-0.8976443536090793
sg15
g64
sbs(I-5
I22
tp68
g0
(g9
g2
Ntp69
Rp70
(dp71
g13
I01
sg14
F-1.1565186352712273
sg15
g68
sbs(I-6
I22
tp72
g0
(g9
g2
Ntp73
Rp74
(dp75
g13
I01
sg14
F-0.6197653234453433
sg15
g72
sbs(I559
I0
tp76
g0
(g9
g2
Ntp77
Rp78
(dp79
g13
I01
sg14
F-0.3512198599991371
sg15
g76
sbs(I22
I4
tp80
g0
(g9
g2
Ntp81
Rp82
(dp83
g13
I00
sg14
F1.4994536262376377
sg15
g80
sbs(I23
I1
tp84
g0
(g9
g2
Ntp85
Rp86
(dp87
g13
I01
sg14
F1.047660979958502
sg15
g84
sbs(I22
I0
tp88
g0
(g9
g2
Ntp89
Rp90
(dp91
g13
I00
sg14
F-0.47994245204534636
sg15
g88
sbs(I23
I5
tp92
g0
(g9
g2
Ntp93
Rp94
(dp95
g13
I01
sg14
F-0.07406001297790213
sg15
g92
sbs(I-10
I23
tp96
g0
(g9
g2
Ntp97
Rp98
(dp99
g13
I01
sg14
F-1.1690053257734467
sg15
g96
sbs(I22
I559
tp100
g0
(g9
g2
Ntp101
Rp102
(dp103
g13
I01
sg14
F1.0128376943049997
sg15
g100
sbs(I-4
I22
tp104
g0
(g9
g2
Ntp105
Rp106
(dp107
g13
I01
sg14
F-1.2764418072350256
sg15
g104
sbs(I22
I5
tp108
g0
(g9
g2
Ntp109
Rp110
(dp111
g13
I01
sg14
F-1.078280837306918
sg15
g108
sbs(I23
I9
tp112
g0
(g9
g2
Ntp113
Rp114
(dp115
g13
I00
sg14
F2.35288605037462
sg15
g112
sbs(I8
I8
tp116
g0
(g9
g2
Ntp117
Rp118
(dp119
g13
I01
sg14
F0.10352502072240766
sg15
g116
sbs(I22
I8
tp120
g0
(g9
g2
Ntp121
Rp122
(dp123
g13
I01
sg14
F-1.0972845217762972
sg15
g120
sbssS'nodes'
p124
(dp125
I0
g0
(cneat.genes
DefaultNodeGene
p126
g2
Ntp127
Rp128
(dp129
S'activation'
p130
S'tanh'
p131
sS'bias'
p132
F1.204999610457353
sS'response'
p133
F1.0
sg15
I0
sS'aggregation'
p134
S'sum'
p135
sbsI1
g0
(g126
g2
Ntp136
Rp137
(dp138
g130
g131
sg132
F-16.1662181091806
sg133
F1.0
sg15
I1
sg134
g135
sbsI2
g0
(g126
g2
Ntp139
Rp140
(dp141
g130
g131
sg132
F0.9447648313842962
sg133
F1.0
sg15
I2
sg134
g135
sbsI3
g0
(g126
g2
Ntp142
Rp143
(dp144
g130
g131
sg132
F-4.309440055544862
sg133
F1.0
sg15
I3
sg134
g135
sbsI4
g0
(g126
g2
Ntp145
Rp146
(dp147
g130
g131
sg132
F-9.237766368046248
sg133
F1.0
sg15
I4
sg134
g135
sbsI5
g0
(g126
g2
Ntp148
Rp149
(dp150
g130
g131
sg132
F8.94939394318293
sg133
F1.0
sg15
I5
sg134
g135
sbsI6
g0
(g126
g2
Ntp151
Rp152
(dp153
g130
g131
sg132
F19.742345086395495
sg133
F1.0
sg15
I6
sg134
g135
sbsI7
g0
(g126
g2
Ntp154
Rp155
(dp156
g130
g131
sg132
F5.876745506906162
sg133
F1.0
sg15
I7
sg134
g135
sbsI8
g0
(g126
g2
Ntp157
Rp158
(dp159
g130
g131
sg132
F-6.921791238560607
sg133
F1.0
sg15
I8
sg134
g135
sbsI9
g0
(g126
g2
Ntp160
Rp161
(dp162
g130
g131
sg132
F11.949415303187255
sg133
F1.0
sg15
I9
sg134
g135
sbsI551
g0
(g126
g2
Ntp163
Rp164
(dp165
g130
g131
sg132
F-1.1688106948314558
sg133
F1.0
sg15
I551
sg134
g135
sbsI559
g0
(g126
g2
Ntp166
Rp167
(dp168
g130
g131
sg132
F10.208578620182672
sg133
F1.0
sg15
I559
sg134
g135
sbsI22
g0
(g126
g2
Ntp169
Rp170
(dp171
g130
g131
sg132
F-14.642877764164966
sg133
F1.0
sg15
I22
sg134
g135
sbsI23
g0
(g126
g2
Ntp172
Rp173
(dp174
g130
g131
sg132
F-2.6957983583711487
sg133
F1.0
sg15
I23
sg134
g135
sbssg15
I7
sS'fitness'
p175
Nsb.