ccopy_reg
_reconstructor
p0
(cneat.genome
DefaultGenome
p1
c__builtin__
object
p2
Ntp3
Rp4
(dp5
S'connections'
p6
(dp7
(I-4
I5
tp8
g0
(cneat.genes
DefaultConnectionGene
p9
g2
Ntp10
Rp11
(dp12
S'enabled'
p13
I01
sS'weight'
p14
F-2.6543755356045504
sS'key'
p15
g8
sbs(I-2
I79
tp16
g0
(g9
g2
Ntp17
Rp18
(dp19
g13
I01
sg14
F1.6614892021523981
sg15
g16
sbs(I-1
I0
tp20
g0
(g9
g2
Ntp21
Rp22
(dp23
g13
I01
sg14
F0.2972485630194667
sg15
g20
sbs(I-3
I8
tp24
g0
(g9
g2
Ntp25
Rp26
(dp27
g13
I01
sg14
F0.8122695512879067
sg15
g24
sbs(I-8
I1
tp28
g0
(g9
g2
Ntp29
Rp30
(dp31
g13
I01
sg14
F-0.7531974381825838
sg15
g28
sbs(I-1
I79
tp32
g0
(g9
g2
Ntp33
Rp34
(dp35
g13
I01
sg14
F-1.382633675636377
sg15
g32
sbs(I-2
I0
tp36
g0
(g9
g2
Ntp37
Rp38
(dp39
g13
I01
sg14
F-0.5305650734813447
sg15
g36
sbs(I-10
I3
tp40
g0
(g9
g2
Ntp41
Rp42
(dp43
g13
I01
sg14
F0.4557385839363631
sg15
g40
sbs(I-5
I1
tp44
g0
(g9
g2
Ntp45
Rp46
(dp47
g13
I01
sg14
F1.32232295741294
sg15
g44
sbs(I5
I5
tp48
g0
(g9
g2
Ntp49
Rp50
(dp51
g13
I01
sg14
F0.029101794840893664
sg15
g48
sbs(I79
I2
tp52
g0
(g9
g2
Ntp53
Rp54
(dp55
g13
I01
sg14
F0.7668652908465622
sg15
g52
sbs(I1
I1
tp56
g0
(g9
g2
Ntp57
Rp58
(dp59
g13
I01
sg14
F0.024610960450756773
sg15
g56
sbs(I-6
I1
tp60
g0
(g9
g2
Ntp61
Rp62
(dp63
g13
I01
sg14
F-1.0491489090157415
sg15
g60
sbs(I79
I1
tp64
g0
(g9
g2
Ntp65
Rp66
(dp67
g13
I01
sg14
F-0.7112225686357615
sg15
g64
sbs(I-3
I1
tp68
g0
(g9
g2
Ntp69
Rp70
(dp71
g13
I01
sg14
F0.6819716823497849
sg15
g68
sbs(I79
I0
tp72
g0
(g9
g2
Ntp73
Rp74
(dp75
g13
I01
sg14
F-0.5027425220836321
sg15
g72
sbs(I-8
I8
tp76
g0
(g9
g2
Ntp77
Rp78
(dp79
g13
I01
sg14
F0.787483392109587
sg15
g76
sbs(I-7
I5
tp80
g0
(g9
g2
Ntp81
Rp82
(dp83
g13
I01
sg14
F-0.8133269014220306
sg15
g80
sbs(I9
I9
tp84
g0
(g9
g2
Ntp85
Rp86
(dp87
g13
I01
sg14
F-1.0294523924057397
sg15
g84
sbs(I-5
I6
tp88
g0
(g9
g2
Ntp89
Rp90
(dp91
g13
I01
sg14
F1.1314445857329838
sg15
g88
sbs(I-6
I2
tp92
g0
(g9
g2
Ntp93
Rp94
(dp95
g13
I01
sg14
F-0.5085788774970901
sg15
g92
sbs(I-2
I3
tp96
g0
(g9
g2
Ntp97
Rp98
(dp99
g13
I01
sg14
F-0.9642673647930652
sg15
g96
sbs(I-10
I9
tp100
g0
(g9
g2
Ntp101
Rp102
(dp103
g13
I01
sg14
F-0.9861461538591919
sg15
g100
sbs(I-4
I1
tp104
g0
(g9
g2
Ntp105
Rp106
(dp107
g13
I01
sg14
F-0.265801752383555
sg15
g104
sbs(I79
I4
tp108
g0
(g9
g2
Ntp109
Rp110
(dp111
g13
I01
sg14
F-0.3671843361483756
sg15
g108
sbs(I-2
I4
tp112
g0
(g9
g2
Ntp113
Rp114
(dp115
g13
I01
sg14
F0.5008704060545058
sg15
g112
sbs(I-3
I4
tp116
g0
(g9
g2
Ntp117
Rp118
(dp119
g13
I01
sg14
F0.05248765781545262
sg15
g116
sbs(I-3
I79
tp120
g0
(g9
g2
Ntp121
Rp122
(dp123
g13
I01
sg14
F0.6412908657899593
sg15
g120
sbs(I-6
I79
tp124
g0
(g9
g2
Ntp125
Rp126
(dp127
g13
I01
sg14
F-0.6626931496517604
sg15
g124
sbs(I-2
I5
tp128
g0
(g9
g2
Ntp129
Rp130
(dp131
g13
I01
sg14
F0.5977838449709503
sg15
g128
sbs(I-8
I5
tp132
g0
(g9
g2
Ntp133
Rp134
(dp135
g13
I01
sg14
F0.07394729194274861
sg15
g132
sbs(I-6
I8
tp136
g0
(g9
g2
Ntp137
Rp138
(dp139
g13
I01
sg14
F-0.3138036457883396
sg15
g136
sbs(I-7
I0
tp140
g0
(g9
g2
Ntp141
Rp142
(dp143
g13
I01
sg14
F-0.9831692836579053
sg15
g140
sbs(I-9
I5
tp144
g0
(g9
g2
Ntp145
Rp146
(dp147
g13
I01
sg14
F0.7712746240586871
sg15
g144
sbs(I-10
I7
tp148
g0
(g9
g2
Ntp149
Rp150
(dp151
g13
I01
sg14
F0.8025343067132985
sg15
g148
sbs(I-5
I5
tp152
g0
(g9
g2
Ntp153
Rp154
(dp155
g13
I01
sg14
F-0.9438442602543295
sg15
g152
sbs(I-6
I7
tp156
g0
(g9
g2
Ntp157
Rp158
(dp159
g13
I01
sg14
F-1.4338847741149228
sg15
g156
sbs(I-9
I6
tp160
g0
(g9
g2
Ntp161
Rp162
(dp163
g13
I01
sg14
F-0.3773097435004905
sg15
g160
sbs(I-4
I6
tp164
g0
(g9
g2
Ntp165
Rp166
(dp167
g13
I01
sg14
F0.9944463866317655
sg15
g164
sbs(I-1
I1
tp168
g0
(g9
g2
Ntp169
Rp170
(dp171
g13
I01
sg14
F1.942816382488982
sg15
g168
sbs(I-3
I7
tp172
g0
(g9
g2
Ntp173
Rp174
(dp175
g13
I01
sg14
F0.23153412059354259
sg15
g172
sbs(I-9
I3
tp176
g0
(g9
g2
Ntp177
Rp178
(dp179
g13
I01
sg14
F0.3402253908166014
sg15
g176
sbs(I-8
I2
tp180
g0
(g9
g2
Ntp181
Rp182
(dp183
g13
I01
sg14
F2.05839754579089
sg15
g180
sbs(I2
I2
tp184
g0
(g9
g2
Ntp185
Rp186
(dp187
g13
I01
sg14
F-1.562807228156235
sg15
g184
sbs(I-7
I3
tp188
g0
(g9
g2
Ntp189
Rp190
(dp191
g13
I01
sg14
F-1.3228799271134533
sg15
g188
sbs(I-10
I0
tp192
g0
(g9
g2
Ntp193
Rp194
(dp195
g13
I01
sg14
F2.5387862067374245
sg15
g192
sbs(I-5
I0
tp196
g0
(g9
g2
Ntp197
Rp198
(dp199
g13
I01
sg14
F-1.1417251257626508
sg15
g196
sbs(I-1
I2
tp200
g0
(g9
g2
Ntp201
Rp202
(dp203
g13
I01
sg14
F-1.4901969655912717
sg15
g200
sbs(I79
I79
tp204
g0
(g9
g2
Ntp205
Rp206
(dp207
g13
I01
sg14
F0.9141064556399843
sg15
g204
sbs(I-2
I2
tp208
g0
(g9
g2
Ntp209
Rp210
(dp211
g13
I01
sg14
F-0.5708287713238513
sg15
g208
sbs(I-7
I79
tp212
g0
(g9
g2
Ntp213
Rp214
(dp215
g13
I01
sg14
F-1.4891827336652224
sg15
g212
sbs(I-7
I9
tp216
g0
(g9
g2
Ntp217
Rp218
(dp219
g13
I01
sg14
F-0.02499828384045521
sg15
g216
sbs(I-9
I8
tp220
g0
(g9
g2
Ntp221
Rp222
(dp223
g13
I01
sg14
F1.3776806025912673
sg15
g220
sbs(I-8
I0
tp224
g0
(g9
g2
Ntp225
Rp226
(dp227
g13
I01
sg14
F-1.5208202289132393
sg15
g224
sbs(I-10
I79
tp228
g0
(g9
g2
Ntp229
Rp230
(dp231
g13
I01
sg14
F0.20148671919284664
sg15
g228
sbs(I-2
I8
tp232
g0
(g9
g2
Ntp233
Rp234
(dp235
g13
I01
sg14
F1.381552329465906
sg15
g232
sbs(I-3
I0
tp236
g0
(g9
g2
Ntp237
Rp238
(dp239
g13
I01
sg14
F0.8514379652939267
sg15
g236
sbs(I-4
I8
tp240
g0
(g9
g2
Ntp241
Rp242
(dp243
g13
I01
sg14
F-0.7275083845946784
sg15
g240
sbs(I-8
I6
tp244
g0
(g9
g2
Ntp245
Rp246
(dp247
g13
I01
sg14
F-0.5121356670046994
sg15
g244
sbs(I-9
I0
tp248
g0
(g9
g2
Ntp249
Rp250
(dp251
g13
I01
sg14
F0.28260610275926434
sg15
g248
sbs(I-10
I8
tp252
g0
(g9
g2
Ntp253
Rp254
(dp255
g13
I01
sg14
F2.4355651439621675
sg15
g252
sbs(I-8
I9
tp256
g0
(g9
g2
Ntp257
Rp258
(dp259
g13
I01
sg14
F0.9671758041658796
sg15
g256
sbs(I-7
I4
tp260
g0
(g9
g2
Ntp261
Rp262
(dp263
g13
I01
sg14
F-0.0241087215962634
sg15
g260
sbs(I-6
I3
tp264
g0
(g9
g2
Ntp265
Rp266
(dp267
g13
I01
sg14
F1.604683904486749
sg15
g264
sbs(I-9
I2
tp268
g0
(g9
g2
Ntp269
Rp270
(dp271
g13
I01
sg14
F0.5731492216152562
sg15
g268
sbs(I-4
I2
tp272
g0
(g9
g2
Ntp273
Rp274
(dp275
g13
I01
sg14
F0.8389470352408989
sg15
g272
sbs(I79
I7
tp276
g0
(g9
g2
Ntp277
Rp278
(dp279
g13
I01
sg14
F0.3570870823751699
sg15
g276
sbs(I-1
I5
tp280
g0
(g9
g2
Ntp281
Rp282
(dp283
g13
I01
sg14
F1.6644637148606145
sg15
g280
sbs(I-3
I3
tp284
g0
(g9
g2
Ntp285
Rp286
(dp287
g13
I01
sg14
F-0.8619691777580677
sg15
g284
sbs(I-1
I7
tp288
g0
(g9
g2
Ntp289
Rp290
(dp291
g13
I01
sg14
F-0.6322586480404585
sg15
g288
sbs(I-6
I9
tp292
g0
(g9
g2
Ntp293
Rp294
(dp295
g13
I01
sg14
F1.8005467575997347
sg15
g292
sbs(I-7
I7
tp296
g0
(g9
g2
Ntp297
Rp298
(dp299
g13
I01
sg14
F0.9134467060451763
sg15
g296
sbs(I-10
I4
tp300
g0
(g9
g2
Ntp301
Rp302
(dp303
g13
I01
sg14
F1.5235473454086839
sg15
g300
sbs(I-5
I4
tp304
g0
(g9
g2
Ntp305
Rp306
(dp307
g13
I01
sg14
F-0.4372969384529665
sg15
g304
sbs(I-6
I4
tp308
g0
(g9
g2
Ntp309
Rp310
(dp311
g13
I01
sg14
F0.9469104843861774
sg15
g308
sbs(I79
I9
tp312
g0
(g9
g2
Ntp313
Rp314
(dp315
g13
I01
sg14
F0.6324021498195442
sg15
g312
sbs(I-4
I7
tp316
g0
(g9
g2
Ntp317
Rp318
(dp319
g13
I01
sg14
F0.7941750547631669
sg15
g316
sbs(I-5
I9
tp320
g0
(g9
g2
Ntp321
Rp322
(dp323
g13
I01
sg14
F0.04015027979666173
sg15
g320
sbs(I-2
I9
tp324
g0
(g9
g2
Ntp325
Rp326
(dp327
g13
I01
sg14
F1.5887637496825238
sg15
g324
sbs(I-1
I6
tp328
g0
(g9
g2
Ntp329
Rp330
(dp331
g13
I01
sg14
F1.0639176082195954
sg15
g328
sbs(I-3
I6
tp332
g0
(g9
g2
Ntp333
Rp334
(dp335
g13
I01
sg14
F-0.9132091814364959
sg15
g332
sbs(I-9
I1
tp336
g0
(g9
g2
Ntp337
Rp338
(dp339
g13
I01
sg14
F1.8599149742695886
sg15
g336
sbs(I-8
I3
tp340
g0
(g9
g2
Ntp341
Rp342
(dp343
g13
I01
sg14
F-0.5367948069885425
sg15
g340
sbs(I-1
I4
tp344
g0
(g9
g2
Ntp345
Rp346
(dp347
g13
I01
sg14
F-0.6406515056450792
sg15
g344
sbs(I-7
I2
tp348
g0
(g9
g2
Ntp349
Rp350
(dp351
g13
I01
sg14
F0.07058208430413876
sg15
g348
sbs(I-10
I1
tp352
g0
(g9
g2
Ntp353
Rp354
(dp355
g13
I01
sg14
F-0.48753832000706343
sg15
g352
sbs(I-5
I3
tp356
g0
(g9
g2
Ntp357
Rp358
(dp359
g13
I01
sg14
F-0.5057637930967458
sg15
g356
sbs(I-9
I4
tp360
g0
(g9
g2
Ntp361
Rp362
(dp363
g13
I01
sg14
F-0.13256176484866575
sg15
g360
sbs(I-4
I4
tp364
g0
(g9
g2
Ntp365
Rp366
(dp367
g13
I01
sg14
F-0.290388940369479
sg15
g364
sbs(I-1
I3
tp368
g0
(g9
g2
Ntp369
Rp370
(dp371
g13
I01
sg14
F-0.5185657694494611
sg15
g368
sbs(I-3
I9
tp372
g0
(g9
g2
Ntp373
Rp374
(dp375
g13
I01
sg14
F-2.4245458772577444
sg15
g372
sbs(I-7
I8
tp376
g0
(g9
g2
Ntp377
Rp378
(dp379
g13
I01
sg14
F1.5468671901915994
sg15
g376
sbs(I-2
I6
tp380
g0
(g9
g2
Ntp381
Rp382
(dp383
g13
I01
sg14
F-0.16477902522567214
sg15
g380
sbs(I-10
I2
tp384
g0
(g9
g2
Ntp385
Rp386
(dp387
g13
I01
sg14
F-0.1309970891786918
sg15
g384
sbs(I6
I6
tp388
g0
(g9
g2
Ntp389
Rp390
(dp391
g13
I01
sg14
F1.7974367969497052
sg15
g388
sbs(I79
I3
tp392
g0
(g9
g2
Ntp393
Rp394
(dp395
g13
I01
sg14
F-1.908900121027288
sg15
g392
sbs(I-1
I9
tp396
g0
(g9
g2
Ntp397
Rp398
(dp399
g13
I01
sg14
F0.13303117383503096
sg15
g396
sbs(I-4
I9
tp400
g0
(g9
g2
Ntp401
Rp402
(dp403
g13
I01
sg14
F-1.2312238957790176
sg15
g400
sbs(I7
I7
tp404
g0
(g9
g2
Ntp405
Rp406
(dp407
g13
I01
sg14
F0.05405605371919914
sg15
g404
sbs(I-1
I8
tp408
g0
(g9
g2
Ntp409
Rp410
(dp411
g13
I01
sg14
F-0.8415489757059684
sg15
g408
sbs(I-4
I79
tp412
g0
(g9
g2
Ntp413
Rp414
(dp415
g13
I01
sg14
F1.1820156921126217
sg15
g412
sbs(I3
I3
tp416
g0
(g9
g2
Ntp417
Rp418
(dp419
g13
I01
sg14
F-0.009249924220599275
sg15
g416
sbs(I-5
I79
tp420
g0
(g9
g2
Ntp421
Rp422
(dp423
g13
I01
sg14
F-0.23795254814948355
sg15
g420
sbs(I4
I4
tp424
g0
(g9
g2
Ntp425
Rp426
(dp427
g13
I01
sg14
F-2.4621389756632825
sg15
g424
sbs(I-4
I3
tp428
g0
(g9
g2
Ntp429
Rp430
(dp431
g13
I01
sg14
F0.5833155890832373
sg15
g428
sbs(I79
I6
tp432
g0
(g9
g2
Ntp433
Rp434
(dp435
g13
I01
sg14
F-0.7767453621608417
sg15
g432
sbs(I-3
I2
tp436
g0
(g9
g2
Ntp437
Rp438
(dp439
g13
I01
sg14
F1.0110528013074802
sg15
g436
sbs(I0
I0
tp440
g0
(g9
g2
Ntp441
Rp442
(dp443
g13
I01
sg14
F-0.4186910667509914
sg15
g440
sbs(I-8
I7
tp444
g0
(g9
g2
Ntp445
Rp446
(dp447
g13
I01
sg14
F1.1586656785889824
sg15
g444
sbs(I-9
I9
tp448
g0
(g9
g2
Ntp449
Rp450
(dp451
g13
I01
sg14
F1.4324587645202989
sg15
g448
sbs(I-10
I6
tp452
g0
(g9
g2
Ntp453
Rp454
(dp455
g13
I01
sg14
F-0.6939083089259765
sg15
g452
sbs(I-7
I6
tp456
g0
(g9
g2
Ntp457
Rp458
(dp459
g13
I01
sg14
F1.4787630459532142
sg15
g456
sbs(I-2
I1
tp460
g0
(g9
g2
Ntp461
Rp462
(dp463
g13
I01
sg14
F0.49143793558955257
sg15
g460
sbs(I-10
I5
tp464
g0
(g9
g2
Ntp465
Rp466
(dp467
g13
I01
sg14
F0.6484925184087725
sg15
g464
sbs(I-5
I7
tp468
g0
(g9
g2
Ntp469
Rp470
(dp471
g13
I01
sg14
F0.43314924476431604
sg15
g468
sbs(I-6
I5
tp472
g0
(g9
g2
Ntp473
Rp474
(dp475
g13
I01
sg14
F-0.1367679665023464
sg15
g472
sbs(I79
I8
tp476
g0
(g9
g2
Ntp477
Rp478
(dp479
g13
I01
sg14
F-0.939475921361294
sg15
g476
sbs(I-9
I79
tp480
g0
(g9
g2
Ntp481
Rp482
(dp483
g13
I01
sg14
F1.4396640374733483
sg15
g480
sbs(I-4
I0
tp484
g0
(g9
g2
Ntp485
Rp486
(dp487
g13
I01
sg14
F1.233786505561459
sg15
g484
sbs(I-5
I8
tp488
g0
(g9
g2
Ntp489
Rp490
(dp491
g13
I01
sg14
F1.4697495938932854
sg15
g488
sbs(I79
I5
tp492
g0
(g9
g2
Ntp493
Rp494
(dp495
g13
I01
sg14
F-0.4916929682793701
sg15
g492
sbs(I-2
I7
tp496
g0
(g9
g2
Ntp497
Rp498
(dp499
g13
I01
sg14
F1.6779446525926984
sg15
g496
sbs(I-3
I5
tp500
g0
(g9
g2
Ntp501
Rp502
(dp503
g13
I01
sg14
F-0.8897674366566072
sg15
g500
sbs(I-8
I79
tp504
g0
(g9
g2
Ntp505
Rp506
(dp507
g13
I01
sg14
F2.0099693097742515
sg15
g504
sbs(I-8
I4
tp508
g0
(g9
g2
Ntp509
Rp510
(dp511
g13
I01
sg14
F0.6652304495140686
sg15
g508
sbs(I8
I8
tp512
g0
(g9
g2
Ntp513
Rp514
(dp515
g13
I01
sg14
F-1.7135121742968948
sg15
g512
sbs(I-7
I1
tp516
g0
(g9
g2
Ntp517
Rp518
(dp519
g13
I01
sg14
F-2.0535758379619127
sg15
g516
sbs(I-6
I0
tp520
g0
(g9
g2
Ntp521
Rp522
(dp523
g13
I01
sg14
F-0.2920078808713637
sg15
g520
sbs(I-5
I2
tp524
g0
(g9
g2
Ntp525
Rp526
(dp527
g13
I01
sg14
F-0.49042171362927156
sg15
g524
sbs(I-6
I6
tp528
g0
(g9
g2
Ntp529
Rp530
(dp531
g13
I01
sg14
F-0.12421917329426195
sg15
g528
sbs(I-9
I7
tp532
g0
(g9
g2
Ntp533
Rp534
(dp535
g13
I01
sg14
F-0.6580287178381037
sg15
g532
sbssS'nodes'
p536
(dp537
I0
g0
(cneat.genes
DefaultNodeGene
p538
g2
Ntp539
Rp540
(dp541
S'activation'
p542
S'relu'
p543
sS'bias'
p544
F6.653507802487408
sS'response'
p545
F1.0
sg15
I0
sS'aggregation'
p546
S'sum'
p547
sbsI1
g0
(g538
g2
Ntp548
Rp549
(dp550
g542
g543
sg544
F-5.0031207381647045
sg545
F1.0
sg15
I1
sg546
g547
sbsI2
g0
(g538
g2
Ntp551
Rp552
(dp553
g542
g543
sg544
F-16.549815169717533
sg545
F1.0
sg15
I2
sg546
g547
sbsI3
g0
(g538
g2
Ntp554
Rp555
(dp556
g542
g543
sg544
F-11.664240544685747
sg545
F1.0
sg15
I3
sg546
g547
sbsI4
g0
(g538
g2
Ntp557
Rp558
(dp559
g542
g543
sg544
F16.26619010301015
sg545
F1.0
sg15
I4
sg546
g547
sbsI5
g0
(g538
g2
Ntp560
Rp561
(dp562
g542
g543
sg544
F2.7528548708100504
sg545
F1.0
sg15
I5
sg546
g547
sbsI6
g0
(g538
g2
Ntp563
Rp564
(dp565
g542
g543
sg544
F-9.960592132302992
sg545
F1.0
sg15
I6
sg546
g547
sbsI7
g0
(g538
g2
Ntp566
Rp567
(dp568
g542
g543
sg544
F15.577794620435693
sg545
F1.0
sg15
I7
sg546
g547
sbsI8
g0
(g538
g2
Ntp569
Rp570
(dp571
g542
g543
sg544
F-5.244047535523792
sg545
F1.0
sg15
I8
sg546
g547
sbsI9
g0
(g538
g2
Ntp572
Rp573
(dp574
g542
g543
sg544
F-10.860881185933827
sg545
F1.0
sg15
I9
sg546
g547
sbsI79
g0
(g538
g2
Ntp575
Rp576
(dp577
g542
g543
sg544
F-5.11999740167423
sg545
F1.0
sg15
I79
sg546
g547
sbssg15
I70
sS'fitness'
p578
Nsb.