ccopy_reg
_reconstructor
p0
(cneat.genome
DefaultGenome
p1
c__builtin__
object
p2
Ntp3
Rp4
(dp5
S'connections'
p6
(dp7
(I-20
I79
tp8
g0
(cneat.genes
DefaultConnectionGene
p9
g2
Ntp10
Rp11
(dp12
S'enabled'
p13
I01
sS'weight'
p14
F1.0228963752479998
sS'key'
p15
g8
sbs(I-11
I79
tp16
g0
(g9
g2
Ntp17
Rp18
(dp19
g13
I01
sg14
F-0.3011264592067596
sg15
g16
sbs(I-2
I79
tp20
g0
(g9
g2
Ntp21
Rp22
(dp23
g13
I01
sg14
F-0.8198305034515508
sg15
g20
sbs(I79
I0
tp24
g0
(g9
g2
Ntp25
Rp26
(dp27
g13
I01
sg14
F1.0673927362841384
sg15
g24
sbs(I-4
I79
tp28
g0
(g9
g2
Ntp29
Rp30
(dp31
g13
I01
sg14
F-0.2649696012766991
sg15
g28
sbs(I79
I7
tp32
g0
(g9
g2
Ntp33
Rp34
(dp35
g13
I01
sg14
F-0.1646531638186952
sg15
g32
sbs(I-1
I79
tp36
g0
(g9
g2
Ntp37
Rp38
(dp39
g13
I01
sg14
F-0.6552240248765557
sg15
g36
sbs(I-12
I79
tp40
g0
(g9
g2
Ntp41
Rp42
(dp43
g13
I01
sg14
F-0.6948134308612425
sg15
g40
sbs(I79
I2
tp44
g0
(g9
g2
Ntp45
Rp46
(dp47
g13
I01
sg14
F-0.3110373174849725
sg15
g44
sbs(I-14
I79
tp48
g0
(g9
g2
Ntp49
Rp50
(dp51
g13
I01
sg14
F0.12111137283035185
sg15
g48
sbs(I-5
I79
tp52
g0
(g9
g2
Ntp53
Rp54
(dp55
g13
I01
sg14
F0.8830355636323656
sg15
g52
sbs(I-13
I79
tp56
g0
(g9
g2
Ntp57
Rp58
(dp59
g13
I01
sg14
F-1.125788588268431
sg15
g56
sbs(I79
I6
tp60
g0
(g9
g2
Ntp61
Rp62
(dp63
g13
I01
sg14
F-0.7580712208862432
sg15
g60
sbs(I79
I3
tp64
g0
(g9
g2
Ntp65
Rp66
(dp67
g13
I01
sg14
F1.470188132028565
sg15
g64
sbs(I-15
I79
tp68
g0
(g9
g2
Ntp69
Rp70
(dp71
g13
I01
sg14
F-0.2410093896929558
sg15
g68
sbs(I-6
I79
tp72
g0
(g9
g2
Ntp73
Rp74
(dp75
g13
I01
sg14
F-0.3200605151054158
sg15
g72
sbs(I79
I9
tp76
g0
(g9
g2
Ntp77
Rp78
(dp79
g13
I01
sg14
F1.2769801451897265
sg15
g76
sbs(I79
I1
tp80
g0
(g9
g2
Ntp81
Rp82
(dp83
g13
I01
sg14
F0.9164568223494376
sg15
g80
sbs(I79
I8
tp84
g0
(g9
g2
Ntp85
Rp86
(dp87
g13
I01
sg14
F-0.14003882740547904
sg15
g84
sbs(I-9
I79
tp88
g0
(g9
g2
Ntp89
Rp90
(dp91
g13
I01
sg14
F0.14163269101728063
sg15
g88
sbs(I-16
I79
tp92
g0
(g9
g2
Ntp93
Rp94
(dp95
g13
I01
sg14
F0.389777029178166
sg15
g92
sbs(I-7
I79
tp96
g0
(g9
g2
Ntp97
Rp98
(dp99
g13
I01
sg14
F-0.3436114989309293
sg15
g96
sbs(I79
I5
tp100
g0
(g9
g2
Ntp101
Rp102
(dp103
g13
I01
sg14
F1.7615350740540114
sg15
g100
sbs(I-17
I79
tp104
g0
(g9
g2
Ntp105
Rp106
(dp107
g13
I01
sg14
F-0.45377462044697503
sg15
g104
sbs(I-19
I79
tp108
g0
(g9
g2
Ntp109
Rp110
(dp111
g13
I01
sg14
F0.5931422563341563
sg15
g108
sbs(I-10
I79
tp112
g0
(g9
g2
Ntp113
Rp114
(dp115
g13
I01
sg14
F0.2139194368073838
sg15
g112
sbs(I-8
I79
tp116
g0
(g9
g2
Ntp117
Rp118
(dp119
g13
I01
sg14
F-0.19725584001327623
sg15
g116
sbs(I-18
I79
tp120
g0
(g9
g2
Ntp121
Rp122
(dp123
g13
I01
sg14
F-0.5181680890959222
sg15
g120
sbs(I79
I4
tp124
g0
(g9
g2
Ntp125
Rp126
(dp127
g13
I01
sg14
F1.0634763271233123
sg15
g124
sbs(I-3
I79
tp128
g0
(g9
g2
Ntp129
Rp130
(dp131
g13
I01
sg14
F0.6752666441749811
sg15
g128
sbssS'nodes'
p132
(dp133
I0
g0
(cneat.genes
DefaultNodeGene
p134
g2
Ntp135
Rp136
(dp137
S'activation'
p138
S'relu'
p139
sS'bias'
p140
F-1.0232906881440997
sS'response'
p141
F1.0
sg15
I0
sS'aggregation'
p142
S'sum'
p143
sbsI1
g0
(g134
g2
Ntp144
Rp145
(dp146
g138
g139
sg140
F-20.93582200205555
sg141
F1.0
sg15
I1
sg142
g143
sbsI2
g0
(g134
g2
Ntp147
Rp148
(dp149
g138
g139
sg140
F-0.9288965154126859
sg141
F1.0
sg15
I2
sg142
g143
sbsI3
g0
(g134
g2
Ntp150
Rp151
(dp152
g138
g139
sg140
F-8.092074403825164
sg141
F1.0
sg15
I3
sg142
g143
sbsI4
g0
(g134
g2
Ntp153
Rp154
(dp155
g138
g139
sg140
F-5.7304517935847095
sg141
F1.0
sg15
I4
sg142
g143
sbsI5
g0
(g134
g2
Ntp156
Rp157
(dp158
g138
g139
sg140
F7.667976663249888
sg141
F1.0
sg15
I5
sg142
g143
sbsI6
g0
(g134
g2
Ntp159
Rp160
(dp161
g138
g139
sg140
F-20.378726152718208
sg141
F1.0
sg15
I6
sg142
g143
sbsI7
g0
(g134
g2
Ntp162
Rp163
(dp164
g138
g139
sg140
F-7.016941541018373
sg141
F1.0
sg15
I7
sg142
g143
sbsI8
g0
(g134
g2
Ntp165
Rp166
(dp167
g138
g139
sg140
F-1.2733341570409065
sg141
F1.0
sg15
I8
sg142
g143
sbsI9
g0
(g134
g2
Ntp168
Rp169
(dp170
g138
g139
sg140
F-7.901382189266327
sg141
F1.0
sg15
I9
sg142
g143
sbsI79
g0
(g134
g2
Ntp171
Rp172
(dp173
g138
g139
sg140
F3.2429702399345484
sg141
F1.0
sg15
I79
sg142
g143
sbssg15
I70
sS'fitness'
p174
F0.05207916221361865
sb.