ccopy_reg
_reconstructor
p0
(cneat.genome
DefaultGenome
p1
c__builtin__
object
p2
Ntp3
Rp4
(dp5
S'connections'
p6
(dp7
(I-4
I5
tp8
g0
(cneat.genes
DefaultConnectionGene
p9
g2
Ntp10
Rp11
(dp12
S'enabled'
p13
I01
sS'weight'
p14
F-0.22159575307228188
sS'key'
p15
g8
sbs(I257
I3
tp16
g0
(g9
g2
Ntp17
Rp18
(dp19
g13
I00
sg14
F-0.2212308330073287
sg15
g16
sbs(I255
I8
tp20
g0
(g9
g2
Ntp21
Rp22
(dp23
g13
I01
sg14
F1.40217144917711
sg15
g20
sbs(I-9
I255
tp24
g0
(g9
g2
Ntp25
Rp26
(dp27
g13
I01
sg14
F1.0736374782951472
sg15
g24
sbs(I6
I6
tp28
g0
(g9
g2
Ntp29
Rp30
(dp31
g13
I01
sg14
F-1.007636590479057
sg15
g28
sbs(I257
I717
tp32
g0
(g9
g2
Ntp33
Rp34
(dp35
g13
I01
sg14
F2.0604702004190436
sg15
g32
sbs(I257
I6
tp36
g0
(g9
g2
Ntp37
Rp38
(dp39
g13
I00
sg14
F-0.02703875376305526
sg15
g36
sbs(I-5
I255
tp40
g0
(g9
g2
Ntp41
Rp42
(dp43
g13
I01
sg14
F2.563389083586979
sg15
g40
sbs(I255
I0
tp44
g0
(g9
g2
Ntp45
Rp46
(dp47
g13
I00
sg14
F1.4607961889923988
sg15
g44
sbs(I257
I2
tp48
g0
(g9
g2
Ntp49
Rp50
(dp51
g13
I01
sg14
F0.24422166597712602
sg15
g48
sbs(I-5
I257
tp52
g0
(g9
g2
Ntp53
Rp54
(dp55
g13
I01
sg14
F0.8611585307332552
sg15
g52
sbs(I3
I3
tp56
g0
(g9
g2
Ntp57
Rp58
(dp59
g13
I00
sg14
F2.4046006148769368
sg15
g56
sbs(I255
I4
tp60
g0
(g9
g2
Ntp61
Rp62
(dp63
g13
I00
sg14
F-0.20436360012900423
sg15
g60
sbs(I740
I1
tp64
g0
(g9
g2
Ntp65
Rp66
(dp67
g13
I01
sg14
F-1.001206049060134
sg15
g64
sbs(I257
I5
tp68
g0
(g9
g2
Ntp69
Rp70
(dp71
g13
I00
sg14
F1.7368935281830347
sg15
g68
sbs(I2
I2
tp72
g0
(g9
g2
Ntp73
Rp74
(dp75
g13
I01
sg14
F-3.023932885467575
sg15
g72
sbs(I255
I3
tp76
g0
(g9
g2
Ntp77
Rp78
(dp79
g13
I01
sg14
F1.133682511734908
sg15
g76
sbs(I257
I411
tp80
g0
(g9
g2
Ntp81
Rp82
(dp83
g13
I01
sg14
F2.171529548424282
sg15
g80
sbs(I255
I255
tp84
g0
(g9
g2
Ntp85
Rp86
(dp87
g13
I01
sg14
F-0.6538444843695306
sg15
g84
sbs(I-7
I255
tp88
g0
(g9
g2
Ntp89
Rp90
(dp91
g13
I01
sg14
F0.9255275016662081
sg15
g88
sbs(I-10
I255
tp92
g0
(g9
g2
Ntp93
Rp94
(dp95
g13
I01
sg14
F2.8985072175034023
sg15
g92
sbs(I717
I4
tp96
g0
(g9
g2
Ntp97
Rp98
(dp99
g13
I01
sg14
F-0.905317360536018
sg15
g96
sbs(I257
I4
tp100
g0
(g9
g2
Ntp101
Rp102
(dp103
g13
I00
sg14
F0.6264586537913338
sg15
g100
sbs(I-2
I255
tp104
g0
(g9
g2
Ntp105
Rp106
(dp107
g13
I00
sg14
F-0.33351841203942484
sg15
g104
sbs(I257
I9
tp108
g0
(g9
g2
Ntp109
Rp110
(dp111
g13
I01
sg14
F-2.239000129909371
sg15
g108
sbs(I-3
I255
tp112
g0
(g9
g2
Ntp113
Rp114
(dp115
g13
I01
sg14
F1.2624410894532017
sg15
g112
sbs(I257
I740
tp116
g0
(g9
g2
Ntp117
Rp118
(dp119
g13
I01
sg14
F1.4265187106152415
sg15
g116
sbs(I257
I257
tp120
g0
(g9
g2
Ntp121
Rp122
(dp123
g13
I01
sg14
F-2.9386080159261327
sg15
g120
sbs(I-3
I4
tp124
g0
(g9
g2
Ntp125
Rp126
(dp127
g13
I01
sg14
F-0.0611580922618815
sg15
g124
sbs(I411
I3
tp128
g0
(g9
g2
Ntp129
Rp130
(dp131
g13
I00
sg14
F1.9344210226049994
sg15
g128
sbs(I255
I1
tp132
g0
(g9
g2
Ntp133
Rp134
(dp135
g13
I01
sg14
F0.5404033070364046
sg15
g132
sbssS'nodes'
p136
(dp137
I0
g0
(cneat.genes
DefaultNodeGene
p138
g2
Ntp139
Rp140
(dp141
S'activation'
p142
S'tanh'
p143
sS'bias'
p144
F3.705777791984743
sS'response'
p145
F1.0
sg15
I0
sS'aggregation'
p146
S'sum'
p147
sbsI1
g0
(g138
g2
Ntp148
Rp149
(dp150
g142
g143
sg144
F-0.09737680296758755
sg145
F1.0
sg15
I1
sg146
g147
sbsI2
g0
(g138
g2
Ntp151
Rp152
(dp153
g142
g143
sg144
F-9.104843629800538
sg145
F1.0
sg15
I2
sg146
g147
sbsI3
g0
(g138
g2
Ntp154
Rp155
(dp156
g142
g143
sg144
F7.1536140317889565
sg145
F1.0
sg15
I3
sg146
g147
sbsI4
g0
(g138
g2
Ntp157
Rp158
(dp159
g142
g143
sg144
F-9.274753558990568
sg145
F1.0
sg15
I4
sg146
g147
sbsI5
g0
(g138
g2
Ntp160
Rp161
(dp162
g142
g143
sg144
F20.630717027203556
sg145
F1.0
sg15
I5
sg146
g147
sbsI6
g0
(g138
g2
Ntp163
Rp164
(dp165
g142
g143
sg144
F20.3593348535256
sg145
F1.0
sg15
I6
sg146
g147
sbsI7
g0
(g138
g2
Ntp166
Rp167
(dp168
g142
g143
sg144
F-9.365003796928958
sg145
F1.0
sg15
I7
sg146
g147
sbsI8
g0
(g138
g2
Ntp169
Rp170
(dp171
g142
g143
sg144
F-14.485509720168325
sg145
F1.0
sg15
I8
sg146
g147
sbsI9
g0
(g138
g2
Ntp172
Rp173
(dp174
g142
g143
sg144
F1.3719563493093938
sg145
F1.0
sg15
I9
sg146
g147
sbsI257
g0
(g138
g2
Ntp175
Rp176
(dp177
g142
g143
sg144
F-15.55051917735993
sg145
F1.0
sg15
I257
sg146
g147
sbsI717
g0
(g138
g2
Ntp178
Rp179
(dp180
g142
g143
sg144
F-16.01883453347409
sg145
F1.0
sg15
I717
sg146
g147
sbsI740
g0
(g138
g2
Ntp181
Rp182
(dp183
g142
g143
sg144
F8.226648704160208
sg145
F1.0
sg15
I740
sg146
g147
sbsI411
g0
(g138
g2
Ntp184
Rp185
(dp186
g142
g143
sg144
F3.882345767660692
sg145
F1.0
sg15
I411
sg146
g147
sbsI255
g0
(g138
g2
Ntp187
Rp188
(dp189
g142
g143
sg144
F2.859048716404163
sg145
F1.0
sg15
I255
sg146
g147
sbssg15
I70
sS'fitness'
p190
F0.023410219393660947
sb.