ccopy_reg
_reconstructor
p0
(cneat.genome
DefaultGenome
p1
c__builtin__
object
p2
Ntp3
Rp4
(dp5
S'connections'
p6
(dp7
(I-20
I79
tp8
g0
(cneat.genes
DefaultConnectionGene
p9
g2
Ntp10
Rp11
(dp12
S'enabled'
p13
I01
sS'weight'
p14
F-0.8519955696624374
sS'key'
p15
g8
sbs(I-11
I79
tp16
g0
(g9
g2
Ntp17
Rp18
(dp19
g13
I01
sg14
F-1.277558382695435
sg15
g16
sbs(I-2
I79
tp20
g0
(g9
g2
Ntp21
Rp22
(dp23
g13
I01
sg14
F1.582607230134686
sg15
g20
sbs(I79
I0
tp24
g0
(g9
g2
Ntp25
Rp26
(dp27
g13
I01
sg14
F0.37858286390719553
sg15
g24
sbs(I-4
I79
tp28
g0
(g9
g2
Ntp29
Rp30
(dp31
g13
I01
sg14
F-1.2075705613305994
sg15
g28
sbs(I79
I7
tp32
g0
(g9
g2
Ntp33
Rp34
(dp35
g13
I01
sg14
F0.08021445728478455
sg15
g32
sbs(I-1
I79
tp36
g0
(g9
g2
Ntp37
Rp38
(dp39
g13
I01
sg14
F2.1250699328149834
sg15
g36
sbs(I-12
I79
tp40
g0
(g9
g2
Ntp41
Rp42
(dp43
g13
I01
sg14
F1.850934528536529
sg15
g40
sbs(I79
I2
tp44
g0
(g9
g2
Ntp45
Rp46
(dp47
g13
I01
sg14
F-0.12791933489977161
sg15
g44
sbs(I-14
I79
tp48
g0
(g9
g2
Ntp49
Rp50
(dp51
g13
I01
sg14
F0.08352402242923092
sg15
g48
sbs(I-5
I79
tp52
g0
(g9
g2
Ntp53
Rp54
(dp55
g13
I01
sg14
F-0.9037113794777014
sg15
g52
sbs(I-13
I79
tp56
g0
(g9
g2
Ntp57
Rp58
(dp59
g13
I01
sg14
F0.9280342047441127
sg15
g56
sbs(I79
I6
tp60
g0
(g9
g2
Ntp61
Rp62
(dp63
g13
I01
sg14
F-1.0964678536066623
sg15
g60
sbs(I79
I3
tp64
g0
(g9
g2
Ntp65
Rp66
(dp67
g13
I01
sg14
F0.22512356712558831
sg15
g64
sbs(I-15
I79
tp68
g0
(g9
g2
Ntp69
Rp70
(dp71
g13
I01
sg14
F0.5120095698782516
sg15
g68
sbs(I-6
I79
tp72
g0
(g9
g2
Ntp73
Rp74
(dp75
g13
I01
sg14
F-1.191817522744562
sg15
g72
sbs(I79
I9
tp76
g0
(g9
g2
Ntp77
Rp78
(dp79
g13
I01
sg14
F0.4712262727464672
sg15
g76
sbs(I79
I1
tp80
g0
(g9
g2
Ntp81
Rp82
(dp83
g13
I01
sg14
F-0.634613996577925
sg15
g80
sbs(I79
I8
tp84
g0
(g9
g2
Ntp85
Rp86
(dp87
g13
I01
sg14
F0.6170400542483276
sg15
g84
sbs(I-9
I79
tp88
g0
(g9
g2
Ntp89
Rp90
(dp91
g13
I01
sg14
F-0.06477715155860686
sg15
g88
sbs(I-16
I79
tp92
g0
(g9
g2
Ntp93
Rp94
(dp95
g13
I01
sg14
F-0.021487071319748915
sg15
g92
sbs(I-7
I79
tp96
g0
(g9
g2
Ntp97
Rp98
(dp99
g13
I01
sg14
F1.4391875873815074
sg15
g96
sbs(I79
I5
tp100
g0
(g9
g2
Ntp101
Rp102
(dp103
g13
I01
sg14
F1.1900153473311397
sg15
g100
sbs(I-17
I79
tp104
g0
(g9
g2
Ntp105
Rp106
(dp107
g13
I01
sg14
F-0.003644861822683283
sg15
g104
sbs(I-19
I79
tp108
g0
(g9
g2
Ntp109
Rp110
(dp111
g13
I01
sg14
F-1.649932178660987
sg15
g108
sbs(I-10
I79
tp112
g0
(g9
g2
Ntp113
Rp114
(dp115
g13
I01
sg14
F0.20461741156716648
sg15
g112
sbs(I-8
I79
tp116
g0
(g9
g2
Ntp117
Rp118
(dp119
g13
I01
sg14
F1.0301158170288078
sg15
g116
sbs(I-18
I79
tp120
g0
(g9
g2
Ntp121
Rp122
(dp123
g13
I01
sg14
F-0.21272720267885079
sg15
g120
sbs(I79
I4
tp124
g0
(g9
g2
Ntp125
Rp126
(dp127
g13
I01
sg14
F2.234560755945645
sg15
g124
sbs(I-3
I79
tp128
g0
(g9
g2
Ntp129
Rp130
(dp131
g13
I01
sg14
F0.3293617192835186
sg15
g128
sbssS'nodes'
p132
(dp133
I0
g0
(cneat.genes
DefaultNodeGene
p134
g2
Ntp135
Rp136
(dp137
S'activation'
p138
S'relu'
p139
sS'bias'
p140
F-11.838226144001265
sS'response'
p141
F1.0
sg15
I0
sS'aggregation'
p142
S'sum'
p143
sbsI1
g0
(g134
g2
Ntp144
Rp145
(dp146
g138
g139
sg140
F8.281141878824744
sg141
F1.0
sg15
I1
sg142
g143
sbsI2
g0
(g134
g2
Ntp147
Rp148
(dp149
g138
g139
sg140
F-9.81516417765817
sg141
F1.0
sg15
I2
sg142
g143
sbsI3
g0
(g134
g2
Ntp150
Rp151
(dp152
g138
g139
sg140
F-16.40370328426291
sg141
F1.0
sg15
I3
sg142
g143
sbsI4
g0
(g134
g2
Ntp153
Rp154
(dp155
g138
g139
sg140
F8.062386831365224
sg141
F1.0
sg15
I4
sg142
g143
sbsI5
g0
(g134
g2
Ntp156
Rp157
(dp158
g138
g139
sg140
F-9.80468905565733
sg141
F1.0
sg15
I5
sg142
g143
sbsI6
g0
(g134
g2
Ntp159
Rp160
(dp161
g138
g139
sg140
F-5.177542590049229
sg141
F1.0
sg15
I6
sg142
g143
sbsI7
g0
(g134
g2
Ntp162
Rp163
(dp164
g138
g139
sg140
F7.008695875426481
sg141
F1.0
sg15
I7
sg142
g143
sbsI8
g0
(g134
g2
Ntp165
Rp166
(dp167
g138
g139
sg140
F5.788612112725579
sg141
F1.0
sg15
I8
sg142
g143
sbsI9
g0
(g134
g2
Ntp168
Rp169
(dp170
g138
g139
sg140
F1.2846648153868494
sg141
F1.0
sg15
I9
sg142
g143
sbsI79
g0
(g134
g2
Ntp171
Rp172
(dp173
g138
g139
sg140
F10.70552336425768
sg141
F1.0
sg15
I79
sg142
g143
sbssg15
I70
sS'fitness'
p174
Nsb.