ccopy_reg
_reconstructor
p0
(cneat.genome
DefaultGenome
p1
c__builtin__
object
p2
Ntp3
Rp4
(dp5
S'connections'
p6
(dp7
(I327
I3
tp8
g0
(cneat.genes
DefaultConnectionGene
p9
g2
Ntp10
Rp11
(dp12
S'enabled'
p13
I01
sS'weight'
p14
F-1.4538514094257282
sS'key'
p15
g8
sbs(I4
I327
tp16
g0
(g9
g2
Ntp17
Rp18
(dp19
g13
I00
sg14
F1.432561205658547
sg15
g16
sbs(I0
I0
tp20
g0
(g9
g2
Ntp21
Rp22
(dp23
g13
I00
sg14
F-0.36416790035366137
sg15
g20
sbs(I3
I3
tp24
g0
(g9
g2
Ntp25
Rp26
(dp27
g13
I01
sg14
F-0.229048332090839
sg15
g24
sbs(I-8
I327
tp28
g0
(g9
g2
Ntp29
Rp30
(dp31
g13
I00
sg14
F-2.6518974964495783
sg15
g28
sbs(I747
I327
tp32
g0
(g9
g2
Ntp33
Rp34
(dp35
g13
I01
sg14
F0.8401130758511861
sg15
g32
sbs(I327
I6
tp36
g0
(g9
g2
Ntp37
Rp38
(dp39
g13
I01
sg14
F-0.5819507028132657
sg15
g36
sbs(I327
I728
tp40
g0
(g9
g2
Ntp41
Rp42
(dp43
g13
I01
sg14
F0.8689204089553882
sg15
g40
sbs(I327
I7
tp44
g0
(g9
g2
Ntp45
Rp46
(dp47
g13
I01
sg14
F-0.4436447775729065
sg15
g44
sbs(I-4
I3
tp48
g0
(g9
g2
Ntp49
Rp50
(dp51
g13
I01
sg14
F-0.053828943782636814
sg15
g48
sbs(I-8
I3
tp52
g0
(g9
g2
Ntp53
Rp54
(dp55
g13
I01
sg14
F-0.16345141610332847
sg15
g52
sbs(I8
I8
tp56
g0
(g9
g2
Ntp57
Rp58
(dp59
g13
I00
sg14
F-0.7980784071454099
sg15
g56
sbs(I-10
I327
tp60
g0
(g9
g2
Ntp61
Rp62
(dp63
g13
I00
sg14
F2.353598071329401
sg15
g60
sbs(I728
I2
tp64
g0
(g9
g2
Ntp65
Rp66
(dp67
g13
I01
sg14
F1.3742381420607876
sg15
g64
sbs(I2
I2
tp68
g0
(g9
g2
Ntp69
Rp70
(dp71
g13
I01
sg14
F1.4171706549372027
sg15
g68
sbs(I-10
I747
tp72
g0
(g9
g2
Ntp73
Rp74
(dp75
g13
I01
sg14
F0.18782985551777487
sg15
g72
sbs(I-4
I327
tp76
g0
(g9
g2
Ntp77
Rp78
(dp79
g13
I01
sg14
F0.514600353784292
sg15
g76
sbs(I327
I8
tp80
g0
(g9
g2
Ntp81
Rp82
(dp83
g13
I01
sg14
F1.1283350393367182
sg15
g80
sbs(I1
I1
tp84
g0
(g9
g2
Ntp85
Rp86
(dp87
g13
I01
sg14
F1.0830779795079544
sg15
g84
sbs(I327
I2
tp88
g0
(g9
g2
Ntp89
Rp90
(dp91
g13
I00
sg14
F0.524833623722356
sg15
g88
sbs(I327
I9
tp92
g0
(g9
g2
Ntp93
Rp94
(dp95
g13
I01
sg14
F-1.4277953050826413
sg15
g92
sbssS'nodes'
p96
(dp97
I0
g0
(cneat.genes
DefaultNodeGene
p98
g2
Ntp99
Rp100
(dp101
S'activation'
p102
S'tanh'
p103
sS'bias'
p104
F-14.539243563401175
sS'response'
p105
F1.0
sg15
I0
sS'aggregation'
p106
S'sum'
p107
sbsI1
g0
(g98
g2
Ntp108
Rp109
(dp110
g102
g103
sg104
F-16.485664656971363
sg105
F1.0
sg15
I1
sg106
g107
sbsI2
g0
(g98
g2
Ntp111
Rp112
(dp113
g102
g103
sg104
F-2.0498032104860893
sg105
F1.0
sg15
I2
sg106
g107
sbsI3
g0
(g98
g2
Ntp114
Rp115
(dp116
g102
g103
sg104
F-5.9015180399333085
sg105
F1.0
sg15
I3
sg106
g107
sbsI4
g0
(g98
g2
Ntp117
Rp118
(dp119
g102
g103
sg104
F-3.5747263982710225
sg105
F1.0
sg15
I4
sg106
g107
sbsI5
g0
(g98
g2
Ntp120
Rp121
(dp122
g102
g103
sg104
F-2.26558689288439
sg105
F1.0
sg15
I5
sg106
g107
sbsI6
g0
(g98
g2
Ntp123
Rp124
(dp125
g102
g103
sg104
F-4.871959840495641
sg105
F1.0
sg15
I6
sg106
g107
sbsI7
g0
(g98
g2
Ntp126
Rp127
(dp128
g102
g103
sg104
F-9.031722577198295
sg105
F1.0
sg15
I7
sg106
g107
sbsI8
g0
(g98
g2
Ntp129
Rp130
(dp131
g102
g103
sg104
F1.1349028895020388
sg105
F1.0
sg15
I8
sg106
g107
sbsI9
g0
(g98
g2
Ntp132
Rp133
(dp134
g102
g103
sg104
F22.065757015074407
sg105
F1.0
sg15
I9
sg106
g107
sbsI327
g0
(g98
g2
Ntp135
Rp136
(dp137
g102
g103
sg104
F-3.3814393925158384
sg105
F1.0
sg15
I327
sg106
g107
sbsI747
g0
(g98
g2
Ntp138
Rp139
(dp140
g102
S'relu'
p141
sg104
F0.4937233968849526
sg105
F1.0
sg15
I747
sg106
g107
sbsI728
g0
(g98
g2
Ntp142
Rp143
(dp144
g102
g103
sg104
F-11.910057514739679
sg105
F1.0
sg15
I728
sg106
g107
sbssg15
I71
sS'fitness'
p145
F0.09924746747025326
sb.