ccopy_reg
_reconstructor
p0
(cneat.genome
DefaultGenome
p1
c__builtin__
object
p2
Ntp3
Rp4
(dp5
S'connections'
p6
(dp7
(I-18
I80
tp8
g0
(cneat.genes
DefaultConnectionGene
p9
g2
Ntp10
Rp11
(dp12
S'enabled'
p13
I01
sS'weight'
p14
F-0.9945324477503317
sS'key'
p15
g8
sbs(I80
I4
tp16
g0
(g9
g2
Ntp17
Rp18
(dp19
g13
I01
sg14
F-1.4660638070770884
sg15
g16
sbs(I-13
I80
tp20
g0
(g9
g2
Ntp21
Rp22
(dp23
g13
I01
sg14
F-0.1891436443444523
sg15
g20
sbs(I-8
I80
tp24
g0
(g9
g2
Ntp25
Rp26
(dp27
g13
I01
sg14
F1.5896636414207397
sg15
g24
sbs(I80
I0
tp28
g0
(g9
g2
Ntp29
Rp30
(dp31
g13
I01
sg14
F-0.9092395276705677
sg15
g28
sbs(I-17
I80
tp32
g0
(g9
g2
Ntp33
Rp34
(dp35
g13
I01
sg14
F-2.2112577517195677
sg15
g32
sbs(I-12
I80
tp36
g0
(g9
g2
Ntp37
Rp38
(dp39
g13
I01
sg14
F-0.5727170078758624
sg15
g36
sbs(I-7
I80
tp40
g0
(g9
g2
Ntp41
Rp42
(dp43
g13
I01
sg14
F-1.7001512228158886
sg15
g40
sbs(I-16
I80
tp44
g0
(g9
g2
Ntp45
Rp46
(dp47
g13
I01
sg14
F-0.8591779055176727
sg15
g44
sbs(I80
I5
tp48
g0
(g9
g2
Ntp49
Rp50
(dp51
g13
I01
sg14
F-0.5328613662242558
sg15
g48
sbs(I80
I8
tp52
g0
(g9
g2
Ntp53
Rp54
(dp55
g13
I01
sg14
F0.07168483874600577
sg15
g52
sbs(I80
I1
tp56
g0
(g9
g2
Ntp57
Rp58
(dp59
g13
I01
sg14
F0.05054282785105888
sg15
g56
sbs(I-11
I80
tp60
g0
(g9
g2
Ntp61
Rp62
(dp63
g13
I01
sg14
F-0.8247985892432335
sg15
g60
sbs(I-20
I80
tp64
g0
(g9
g2
Ntp65
Rp66
(dp67
g13
I01
sg14
F-2.1081383295988516
sg15
g64
sbs(I-6
I80
tp68
g0
(g9
g2
Ntp69
Rp70
(dp71
g13
I01
sg14
F-0.3162052492309377
sg15
g68
sbs(I-15
I80
tp72
g0
(g9
g2
Ntp73
Rp74
(dp75
g13
I01
sg14
F-2.562869571374686
sg15
g72
sbs(I-2
I80
tp76
g0
(g9
g2
Ntp77
Rp78
(dp79
g13
I01
sg14
F-0.27342707099753777
sg15
g76
sbs(I80
I6
tp80
g0
(g9
g2
Ntp81
Rp82
(dp83
g13
I01
sg14
F2.1209317217696726
sg15
g80
sbs(I80
I9
tp84
g0
(g9
g2
Ntp85
Rp86
(dp87
g13
I01
sg14
F-0.5664591401947391
sg15
g84
sbs(I-10
I80
tp88
g0
(g9
g2
Ntp89
Rp90
(dp91
g13
I01
sg14
F0.5410633904246573
sg15
g88
sbs(I-19
I80
tp92
g0
(g9
g2
Ntp93
Rp94
(dp95
g13
I01
sg14
F-0.17328983014496996
sg15
g92
sbs(I80
I2
tp96
g0
(g9
g2
Ntp97
Rp98
(dp99
g13
I01
sg14
F1.469448413797194
sg15
g96
sbs(I-5
I80
tp100
g0
(g9
g2
Ntp101
Rp102
(dp103
g13
I01
sg14
F-0.1637881293675802
sg15
g100
sbs(I-14
I80
tp104
g0
(g9
g2
Ntp105
Rp106
(dp107
g13
I01
sg14
F-1.1453141826700857
sg15
g104
sbs(I80
I7
tp108
g0
(g9
g2
Ntp109
Rp110
(dp111
g13
I01
sg14
F1.6011794727420792
sg15
g108
sbs(I-9
I80
tp112
g0
(g9
g2
Ntp113
Rp114
(dp115
g13
I01
sg14
F-0.7031620428293974
sg15
g112
sbs(I-4
I80
tp116
g0
(g9
g2
Ntp117
Rp118
(dp119
g13
I01
sg14
F0.12075929185075768
sg15
g116
sbs(I80
I3
tp120
g0
(g9
g2
Ntp121
Rp122
(dp123
g13
I01
sg14
F0.40047130100878126
sg15
g120
sbs(I-1
I80
tp124
g0
(g9
g2
Ntp125
Rp126
(dp127
g13
I01
sg14
F0.4516471025428649
sg15
g124
sbs(I-3
I80
tp128
g0
(g9
g2
Ntp129
Rp130
(dp131
g13
I01
sg14
F0.29918409617814873
sg15
g128
sbssS'nodes'
p132
(dp133
I0
g0
(cneat.genes
DefaultNodeGene
p134
g2
Ntp135
Rp136
(dp137
S'activation'
p138
S'relu'
p139
sS'bias'
p140
F-12.222972747506951
sS'response'
p141
F1.0
sg15
I0
sS'aggregation'
p142
S'sum'
p143
sbsI1
g0
(g134
g2
Ntp144
Rp145
(dp146
g138
g139
sg140
F-19.415300509230114
sg141
F1.0
sg15
I1
sg142
g143
sbsI2
g0
(g134
g2
Ntp147
Rp148
(dp149
g138
g139
sg140
F5.76417229902456
sg141
F1.0
sg15
I2
sg142
g143
sbsI3
g0
(g134
g2
Ntp150
Rp151
(dp152
g138
g139
sg140
F0.31342366929664967
sg141
F1.0
sg15
I3
sg142
g143
sbsI4
g0
(g134
g2
Ntp153
Rp154
(dp155
g138
g139
sg140
F5.458514299584024
sg141
F1.0
sg15
I4
sg142
g143
sbsI5
g0
(g134
g2
Ntp156
Rp157
(dp158
g138
g139
sg140
F12.404578244014644
sg141
F1.0
sg15
I5
sg142
g143
sbsI6
g0
(g134
g2
Ntp159
Rp160
(dp161
g138
g139
sg140
F10.086924107097675
sg141
F1.0
sg15
I6
sg142
g143
sbsI7
g0
(g134
g2
Ntp162
Rp163
(dp164
g138
g139
sg140
F9.587441821278976
sg141
F1.0
sg15
I7
sg142
g143
sbsI8
g0
(g134
g2
Ntp165
Rp166
(dp167
g138
g139
sg140
F-1.0525035195524044
sg141
F1.0
sg15
I8
sg142
g143
sbsI9
g0
(g134
g2
Ntp168
Rp169
(dp170
g138
g139
sg140
F3.807282088335653
sg141
F1.0
sg15
I9
sg142
g143
sbsI80
g0
(g134
g2
Ntp171
Rp172
(dp173
g138
g139
sg140
F-10.891598776515057
sg141
F1.0
sg15
I80
sg142
g143
sbssg15
I71
sS'fitness'
p174
Nsb.