ccopy_reg
_reconstructor
p0
(cneat.genome
DefaultGenome
p1
c__builtin__
object
p2
Ntp3
Rp4
(dp5
S'connections'
p6
(dp7
(I81
I5
tp8
g0
(cneat.genes
DefaultConnectionGene
p9
g2
Ntp10
Rp11
(dp12
S'enabled'
p13
I01
sS'weight'
p14
F0.7403713399420229
sS'key'
p15
g8
sbs(I-4
I81
tp16
g0
(g9
g2
Ntp17
Rp18
(dp19
g13
I01
sg14
F-0.9214024426273758
sg15
g16
sbs(I-7
I81
tp20
g0
(g9
g2
Ntp21
Rp22
(dp23
g13
I01
sg14
F-0.7429373068437358
sg15
g20
sbs(I81
I1
tp24
g0
(g9
g2
Ntp25
Rp26
(dp27
g13
I01
sg14
F0.7801883005815987
sg15
g24
sbs(I-2
I81
tp28
g0
(g9
g2
Ntp29
Rp30
(dp31
g13
I01
sg14
F0.7075697694888974
sg15
g28
sbs(I-11
I81
tp32
g0
(g9
g2
Ntp33
Rp34
(dp35
g13
I01
sg14
F0.47693531324079064
sg15
g32
sbs(I-15
I81
tp36
g0
(g9
g2
Ntp37
Rp38
(dp39
g13
I01
sg14
F0.6532222904052661
sg15
g36
sbs(I81
I4
tp40
g0
(g9
g2
Ntp41
Rp42
(dp43
g13
I01
sg14
F0.06778640491037806
sg15
g40
sbs(I-18
I81
tp44
g0
(g9
g2
Ntp45
Rp46
(dp47
g13
I01
sg14
F1.1901429268832269
sg15
g44
sbs(I81
I9
tp48
g0
(g9
g2
Ntp49
Rp50
(dp51
g13
I01
sg14
F-1.6552556440330863
sg15
g48
sbs(I-8
I81
tp52
g0
(g9
g2
Ntp53
Rp54
(dp55
g13
I01
sg14
F0.876503266615272
sg15
g52
sbs(I81
I0
tp56
g0
(g9
g2
Ntp57
Rp58
(dp59
g13
I01
sg14
F-0.27405940228039494
sg15
g56
sbs(I81
I7
tp60
g0
(g9
g2
Ntp61
Rp62
(dp63
g13
I01
sg14
F0.15021412436046694
sg15
g60
sbs(I-19
I81
tp64
g0
(g9
g2
Ntp65
Rp66
(dp67
g13
I01
sg14
F1.3284869366721777
sg15
g64
sbs(I-5
I81
tp68
g0
(g9
g2
Ntp69
Rp70
(dp71
g13
I01
sg14
F-0.35214846806094663
sg15
g68
sbs(I-12
I81
tp72
g0
(g9
g2
Ntp73
Rp74
(dp75
g13
I01
sg14
F-0.1544697474167473
sg15
g72
sbs(I-16
I81
tp76
g0
(g9
g2
Ntp77
Rp78
(dp79
g13
I01
sg14
F-0.929151685343134
sg15
g76
sbs(I81
I8
tp80
g0
(g9
g2
Ntp81
Rp82
(dp83
g13
I01
sg14
F-0.3119840784968803
sg15
g80
sbs(I-9
I81
tp84
g0
(g9
g2
Ntp85
Rp86
(dp87
g13
I01
sg14
F0.38569265892398474
sg15
g84
sbs(I81
I3
tp88
g0
(g9
g2
Ntp89
Rp90
(dp91
g13
I01
sg14
F-0.7553741155334384
sg15
g88
sbs(I-20
I81
tp92
g0
(g9
g2
Ntp93
Rp94
(dp95
g13
I01
sg14
F0.9822405825310945
sg15
g92
sbs(I-6
I81
tp96
g0
(g9
g2
Ntp97
Rp98
(dp99
g13
I01
sg14
F-0.06623581984826715
sg15
g96
sbs(I-3
I81
tp100
g0
(g9
g2
Ntp101
Rp102
(dp103
g13
I01
sg14
F-1.4890685476640169
sg15
g100
sbs(I81
I6
tp104
g0
(g9
g2
Ntp105
Rp106
(dp107
g13
I01
sg14
F-0.03313492076981354
sg15
g104
sbs(I-10
I81
tp108
g0
(g9
g2
Ntp109
Rp110
(dp111
g13
I01
sg14
F0.1748502756231045
sg15
g108
sbs(I-13
I81
tp112
g0
(g9
g2
Ntp113
Rp114
(dp115
g13
I01
sg14
F0.9896175977679346
sg15
g112
sbs(I-1
I81
tp116
g0
(g9
g2
Ntp117
Rp118
(dp119
g13
I01
sg14
F-0.562095237157158
sg15
g116
sbs(I-14
I81
tp120
g0
(g9
g2
Ntp121
Rp122
(dp123
g13
I01
sg14
F-0.4417972145988123
sg15
g120
sbs(I81
I2
tp124
g0
(g9
g2
Ntp125
Rp126
(dp127
g13
I01
sg14
F0.19469802498828628
sg15
g124
sbs(I-17
I81
tp128
g0
(g9
g2
Ntp129
Rp130
(dp131
g13
I01
sg14
F0.45533235206883743
sg15
g128
sbssS'nodes'
p132
(dp133
I0
g0
(cneat.genes
DefaultNodeGene
p134
g2
Ntp135
Rp136
(dp137
S'activation'
p138
S'relu'
p139
sS'bias'
p140
F-17.564430517154367
sS'response'
p141
F1.0
sg15
I0
sS'aggregation'
p142
S'sum'
p143
sbsI1
g0
(g134
g2
Ntp144
Rp145
(dp146
g138
g139
sg140
F11.60504563284751
sg141
F1.0
sg15
I1
sg142
g143
sbsI2
g0
(g134
g2
Ntp147
Rp148
(dp149
g138
g139
sg140
F3.325852909670821
sg141
F1.0
sg15
I2
sg142
g143
sbsI3
g0
(g134
g2
Ntp150
Rp151
(dp152
g138
g139
sg140
F-7.543487423710578
sg141
F1.0
sg15
I3
sg142
g143
sbsI4
g0
(g134
g2
Ntp153
Rp154
(dp155
g138
g139
sg140
F9.58413349001026
sg141
F1.0
sg15
I4
sg142
g143
sbsI5
g0
(g134
g2
Ntp156
Rp157
(dp158
g138
g139
sg140
F-0.47294937871675036
sg141
F1.0
sg15
I5
sg142
g143
sbsI6
g0
(g134
g2
Ntp159
Rp160
(dp161
g138
g139
sg140
F-13.375807541790255
sg141
F1.0
sg15
I6
sg142
g143
sbsI7
g0
(g134
g2
Ntp162
Rp163
(dp164
g138
g139
sg140
F-7.14609353210388
sg141
F1.0
sg15
I7
sg142
g143
sbsI8
g0
(g134
g2
Ntp165
Rp166
(dp167
g138
g139
sg140
F-11.722650892521012
sg141
F1.0
sg15
I8
sg142
g143
sbsI9
g0
(g134
g2
Ntp168
Rp169
(dp170
g138
g139
sg140
F12.267782133067925
sg141
F1.0
sg15
I9
sg142
g143
sbsI81
g0
(g134
g2
Ntp171
Rp172
(dp173
g138
g139
sg140
F-10.508006036898443
sg141
F1.0
sg15
I81
sg142
g143
sbssg15
I72
sS'fitness'
p174
Nsb.