ccopy_reg
_reconstructor
p0
(cneat.genome
DefaultGenome
p1
c__builtin__
object
p2
Ntp3
Rp4
(dp5
S'connections'
p6
(dp7
(I-15
I82
tp8
g0
(cneat.genes
DefaultConnectionGene
p9
g2
Ntp10
Rp11
(dp12
S'enabled'
p13
I01
sS'weight'
p14
F-0.25828777598725167
sS'key'
p15
g8
sbs(I82
I2
tp16
g0
(g9
g2
Ntp17
Rp18
(dp19
g13
I01
sg14
F1.1643355518312706
sg15
g16
sbs(I-5
I82
tp20
g0
(g9
g2
Ntp21
Rp22
(dp23
g13
I01
sg14
F-0.17013012717879217
sg15
g20
sbs(I-10
I82
tp24
g0
(g9
g2
Ntp25
Rp26
(dp27
g13
I01
sg14
F-1.1178170980341902
sg15
g24
sbs(I-19
I82
tp28
g0
(g9
g2
Ntp29
Rp30
(dp31
g13
I01
sg14
F-0.3171188947015397
sg15
g28
sbs(I-14
I82
tp32
g0
(g9
g2
Ntp33
Rp34
(dp35
g13
I01
sg14
F0.21254500393924275
sg15
g32
sbs(I-9
I82
tp36
g0
(g9
g2
Ntp37
Rp38
(dp39
g13
I01
sg14
F-0.10206373921661586
sg15
g36
sbs(I-4
I82
tp40
g0
(g9
g2
Ntp41
Rp42
(dp43
g13
I01
sg14
F-0.0015550449671495605
sg15
g40
sbs(I82
I3
tp44
g0
(g9
g2
Ntp45
Rp46
(dp47
g13
I01
sg14
F-0.1250849518223245
sg15
g44
sbs(I82
I7
tp48
g0
(g9
g2
Ntp49
Rp50
(dp51
g13
I01
sg14
F-0.4117888118422342
sg15
g48
sbs(I-1
I82
tp52
g0
(g9
g2
Ntp53
Rp54
(dp55
g13
I01
sg14
F1.4151023409913024
sg15
g52
sbs(I82
I0
tp56
g0
(g9
g2
Ntp57
Rp58
(dp59
g13
I01
sg14
F0.7306134224343536
sg15
g56
sbs(I-13
I82
tp60
g0
(g9
g2
Ntp61
Rp62
(dp63
g13
I01
sg14
F-0.9031977824337214
sg15
g60
sbs(I-3
I82
tp64
g0
(g9
g2
Ntp65
Rp66
(dp67
g13
I01
sg14
F-0.45699902276218757
sg15
g64
sbs(I-8
I82
tp68
g0
(g9
g2
Ntp69
Rp70
(dp71
g13
I01
sg14
F-0.8861502190601002
sg15
g68
sbs(I-18
I82
tp72
g0
(g9
g2
Ntp73
Rp74
(dp75
g13
I01
sg14
F0.6512659540538045
sg15
g72
sbs(I82
I4
tp76
g0
(g9
g2
Ntp77
Rp78
(dp79
g13
I01
sg14
F-1.741671537959819
sg15
g76
sbs(I82
I8
tp80
g0
(g9
g2
Ntp81
Rp82
(dp83
g13
I01
sg14
F-1.3535699302624458
sg15
g80
sbs(I-17
I82
tp84
g0
(g9
g2
Ntp85
Rp86
(dp87
g13
I01
sg14
F-1.1620028293172093
sg15
g84
sbs(I-12
I82
tp88
g0
(g9
g2
Ntp89
Rp90
(dp91
g13
I01
sg14
F-0.7446852910335302
sg15
g88
sbs(I-16
I82
tp92
g0
(g9
g2
Ntp93
Rp94
(dp95
g13
I01
sg14
F1.169044779534443
sg15
g92
sbs(I82
I1
tp96
g0
(g9
g2
Ntp97
Rp98
(dp99
g13
I01
sg14
F0.06530097174708552
sg15
g96
sbs(I-2
I82
tp100
g0
(g9
g2
Ntp101
Rp102
(dp103
g13
I01
sg14
F-0.6386552744962462
sg15
g100
sbs(I-7
I82
tp104
g0
(g9
g2
Ntp105
Rp106
(dp107
g13
I01
sg14
F-1.242478170337933
sg15
g104
sbs(I82
I5
tp108
g0
(g9
g2
Ntp109
Rp110
(dp111
g13
I01
sg14
F-0.5249809196317885
sg15
g108
sbs(I-20
I82
tp112
g0
(g9
g2
Ntp113
Rp114
(dp115
g13
I01
sg14
F0.30068035165680473
sg15
g112
sbs(I82
I6
tp116
g0
(g9
g2
Ntp117
Rp118
(dp119
g13
I01
sg14
F-0.3153148577840954
sg15
g116
sbs(I82
I9
tp120
g0
(g9
g2
Ntp121
Rp122
(dp123
g13
I01
sg14
F-1.0721516080346452
sg15
g120
sbs(I-11
I82
tp124
g0
(g9
g2
Ntp125
Rp126
(dp127
g13
I01
sg14
F1.0815731953096126
sg15
g124
sbs(I-6
I82
tp128
g0
(g9
g2
Ntp129
Rp130
(dp131
g13
I01
sg14
F-0.8934979327194477
sg15
g128
sbssS'nodes'
p132
(dp133
I0
g0
(cneat.genes
DefaultNodeGene
p134
g2
Ntp135
Rp136
(dp137
S'activation'
p138
S'relu'
p139
sS'bias'
p140
F-1.21963536698542
sS'response'
p141
F1.0
sg15
I0
sS'aggregation'
p142
S'sum'
p143
sbsI1
g0
(g134
g2
Ntp144
Rp145
(dp146
g138
g139
sg140
F9.678361850100826
sg141
F1.0
sg15
I1
sg142
g143
sbsI2
g0
(g134
g2
Ntp147
Rp148
(dp149
g138
g139
sg140
F-3.579594848486745
sg141
F1.0
sg15
I2
sg142
g143
sbsI3
g0
(g134
g2
Ntp150
Rp151
(dp152
g138
g139
sg140
F-12.63970533843851
sg141
F1.0
sg15
I3
sg142
g143
sbsI4
g0
(g134
g2
Ntp153
Rp154
(dp155
g138
g139
sg140
F2.3631994790103112
sg141
F1.0
sg15
I4
sg142
g143
sbsI5
g0
(g134
g2
Ntp156
Rp157
(dp158
g138
g139
sg140
F5.282070972122313
sg141
F1.0
sg15
I5
sg142
g143
sbsI6
g0
(g134
g2
Ntp159
Rp160
(dp161
g138
g139
sg140
F6.103879114080618
sg141
F1.0
sg15
I6
sg142
g143
sbsI7
g0
(g134
g2
Ntp162
Rp163
(dp164
g138
g139
sg140
F-4.2711234295449865
sg141
F1.0
sg15
I7
sg142
g143
sbsI8
g0
(g134
g2
Ntp165
Rp166
(dp167
g138
g139
sg140
F17.853701301940717
sg141
F1.0
sg15
I8
sg142
g143
sbsI9
g0
(g134
g2
Ntp168
Rp169
(dp170
g138
g139
sg140
F-12.503388005285451
sg141
F1.0
sg15
I9
sg142
g143
sbsI82
g0
(g134
g2
Ntp171
Rp172
(dp173
g138
g139
sg140
F-8.481586438494325
sg141
F1.0
sg15
I82
sg142
g143
sbssg15
I73
sS'fitness'
p174
F0.14598402987625464
sb.