ccopy_reg
_reconstructor
p0
(cneat.genome
DefaultGenome
p1
c__builtin__
object
p2
Ntp3
Rp4
(dp5
S'connections'
p6
(dp7
(I-15
I82
tp8
g0
(cneat.genes
DefaultConnectionGene
p9
g2
Ntp10
Rp11
(dp12
S'enabled'
p13
I01
sS'weight'
p14
F-0.4309566490672244
sS'key'
p15
g8
sbs(I82
I2
tp16
g0
(g9
g2
Ntp17
Rp18
(dp19
g13
I01
sg14
F-0.15740671773624443
sg15
g16
sbs(I-5
I82
tp20
g0
(g9
g2
Ntp21
Rp22
(dp23
g13
I01
sg14
F-1.5760841208969696
sg15
g20
sbs(I-10
I82
tp24
g0
(g9
g2
Ntp25
Rp26
(dp27
g13
I01
sg14
F-0.5404674134027453
sg15
g24
sbs(I-19
I82
tp28
g0
(g9
g2
Ntp29
Rp30
(dp31
g13
I01
sg14
F1.422087944830419
sg15
g28
sbs(I-14
I82
tp32
g0
(g9
g2
Ntp33
Rp34
(dp35
g13
I01
sg14
F-0.6555227151462779
sg15
g32
sbs(I-9
I82
tp36
g0
(g9
g2
Ntp37
Rp38
(dp39
g13
I01
sg14
F0.835129276853503
sg15
g36
sbs(I-4
I82
tp40
g0
(g9
g2
Ntp41
Rp42
(dp43
g13
I01
sg14
F0.4973458603092598
sg15
g40
sbs(I82
I3
tp44
g0
(g9
g2
Ntp45
Rp46
(dp47
g13
I01
sg14
F-1.4829035620414424
sg15
g44
sbs(I82
I7
tp48
g0
(g9
g2
Ntp49
Rp50
(dp51
g13
I01
sg14
F-1.1119115179633539
sg15
g48
sbs(I-1
I82
tp52
g0
(g9
g2
Ntp53
Rp54
(dp55
g13
I01
sg14
F-0.4597129385985072
sg15
g52
sbs(I82
I0
tp56
g0
(g9
g2
Ntp57
Rp58
(dp59
g13
I01
sg14
F0.012266670681276464
sg15
g56
sbs(I-13
I82
tp60
g0
(g9
g2
Ntp61
Rp62
(dp63
g13
I01
sg14
F0.644213871354015
sg15
g60
sbs(I-3
I82
tp64
g0
(g9
g2
Ntp65
Rp66
(dp67
g13
I01
sg14
F0.3239136417358602
sg15
g64
sbs(I-8
I82
tp68
g0
(g9
g2
Ntp69
Rp70
(dp71
g13
I01
sg14
F-0.13951311466727345
sg15
g68
sbs(I-18
I82
tp72
g0
(g9
g2
Ntp73
Rp74
(dp75
g13
I01
sg14
F-0.26219024682237607
sg15
g72
sbs(I82
I4
tp76
g0
(g9
g2
Ntp77
Rp78
(dp79
g13
I01
sg14
F0.2932681246259915
sg15
g76
sbs(I82
I8
tp80
g0
(g9
g2
Ntp81
Rp82
(dp83
g13
I01
sg14
F0.3426357078988646
sg15
g80
sbs(I-17
I82
tp84
g0
(g9
g2
Ntp85
Rp86
(dp87
g13
I01
sg14
F-0.03465960946082984
sg15
g84
sbs(I-12
I82
tp88
g0
(g9
g2
Ntp89
Rp90
(dp91
g13
I01
sg14
F1.0981114637797356
sg15
g88
sbs(I-16
I82
tp92
g0
(g9
g2
Ntp93
Rp94
(dp95
g13
I01
sg14
F-0.922596031489367
sg15
g92
sbs(I82
I1
tp96
g0
(g9
g2
Ntp97
Rp98
(dp99
g13
I01
sg14
F-1.7446022107140953
sg15
g96
sbs(I-2
I82
tp100
g0
(g9
g2
Ntp101
Rp102
(dp103
g13
I01
sg14
F-1.8881575998418292
sg15
g100
sbs(I-7
I82
tp104
g0
(g9
g2
Ntp105
Rp106
(dp107
g13
I01
sg14
F-1.4125538903538484
sg15
g104
sbs(I82
I5
tp108
g0
(g9
g2
Ntp109
Rp110
(dp111
g13
I01
sg14
F0.9160657857098012
sg15
g108
sbs(I-20
I82
tp112
g0
(g9
g2
Ntp113
Rp114
(dp115
g13
I01
sg14
F-0.003711760029397702
sg15
g112
sbs(I82
I6
tp116
g0
(g9
g2
Ntp117
Rp118
(dp119
g13
I01
sg14
F0.38948537788431553
sg15
g116
sbs(I82
I9
tp120
g0
(g9
g2
Ntp121
Rp122
(dp123
g13
I01
sg14
F-0.8816918567400082
sg15
g120
sbs(I-11
I82
tp124
g0
(g9
g2
Ntp125
Rp126
(dp127
g13
I01
sg14
F-1.4935810856243372
sg15
g124
sbs(I-6
I82
tp128
g0
(g9
g2
Ntp129
Rp130
(dp131
g13
I01
sg14
F0.35413335807893104
sg15
g128
sbssS'nodes'
p132
(dp133
I0
g0
(cneat.genes
DefaultNodeGene
p134
g2
Ntp135
Rp136
(dp137
S'activation'
p138
S'relu'
p139
sS'bias'
p140
F-8.85663241024127
sS'response'
p141
F1.0
sg15
I0
sS'aggregation'
p142
S'sum'
p143
sbsI1
g0
(g134
g2
Ntp144
Rp145
(dp146
g138
g139
sg140
F13.049173087702624
sg141
F1.0
sg15
I1
sg142
g143
sbsI2
g0
(g134
g2
Ntp147
Rp148
(dp149
g138
g139
sg140
F1.504586493676415
sg141
F1.0
sg15
I2
sg142
g143
sbsI3
g0
(g134
g2
Ntp150
Rp151
(dp152
g138
g139
sg140
F12.94409258840496
sg141
F1.0
sg15
I3
sg142
g143
sbsI4
g0
(g134
g2
Ntp153
Rp154
(dp155
g138
g139
sg140
F-11.736174941632306
sg141
F1.0
sg15
I4
sg142
g143
sbsI5
g0
(g134
g2
Ntp156
Rp157
(dp158
g138
g139
sg140
F-10.425929104706483
sg141
F1.0
sg15
I5
sg142
g143
sbsI6
g0
(g134
g2
Ntp159
Rp160
(dp161
g138
g139
sg140
F-7.967342462709621
sg141
F1.0
sg15
I6
sg142
g143
sbsI7
g0
(g134
g2
Ntp162
Rp163
(dp164
g138
g139
sg140
F-1.7659005946968285
sg141
F1.0
sg15
I7
sg142
g143
sbsI8
g0
(g134
g2
Ntp165
Rp166
(dp167
g138
g139
sg140
F14.160577123193827
sg141
F1.0
sg15
I8
sg142
g143
sbsI9
g0
(g134
g2
Ntp168
Rp169
(dp170
g138
g139
sg140
F1.7410928043515024
sg141
F1.0
sg15
I9
sg142
g143
sbsI82
g0
(g134
g2
Ntp171
Rp172
(dp173
g138
g139
sg140
F5.3897323619570265
sg141
F1.0
sg15
I82
sg142
g143
sbssg15
I73
sS'fitness'
p174
Nsb.