ccopy_reg
_reconstructor
p0
(cneat.genome
DefaultGenome
p1
c__builtin__
object
p2
Ntp3
Rp4
(dp5
S'connections'
p6
(dp7
(I-9
I83
tp8
g0
(cneat.genes
DefaultConnectionGene
p9
g2
Ntp10
Rp11
(dp12
S'enabled'
p13
I01
sS'weight'
p14
F-0.3850033838101846
sS'key'
p15
g8
sbs(I83
I6
tp16
g0
(g9
g2
Ntp17
Rp18
(dp19
g13
I01
sg14
F0.045144477846956424
sg15
g16
sbs(I-20
I83
tp20
g0
(g9
g2
Ntp21
Rp22
(dp23
g13
I01
sg14
F-0.3366869247967708
sg15
g20
sbs(I-2
I83
tp24
g0
(g9
g2
Ntp25
Rp26
(dp27
g13
I01
sg14
F-0.7450320517820057
sg15
g24
sbs(I83
I2
tp28
g0
(g9
g2
Ntp29
Rp30
(dp31
g13
I01
sg14
F1.7309022145607849
sg15
g28
sbs(I-6
I83
tp32
g0
(g9
g2
Ntp33
Rp34
(dp35
g13
I01
sg14
F0.2776517016657224
sg15
g32
sbs(I83
I9
tp36
g0
(g9
g2
Ntp37
Rp38
(dp39
g13
I01
sg14
F1.0790894122087686
sg15
g36
sbs(I-13
I83
tp40
g0
(g9
g2
Ntp41
Rp42
(dp43
g13
I01
sg14
F0.581492119469069
sg15
g40
sbs(I-3
I83
tp44
g0
(g9
g2
Ntp45
Rp46
(dp47
g13
I01
sg14
F0.46431812638824754
sg15
g44
sbs(I-1
I83
tp48
g0
(g9
g2
Ntp49
Rp50
(dp51
g13
I01
sg14
F0.7173262000176099
sg15
g48
sbs(I83
I5
tp52
g0
(g9
g2
Ntp53
Rp54
(dp55
g13
I01
sg14
F-0.08068029185807342
sg15
g52
sbs(I-10
I83
tp56
g0
(g9
g2
Ntp57
Rp58
(dp59
g13
I01
sg14
F-1.2215790987474815
sg15
g56
sbs(I-14
I83
tp60
g0
(g9
g2
Ntp61
Rp62
(dp63
g13
I01
sg14
F0.5206365700230299
sg15
g60
sbs(I-17
I83
tp64
g0
(g9
g2
Ntp65
Rp66
(dp67
g13
I01
sg14
F-0.7605981752490908
sg15
g64
sbs(I83
I1
tp68
g0
(g9
g2
Ntp69
Rp70
(dp71
g13
I01
sg14
F1.2267454292824507
sg15
g68
sbs(I-4
I83
tp72
g0
(g9
g2
Ntp73
Rp74
(dp75
g13
I01
sg14
F2.0804609130374607
sg15
g72
sbs(I83
I8
tp76
g0
(g9
g2
Ntp77
Rp78
(dp79
g13
I01
sg14
F-0.47608405089234596
sg15
g76
sbs(I-7
I83
tp80
g0
(g9
g2
Ntp81
Rp82
(dp83
g13
I01
sg14
F-0.536915348964008
sg15
g80
sbs(I83
I4
tp84
g0
(g9
g2
Ntp85
Rp86
(dp87
g13
I01
sg14
F-0.03448471146463725
sg15
g84
sbs(I83
I0
tp88
g0
(g9
g2
Ntp89
Rp90
(dp91
g13
I01
sg14
F0.5139343492803748
sg15
g88
sbs(I-11
I83
tp92
g0
(g9
g2
Ntp93
Rp94
(dp95
g13
I01
sg14
F1.8417040898896593
sg15
g92
sbs(I-8
I83
tp96
g0
(g9
g2
Ntp97
Rp98
(dp99
g13
I01
sg14
F-0.052150526432606294
sg15
g96
sbs(I-15
I83
tp100
g0
(g9
g2
Ntp101
Rp102
(dp103
g13
I01
sg14
F-0.4820842777595796
sg15
g100
sbs(I-18
I83
tp104
g0
(g9
g2
Ntp105
Rp106
(dp107
g13
I01
sg14
F0.9684997824869863
sg15
g104
sbs(I83
I7
tp108
g0
(g9
g2
Ntp109
Rp110
(dp111
g13
I01
sg14
F1.4181756744568013
sg15
g108
sbs(I-5
I83
tp112
g0
(g9
g2
Ntp113
Rp114
(dp115
g13
I01
sg14
F-0.040094280022502995
sg15
g112
sbs(I83
I3
tp116
g0
(g9
g2
Ntp117
Rp118
(dp119
g13
I01
sg14
F0.3187726219768102
sg15
g116
sbs(I-12
I83
tp120
g0
(g9
g2
Ntp121
Rp122
(dp123
g13
I01
sg14
F-0.48907137273858226
sg15
g120
sbs(I-19
I83
tp124
g0
(g9
g2
Ntp125
Rp126
(dp127
g13
I01
sg14
F0.575964807922225
sg15
g124
sbs(I-16
I83
tp128
g0
(g9
g2
Ntp129
Rp130
(dp131
g13
I01
sg14
F-1.70733716577699
sg15
g128
sbssS'nodes'
p132
(dp133
I0
g0
(cneat.genes
DefaultNodeGene
p134
g2
Ntp135
Rp136
(dp137
S'activation'
p138
S'relu'
p139
sS'bias'
p140
F4.712912140235634
sS'response'
p141
F1.0
sg15
I0
sS'aggregation'
p142
S'sum'
p143
sbsI1
g0
(g134
g2
Ntp144
Rp145
(dp146
g138
g139
sg140
F2.4283540737517813
sg141
F1.0
sg15
I1
sg142
g143
sbsI2
g0
(g134
g2
Ntp147
Rp148
(dp149
g138
g139
sg140
F2.945970012301333
sg141
F1.0
sg15
I2
sg142
g143
sbsI3
g0
(g134
g2
Ntp150
Rp151
(dp152
g138
g139
sg140
F-1.4284359612969735
sg141
F1.0
sg15
I3
sg142
g143
sbsI4
g0
(g134
g2
Ntp153
Rp154
(dp155
g138
g139
sg140
F-12.177175892097473
sg141
F1.0
sg15
I4
sg142
g143
sbsI5
g0
(g134
g2
Ntp156
Rp157
(dp158
g138
g139
sg140
F3.0255163958967746
sg141
F1.0
sg15
I5
sg142
g143
sbsI6
g0
(g134
g2
Ntp159
Rp160
(dp161
g138
g139
sg140
F-13.683532080214029
sg141
F1.0
sg15
I6
sg142
g143
sbsI7
g0
(g134
g2
Ntp162
Rp163
(dp164
g138
g139
sg140
F0.5183507366599707
sg141
F1.0
sg15
I7
sg142
g143
sbsI8
g0
(g134
g2
Ntp165
Rp166
(dp167
g138
g139
sg140
F15.603988364923618
sg141
F1.0
sg15
I8
sg142
g143
sbsI9
g0
(g134
g2
Ntp168
Rp169
(dp170
g138
g139
sg140
F5.651661964675949
sg141
F1.0
sg15
I9
sg142
g143
sbsI83
g0
(g134
g2
Ntp171
Rp172
(dp173
g138
g139
sg140
F-4.21108396412413
sg141
F1.0
sg15
I83
sg142
g143
sbssg15
I74
sS'fitness'
p174
F0.047931558414172445
sb.