ccopy_reg
_reconstructor
p0
(cneat.genome
DefaultGenome
p1
c__builtin__
object
p2
Ntp3
Rp4
(dp5
S'connections'
p6
(dp7
(I-1
I85
tp8
g0
(cneat.genes
DefaultConnectionGene
p9
g2
Ntp10
Rp11
(dp12
S'enabled'
p13
I01
sS'weight'
p14
F-0.24544035646880988
sS'key'
p15
g8
sbs(I-17
I85
tp16
g0
(g9
g2
Ntp17
Rp18
(dp19
g13
I01
sg14
F0.16240116537120838
sg15
g16
sbs(I-4
I85
tp20
g0
(g9
g2
Ntp21
Rp22
(dp23
g13
I01
sg14
F-0.08574045299820485
sg15
g20
sbs(I-15
I85
tp24
g0
(g9
g2
Ntp25
Rp26
(dp27
g13
I01
sg14
F1.295913176907318
sg15
g24
sbs(I85
I4
tp28
g0
(g9
g2
Ntp29
Rp30
(dp31
g13
I01
sg14
F-0.8128725068697612
sg15
g28
sbs(I-11
I85
tp32
g0
(g9
g2
Ntp33
Rp34
(dp35
g13
I01
sg14
F0.24971139399475967
sg15
g32
sbs(I-18
I85
tp36
g0
(g9
g2
Ntp37
Rp38
(dp39
g13
I01
sg14
F-0.6761497183090067
sg15
g36
sbs(I-8
I85
tp40
g0
(g9
g2
Ntp41
Rp42
(dp43
g13
I01
sg14
F-0.3817524749751596
sg15
g40
sbs(I-2
I85
tp44
g0
(g9
g2
Ntp45
Rp46
(dp47
g13
I01
sg14
F-0.26477972932542526
sg15
g44
sbs(I-5
I85
tp48
g0
(g9
g2
Ntp49
Rp50
(dp51
g13
I01
sg14
F0.5278345599583043
sg15
g48
sbs(I85
I0
tp52
g0
(g9
g2
Ntp53
Rp54
(dp55
g13
I01
sg14
F-0.06531138299272447
sg15
g52
sbs(I85
I3
tp56
g0
(g9
g2
Ntp57
Rp58
(dp59
g13
I01
sg14
F0.2774632832799837
sg15
g56
sbs(I-16
I85
tp60
g0
(g9
g2
Ntp61
Rp62
(dp63
g13
I01
sg14
F1.1659490320503911
sg15
g60
sbs(I85
I7
tp64
g0
(g9
g2
Ntp65
Rp66
(dp67
g13
I01
sg14
F-0.11691546032829589
sg15
g64
sbs(I-19
I85
tp68
g0
(g9
g2
Ntp69
Rp70
(dp71
g13
I01
sg14
F0.4831923597063743
sg15
g68
sbs(I-12
I85
tp72
g0
(g9
g2
Ntp73
Rp74
(dp75
g13
I01
sg14
F1.503570431579898
sg15
g72
sbs(I85
I2
tp76
g0
(g9
g2
Ntp77
Rp78
(dp79
g13
I01
sg14
F-1.0599997193838746
sg15
g76
sbs(I85
I9
tp80
g0
(g9
g2
Ntp81
Rp82
(dp83
g13
I01
sg14
F0.0067998067921913
sg15
g80
sbs(I-9
I85
tp84
g0
(g9
g2
Ntp85
Rp86
(dp87
g13
I01
sg14
F0.10750151304829425
sg15
g84
sbs(I85
I6
tp88
g0
(g9
g2
Ntp89
Rp90
(dp91
g13
I01
sg14
F0.9668875696905787
sg15
g88
sbs(I-10
I85
tp92
g0
(g9
g2
Ntp93
Rp94
(dp95
g13
I01
sg14
F-0.3783074519860113
sg15
g92
sbs(I-13
I85
tp96
g0
(g9
g2
Ntp97
Rp98
(dp99
g13
I01
sg14
F-1.3975663617715322
sg15
g96
sbs(I-20
I85
tp100
g0
(g9
g2
Ntp101
Rp102
(dp103
g13
I01
sg14
F-0.24017214968048917
sg15
g100
sbs(I-6
I85
tp104
g0
(g9
g2
Ntp105
Rp106
(dp107
g13
I01
sg14
F-0.5879876519335269
sg15
g104
sbs(I85
I1
tp108
g0
(g9
g2
Ntp109
Rp110
(dp111
g13
I01
sg14
F2.202398808756113
sg15
g108
sbs(I-3
I85
tp112
g0
(g9
g2
Ntp113
Rp114
(dp115
g13
I01
sg14
F-1.467321359801198
sg15
g112
sbs(I85
I8
tp116
g0
(g9
g2
Ntp117
Rp118
(dp119
g13
I01
sg14
F-0.554021373227004
sg15
g116
sbs(I85
I5
tp120
g0
(g9
g2
Ntp121
Rp122
(dp123
g13
I01
sg14
F0.29493796709373526
sg15
g120
sbs(I-7
I85
tp124
g0
(g9
g2
Ntp125
Rp126
(dp127
g13
I01
sg14
F1.776687586719386
sg15
g124
sbs(I-14
I85
tp128
g0
(g9
g2
Ntp129
Rp130
(dp131
g13
I01
sg14
F1.9420466702574652
sg15
g128
sbssS'nodes'
p132
(dp133
I0
g0
(cneat.genes
DefaultNodeGene
p134
g2
Ntp135
Rp136
(dp137
S'activation'
p138
S'relu'
p139
sS'bias'
p140
F8.30152671402821
sS'response'
p141
F1.0
sg15
I0
sS'aggregation'
p142
S'sum'
p143
sbsI1
g0
(g134
g2
Ntp144
Rp145
(dp146
g138
g139
sg140
F-5.736928768469568
sg141
F1.0
sg15
I1
sg142
g143
sbsI2
g0
(g134
g2
Ntp147
Rp148
(dp149
g138
g139
sg140
F4.239882376431149
sg141
F1.0
sg15
I2
sg142
g143
sbsI3
g0
(g134
g2
Ntp150
Rp151
(dp152
g138
g139
sg140
F3.569412456495015
sg141
F1.0
sg15
I3
sg142
g143
sbsI4
g0
(g134
g2
Ntp153
Rp154
(dp155
g138
g139
sg140
F9.112131908186395
sg141
F1.0
sg15
I4
sg142
g143
sbsI5
g0
(g134
g2
Ntp156
Rp157
(dp158
g138
g139
sg140
F10.82024225310246
sg141
F1.0
sg15
I5
sg142
g143
sbsI6
g0
(g134
g2
Ntp159
Rp160
(dp161
g138
g139
sg140
F-7.18245496831687
sg141
F1.0
sg15
I6
sg142
g143
sbsI7
g0
(g134
g2
Ntp162
Rp163
(dp164
g138
g139
sg140
F0.06900610594572024
sg141
F1.0
sg15
I7
sg142
g143
sbsI8
g0
(g134
g2
Ntp165
Rp166
(dp167
g138
g139
sg140
F3.6042115963183057
sg141
F1.0
sg15
I8
sg142
g143
sbsI9
g0
(g134
g2
Ntp168
Rp169
(dp170
g138
g139
sg140
F-17.786939684878394
sg141
F1.0
sg15
I9
sg142
g143
sbsI85
g0
(g134
g2
Ntp171
Rp172
(dp173
g138
g139
sg140
F-2.7862505519743372
sg141
F1.0
sg15
I85
sg142
g143
sbssg15
I76
sS'fitness'
p174
Nsb.