ccopy_reg
_reconstructor
p0
(cneat.genome
DefaultGenome
p1
c__builtin__
object
p2
Ntp3
Rp4
(dp5
S'connections'
p6
(dp7
(I-1
I85
tp8
g0
(cneat.genes
DefaultConnectionGene
p9
g2
Ntp10
Rp11
(dp12
S'enabled'
p13
I01
sS'weight'
p14
F1.1747037388146835
sS'key'
p15
g8
sbs(I-17
I85
tp16
g0
(g9
g2
Ntp17
Rp18
(dp19
g13
I01
sg14
F-0.10380872520991351
sg15
g16
sbs(I-4
I85
tp20
g0
(g9
g2
Ntp21
Rp22
(dp23
g13
I01
sg14
F0.9133561292336058
sg15
g20
sbs(I-15
I85
tp24
g0
(g9
g2
Ntp25
Rp26
(dp27
g13
I01
sg14
F1.52903996295308
sg15
g24
sbs(I85
I4
tp28
g0
(g9
g2
Ntp29
Rp30
(dp31
g13
I01
sg14
F-1.6286859237589242
sg15
g28
sbs(I-11
I85
tp32
g0
(g9
g2
Ntp33
Rp34
(dp35
g13
I01
sg14
F0.1898132743330576
sg15
g32
sbs(I-18
I85
tp36
g0
(g9
g2
Ntp37
Rp38
(dp39
g13
I01
sg14
F0.42974661992497776
sg15
g36
sbs(I-8
I85
tp40
g0
(g9
g2
Ntp41
Rp42
(dp43
g13
I01
sg14
F0.3084416787531151
sg15
g40
sbs(I-2
I85
tp44
g0
(g9
g2
Ntp45
Rp46
(dp47
g13
I01
sg14
F0.06549996580458096
sg15
g44
sbs(I-5
I85
tp48
g0
(g9
g2
Ntp49
Rp50
(dp51
g13
I01
sg14
F-0.3256866879438782
sg15
g48
sbs(I85
I0
tp52
g0
(g9
g2
Ntp53
Rp54
(dp55
g13
I01
sg14
F-0.6429268980139297
sg15
g52
sbs(I85
I3
tp56
g0
(g9
g2
Ntp57
Rp58
(dp59
g13
I01
sg14
F0.6749785813141326
sg15
g56
sbs(I-16
I85
tp60
g0
(g9
g2
Ntp61
Rp62
(dp63
g13
I01
sg14
F-1.0104973903341237
sg15
g60
sbs(I85
I7
tp64
g0
(g9
g2
Ntp65
Rp66
(dp67
g13
I01
sg14
F1.093494428092799
sg15
g64
sbs(I-19
I85
tp68
g0
(g9
g2
Ntp69
Rp70
(dp71
g13
I01
sg14
F-0.9985947891855976
sg15
g68
sbs(I-12
I85
tp72
g0
(g9
g2
Ntp73
Rp74
(dp75
g13
I01
sg14
F-0.1352010880051452
sg15
g72
sbs(I85
I2
tp76
g0
(g9
g2
Ntp77
Rp78
(dp79
g13
I01
sg14
F1.5670768274491491
sg15
g76
sbs(I85
I9
tp80
g0
(g9
g2
Ntp81
Rp82
(dp83
g13
I01
sg14
F-0.6146572837637176
sg15
g80
sbs(I-9
I85
tp84
g0
(g9
g2
Ntp85
Rp86
(dp87
g13
I01
sg14
F-1.1293258243894309
sg15
g84
sbs(I85
I6
tp88
g0
(g9
g2
Ntp89
Rp90
(dp91
g13
I01
sg14
F2.215075737484151
sg15
g88
sbs(I-10
I85
tp92
g0
(g9
g2
Ntp93
Rp94
(dp95
g13
I01
sg14
F0.11236554334374205
sg15
g92
sbs(I-13
I85
tp96
g0
(g9
g2
Ntp97
Rp98
(dp99
g13
I01
sg14
F-2.227764547447998
sg15
g96
sbs(I-20
I85
tp100
g0
(g9
g2
Ntp101
Rp102
(dp103
g13
I01
sg14
F0.46000595846558007
sg15
g100
sbs(I-6
I85
tp104
g0
(g9
g2
Ntp105
Rp106
(dp107
g13
I01
sg14
F-0.6018839553974701
sg15
g104
sbs(I85
I1
tp108
g0
(g9
g2
Ntp109
Rp110
(dp111
g13
I01
sg14
F-0.5224137107349364
sg15
g108
sbs(I-3
I85
tp112
g0
(g9
g2
Ntp113
Rp114
(dp115
g13
I01
sg14
F-0.5918104456003477
sg15
g112
sbs(I85
I8
tp116
g0
(g9
g2
Ntp117
Rp118
(dp119
g13
I01
sg14
F-0.6862972042701769
sg15
g116
sbs(I85
I5
tp120
g0
(g9
g2
Ntp121
Rp122
(dp123
g13
I01
sg14
F-0.17681046261580846
sg15
g120
sbs(I-7
I85
tp124
g0
(g9
g2
Ntp125
Rp126
(dp127
g13
I01
sg14
F-0.3164587014420299
sg15
g124
sbs(I-14
I85
tp128
g0
(g9
g2
Ntp129
Rp130
(dp131
g13
I01
sg14
F-1.2287044565180278
sg15
g128
sbssS'nodes'
p132
(dp133
I0
g0
(cneat.genes
DefaultNodeGene
p134
g2
Ntp135
Rp136
(dp137
S'activation'
p138
S'relu'
p139
sS'bias'
p140
F11.974925015190026
sS'response'
p141
F1.0
sg15
I0
sS'aggregation'
p142
S'sum'
p143
sbsI1
g0
(g134
g2
Ntp144
Rp145
(dp146
g138
g139
sg140
F-10.46636862484025
sg141
F1.0
sg15
I1
sg142
g143
sbsI2
g0
(g134
g2
Ntp147
Rp148
(dp149
g138
g139
sg140
F9.456803827152493
sg141
F1.0
sg15
I2
sg142
g143
sbsI3
g0
(g134
g2
Ntp150
Rp151
(dp152
g138
g139
sg140
F4.866122945333572
sg141
F1.0
sg15
I3
sg142
g143
sbsI4
g0
(g134
g2
Ntp153
Rp154
(dp155
g138
g139
sg140
F-20.869130841584422
sg141
F1.0
sg15
I4
sg142
g143
sbsI5
g0
(g134
g2
Ntp156
Rp157
(dp158
g138
g139
sg140
F-4.151803580589823
sg141
F1.0
sg15
I5
sg142
g143
sbsI6
g0
(g134
g2
Ntp159
Rp160
(dp161
g138
g139
sg140
F1.3353670643095392
sg141
F1.0
sg15
I6
sg142
g143
sbsI7
g0
(g134
g2
Ntp162
Rp163
(dp164
g138
g139
sg140
F3.651686838102623
sg141
F1.0
sg15
I7
sg142
g143
sbsI8
g0
(g134
g2
Ntp165
Rp166
(dp167
g138
g139
sg140
F16.414705406210473
sg141
F1.0
sg15
I8
sg142
g143
sbsI9
g0
(g134
g2
Ntp168
Rp169
(dp170
g138
g139
sg140
F13.207061047264315
sg141
F1.0
sg15
I9
sg142
g143
sbsI85
g0
(g134
g2
Ntp171
Rp172
(dp173
g138
g139
sg140
F-8.024167507290606
sg141
F1.0
sg15
I85
sg142
g143
sbssg15
I76
sS'fitness'
p174
F0.03238731762858894
sb.