ccopy_reg
_reconstructor
p0
(cneat.genome
DefaultGenome
p1
c__builtin__
object
p2
Ntp3
Rp4
(dp5
S'connections'
p6
(dp7
(I-6
I85
tp8
g0
(cneat.genes
DefaultConnectionGene
p9
g2
Ntp10
Rp11
(dp12
S'enabled'
p13
I01
sS'weight'
p14
F0.6260223073736358
sS'key'
p15
g8
sbs(I-1
I85
tp16
g0
(g9
g2
Ntp17
Rp18
(dp19
g13
I01
sg14
F-1.3787035921335709
sg15
g16
sbs(I-2
I85
tp20
g0
(g9
g2
Ntp21
Rp22
(dp23
g13
I01
sg14
F0.05724211047258531
sg15
g20
sbs(I-5
I85
tp24
g0
(g9
g2
Ntp25
Rp26
(dp27
g13
I01
sg14
F0.5629306221803692
sg15
g24
sbs(I85
I1
tp28
g0
(g9
g2
Ntp29
Rp30
(dp31
g13
I01
sg14
F0.9108333189437356
sg15
g28
sbs(I85
I0
tp32
g0
(g9
g2
Ntp33
Rp34
(dp35
g13
I01
sg14
F1.0547769823067534
sg15
g32
sbs(I85
I2
tp36
g0
(g9
g2
Ntp37
Rp38
(dp39
g13
I01
sg14
F-1.9591835076559732
sg15
g36
sbs(I-3
I85
tp40
g0
(g9
g2
Ntp41
Rp42
(dp43
g13
I01
sg14
F0.2567353607950656
sg15
g40
sbs(I85
I8
tp44
g0
(g9
g2
Ntp45
Rp46
(dp47
g13
I01
sg14
F-0.3362703648716821
sg15
g44
sbs(I85
I3
tp48
g0
(g9
g2
Ntp49
Rp50
(dp51
g13
I01
sg14
F-0.6484052114418449
sg15
g48
sbs(I-4
I85
tp52
g0
(g9
g2
Ntp53
Rp54
(dp55
g13
I01
sg14
F-0.5862259299632954
sg15
g52
sbs(I85
I9
tp56
g0
(g9
g2
Ntp57
Rp58
(dp59
g13
I01
sg14
F-0.9094763672258712
sg15
g56
sbs(I85
I4
tp60
g0
(g9
g2
Ntp61
Rp62
(dp63
g13
I01
sg14
F-0.08974620589757372
sg15
g60
sbs(I-9
I85
tp64
g0
(g9
g2
Ntp65
Rp66
(dp67
g13
I01
sg14
F-0.1581336411748292
sg15
g64
sbs(I85
I5
tp68
g0
(g9
g2
Ntp69
Rp70
(dp71
g13
I01
sg14
F0.3813083277021865
sg15
g68
sbs(I85
I6
tp72
g0
(g9
g2
Ntp73
Rp74
(dp75
g13
I01
sg14
F-0.469435993895592
sg15
g72
sbs(I-7
I85
tp76
g0
(g9
g2
Ntp77
Rp78
(dp79
g13
I01
sg14
F0.34301582037057937
sg15
g76
sbs(I85
I7
tp80
g0
(g9
g2
Ntp81
Rp82
(dp83
g13
I01
sg14
F1.3405067782803646
sg15
g80
sbs(I-8
I85
tp84
g0
(g9
g2
Ntp85
Rp86
(dp87
g13
I01
sg14
F-1.088251874095584
sg15
g84
sbs(I-10
I85
tp88
g0
(g9
g2
Ntp89
Rp90
(dp91
g13
I01
sg14
F0.42711573272283687
sg15
g88
sbssS'nodes'
p92
(dp93
I0
g0
(cneat.genes
DefaultNodeGene
p94
g2
Ntp95
Rp96
(dp97
S'activation'
p98
S'relu'
p99
sS'bias'
p100
F-5.22750789961198
sS'response'
p101
F1.0
sg15
I0
sS'aggregation'
p102
S'sum'
p103
sbsI1
g0
(g94
g2
Ntp104
Rp105
(dp106
g98
g99
sg100
F7.35229258779338
sg101
F1.0
sg15
I1
sg102
g103
sbsI2
g0
(g94
g2
Ntp107
Rp108
(dp109
g98
g99
sg100
F-16.86025999612746
sg101
F1.0
sg15
I2
sg102
g103
sbsI3
g0
(g94
g2
Ntp110
Rp111
(dp112
g98
g99
sg100
F-7.1889980404091265
sg101
F1.0
sg15
I3
sg102
g103
sbsI4
g0
(g94
g2
Ntp113
Rp114
(dp115
g98
g99
sg100
F1.9359581464893385
sg101
F1.0
sg15
I4
sg102
g103
sbsI5
g0
(g94
g2
Ntp116
Rp117
(dp118
g98
g99
sg100
F9.587514618018243
sg101
F1.0
sg15
I5
sg102
g103
sbsI6
g0
(g94
g2
Ntp119
Rp120
(dp121
g98
g99
sg100
F0.5361218112660017
sg101
F1.0
sg15
I6
sg102
g103
sbsI7
g0
(g94
g2
Ntp122
Rp123
(dp124
g98
g99
sg100
F-1.2350636425244996
sg101
F1.0
sg15
I7
sg102
g103
sbsI8
g0
(g94
g2
Ntp125
Rp126
(dp127
g98
g99
sg100
F-0.07306581178393665
sg101
F1.0
sg15
I8
sg102
g103
sbsI9
g0
(g94
g2
Ntp128
Rp129
(dp130
g98
g99
sg100
F-9.434687467155271
sg101
F1.0
sg15
I9
sg102
g103
sbsI85
g0
(g94
g2
Ntp131
Rp132
(dp133
g98
g99
sg100
F-4.103298770141
sg101
F1.0
sg15
I85
sg102
g103
sbssg15
I76
sS'fitness'
p134
F-0.13394141778571877
sb.