ccopy_reg
_reconstructor
p0
(cneat.genome
DefaultGenome
p1
c__builtin__
object
p2
Ntp3
Rp4
(dp5
S'connections'
p6
(dp7
(I86
I3
tp8
g0
(cneat.genes
DefaultConnectionGene
p9
g2
Ntp10
Rp11
(dp12
S'enabled'
p13
I01
sS'weight'
p14
F0.37114058038669634
sS'key'
p15
g8
sbs(I-10
I86
tp16
g0
(g9
g2
Ntp17
Rp18
(dp19
g13
I01
sg14
F0.26927264560612185
sg15
g16
sbs(I-11
I86
tp20
g0
(g9
g2
Ntp21
Rp22
(dp23
g13
I01
sg14
F-0.25442810467546456
sg15
g20
sbs(I-6
I86
tp24
g0
(g9
g2
Ntp25
Rp26
(dp27
g13
I01
sg14
F1.1142041547491708
sg15
g24
sbs(I86
I4
tp28
g0
(g9
g2
Ntp29
Rp30
(dp31
g13
I01
sg14
F0.8871513491320561
sg15
g28
sbs(I-1
I86
tp32
g0
(g9
g2
Ntp33
Rp34
(dp35
g13
I01
sg14
F-1.2589781060901126
sg15
g32
sbs(I86
I0
tp36
g0
(g9
g2
Ntp37
Rp38
(dp39
g13
I01
sg14
F-0.4849253510765114
sg15
g36
sbs(I-19
I86
tp40
g0
(g9
g2
Ntp41
Rp42
(dp43
g13
I01
sg14
F1.114281202951335
sg15
g40
sbs(I-14
I86
tp44
g0
(g9
g2
Ntp45
Rp46
(dp47
g13
I01
sg14
F-1.813668203767393
sg15
g44
sbs(I-9
I86
tp48
g0
(g9
g2
Ntp49
Rp50
(dp51
g13
I01
sg14
F-0.5372227083757679
sg15
g48
sbs(I-4
I86
tp52
g0
(g9
g2
Ntp53
Rp54
(dp55
g13
I01
sg14
F-0.30799378843625685
sg15
g52
sbs(I86
I5
tp56
g0
(g9
g2
Ntp57
Rp58
(dp59
g13
I01
sg14
F1.6918861045666045
sg15
g56
sbs(I-2
I86
tp60
g0
(g9
g2
Ntp61
Rp62
(dp63
g13
I01
sg14
F0.36229292657316614
sg15
g60
sbs(I86
I8
tp64
g0
(g9
g2
Ntp65
Rp66
(dp67
g13
I01
sg14
F-0.43639181746158967
sg15
g64
sbs(I-13
I86
tp68
g0
(g9
g2
Ntp69
Rp70
(dp71
g13
I01
sg14
F-1.113241155619838
sg15
g68
sbs(I-8
I86
tp72
g0
(g9
g2
Ntp73
Rp74
(dp75
g13
I01
sg14
F1.1186373370383778
sg15
g72
sbs(I86
I1
tp76
g0
(g9
g2
Ntp77
Rp78
(dp79
g13
I01
sg14
F-0.6168852771069953
sg15
g76
sbs(I-18
I86
tp80
g0
(g9
g2
Ntp81
Rp82
(dp83
g13
I01
sg14
F1.5930638490678983
sg15
g80
sbs(I-3
I86
tp84
g0
(g9
g2
Ntp85
Rp86
(dp87
g13
I01
sg14
F0.6511031974222913
sg15
g84
sbs(I-16
I86
tp88
g0
(g9
g2
Ntp89
Rp90
(dp91
g13
I01
sg14
F-1.0719854429341256
sg15
g88
sbs(I86
I9
tp92
g0
(g9
g2
Ntp93
Rp94
(dp95
g13
I01
sg14
F-0.061985254881095915
sg15
g92
sbs(I86
I6
tp96
g0
(g9
g2
Ntp97
Rp98
(dp99
g13
I01
sg14
F1.0630667318281306
sg15
g96
sbs(I-7
I86
tp100
g0
(g9
g2
Ntp101
Rp102
(dp103
g13
I01
sg14
F0.5020498632368485
sg15
g100
sbs(I-17
I86
tp104
g0
(g9
g2
Ntp105
Rp106
(dp107
g13
I01
sg14
F-1.187540599965791
sg15
g104
sbs(I86
I2
tp108
g0
(g9
g2
Ntp109
Rp110
(dp111
g13
I01
sg14
F0.7203500344803294
sg15
g108
sbs(I-12
I86
tp112
g0
(g9
g2
Ntp113
Rp114
(dp115
g13
I01
sg14
F0.745401573886642
sg15
g112
sbs(I-15
I86
tp116
g0
(g9
g2
Ntp117
Rp118
(dp119
g13
I01
sg14
F-0.4443809021947517
sg15
g116
sbs(I86
I7
tp120
g0
(g9
g2
Ntp121
Rp122
(dp123
g13
I01
sg14
F-1.648672860739644
sg15
g120
sbs(I-20
I86
tp124
g0
(g9
g2
Ntp125
Rp126
(dp127
g13
I01
sg14
F-0.79330921053956
sg15
g124
sbs(I-5
I86
tp128
g0
(g9
g2
Ntp129
Rp130
(dp131
g13
I01
sg14
F-0.8568482606434397
sg15
g128
sbssS'nodes'
p132
(dp133
I0
g0
(cneat.genes
DefaultNodeGene
p134
g2
Ntp135
Rp136
(dp137
S'activation'
p138
S'relu'
p139
sS'bias'
p140
F12.823338570497286
sS'response'
p141
F1.0
sg15
I0
sS'aggregation'
p142
S'sum'
p143
sbsI1
g0
(g134
g2
Ntp144
Rp145
(dp146
g138
g139
sg140
F-0.6108656541845054
sg141
F1.0
sg15
I1
sg142
g143
sbsI2
g0
(g134
g2
Ntp147
Rp148
(dp149
g138
g139
sg140
F4.050090000381616
sg141
F1.0
sg15
I2
sg142
g143
sbsI3
g0
(g134
g2
Ntp150
Rp151
(dp152
g138
g139
sg140
F-13.67619100373558
sg141
F1.0
sg15
I3
sg142
g143
sbsI4
g0
(g134
g2
Ntp153
Rp154
(dp155
g138
g139
sg140
F-1.359716386017663
sg141
F1.0
sg15
I4
sg142
g143
sbsI5
g0
(g134
g2
Ntp156
Rp157
(dp158
g138
g139
sg140
F0.7569662444271195
sg141
F1.0
sg15
I5
sg142
g143
sbsI6
g0
(g134
g2
Ntp159
Rp160
(dp161
g138
g139
sg140
F1.6645635351817312
sg141
F1.0
sg15
I6
sg142
g143
sbsI7
g0
(g134
g2
Ntp162
Rp163
(dp164
g138
g139
sg140
F0.45936366303437115
sg141
F1.0
sg15
I7
sg142
g143
sbsI8
g0
(g134
g2
Ntp165
Rp166
(dp167
g138
g139
sg140
F-14.481655506674878
sg141
F1.0
sg15
I8
sg142
g143
sbsI9
g0
(g134
g2
Ntp168
Rp169
(dp170
g138
g139
sg140
F-12.555015288814666
sg141
F1.0
sg15
I9
sg142
g143
sbsI86
g0
(g134
g2
Ntp171
Rp172
(dp173
g138
g139
sg140
F2.5703632114618924
sg141
F1.0
sg15
I86
sg142
g143
sbssg15
I77
sS'fitness'
p174
Nsb.