ccopy_reg
_reconstructor
p0
(cneat.genome
DefaultGenome
p1
c__builtin__
object
p2
Ntp3
Rp4
(dp5
S'connections'
p6
(dp7
(I87
I4
tp8
g0
(cneat.genes
DefaultConnectionGene
p9
g2
Ntp10
Rp11
(dp12
S'enabled'
p13
I01
sS'weight'
p14
F-0.05589276039473412
sS'key'
p15
g8
sbs(I-12
I87
tp16
g0
(g9
g2
Ntp17
Rp18
(dp19
g13
I01
sg14
F-2.217642646533134
sg15
g16
sbs(I-19
I87
tp20
g0
(g9
g2
Ntp21
Rp22
(dp23
g13
I01
sg14
F-0.0687015465201002
sg15
g20
sbs(I-9
I87
tp24
g0
(g9
g2
Ntp25
Rp26
(dp27
g13
I01
sg14
F1.6737628418407924
sg15
g24
sbs(I87
I2
tp28
g0
(g9
g2
Ntp29
Rp30
(dp31
g13
I01
sg14
F0.9683621946473449
sg15
g28
sbs(I87
I1
tp32
g0
(g9
g2
Ntp33
Rp34
(dp35
g13
I01
sg14
F0.051683980603058226
sg15
g32
sbs(I-13
I87
tp36
g0
(g9
g2
Ntp37
Rp38
(dp39
g13
I01
sg14
F-0.5457626756408813
sg15
g36
sbs(I-20
I87
tp40
g0
(g9
g2
Ntp41
Rp42
(dp43
g13
I01
sg14
F0.33813921100501554
sg15
g40
sbs(I87
I5
tp44
g0
(g9
g2
Ntp45
Rp46
(dp47
g13
I01
sg14
F1.6421158737198467
sg15
g44
sbs(I-10
I87
tp48
g0
(g9
g2
Ntp49
Rp50
(dp51
g13
I01
sg14
F-1.4341086261139713
sg15
g48
sbs(I-6
I87
tp52
g0
(g9
g2
Ntp53
Rp54
(dp55
g13
I01
sg14
F-0.5972640947044408
sg15
g52
sbs(I87
I9
tp56
g0
(g9
g2
Ntp57
Rp58
(dp59
g13
I01
sg14
F-0.19943079341093997
sg15
g56
sbs(I-3
I87
tp60
g0
(g9
g2
Ntp61
Rp62
(dp63
g13
I01
sg14
F1.2732429359494513
sg15
g60
sbs(I87
I0
tp64
g0
(g9
g2
Ntp65
Rp66
(dp67
g13
I01
sg14
F-1.391112632965142
sg15
g64
sbs(I87
I8
tp68
g0
(g9
g2
Ntp69
Rp70
(dp71
g13
I01
sg14
F1.2391949088417806
sg15
g68
sbs(I-7
I87
tp72
g0
(g9
g2
Ntp73
Rp74
(dp75
g13
I01
sg14
F0.7581863449847953
sg15
g72
sbs(I-14
I87
tp76
g0
(g9
g2
Ntp77
Rp78
(dp79
g13
I01
sg14
F-1.7898011008065047
sg15
g76
sbs(I-17
I87
tp80
g0
(g9
g2
Ntp81
Rp82
(dp83
g13
I01
sg14
F-0.907231338644762
sg15
g80
sbs(I-2
I87
tp84
g0
(g9
g2
Ntp85
Rp86
(dp87
g13
I01
sg14
F1.3654687280080524
sg15
g84
sbs(I-4
I87
tp88
g0
(g9
g2
Ntp89
Rp90
(dp91
g13
I01
sg14
F0.2568091469978189
sg15
g88
sbs(I-1
I87
tp92
g0
(g9
g2
Ntp93
Rp94
(dp95
g13
I01
sg14
F0.3590183510315119
sg15
g92
sbs(I87
I3
tp96
g0
(g9
g2
Ntp97
Rp98
(dp99
g13
I01
sg14
F0.017731674072649025
sg15
g96
sbs(I-8
I87
tp100
g0
(g9
g2
Ntp101
Rp102
(dp103
g13
I01
sg14
F0.15151109046069758
sg15
g100
sbs(I-15
I87
tp104
g0
(g9
g2
Ntp105
Rp106
(dp107
g13
I01
sg14
F1.2902695328296063
sg15
g104
sbs(I-18
I87
tp108
g0
(g9
g2
Ntp109
Rp110
(dp111
g13
I01
sg14
F-1.1235993645961473
sg15
g108
sbs(I87
I7
tp112
g0
(g9
g2
Ntp113
Rp114
(dp115
g13
I01
sg14
F-1.9282936099391383
sg15
g112
sbs(I-5
I87
tp116
g0
(g9
g2
Ntp117
Rp118
(dp119
g13
I01
sg14
F0.9385016813030187
sg15
g116
sbs(I-11
I87
tp120
g0
(g9
g2
Ntp121
Rp122
(dp123
g13
I01
sg14
F0.29597657797258037
sg15
g120
sbs(I-16
I87
tp124
g0
(g9
g2
Ntp125
Rp126
(dp127
g13
I01
sg14
F0.16989878640013023
sg15
g124
sbs(I87
I6
tp128
g0
(g9
g2
Ntp129
Rp130
(dp131
g13
I01
sg14
F2.7357067251432956
sg15
g128
sbssS'nodes'
p132
(dp133
I0
g0
(cneat.genes
DefaultNodeGene
p134
g2
Ntp135
Rp136
(dp137
S'activation'
p138
S'relu'
p139
sS'bias'
p140
F-11.194794894837273
sS'response'
p141
F1.0
sg15
I0
sS'aggregation'
p142
S'sum'
p143
sbsI1
g0
(g134
g2
Ntp144
Rp145
(dp146
g138
g139
sg140
F4.501633385340508
sg141
F1.0
sg15
I1
sg142
g143
sbsI2
g0
(g134
g2
Ntp147
Rp148
(dp149
g138
g139
sg140
F-14.2022290405448
sg141
F1.0
sg15
I2
sg142
g143
sbsI3
g0
(g134
g2
Ntp150
Rp151
(dp152
g138
g139
sg140
F9.692924925460778
sg141
F1.0
sg15
I3
sg142
g143
sbsI4
g0
(g134
g2
Ntp153
Rp154
(dp155
g138
g139
sg140
F5.567036312018771
sg141
F1.0
sg15
I4
sg142
g143
sbsI5
g0
(g134
g2
Ntp156
Rp157
(dp158
g138
g139
sg140
F5.477567249316934
sg141
F1.0
sg15
I5
sg142
g143
sbsI6
g0
(g134
g2
Ntp159
Rp160
(dp161
g138
g139
sg140
F15.202016374835969
sg141
F1.0
sg15
I6
sg142
g143
sbsI7
g0
(g134
g2
Ntp162
Rp163
(dp164
g138
g139
sg140
F3.7373112172066025
sg141
F1.0
sg15
I7
sg142
g143
sbsI8
g0
(g134
g2
Ntp165
Rp166
(dp167
g138
g139
sg140
F20.20528793254449
sg141
F1.0
sg15
I8
sg142
g143
sbsI9
g0
(g134
g2
Ntp168
Rp169
(dp170
g138
g139
sg140
F-21.671056865580262
sg141
F1.0
sg15
I9
sg142
g143
sbsI87
g0
(g134
g2
Ntp171
Rp172
(dp173
g138
g139
sg140
F-10.449577319979502
sg141
F1.0
sg15
I87
sg142
g143
sbssg15
I78
sS'fitness'
p174
F0.09061651870359227
sb.