ccopy_reg
_reconstructor
p0
(cneat.genome
DefaultGenome
p1
c__builtin__
object
p2
Ntp3
Rp4
(dp5
S'connections'
p6
(dp7
(I87
I4
tp8
g0
(cneat.genes
DefaultConnectionGene
p9
g2
Ntp10
Rp11
(dp12
S'enabled'
p13
I01
sS'weight'
p14
F1.325190162813584
sS'key'
p15
g8
sbs(I-12
I87
tp16
g0
(g9
g2
Ntp17
Rp18
(dp19
g13
I01
sg14
F-0.9667822289757481
sg15
g16
sbs(I-19
I87
tp20
g0
(g9
g2
Ntp21
Rp22
(dp23
g13
I01
sg14
F-0.09567312922760861
sg15
g20
sbs(I-9
I87
tp24
g0
(g9
g2
Ntp25
Rp26
(dp27
g13
I01
sg14
F-0.6271827771242621
sg15
g24
sbs(I87
I2
tp28
g0
(g9
g2
Ntp29
Rp30
(dp31
g13
I01
sg14
F-1.592835324811313
sg15
g28
sbs(I87
I1
tp32
g0
(g9
g2
Ntp33
Rp34
(dp35
g13
I01
sg14
F0.7837836498989333
sg15
g32
sbs(I-13
I87
tp36
g0
(g9
g2
Ntp37
Rp38
(dp39
g13
I01
sg14
F0.3713748670982697
sg15
g36
sbs(I-20
I87
tp40
g0
(g9
g2
Ntp41
Rp42
(dp43
g13
I01
sg14
F-0.9469959279031196
sg15
g40
sbs(I87
I5
tp44
g0
(g9
g2
Ntp45
Rp46
(dp47
g13
I01
sg14
F-0.4152147514381454
sg15
g44
sbs(I-10
I87
tp48
g0
(g9
g2
Ntp49
Rp50
(dp51
g13
I01
sg14
F0.513797522313235
sg15
g48
sbs(I-6
I87
tp52
g0
(g9
g2
Ntp53
Rp54
(dp55
g13
I01
sg14
F-0.9457877164992198
sg15
g52
sbs(I87
I9
tp56
g0
(g9
g2
Ntp57
Rp58
(dp59
g13
I01
sg14
F0.9014398509015297
sg15
g56
sbs(I-3
I87
tp60
g0
(g9
g2
Ntp61
Rp62
(dp63
g13
I01
sg14
F0.7479230473413869
sg15
g60
sbs(I87
I0
tp64
g0
(g9
g2
Ntp65
Rp66
(dp67
g13
I01
sg14
F-0.6921308722580949
sg15
g64
sbs(I87
I8
tp68
g0
(g9
g2
Ntp69
Rp70
(dp71
g13
I01
sg14
F0.8881935009960044
sg15
g68
sbs(I-7
I87
tp72
g0
(g9
g2
Ntp73
Rp74
(dp75
g13
I01
sg14
F-0.2438876381894057
sg15
g72
sbs(I-14
I87
tp76
g0
(g9
g2
Ntp77
Rp78
(dp79
g13
I01
sg14
F-1.5084368854712291
sg15
g76
sbs(I-17
I87
tp80
g0
(g9
g2
Ntp81
Rp82
(dp83
g13
I01
sg14
F0.09243924354855479
sg15
g80
sbs(I-2
I87
tp84
g0
(g9
g2
Ntp85
Rp86
(dp87
g13
I01
sg14
F0.4140902684003238
sg15
g84
sbs(I-4
I87
tp88
g0
(g9
g2
Ntp89
Rp90
(dp91
g13
I01
sg14
F0.4018935719915448
sg15
g88
sbs(I-1
I87
tp92
g0
(g9
g2
Ntp93
Rp94
(dp95
g13
I01
sg14
F-1.6135610822878015
sg15
g92
sbs(I87
I3
tp96
g0
(g9
g2
Ntp97
Rp98
(dp99
g13
I01
sg14
F-1.6560599302976267
sg15
g96
sbs(I-8
I87
tp100
g0
(g9
g2
Ntp101
Rp102
(dp103
g13
I01
sg14
F1.186494146762245
sg15
g100
sbs(I-15
I87
tp104
g0
(g9
g2
Ntp105
Rp106
(dp107
g13
I01
sg14
F0.4748918754296866
sg15
g104
sbs(I-18
I87
tp108
g0
(g9
g2
Ntp109
Rp110
(dp111
g13
I01
sg14
F2.0351209118033893
sg15
g108
sbs(I87
I7
tp112
g0
(g9
g2
Ntp113
Rp114
(dp115
g13
I01
sg14
F0.5733610696631204
sg15
g112
sbs(I-5
I87
tp116
g0
(g9
g2
Ntp117
Rp118
(dp119
g13
I01
sg14
F0.5586674857069029
sg15
g116
sbs(I-11
I87
tp120
g0
(g9
g2
Ntp121
Rp122
(dp123
g13
I01
sg14
F-1.0259015172003656
sg15
g120
sbs(I-16
I87
tp124
g0
(g9
g2
Ntp125
Rp126
(dp127
g13
I01
sg14
F1.2209838656184695
sg15
g124
sbs(I87
I6
tp128
g0
(g9
g2
Ntp129
Rp130
(dp131
g13
I01
sg14
F-0.303032326197212
sg15
g128
sbssS'nodes'
p132
(dp133
I0
g0
(cneat.genes
DefaultNodeGene
p134
g2
Ntp135
Rp136
(dp137
S'activation'
p138
S'relu'
p139
sS'bias'
p140
F-7.003253510186697
sS'response'
p141
F1.0
sg15
I0
sS'aggregation'
p142
S'sum'
p143
sbsI1
g0
(g134
g2
Ntp144
Rp145
(dp146
g138
g139
sg140
F22.161127709538725
sg141
F1.0
sg15
I1
sg142
g143
sbsI2
g0
(g134
g2
Ntp147
Rp148
(dp149
g138
g139
sg140
F14.890191786570128
sg141
F1.0
sg15
I2
sg142
g143
sbsI3
g0
(g134
g2
Ntp150
Rp151
(dp152
g138
g139
sg140
F17.16756671051507
sg141
F1.0
sg15
I3
sg142
g143
sbsI4
g0
(g134
g2
Ntp153
Rp154
(dp155
g138
g139
sg140
F-6.99060867703945
sg141
F1.0
sg15
I4
sg142
g143
sbsI5
g0
(g134
g2
Ntp156
Rp157
(dp158
g138
g139
sg140
F4.933187250789852
sg141
F1.0
sg15
I5
sg142
g143
sbsI6
g0
(g134
g2
Ntp159
Rp160
(dp161
g138
g139
sg140
F-18.940099399754345
sg141
F1.0
sg15
I6
sg142
g143
sbsI7
g0
(g134
g2
Ntp162
Rp163
(dp164
g138
g139
sg140
F1.1718361599932687
sg141
F1.0
sg15
I7
sg142
g143
sbsI8
g0
(g134
g2
Ntp165
Rp166
(dp167
g138
g139
sg140
F4.43101372072755
sg141
F1.0
sg15
I8
sg142
g143
sbsI9
g0
(g134
g2
Ntp168
Rp169
(dp170
g138
g139
sg140
F10.61880250148626
sg141
F1.0
sg15
I9
sg142
g143
sbsI87
g0
(g134
g2
Ntp171
Rp172
(dp173
g138
g139
sg140
F-7.947229106833971
sg141
F1.0
sg15
I87
sg142
g143
sbssg15
I78
sS'fitness'
p174
Nsb.