ccopy_reg
_reconstructor
p0
(cneat.genome
DefaultGenome
p1
c__builtin__
object
p2
Ntp3
Rp4
(dp5
S'connections'
p6
(dp7
(I-17
I88
tp8
g0
(cneat.genes
DefaultConnectionGene
p9
g2
Ntp10
Rp11
(dp12
S'enabled'
p13
I01
sS'weight'
p14
F-0.1953335560430792
sS'key'
p15
g8
sbs(I-12
I88
tp16
g0
(g9
g2
Ntp17
Rp18
(dp19
g13
I01
sg14
F1.5434369296855188
sg15
g16
sbs(I88
I6
tp20
g0
(g9
g2
Ntp21
Rp22
(dp23
g13
I01
sg14
F-0.1695915396094853
sg15
g20
sbs(I-7
I88
tp24
g0
(g9
g2
Ntp25
Rp26
(dp27
g13
I01
sg14
F-0.027761854940112685
sg15
g24
sbs(I88
I2
tp28
g0
(g9
g2
Ntp29
Rp30
(dp31
g13
I01
sg14
F-1.3333868207595847
sg15
g28
sbs(I-3
I88
tp32
g0
(g9
g2
Ntp33
Rp34
(dp35
g13
I01
sg14
F0.17548173807068704
sg15
g32
sbs(I-11
I88
tp36
g0
(g9
g2
Ntp37
Rp38
(dp39
g13
I01
sg14
F0.3469299210337152
sg15
g36
sbs(I-6
I88
tp40
g0
(g9
g2
Ntp41
Rp42
(dp43
g13
I01
sg14
F1.2850651846311811
sg15
g40
sbs(I88
I7
tp44
g0
(g9
g2
Ntp45
Rp46
(dp47
g13
I01
sg14
F-0.4679053684274945
sg15
g44
sbs(I88
I4
tp48
g0
(g9
g2
Ntp49
Rp50
(dp51
g13
I01
sg14
F-0.3064628259211085
sg15
g48
sbs(I-1
I88
tp52
g0
(g9
g2
Ntp53
Rp54
(dp55
g13
I01
sg14
F0.2454191174438882
sg15
g52
sbs(I88
I3
tp56
g0
(g9
g2
Ntp57
Rp58
(dp59
g13
I01
sg14
F-0.930346401742379
sg15
g56
sbs(I-16
I88
tp60
g0
(g9
g2
Ntp61
Rp62
(dp63
g13
I01
sg14
F-0.10900991082526526
sg15
g60
sbs(I88
I8
tp64
g0
(g9
g2
Ntp65
Rp66
(dp67
g13
I01
sg14
F0.5733261915354221
sg15
g64
sbs(I-20
I88
tp68
g0
(g9
g2
Ntp69
Rp70
(dp71
g13
I01
sg14
F2.2053065665652034
sg15
g68
sbs(I-15
I88
tp72
g0
(g9
g2
Ntp73
Rp74
(dp75
g13
I01
sg14
F-0.6169697942354182
sg15
g72
sbs(I88
I0
tp76
g0
(g9
g2
Ntp77
Rp78
(dp79
g13
I01
sg14
F-0.4926344203784551
sg15
g76
sbs(I-2
I88
tp80
g0
(g9
g2
Ntp81
Rp82
(dp83
g13
I01
sg14
F-0.9315285518900124
sg15
g80
sbs(I88
I9
tp84
g0
(g9
g2
Ntp85
Rp86
(dp87
g13
I01
sg14
F1.3561784217769355
sg15
g84
sbs(I-10
I88
tp88
g0
(g9
g2
Ntp89
Rp90
(dp91
g13
I01
sg14
F-0.1615392048376326
sg15
g88
sbs(I-19
I88
tp92
g0
(g9
g2
Ntp93
Rp94
(dp95
g13
I01
sg14
F-0.259620135997567
sg15
g92
sbs(I-5
I88
tp96
g0
(g9
g2
Ntp97
Rp98
(dp99
g13
I01
sg14
F2.0239041932956323
sg15
g96
sbs(I-14
I88
tp100
g0
(g9
g2
Ntp101
Rp102
(dp103
g13
I01
sg14
F-0.8257776058377537
sg15
g100
sbs(I88
I5
tp104
g0
(g9
g2
Ntp105
Rp106
(dp107
g13
I01
sg14
F-0.9041798525288303
sg15
g104
sbs(I-18
I88
tp108
g0
(g9
g2
Ntp109
Rp110
(dp111
g13
I01
sg14
F-0.6014491314637991
sg15
g108
sbs(I-13
I88
tp112
g0
(g9
g2
Ntp113
Rp114
(dp115
g13
I01
sg14
F0.707673094270234
sg15
g112
sbs(I-8
I88
tp116
g0
(g9
g2
Ntp117
Rp118
(dp119
g13
I01
sg14
F-0.14070775816056943
sg15
g116
sbs(I88
I1
tp120
g0
(g9
g2
Ntp121
Rp122
(dp123
g13
I01
sg14
F0.9849636572498617
sg15
g120
sbs(I-9
I88
tp124
g0
(g9
g2
Ntp125
Rp126
(dp127
g13
I01
sg14
F-1.262590189755461
sg15
g124
sbs(I-4
I88
tp128
g0
(g9
g2
Ntp129
Rp130
(dp131
g13
I01
sg14
F-1.2726759463605364
sg15
g128
sbssS'nodes'
p132
(dp133
I0
g0
(cneat.genes
DefaultNodeGene
p134
g2
Ntp135
Rp136
(dp137
S'activation'
p138
S'relu'
p139
sS'bias'
p140
F7.879255664340802
sS'response'
p141
F1.0
sg15
I0
sS'aggregation'
p142
S'sum'
p143
sbsI1
g0
(g134
g2
Ntp144
Rp145
(dp146
g138
g139
sg140
F-17.127286220486965
sg141
F1.0
sg15
I1
sg142
g143
sbsI2
g0
(g134
g2
Ntp147
Rp148
(dp149
g138
g139
sg140
F-9.137368232140977
sg141
F1.0
sg15
I2
sg142
g143
sbsI3
g0
(g134
g2
Ntp150
Rp151
(dp152
g138
g139
sg140
F-22.32104039890714
sg141
F1.0
sg15
I3
sg142
g143
sbsI4
g0
(g134
g2
Ntp153
Rp154
(dp155
g138
g139
sg140
F-1.6082421600570396
sg141
F1.0
sg15
I4
sg142
g143
sbsI5
g0
(g134
g2
Ntp156
Rp157
(dp158
g138
g139
sg140
F3.75519690882973
sg141
F1.0
sg15
I5
sg142
g143
sbsI6
g0
(g134
g2
Ntp159
Rp160
(dp161
g138
g139
sg140
F12.753691779530811
sg141
F1.0
sg15
I6
sg142
g143
sbsI7
g0
(g134
g2
Ntp162
Rp163
(dp164
g138
g139
sg140
F-2.0073396891076047
sg141
F1.0
sg15
I7
sg142
g143
sbsI8
g0
(g134
g2
Ntp165
Rp166
(dp167
g138
g139
sg140
F1.3491631613142985
sg141
F1.0
sg15
I8
sg142
g143
sbsI9
g0
(g134
g2
Ntp168
Rp169
(dp170
g138
g139
sg140
F-8.947646327271805
sg141
F1.0
sg15
I9
sg142
g143
sbsI88
g0
(g134
g2
Ntp171
Rp172
(dp173
g138
g139
sg140
F-4.595534187463456
sg141
F1.0
sg15
I88
sg142
g143
sbssg15
I79
sS'fitness'
p174
Nsb.