ccopy_reg
_reconstructor
p0
(cneat.genome
DefaultGenome
p1
c__builtin__
object
p2
Ntp3
Rp4
(dp5
S'connections'
p6
(dp7
(I88
I9
tp8
g0
(cneat.genes
DefaultConnectionGene
p9
g2
Ntp10
Rp11
(dp12
S'enabled'
p13
I01
sS'weight'
p14
F-0.5662235592184881
sS'key'
p15
g8
sbs(I-6
I88
tp16
g0
(g9
g2
Ntp17
Rp18
(dp19
g13
I01
sg14
F0.1396523639170638
sg15
g16
sbs(I88
I8
tp20
g0
(g9
g2
Ntp21
Rp22
(dp23
g13
I01
sg14
F1.5142889411045872
sg15
g20
sbs(I-10
I88
tp24
g0
(g9
g2
Ntp25
Rp26
(dp27
g13
I01
sg14
F-0.008565013817034095
sg15
g24
sbs(I88
I7
tp28
g0
(g9
g2
Ntp29
Rp30
(dp31
g13
I01
sg14
F0.3335726178919014
sg15
g28
sbs(I-5
I88
tp32
g0
(g9
g2
Ntp33
Rp34
(dp35
g13
I01
sg14
F0.6512443346011904
sg15
g32
sbs(I88
I6
tp36
g0
(g9
g2
Ntp37
Rp38
(dp39
g13
I01
sg14
F-1.1208880599278366
sg15
g36
sbs(I-7
I88
tp40
g0
(g9
g2
Ntp41
Rp42
(dp43
g13
I01
sg14
F-0.2847541911048299
sg15
g40
sbs(I88
I5
tp44
g0
(g9
g2
Ntp45
Rp46
(dp47
g13
I01
sg14
F0.5908680825747424
sg15
g44
sbs(I-2
I88
tp48
g0
(g9
g2
Ntp49
Rp50
(dp51
g13
I01
sg14
F-0.15379419148458068
sg15
g48
sbs(I88
I3
tp52
g0
(g9
g2
Ntp53
Rp54
(dp55
g13
I01
sg14
F-0.8340019149104898
sg15
g52
sbs(I-8
I88
tp56
g0
(g9
g2
Ntp57
Rp58
(dp59
g13
I01
sg14
F-0.6160927310837826
sg15
g56
sbs(I88
I2
tp60
g0
(g9
g2
Ntp61
Rp62
(dp63
g13
I01
sg14
F0.4658368740283024
sg15
g60
sbs(I-3
I88
tp64
g0
(g9
g2
Ntp65
Rp66
(dp67
g13
I01
sg14
F-0.3208331629587499
sg15
g64
sbs(I88
I1
tp68
g0
(g9
g2
Ntp69
Rp70
(dp71
g13
I01
sg14
F-0.3132771925602089
sg15
g68
sbs(I88
I0
tp72
g0
(g9
g2
Ntp73
Rp74
(dp75
g13
I01
sg14
F0.37064466595255685
sg15
g72
sbs(I-9
I88
tp76
g0
(g9
g2
Ntp77
Rp78
(dp79
g13
I01
sg14
F1.9020077414652166
sg15
g76
sbs(I-1
I88
tp80
g0
(g9
g2
Ntp81
Rp82
(dp83
g13
I01
sg14
F-0.16474358972648226
sg15
g80
sbs(I88
I4
tp84
g0
(g9
g2
Ntp85
Rp86
(dp87
g13
I01
sg14
F0.20265552780683627
sg15
g84
sbs(I-4
I88
tp88
g0
(g9
g2
Ntp89
Rp90
(dp91
g13
I01
sg14
F1.5858345080358531
sg15
g88
sbssS'nodes'
p92
(dp93
I0
g0
(cneat.genes
DefaultNodeGene
p94
g2
Ntp95
Rp96
(dp97
S'activation'
p98
S'relu'
p99
sS'bias'
p100
F7.377309738384138
sS'response'
p101
F1.0
sg15
I0
sS'aggregation'
p102
S'sum'
p103
sbsI1
g0
(g94
g2
Ntp104
Rp105
(dp106
g98
g99
sg100
F7.8184249651177335
sg101
F1.0
sg15
I1
sg102
g103
sbsI2
g0
(g94
g2
Ntp107
Rp108
(dp109
g98
g99
sg100
F-0.15395221091859773
sg101
F1.0
sg15
I2
sg102
g103
sbsI3
g0
(g94
g2
Ntp110
Rp111
(dp112
g98
g99
sg100
F-7.908221971921411
sg101
F1.0
sg15
I3
sg102
g103
sbsI4
g0
(g94
g2
Ntp113
Rp114
(dp115
g98
g99
sg100
F2.441383556132184
sg101
F1.0
sg15
I4
sg102
g103
sbsI5
g0
(g94
g2
Ntp116
Rp117
(dp118
g98
g99
sg100
F-14.60995197345905
sg101
F1.0
sg15
I5
sg102
g103
sbsI6
g0
(g94
g2
Ntp119
Rp120
(dp121
g98
g99
sg100
F-22.497223579570537
sg101
F1.0
sg15
I6
sg102
g103
sbsI7
g0
(g94
g2
Ntp122
Rp123
(dp124
g98
g99
sg100
F0.5762648774999595
sg101
F1.0
sg15
I7
sg102
g103
sbsI8
g0
(g94
g2
Ntp125
Rp126
(dp127
g98
g99
sg100
F10.430628118368885
sg101
F1.0
sg15
I8
sg102
g103
sbsI9
g0
(g94
g2
Ntp128
Rp129
(dp130
g98
g99
sg100
F-13.527604609891107
sg101
F1.0
sg15
I9
sg102
g103
sbsI88
g0
(g94
g2
Ntp131
Rp132
(dp133
g98
g99
sg100
F-19.869437497884107
sg101
F1.0
sg15
I88
sg102
g103
sbssg15
I79
sS'fitness'
p134
F0.18128315434446207
sb.