ccopy_reg
_reconstructor
p0
(cneat.genome
DefaultGenome
p1
c__builtin__
object
p2
Ntp3
Rp4
(dp5
S'connections'
p6
(dp7
(I-17
I88
tp8
g0
(cneat.genes
DefaultConnectionGene
p9
g2
Ntp10
Rp11
(dp12
S'enabled'
p13
I01
sS'weight'
p14
F0.10811155917407202
sS'key'
p15
g8
sbs(I-12
I88
tp16
g0
(g9
g2
Ntp17
Rp18
(dp19
g13
I01
sg14
F1.5105225600691454
sg15
g16
sbs(I88
I6
tp20
g0
(g9
g2
Ntp21
Rp22
(dp23
g13
I01
sg14
F1.5116033349746
sg15
g20
sbs(I-7
I88
tp24
g0
(g9
g2
Ntp25
Rp26
(dp27
g13
I01
sg14
F1.0736555880496481
sg15
g24
sbs(I88
I2
tp28
g0
(g9
g2
Ntp29
Rp30
(dp31
g13
I01
sg14
F0.2323043174088716
sg15
g28
sbs(I-3
I88
tp32
g0
(g9
g2
Ntp33
Rp34
(dp35
g13
I01
sg14
F1.1950551481814438
sg15
g32
sbs(I-11
I88
tp36
g0
(g9
g2
Ntp37
Rp38
(dp39
g13
I01
sg14
F-0.8208922197366394
sg15
g36
sbs(I-6
I88
tp40
g0
(g9
g2
Ntp41
Rp42
(dp43
g13
I01
sg14
F-0.11697922019601839
sg15
g40
sbs(I88
I7
tp44
g0
(g9
g2
Ntp45
Rp46
(dp47
g13
I01
sg14
F-0.8410156618302779
sg15
g44
sbs(I88
I4
tp48
g0
(g9
g2
Ntp49
Rp50
(dp51
g13
I01
sg14
F2.3510377775557387
sg15
g48
sbs(I-1
I88
tp52
g0
(g9
g2
Ntp53
Rp54
(dp55
g13
I01
sg14
F-0.7327375048569589
sg15
g52
sbs(I88
I3
tp56
g0
(g9
g2
Ntp57
Rp58
(dp59
g13
I01
sg14
F0.399245197448698
sg15
g56
sbs(I-16
I88
tp60
g0
(g9
g2
Ntp61
Rp62
(dp63
g13
I01
sg14
F-1.5457628210465102
sg15
g60
sbs(I88
I8
tp64
g0
(g9
g2
Ntp65
Rp66
(dp67
g13
I01
sg14
F1.42874253160128
sg15
g64
sbs(I-20
I88
tp68
g0
(g9
g2
Ntp69
Rp70
(dp71
g13
I01
sg14
F0.49036255327350486
sg15
g68
sbs(I-15
I88
tp72
g0
(g9
g2
Ntp73
Rp74
(dp75
g13
I01
sg14
F0.1881773975504009
sg15
g72
sbs(I88
I0
tp76
g0
(g9
g2
Ntp77
Rp78
(dp79
g13
I01
sg14
F-0.22944123403844927
sg15
g76
sbs(I-2
I88
tp80
g0
(g9
g2
Ntp81
Rp82
(dp83
g13
I01
sg14
F0.35838759060224085
sg15
g80
sbs(I88
I9
tp84
g0
(g9
g2
Ntp85
Rp86
(dp87
g13
I01
sg14
F2.010771616328868
sg15
g84
sbs(I-10
I88
tp88
g0
(g9
g2
Ntp89
Rp90
(dp91
g13
I01
sg14
F-0.3379624175710673
sg15
g88
sbs(I-19
I88
tp92
g0
(g9
g2
Ntp93
Rp94
(dp95
g13
I01
sg14
F-0.48408208435415206
sg15
g92
sbs(I-5
I88
tp96
g0
(g9
g2
Ntp97
Rp98
(dp99
g13
I01
sg14
F-1.601952135201124
sg15
g96
sbs(I-14
I88
tp100
g0
(g9
g2
Ntp101
Rp102
(dp103
g13
I01
sg14
F0.057913761984102835
sg15
g100
sbs(I88
I5
tp104
g0
(g9
g2
Ntp105
Rp106
(dp107
g13
I01
sg14
F1.633532057792162
sg15
g104
sbs(I-18
I88
tp108
g0
(g9
g2
Ntp109
Rp110
(dp111
g13
I01
sg14
F-0.7272727176798477
sg15
g108
sbs(I-13
I88
tp112
g0
(g9
g2
Ntp113
Rp114
(dp115
g13
I01
sg14
F0.23986085325456935
sg15
g112
sbs(I-8
I88
tp116
g0
(g9
g2
Ntp117
Rp118
(dp119
g13
I01
sg14
F-0.6940053700559417
sg15
g116
sbs(I88
I1
tp120
g0
(g9
g2
Ntp121
Rp122
(dp123
g13
I01
sg14
F0.10593683890941329
sg15
g120
sbs(I-9
I88
tp124
g0
(g9
g2
Ntp125
Rp126
(dp127
g13
I01
sg14
F-0.5714373115595615
sg15
g124
sbs(I-4
I88
tp128
g0
(g9
g2
Ntp129
Rp130
(dp131
g13
I01
sg14
F-0.40800459303696207
sg15
g128
sbssS'nodes'
p132
(dp133
I0
g0
(cneat.genes
DefaultNodeGene
p134
g2
Ntp135
Rp136
(dp137
S'activation'
p138
S'relu'
p139
sS'bias'
p140
F1.41930650736952
sS'response'
p141
F1.0
sg15
I0
sS'aggregation'
p142
S'sum'
p143
sbsI1
g0
(g134
g2
Ntp144
Rp145
(dp146
g138
g139
sg140
F3.8868940660492246
sg141
F1.0
sg15
I1
sg142
g143
sbsI2
g0
(g134
g2
Ntp147
Rp148
(dp149
g138
g139
sg140
F10.973883021111256
sg141
F1.0
sg15
I2
sg142
g143
sbsI3
g0
(g134
g2
Ntp150
Rp151
(dp152
g138
g139
sg140
F-9.740722529192245
sg141
F1.0
sg15
I3
sg142
g143
sbsI4
g0
(g134
g2
Ntp153
Rp154
(dp155
g138
g139
sg140
F-4.771806650118368
sg141
F1.0
sg15
I4
sg142
g143
sbsI5
g0
(g134
g2
Ntp156
Rp157
(dp158
g138
g139
sg140
F13.725288908525231
sg141
F1.0
sg15
I5
sg142
g143
sbsI6
g0
(g134
g2
Ntp159
Rp160
(dp161
g138
g139
sg140
F-2.368281387394854
sg141
F1.0
sg15
I6
sg142
g143
sbsI7
g0
(g134
g2
Ntp162
Rp163
(dp164
g138
g139
sg140
F6.74820414348848
sg141
F1.0
sg15
I7
sg142
g143
sbsI8
g0
(g134
g2
Ntp165
Rp166
(dp167
g138
g139
sg140
F-13.183829034472161
sg141
F1.0
sg15
I8
sg142
g143
sbsI9
g0
(g134
g2
Ntp168
Rp169
(dp170
g138
g139
sg140
F5.697627287979769
sg141
F1.0
sg15
I9
sg142
g143
sbsI88
g0
(g134
g2
Ntp171
Rp172
(dp173
g138
g139
sg140
F-7.996595437487172
sg141
F1.0
sg15
I88
sg142
g143
sbssg15
I79
sS'fitness'
p174
F0.09468358546342885
sb.