ccopy_reg
_reconstructor
p0
(cneat.genome
DefaultGenome
p1
c__builtin__
object
p2
Ntp3
Rp4
(dp5
S'connections'
p6
(dp7
(I92
I92
tp8
g0
(cneat.genes
DefaultConnectionGene
p9
g2
Ntp10
Rp11
(dp12
S'enabled'
p13
I01
sS'weight'
p14
F2.554266120282452
sS'key'
p15
g8
sbs(I-6
I91
tp16
g0
(g9
g2
Ntp17
Rp18
(dp19
g13
I01
sg14
F0.4573328846983709
sg15
g16
sbs(I-4
I92
tp20
g0
(g9
g2
Ntp21
Rp22
(dp23
g13
I01
sg14
F-0.4173134236193013
sg15
g20
sbs(I-2
I535
tp24
g0
(g9
g2
Ntp25
Rp26
(dp27
g13
I01
sg14
F-0.8165808801972237
sg15
g24
sbs(I92
I3
tp28
g0
(g9
g2
Ntp29
Rp30
(dp31
g13
I01
sg14
F0.3006887905392677
sg15
g28
sbs(I91
I4
tp32
g0
(g9
g2
Ntp33
Rp34
(dp35
g13
I01
sg14
F-1.7814350852266005
sg15
g32
sbs(I91
I9
tp36
g0
(g9
g2
Ntp37
Rp38
(dp39
g13
I00
sg14
F0.46848388854339235
sg15
g36
sbs(I91
I0
tp40
g0
(g9
g2
Ntp41
Rp42
(dp43
g13
I01
sg14
F-0.7007822698692413
sg15
g40
sbs(I-3
I92
tp44
g0
(g9
g2
Ntp45
Rp46
(dp47
g13
I01
sg14
F-0.9189808324535746
sg15
g44
sbs(I3
I3
tp48
g0
(g9
g2
Ntp49
Rp50
(dp51
g13
I01
sg14
F-0.8459503586168919
sg15
g48
sbs(I-4
I93
tp52
g0
(g9
g2
Ntp53
Rp54
(dp55
g13
I01
sg14
F-0.6052754602760068
sg15
g52
sbs(I92
I0
tp56
g0
(g9
g2
Ntp57
Rp58
(dp59
g13
I01
sg14
F0.022633304446646164
sg15
g56
sbs(I93
I5
tp60
g0
(g9
g2
Ntp61
Rp62
(dp63
g13
I01
sg14
F1.9329651530054481
sg15
g60
sbs(I-3
I91
tp64
g0
(g9
g2
Ntp65
Rp66
(dp67
g13
I00
sg14
F-3.3621452361702935
sg15
g64
sbs(I-2
I91
tp68
g0
(g9
g2
Ntp69
Rp70
(dp71
g13
I01
sg14
F-0.3607048562192163
sg15
g68
sbs(I-10
I91
tp72
g0
(g9
g2
Ntp73
Rp74
(dp75
g13
I01
sg14
F1.0680160321287215
sg15
g72
sbs(I93
I9
tp76
g0
(g9
g2
Ntp77
Rp78
(dp79
g13
I01
sg14
F0.11747837296340502
sg15
g76
sbs(I91
I6
tp80
g0
(g9
g2
Ntp81
Rp82
(dp83
g13
I01
sg14
F2.068145577243005
sg15
g80
sbs(I92
I8
tp84
g0
(g9
g2
Ntp85
Rp86
(dp87
g13
I01
sg14
F-0.9067662425460594
sg15
g84
sbs(I-2
I92
tp88
g0
(g9
g2
Ntp89
Rp90
(dp91
g13
I00
sg14
F-0.8492781058387076
sg15
g88
sbs(I91
I2
tp92
g0
(g9
g2
Ntp93
Rp94
(dp95
g13
I01
sg14
F-0.07335751113217448
sg15
g92
sbs(I5
I5
tp96
g0
(g9
g2
Ntp97
Rp98
(dp99
g13
I01
sg14
F0.6839235035474435
sg15
g96
sbs(I92
I5
tp100
g0
(g9
g2
Ntp101
Rp102
(dp103
g13
I01
sg14
F-1.342303067662988
sg15
g100
sbs(I-7
I93
tp104
g0
(g9
g2
Ntp105
Rp106
(dp107
g13
I01
sg14
F-0.547533707079649
sg15
g104
sbs(I93
I93
tp108
g0
(g9
g2
Ntp109
Rp110
(dp111
g13
I01
sg14
F0.5702962843563286
sg15
g108
sbs(I-1
I92
tp112
g0
(g9
g2
Ntp113
Rp114
(dp115
g13
I01
sg14
F-1.0566152136319438
sg15
g112
sbs(I-9
I93
tp116
g0
(g9
g2
Ntp117
Rp118
(dp119
g13
I00
sg14
F0.6940750045491993
sg15
g116
sbs(I92
I9
tp120
g0
(g9
g2
Ntp121
Rp122
(dp123
g13
I01
sg14
F0.510130629050793
sg15
g120
sbs(I-1
I93
tp124
g0
(g9
g2
Ntp125
Rp126
(dp127
g13
I01
sg14
F0.9630377725431282
sg15
g124
sbs(I92
I2
tp128
g0
(g9
g2
Ntp129
Rp130
(dp131
g13
I01
sg14
F0.3504967004034585
sg15
g128
sbs(I8
I8
tp132
g0
(g9
g2
Ntp133
Rp134
(dp135
g13
I01
sg14
F0.5901320844878062
sg15
g132
sbs(I93
I2
tp136
g0
(g9
g2
Ntp137
Rp138
(dp139
g13
I01
sg14
F5.462198061831944
sg15
g136
sbssS'nodes'
p140
(dp141
I0
g0
(cneat.genes
DefaultNodeGene
p142
g2
Ntp143
Rp144
(dp145
S'activation'
p146
S'tanh'
p147
sS'bias'
p148
F-6.185495354973699
sS'response'
p149
F1.0
sg15
I0
sS'aggregation'
p150
S'sum'
p151
sbsI1
g0
(g142
g2
Ntp152
Rp153
(dp154
g146
g147
sg148
F2.2145969979863254
sg149
F1.0
sg15
I1
sg150
g151
sbsI2
g0
(g142
g2
Ntp155
Rp156
(dp157
g146
g147
sg148
F3.7297174829492583
sg149
F1.0
sg15
I2
sg150
g151
sbsI3
g0
(g142
g2
Ntp158
Rp159
(dp160
g146
g147
sg148
F1.44059630927808
sg149
F1.0
sg15
I3
sg150
g151
sbsI4
g0
(g142
g2
Ntp161
Rp162
(dp163
g146
g147
sg148
F12.76151844222683
sg149
F1.0
sg15
I4
sg150
g151
sbsI5
g0
(g142
g2
Ntp164
Rp165
(dp166
g146
g147
sg148
F3.323024255303692
sg149
F1.0
sg15
I5
sg150
g151
sbsI6
g0
(g142
g2
Ntp167
Rp168
(dp169
g146
g147
sg148
F7.075476977407101
sg149
F1.0
sg15
I6
sg150
g151
sbsI7
g0
(g142
g2
Ntp170
Rp171
(dp172
g146
g147
sg148
F-13.817651767464609
sg149
F1.0
sg15
I7
sg150
g151
sbsI8
g0
(g142
g2
Ntp173
Rp174
(dp175
g146
g147
sg148
F-12.83736467556856
sg149
F1.0
sg15
I8
sg150
g151
sbsI9
g0
(g142
g2
Ntp176
Rp177
(dp178
g146
g147
sg148
F-9.298184218951153
sg149
F1.0
sg15
I9
sg150
g151
sbsI497
g0
(g142
g2
Ntp179
Rp180
(dp181
g146
S'relu'
p182
sg148
F-4.4666824302830905
sg149
F1.0
sg15
I497
sg150
g151
sbsI535
g0
(g142
g2
Ntp183
Rp184
(dp185
g146
g182
sg148
F-7.350453055472412
sg149
F1.0
sg15
I535
sg150
g151
sbsI91
g0
(g142
g2
Ntp186
Rp187
(dp188
g146
g147
sg148
F-5.650377536761242
sg149
F1.0
sg15
I91
sg150
g151
sbsI92
g0
(g142
g2
Ntp189
Rp190
(dp191
g146
g147
sg148
F10.088465076759118
sg149
F1.0
sg15
I92
sg150
g151
sbsI93
g0
(g142
g2
Ntp192
Rp193
(dp194
g146
g147
sg148
F-14.519517340336499
sg149
F1.0
sg15
I93
sg150
g151
sbssg15
I8
sS'fitness'
p195
F0.006537727622499601
sb.