ccopy_reg
_reconstructor
p0
(cneat.genome
DefaultGenome
p1
c__builtin__
object
p2
Ntp3
Rp4
(dp5
S'connections'
p6
(dp7
(I23
I4
tp8
g0
(cneat.genes
DefaultConnectionGene
p9
g2
Ntp10
Rp11
(dp12
S'enabled'
p13
I01
sS'weight'
p14
F0.9677405334232692
sS'key'
p15
g8
sbs(I-2
I521
tp16
g0
(g9
g2
Ntp17
Rp18
(dp19
g13
I01
sg14
F1.1706883652093385
sg15
g16
sbs(I-2
I23
tp20
g0
(g9
g2
Ntp21
Rp22
(dp23
g13
I01
sg14
F-0.9411874387242304
sg15
g20
sbs(I7
I7
tp24
g0
(g9
g2
Ntp25
Rp26
(dp27
g13
I01
sg14
F-0.262072610502589
sg15
g24
sbs(I9
I9
tp28
g0
(g9
g2
Ntp29
Rp30
(dp31
g13
I01
sg14
F1.176680294763774
sg15
g28
sbs(I23
I3
tp32
g0
(g9
g2
Ntp33
Rp34
(dp35
g13
I01
sg14
F0.571048139833876
sg15
g32
sbs(I-2
I22
tp36
g0
(g9
g2
Ntp37
Rp38
(dp39
g13
I01
sg14
F2.4815728780461845
sg15
g36
sbs(I-3
I3
tp40
g0
(g9
g2
Ntp41
Rp42
(dp43
g13
I01
sg14
F-0.49602115134549024
sg15
g40
sbs(I-1
I22
tp44
g0
(g9
g2
Ntp45
Rp46
(dp47
g13
I00
sg14
F-0.836742734676524
sg15
g44
sbs(I-7
I22
tp48
g0
(g9
g2
Ntp49
Rp50
(dp51
g13
I01
sg14
F0.6696848331694707
sg15
g48
sbs(I23
I7
tp52
g0
(g9
g2
Ntp53
Rp54
(dp55
g13
I01
sg14
F-2.656573004191806
sg15
g52
sbs(I-5
I23
tp56
g0
(g9
g2
Ntp57
Rp58
(dp59
g13
I00
sg14
F-0.14016618707093614
sg15
g56
sbs(I-1
I1
tp60
g0
(g9
g2
Ntp61
Rp62
(dp63
g13
I01
sg14
F-0.2715631531013382
sg15
g60
sbs(I22
I7
tp64
g0
(g9
g2
Ntp65
Rp66
(dp67
g13
I01
sg14
F-1.7073428526512706
sg15
g64
sbs(I2
I2
tp68
g0
(g9
g2
Ntp69
Rp70
(dp71
g13
I00
sg14
F-3.1710055220430564
sg15
g68
sbs(I-5
I22
tp72
g0
(g9
g2
Ntp73
Rp74
(dp75
g13
I01
sg14
F-1.372189165859586
sg15
g72
sbs(I521
I7
tp76
g0
(g9
g2
Ntp77
Rp78
(dp79
g13
I01
sg14
F-1.4668087608907545
sg15
g76
sbs(I2
I551
tp80
g0
(g9
g2
Ntp81
Rp82
(dp83
g13
I01
sg14
F-0.5214406314883918
sg15
g80
sbs(I-6
I22
tp84
g0
(g9
g2
Ntp85
Rp86
(dp87
g13
I01
sg14
F0.43533049363343324
sg15
g84
sbs(I559
I0
tp88
g0
(g9
g2
Ntp89
Rp90
(dp91
g13
I00
sg14
F-0.25389112120903634
sg15
g88
sbs(I22
I4
tp92
g0
(g9
g2
Ntp93
Rp94
(dp95
g13
I01
sg14
F1.3498928881690713
sg15
g92
sbs(I23
I1
tp96
g0
(g9
g2
Ntp97
Rp98
(dp99
g13
I01
sg14
F0.39249911885155625
sg15
g96
sbs(I22
I0
tp100
g0
(g9
g2
Ntp101
Rp102
(dp103
g13
I00
sg14
F-0.6926009534901798
sg15
g100
sbs(I23
I5
tp104
g0
(g9
g2
Ntp105
Rp106
(dp107
g13
I00
sg14
F-0.26179599778677587
sg15
g104
sbs(I-10
I23
tp108
g0
(g9
g2
Ntp109
Rp110
(dp111
g13
I01
sg14
F-2.182834607428993
sg15
g108
sbs(I22
I559
tp112
g0
(g9
g2
Ntp113
Rp114
(dp115
g13
I01
sg14
F1.2347067181043943
sg15
g112
sbs(I-4
I22
tp116
g0
(g9
g2
Ntp117
Rp118
(dp119
g13
I01
sg14
F-1.3627253547386196
sg15
g116
sbs(I23
I9
tp120
g0
(g9
g2
Ntp121
Rp122
(dp123
g13
I00
sg14
F3.670127761514006
sg15
g120
sbs(I8
I8
tp124
g0
(g9
g2
Ntp125
Rp126
(dp127
g13
I01
sg14
F1.1537770087872266
sg15
g124
sbs(I22
I8
tp128
g0
(g9
g2
Ntp129
Rp130
(dp131
g13
I01
sg14
F-1.8967366485374322
sg15
g128
sbssS'nodes'
p132
(dp133
I0
g0
(cneat.genes
DefaultNodeGene
p134
g2
Ntp135
Rp136
(dp137
S'activation'
p138
S'tanh'
p139
sS'bias'
p140
F4.8544958501548905
sS'response'
p141
F1.0
sg15
I0
sS'aggregation'
p142
S'sum'
p143
sbsI1
g0
(g134
g2
Ntp144
Rp145
(dp146
g138
g139
sg140
F-15.714616838869572
sg141
F1.0
sg15
I1
sg142
g143
sbsI2
g0
(g134
g2
Ntp147
Rp148
(dp149
g138
g139
sg140
F-0.7916913526094761
sg141
F1.0
sg15
I2
sg142
g143
sbsI3
g0
(g134
g2
Ntp150
Rp151
(dp152
g138
g139
sg140
F-20.608279513571127
sg141
F1.0
sg15
I3
sg142
g143
sbsI4
g0
(g134
g2
Ntp153
Rp154
(dp155
g138
S'relu'
p156
sg140
F22.66125561145877
sg141
F1.0
sg15
I4
sg142
g143
sbsI5
g0
(g134
g2
Ntp157
Rp158
(dp159
g138
g139
sg140
F8.803511514963365
sg141
F1.0
sg15
I5
sg142
g143
sbsI6
g0
(g134
g2
Ntp160
Rp161
(dp162
g138
g139
sg140
F18.32052668645512
sg141
F1.0
sg15
I6
sg142
g143
sbsI7
g0
(g134
g2
Ntp163
Rp164
(dp165
g138
g139
sg140
F5.927743965268453
sg141
F1.0
sg15
I7
sg142
g143
sbsI8
g0
(g134
g2
Ntp166
Rp167
(dp168
g138
g139
sg140
F-8.653332545024645
sg141
F1.0
sg15
I8
sg142
g143
sbsI9
g0
(g134
g2
Ntp169
Rp170
(dp171
g138
g139
sg140
F14.104199585112603
sg141
F1.0
sg15
I9
sg142
g143
sbsI551
g0
(g134
g2
Ntp172
Rp173
(dp174
g138
g139
sg140
F-3.0291474622829817
sg141
F1.0
sg15
I551
sg142
g143
sbsI559
g0
(g134
g2
Ntp175
Rp176
(dp177
g138
g139
sg140
F10.710638506801295
sg141
F1.0
sg15
I559
sg142
g143
sbsI22
g0
(g134
g2
Ntp178
Rp179
(dp180
g138
g139
sg140
F-15.10015977719212
sg141
F1.0
sg15
I22
sg142
g143
sbsI521
g0
(g134
g2
Ntp181
Rp182
(dp183
g138
g139
sg140
F12.6130359133985
sg141
F1.0
sg15
I521
sg142
g143
sbsI23
g0
(g134
g2
Ntp184
Rp185
(dp186
g138
g139
sg140
F-2.3858051137650946
sg141
F1.0
sg15
I23
sg142
g143
sbssg15
I8
sS'fitness'
p187
Nsb.