ccopy_reg
_reconstructor
p0
(cneat.genome
DefaultGenome
p1
c__builtin__
object
p2
Ntp3
Rp4
(dp5
S'connections'
p6
(dp7
(I-16
I17
tp8
g0
(cneat.genes
DefaultConnectionGene
p9
g2
Ntp10
Rp11
(dp12
S'enabled'
p13
I01
sS'weight'
p14
F0.22301195349456848
sS'key'
p15
g8
sbs(I17
I8
tp16
g0
(g9
g2
Ntp17
Rp18
(dp19
g13
I01
sg14
F0.2032789088699512
sg15
g16
sbs(I-9
I17
tp20
g0
(g9
g2
Ntp21
Rp22
(dp23
g13
I01
sg14
F0.5560293868667737
sg15
g20
sbs(I17
I3
tp24
g0
(g9
g2
Ntp25
Rp26
(dp27
g13
I01
sg14
F-1.9444791397292405
sg15
g24
sbs(I-20
I17
tp28
g0
(g9
g2
Ntp29
Rp30
(dp31
g13
I01
sg14
F0.8810349711835249
sg15
g28
sbs(I-6
I17
tp32
g0
(g9
g2
Ntp33
Rp34
(dp35
g13
I01
sg14
F-0.3627966580255708
sg15
g32
sbs(I-3
I17
tp36
g0
(g9
g2
Ntp37
Rp38
(dp39
g13
I01
sg14
F-0.13333369524483235
sg15
g36
sbs(I17
I6
tp40
g0
(g9
g2
Ntp41
Rp42
(dp43
g13
I01
sg14
F-0.06380716722517304
sg15
g40
sbs(I-10
I17
tp44
g0
(g9
g2
Ntp45
Rp46
(dp47
g13
I01
sg14
F-0.5324224157296106
sg15
g44
sbs(I-13
I17
tp48
g0
(g9
g2
Ntp49
Rp50
(dp51
g13
I01
sg14
F-0.5077114040954724
sg15
g48
sbs(I-14
I17
tp52
g0
(g9
g2
Ntp53
Rp54
(dp55
g13
I01
sg14
F-0.30442063939677044
sg15
g52
sbs(I17
I2
tp56
g0
(g9
g2
Ntp57
Rp58
(dp59
g13
I01
sg14
F0.760167301955777
sg15
g56
sbs(I17
I7
tp60
g0
(g9
g2
Ntp61
Rp62
(dp63
g13
I01
sg14
F-1.6615646259215961
sg15
g60
sbs(I-17
I17
tp64
g0
(g9
g2
Ntp65
Rp66
(dp67
g13
I01
sg14
F-0.5440786138113672
sg15
g64
sbs(I17
I5
tp68
g0
(g9
g2
Ntp69
Rp70
(dp71
g13
I01
sg14
F0.2177766330353864
sg15
g68
sbs(I-4
I17
tp72
g0
(g9
g2
Ntp73
Rp74
(dp75
g13
I01
sg14
F-0.5616041743367477
sg15
g72
sbs(I-7
I17
tp76
g0
(g9
g2
Ntp77
Rp78
(dp79
g13
I01
sg14
F-1.0577249407472737
sg15
g76
sbs(I17
I1
tp80
g0
(g9
g2
Ntp81
Rp82
(dp83
g13
I01
sg14
F0.30676452358365236
sg15
g80
sbs(I-2
I17
tp84
g0
(g9
g2
Ntp85
Rp86
(dp87
g13
I01
sg14
F0.20341654516135785
sg15
g84
sbs(I-11
I17
tp88
g0
(g9
g2
Ntp89
Rp90
(dp91
g13
I01
sg14
F-0.8221900727910335
sg15
g88
sbs(I-15
I17
tp92
g0
(g9
g2
Ntp93
Rp94
(dp95
g13
I01
sg14
F-0.39529745548846656
sg15
g92
sbs(I17
I4
tp96
g0
(g9
g2
Ntp97
Rp98
(dp99
g13
I01
sg14
F-0.09973404975213254
sg15
g96
sbs(I-18
I17
tp100
g0
(g9
g2
Ntp101
Rp102
(dp103
g13
I01
sg14
F-0.26592362103954614
sg15
g100
sbs(I17
I9
tp104
g0
(g9
g2
Ntp105
Rp106
(dp107
g13
I01
sg14
F1.269500414277193
sg15
g104
sbs(I-8
I17
tp108
g0
(g9
g2
Ntp109
Rp110
(dp111
g13
I01
sg14
F-0.16738610894676278
sg15
g108
sbs(I17
I0
tp112
g0
(g9
g2
Ntp113
Rp114
(dp115
g13
I01
sg14
F0.39796364326140354
sg15
g112
sbs(I-1
I17
tp116
g0
(g9
g2
Ntp117
Rp118
(dp119
g13
I01
sg14
F0.534518192905002
sg15
g116
sbs(I-19
I17
tp120
g0
(g9
g2
Ntp121
Rp122
(dp123
g13
I01
sg14
F-1.9940957934687966
sg15
g120
sbs(I-5
I17
tp124
g0
(g9
g2
Ntp125
Rp126
(dp127
g13
I01
sg14
F-0.6270689303316508
sg15
g124
sbs(I-12
I17
tp128
g0
(g9
g2
Ntp129
Rp130
(dp131
g13
I01
sg14
F1.6256814010159175
sg15
g128
sbssS'nodes'
p132
(dp133
I0
g0
(cneat.genes
DefaultNodeGene
p134
g2
Ntp135
Rp136
(dp137
S'activation'
p138
S'relu'
p139
sS'bias'
p140
F-3.76241625726039
sS'response'
p141
F1.0
sg15
I0
sS'aggregation'
p142
S'sum'
p143
sbsI1
g0
(g134
g2
Ntp144
Rp145
(dp146
g138
g139
sg140
F6.172204516896562
sg141
F1.0
sg15
I1
sg142
g143
sbsI2
g0
(g134
g2
Ntp147
Rp148
(dp149
g138
g139
sg140
F-13.107021659992647
sg141
F1.0
sg15
I2
sg142
g143
sbsI3
g0
(g134
g2
Ntp150
Rp151
(dp152
g138
g139
sg140
F-12.682104548367644
sg141
F1.0
sg15
I3
sg142
g143
sbsI4
g0
(g134
g2
Ntp153
Rp154
(dp155
g138
g139
sg140
F13.6103419200604
sg141
F1.0
sg15
I4
sg142
g143
sbsI5
g0
(g134
g2
Ntp156
Rp157
(dp158
g138
g139
sg140
F11.7332195843106
sg141
F1.0
sg15
I5
sg142
g143
sbsI6
g0
(g134
g2
Ntp159
Rp160
(dp161
g138
g139
sg140
F-15.171670238496395
sg141
F1.0
sg15
I6
sg142
g143
sbsI7
g0
(g134
g2
Ntp162
Rp163
(dp164
g138
g139
sg140
F3.0146786905240504
sg141
F1.0
sg15
I7
sg142
g143
sbsI8
g0
(g134
g2
Ntp165
Rp166
(dp167
g138
g139
sg140
F5.883477978195884
sg141
F1.0
sg15
I8
sg142
g143
sbsI9
g0
(g134
g2
Ntp168
Rp169
(dp170
g138
g139
sg140
F-13.53119418194607
sg141
F1.0
sg15
I9
sg142
g143
sbsI17
g0
(g134
g2
Ntp171
Rp172
(dp173
g138
g139
sg140
F0.9448455542773626
sg141
F1.0
sg15
I17
sg142
g143
sbssg15
I8
sS'fitness'
p174
Nsb.