ccopy_reg
_reconstructor
p0
(cneat.genome
DefaultGenome
p1
c__builtin__
object
p2
Ntp3
Rp4
(dp5
S'connections'
p6
(dp7
(I-16
I17
tp8
g0
(cneat.genes
DefaultConnectionGene
p9
g2
Ntp10
Rp11
(dp12
S'enabled'
p13
I01
sS'weight'
p14
F0.24936817429410107
sS'key'
p15
g8
sbs(I17
I8
tp16
g0
(g9
g2
Ntp17
Rp18
(dp19
g13
I01
sg14
F0.31989157581621624
sg15
g16
sbs(I-9
I17
tp20
g0
(g9
g2
Ntp21
Rp22
(dp23
g13
I01
sg14
F1.9825680468912312
sg15
g20
sbs(I17
I3
tp24
g0
(g9
g2
Ntp25
Rp26
(dp27
g13
I01
sg14
F0.3791250563176382
sg15
g24
sbs(I-20
I17
tp28
g0
(g9
g2
Ntp29
Rp30
(dp31
g13
I01
sg14
F0.12060477700062543
sg15
g28
sbs(I-6
I17
tp32
g0
(g9
g2
Ntp33
Rp34
(dp35
g13
I01
sg14
F0.0037051719742273773
sg15
g32
sbs(I-3
I17
tp36
g0
(g9
g2
Ntp37
Rp38
(dp39
g13
I01
sg14
F-0.2913737993014303
sg15
g36
sbs(I17
I6
tp40
g0
(g9
g2
Ntp41
Rp42
(dp43
g13
I01
sg14
F0.9941134927339871
sg15
g40
sbs(I-10
I17
tp44
g0
(g9
g2
Ntp45
Rp46
(dp47
g13
I01
sg14
F0.5940119445846004
sg15
g44
sbs(I-13
I17
tp48
g0
(g9
g2
Ntp49
Rp50
(dp51
g13
I01
sg14
F-1.5189440859985077
sg15
g48
sbs(I-14
I17
tp52
g0
(g9
g2
Ntp53
Rp54
(dp55
g13
I01
sg14
F0.9179171769277832
sg15
g52
sbs(I17
I2
tp56
g0
(g9
g2
Ntp57
Rp58
(dp59
g13
I01
sg14
F1.0295880596894798
sg15
g56
sbs(I17
I7
tp60
g0
(g9
g2
Ntp61
Rp62
(dp63
g13
I01
sg14
F0.7406534719183338
sg15
g60
sbs(I-17
I17
tp64
g0
(g9
g2
Ntp65
Rp66
(dp67
g13
I01
sg14
F0.978747426815124
sg15
g64
sbs(I17
I5
tp68
g0
(g9
g2
Ntp69
Rp70
(dp71
g13
I01
sg14
F-0.6621680684695649
sg15
g68
sbs(I-4
I17
tp72
g0
(g9
g2
Ntp73
Rp74
(dp75
g13
I01
sg14
F1.1032510767328496
sg15
g72
sbs(I-7
I17
tp76
g0
(g9
g2
Ntp77
Rp78
(dp79
g13
I01
sg14
F-0.3629457974270967
sg15
g76
sbs(I17
I1
tp80
g0
(g9
g2
Ntp81
Rp82
(dp83
g13
I01
sg14
F-1.8113376206626395
sg15
g80
sbs(I-2
I17
tp84
g0
(g9
g2
Ntp85
Rp86
(dp87
g13
I01
sg14
F0.17996206177680787
sg15
g84
sbs(I-11
I17
tp88
g0
(g9
g2
Ntp89
Rp90
(dp91
g13
I01
sg14
F0.11506628107648151
sg15
g88
sbs(I-15
I17
tp92
g0
(g9
g2
Ntp93
Rp94
(dp95
g13
I01
sg14
F0.17908894001129874
sg15
g92
sbs(I17
I4
tp96
g0
(g9
g2
Ntp97
Rp98
(dp99
g13
I01
sg14
F-0.7649835028922023
sg15
g96
sbs(I-18
I17
tp100
g0
(g9
g2
Ntp101
Rp102
(dp103
g13
I01
sg14
F0.872668289484263
sg15
g100
sbs(I17
I9
tp104
g0
(g9
g2
Ntp105
Rp106
(dp107
g13
I01
sg14
F-0.06298207977390625
sg15
g104
sbs(I-8
I17
tp108
g0
(g9
g2
Ntp109
Rp110
(dp111
g13
I01
sg14
F-0.6657643230568516
sg15
g108
sbs(I17
I0
tp112
g0
(g9
g2
Ntp113
Rp114
(dp115
g13
I01
sg14
F-1.790829771352592
sg15
g112
sbs(I-1
I17
tp116
g0
(g9
g2
Ntp117
Rp118
(dp119
g13
I01
sg14
F0.15843171953383298
sg15
g116
sbs(I-19
I17
tp120
g0
(g9
g2
Ntp121
Rp122
(dp123
g13
I01
sg14
F-0.8637821222588348
sg15
g120
sbs(I-5
I17
tp124
g0
(g9
g2
Ntp125
Rp126
(dp127
g13
I01
sg14
F1.1283194324327648
sg15
g124
sbs(I-12
I17
tp128
g0
(g9
g2
Ntp129
Rp130
(dp131
g13
I01
sg14
F1.3415089693872209
sg15
g128
sbssS'nodes'
p132
(dp133
I0
g0
(cneat.genes
DefaultNodeGene
p134
g2
Ntp135
Rp136
(dp137
S'activation'
p138
S'relu'
p139
sS'bias'
p140
F-8.667535542034509
sS'response'
p141
F1.0
sg15
I0
sS'aggregation'
p142
S'sum'
p143
sbsI1
g0
(g134
g2
Ntp144
Rp145
(dp146
g138
g139
sg140
F-3.1699687633992344
sg141
F1.0
sg15
I1
sg142
g143
sbsI2
g0
(g134
g2
Ntp147
Rp148
(dp149
g138
g139
sg140
F-5.4245306388040815
sg141
F1.0
sg15
I2
sg142
g143
sbsI3
g0
(g134
g2
Ntp150
Rp151
(dp152
g138
g139
sg140
F9.738686280637927
sg141
F1.0
sg15
I3
sg142
g143
sbsI4
g0
(g134
g2
Ntp153
Rp154
(dp155
g138
g139
sg140
F2.8085183363635995
sg141
F1.0
sg15
I4
sg142
g143
sbsI5
g0
(g134
g2
Ntp156
Rp157
(dp158
g138
g139
sg140
F-2.730590885012953
sg141
F1.0
sg15
I5
sg142
g143
sbsI6
g0
(g134
g2
Ntp159
Rp160
(dp161
g138
g139
sg140
F6.492003295727451
sg141
F1.0
sg15
I6
sg142
g143
sbsI7
g0
(g134
g2
Ntp162
Rp163
(dp164
g138
g139
sg140
F-13.908899954190828
sg141
F1.0
sg15
I7
sg142
g143
sbsI8
g0
(g134
g2
Ntp165
Rp166
(dp167
g138
g139
sg140
F1.0782440074092072
sg141
F1.0
sg15
I8
sg142
g143
sbsI9
g0
(g134
g2
Ntp168
Rp169
(dp170
g138
g139
sg140
F0.9687976074218783
sg141
F1.0
sg15
I9
sg142
g143
sbsI17
g0
(g134
g2
Ntp171
Rp172
(dp173
g138
g139
sg140
F6.321246488004312
sg141
F1.0
sg15
I17
sg142
g143
sbssg15
I8
sS'fitness'
p174
F0.08841213334930038
sb.