ccopy_reg
_reconstructor
p0
(cneat.genome
DefaultGenome
p1
c__builtin__
object
p2
Ntp3
Rp4
(dp5
S'connections'
p6
(dp7
(I-11
I89
tp8
g0
(cneat.genes
DefaultConnectionGene
p9
g2
Ntp10
Rp11
(dp12
S'enabled'
p13
I01
sS'weight'
p14
F-0.587396041415638
sS'key'
p15
g8
sbs(I-10
I89
tp16
g0
(g9
g2
Ntp17
Rp18
(dp19
g13
I01
sg14
F1.881438084941535
sg15
g16
sbs(I-14
I89
tp20
g0
(g9
g2
Ntp21
Rp22
(dp23
g13
I01
sg14
F-0.4622612301698206
sg15
g20
sbs(I-18
I89
tp24
g0
(g9
g2
Ntp25
Rp26
(dp27
g13
I01
sg14
F0.30254804223864445
sg15
g24
sbs(I89
I7
tp28
g0
(g9
g2
Ntp29
Rp30
(dp31
g13
I01
sg14
F-0.49677013548765747
sg15
g28
sbs(I-8
I89
tp32
g0
(g9
g2
Ntp33
Rp34
(dp35
g13
I01
sg14
F0.002376188316550657
sg15
g32
sbs(I89
I3
tp36
g0
(g9
g2
Ntp37
Rp38
(dp39
g13
I01
sg14
F0.7731530366926251
sg15
g36
sbs(I-4
I89
tp40
g0
(g9
g2
Ntp41
Rp42
(dp43
g13
I01
sg14
F-1.8061114904708067
sg15
g40
sbs(I-12
I89
tp44
g0
(g9
g2
Ntp45
Rp46
(dp47
g13
I01
sg14
F1.0259930063423937
sg15
g44
sbs(I89
I6
tp48
g0
(g9
g2
Ntp49
Rp50
(dp51
g13
I01
sg14
F-0.6351897720862657
sg15
g48
sbs(I-15
I89
tp52
g0
(g9
g2
Ntp53
Rp54
(dp55
g13
I01
sg14
F1.7306405999001733
sg15
g52
sbs(I89
I5
tp56
g0
(g9
g2
Ntp57
Rp58
(dp59
g13
I01
sg14
F-0.2140890658622262
sg15
g56
sbs(I89
I2
tp60
g0
(g9
g2
Ntp61
Rp62
(dp63
g13
I01
sg14
F0.23081451185832116
sg15
g60
sbs(I89
I9
tp64
g0
(g9
g2
Ntp65
Rp66
(dp67
g13
I01
sg14
F1.5405384191093487
sg15
g64
sbs(I-6
I89
tp68
g0
(g9
g2
Ntp69
Rp70
(dp71
g13
I01
sg14
F1.3371780203819814
sg15
g68
sbs(I-19
I89
tp72
g0
(g9
g2
Ntp73
Rp74
(dp75
g13
I01
sg14
F2.142205080069925
sg15
g72
sbs(I-5
I89
tp76
g0
(g9
g2
Ntp77
Rp78
(dp79
g13
I01
sg14
F1.5543115174427033
sg15
g76
sbs(I-13
I89
tp80
g0
(g9
g2
Ntp81
Rp82
(dp83
g13
I01
sg14
F0.3073307060146006
sg15
g80
sbs(I89
I1
tp84
g0
(g9
g2
Ntp85
Rp86
(dp87
g13
I01
sg14
F0.7432978190558519
sg15
g84
sbs(I-16
I89
tp88
g0
(g9
g2
Ntp89
Rp90
(dp91
g13
I01
sg14
F0.5462173668702438
sg15
g88
sbs(I89
I8
tp92
g0
(g9
g2
Ntp93
Rp94
(dp95
g13
I01
sg14
F1.1706539534255815
sg15
g92
sbs(I-2
I89
tp96
g0
(g9
g2
Ntp97
Rp98
(dp99
g13
I01
sg14
F-0.03288956624613257
sg15
g96
sbs(I-9
I89
tp100
g0
(g9
g2
Ntp101
Rp102
(dp103
g13
I01
sg14
F-0.27657701191407924
sg15
g100
sbs(I89
I4
tp104
g0
(g9
g2
Ntp105
Rp106
(dp107
g13
I01
sg14
F-0.760735994377538
sg15
g104
sbs(I-17
I89
tp108
g0
(g9
g2
Ntp109
Rp110
(dp111
g13
I01
sg14
F-1.4304798330093325
sg15
g108
sbs(I-20
I89
tp112
g0
(g9
g2
Ntp113
Rp114
(dp115
g13
I01
sg14
F-1.146658686531265
sg15
g112
sbs(I-7
I89
tp116
g0
(g9
g2
Ntp117
Rp118
(dp119
g13
I01
sg14
F-1.5097809962321027
sg15
g116
sbs(I89
I0
tp120
g0
(g9
g2
Ntp121
Rp122
(dp123
g13
I01
sg14
F0.5782612986388759
sg15
g120
sbs(I-3
I89
tp124
g0
(g9
g2
Ntp125
Rp126
(dp127
g13
I01
sg14
F-1.0920781789781997
sg15
g124
sbs(I-1
I89
tp128
g0
(g9
g2
Ntp129
Rp130
(dp131
g13
I01
sg14
F-0.808053412747069
sg15
g128
sbssS'nodes'
p132
(dp133
I0
g0
(cneat.genes
DefaultNodeGene
p134
g2
Ntp135
Rp136
(dp137
S'activation'
p138
S'relu'
p139
sS'bias'
p140
F-6.81278574889638
sS'response'
p141
F1.0
sg15
I0
sS'aggregation'
p142
S'sum'
p143
sbsI1
g0
(g134
g2
Ntp144
Rp145
(dp146
g138
g139
sg140
F-6.780497730771442
sg141
F1.0
sg15
I1
sg142
g143
sbsI2
g0
(g134
g2
Ntp147
Rp148
(dp149
g138
g139
sg140
F-6.692240308794158
sg141
F1.0
sg15
I2
sg142
g143
sbsI3
g0
(g134
g2
Ntp150
Rp151
(dp152
g138
g139
sg140
F2.867492413097642
sg141
F1.0
sg15
I3
sg142
g143
sbsI4
g0
(g134
g2
Ntp153
Rp154
(dp155
g138
g139
sg140
F-12.477943080161715
sg141
F1.0
sg15
I4
sg142
g143
sbsI5
g0
(g134
g2
Ntp156
Rp157
(dp158
g138
g139
sg140
F-10.451904633054355
sg141
F1.0
sg15
I5
sg142
g143
sbsI6
g0
(g134
g2
Ntp159
Rp160
(dp161
g138
g139
sg140
F4.05880683424962
sg141
F1.0
sg15
I6
sg142
g143
sbsI7
g0
(g134
g2
Ntp162
Rp163
(dp164
g138
g139
sg140
F-0.6164183276924464
sg141
F1.0
sg15
I7
sg142
g143
sbsI8
g0
(g134
g2
Ntp165
Rp166
(dp167
g138
g139
sg140
F6.98541205478647
sg141
F1.0
sg15
I8
sg142
g143
sbsI9
g0
(g134
g2
Ntp168
Rp169
(dp170
g138
g139
sg140
F6.490444662983817
sg141
F1.0
sg15
I9
sg142
g143
sbsI89
g0
(g134
g2
Ntp171
Rp172
(dp173
g138
g139
sg140
F-0.003892658989622015
sg141
F1.0
sg15
I89
sg142
g143
sbssg15
I80
sS'fitness'
p174
F0.06300107606582672
sb.