ccopy_reg
_reconstructor
p0
(cneat.genome
DefaultGenome
p1
c__builtin__
object
p2
Ntp3
Rp4
(dp5
S'connections'
p6
(dp7
(I89
I8
tp8
g0
(cneat.genes
DefaultConnectionGene
p9
g2
Ntp10
Rp11
(dp12
S'enabled'
p13
I01
sS'weight'
p14
F0.74291882639442
sS'key'
p15
g8
sbs(I-10
I89
tp16
g0
(g9
g2
Ntp17
Rp18
(dp19
g13
I01
sg14
F-0.3235955566840041
sg15
g16
sbs(I89
I9
tp20
g0
(g9
g2
Ntp21
Rp22
(dp23
g13
I01
sg14
F0.1452856729187602
sg15
g20
sbs(I89
I4
tp24
g0
(g9
g2
Ntp25
Rp26
(dp27
g13
I01
sg14
F-0.05092261372616882
sg15
g24
sbs(I89
I5
tp28
g0
(g9
g2
Ntp29
Rp30
(dp31
g13
I01
sg14
F1.0274458076926636
sg15
g28
sbs(I-5
I89
tp32
g0
(g9
g2
Ntp33
Rp34
(dp35
g13
I01
sg14
F2.0967038399916356
sg15
g32
sbs(I89
I6
tp36
g0
(g9
g2
Ntp37
Rp38
(dp39
g13
I01
sg14
F0.13851156837023407
sg15
g36
sbs(I-7
I89
tp40
g0
(g9
g2
Ntp41
Rp42
(dp43
g13
I01
sg14
F0.6642380798315848
sg15
g40
sbs(I89
I7
tp44
g0
(g9
g2
Ntp45
Rp46
(dp47
g13
I01
sg14
F-1.6059864361924814
sg15
g44
sbs(I-8
I89
tp48
g0
(g9
g2
Ntp49
Rp50
(dp51
g13
I01
sg14
F-0.34900038437776854
sg15
g48
sbs(I89
I0
tp52
g0
(g9
g2
Ntp53
Rp54
(dp55
g13
I01
sg14
F0.4602277265766547
sg15
g52
sbs(I89
I1
tp56
g0
(g9
g2
Ntp57
Rp58
(dp59
g13
I01
sg14
F-0.8855793135006217
sg15
g56
sbs(I89
I2
tp60
g0
(g9
g2
Ntp61
Rp62
(dp63
g13
I01
sg14
F-0.48659174271549044
sg15
g60
sbs(I-3
I89
tp64
g0
(g9
g2
Ntp65
Rp66
(dp67
g13
I01
sg14
F-1.0537764245738264
sg15
g64
sbs(I-1
I89
tp68
g0
(g9
g2
Ntp69
Rp70
(dp71
g13
I01
sg14
F-0.47823140081425347
sg15
g68
sbs(I89
I3
tp72
g0
(g9
g2
Ntp73
Rp74
(dp75
g13
I01
sg14
F1.130699556970717
sg15
g72
sbs(I-4
I89
tp76
g0
(g9
g2
Ntp77
Rp78
(dp79
g13
I01
sg14
F0.10213851196324185
sg15
g76
sbs(I-2
I89
tp80
g0
(g9
g2
Ntp81
Rp82
(dp83
g13
I01
sg14
F1.1808713539606144
sg15
g80
sbs(I-6
I89
tp84
g0
(g9
g2
Ntp85
Rp86
(dp87
g13
I01
sg14
F-0.41291402867800403
sg15
g84
sbs(I-9
I89
tp88
g0
(g9
g2
Ntp89
Rp90
(dp91
g13
I01
sg14
F0.8427246554453455
sg15
g88
sbssS'nodes'
p92
(dp93
I0
g0
(cneat.genes
DefaultNodeGene
p94
g2
Ntp95
Rp96
(dp97
S'activation'
p98
S'relu'
p99
sS'bias'
p100
F1.4686128174030184
sS'response'
p101
F1.0
sg15
I0
sS'aggregation'
p102
S'sum'
p103
sbsI1
g0
(g94
g2
Ntp104
Rp105
(dp106
g98
g99
sg100
F-7.295900250890406
sg101
F1.0
sg15
I1
sg102
g103
sbsI2
g0
(g94
g2
Ntp107
Rp108
(dp109
g98
g99
sg100
F5.119089392212677
sg101
F1.0
sg15
I2
sg102
g103
sbsI3
g0
(g94
g2
Ntp110
Rp111
(dp112
g98
g99
sg100
F0.49742461839334284
sg101
F1.0
sg15
I3
sg102
g103
sbsI4
g0
(g94
g2
Ntp113
Rp114
(dp115
g98
g99
sg100
F7.8701756142983115
sg101
F1.0
sg15
I4
sg102
g103
sbsI5
g0
(g94
g2
Ntp116
Rp117
(dp118
g98
g99
sg100
F-4.285777082079191
sg101
F1.0
sg15
I5
sg102
g103
sbsI6
g0
(g94
g2
Ntp119
Rp120
(dp121
g98
g99
sg100
F4.318548929084662
sg101
F1.0
sg15
I6
sg102
g103
sbsI7
g0
(g94
g2
Ntp122
Rp123
(dp124
g98
g99
sg100
F1.3992879937980682
sg101
F1.0
sg15
I7
sg102
g103
sbsI8
g0
(g94
g2
Ntp125
Rp126
(dp127
g98
g99
sg100
F-4.616678787551498
sg101
F1.0
sg15
I8
sg102
g103
sbsI9
g0
(g94
g2
Ntp128
Rp129
(dp130
g98
g99
sg100
F1.9799820585089158
sg101
F1.0
sg15
I9
sg102
g103
sbsI89
g0
(g94
g2
Ntp131
Rp132
(dp133
g98
g99
sg100
F-11.215290262743864
sg101
F1.0
sg15
I89
sg102
g103
sbssg15
I80
sS'fitness'
p134
F-0.19158772644559297
sb.