ccopy_reg
_reconstructor
p0
(cneat.genome
DefaultGenome
p1
c__builtin__
object
p2
Ntp3
Rp4
(dp5
S'connections'
p6
(dp7
(I-11
I89
tp8
g0
(cneat.genes
DefaultConnectionGene
p9
g2
Ntp10
Rp11
(dp12
S'enabled'
p13
I01
sS'weight'
p14
F0.6193171098193856
sS'key'
p15
g8
sbs(I-10
I89
tp16
g0
(g9
g2
Ntp17
Rp18
(dp19
g13
I01
sg14
F0.7148725713375549
sg15
g16
sbs(I-14
I89
tp20
g0
(g9
g2
Ntp21
Rp22
(dp23
g13
I01
sg14
F-1.6127735949427937
sg15
g20
sbs(I-18
I89
tp24
g0
(g9
g2
Ntp25
Rp26
(dp27
g13
I01
sg14
F-1.130301084891888
sg15
g24
sbs(I89
I7
tp28
g0
(g9
g2
Ntp29
Rp30
(dp31
g13
I01
sg14
F-1.7586979584364546
sg15
g28
sbs(I-8
I89
tp32
g0
(g9
g2
Ntp33
Rp34
(dp35
g13
I01
sg14
F0.051978421905213935
sg15
g32
sbs(I89
I3
tp36
g0
(g9
g2
Ntp37
Rp38
(dp39
g13
I01
sg14
F-0.7521838650339765
sg15
g36
sbs(I-4
I89
tp40
g0
(g9
g2
Ntp41
Rp42
(dp43
g13
I01
sg14
F1.6240662846946379
sg15
g40
sbs(I-12
I89
tp44
g0
(g9
g2
Ntp45
Rp46
(dp47
g13
I01
sg14
F-0.3628201568227945
sg15
g44
sbs(I89
I6
tp48
g0
(g9
g2
Ntp49
Rp50
(dp51
g13
I01
sg14
F0.40944920218092556
sg15
g48
sbs(I-15
I89
tp52
g0
(g9
g2
Ntp53
Rp54
(dp55
g13
I01
sg14
F-0.2697288123142961
sg15
g52
sbs(I89
I5
tp56
g0
(g9
g2
Ntp57
Rp58
(dp59
g13
I01
sg14
F-0.06921624523848864
sg15
g56
sbs(I89
I2
tp60
g0
(g9
g2
Ntp61
Rp62
(dp63
g13
I01
sg14
F-0.4799738968715216
sg15
g60
sbs(I89
I9
tp64
g0
(g9
g2
Ntp65
Rp66
(dp67
g13
I01
sg14
F0.4777517813214118
sg15
g64
sbs(I-6
I89
tp68
g0
(g9
g2
Ntp69
Rp70
(dp71
g13
I01
sg14
F-0.12949376419705813
sg15
g68
sbs(I-19
I89
tp72
g0
(g9
g2
Ntp73
Rp74
(dp75
g13
I01
sg14
F0.04884822577166703
sg15
g72
sbs(I-5
I89
tp76
g0
(g9
g2
Ntp77
Rp78
(dp79
g13
I01
sg14
F-0.171650259335328
sg15
g76
sbs(I-13
I89
tp80
g0
(g9
g2
Ntp81
Rp82
(dp83
g13
I01
sg14
F-0.29280947398454915
sg15
g80
sbs(I89
I1
tp84
g0
(g9
g2
Ntp85
Rp86
(dp87
g13
I01
sg14
F-2.3236046037285156
sg15
g84
sbs(I-16
I89
tp88
g0
(g9
g2
Ntp89
Rp90
(dp91
g13
I01
sg14
F-0.2831463309530347
sg15
g88
sbs(I89
I8
tp92
g0
(g9
g2
Ntp93
Rp94
(dp95
g13
I01
sg14
F-0.5068258512728322
sg15
g92
sbs(I-2
I89
tp96
g0
(g9
g2
Ntp97
Rp98
(dp99
g13
I01
sg14
F-0.5101878444349308
sg15
g96
sbs(I-9
I89
tp100
g0
(g9
g2
Ntp101
Rp102
(dp103
g13
I01
sg14
F-0.3144838464415727
sg15
g100
sbs(I89
I4
tp104
g0
(g9
g2
Ntp105
Rp106
(dp107
g13
I01
sg14
F-1.353953538868273
sg15
g104
sbs(I-17
I89
tp108
g0
(g9
g2
Ntp109
Rp110
(dp111
g13
I01
sg14
F-0.8987049790771948
sg15
g108
sbs(I-20
I89
tp112
g0
(g9
g2
Ntp113
Rp114
(dp115
g13
I01
sg14
F-0.27688933308520247
sg15
g112
sbs(I-7
I89
tp116
g0
(g9
g2
Ntp117
Rp118
(dp119
g13
I01
sg14
F-1.0661266577969621
sg15
g116
sbs(I89
I0
tp120
g0
(g9
g2
Ntp121
Rp122
(dp123
g13
I01
sg14
F0.9932475295400324
sg15
g120
sbs(I-3
I89
tp124
g0
(g9
g2
Ntp125
Rp126
(dp127
g13
I01
sg14
F-0.3688445069299531
sg15
g124
sbs(I-1
I89
tp128
g0
(g9
g2
Ntp129
Rp130
(dp131
g13
I01
sg14
F1.4157171836582871
sg15
g128
sbssS'nodes'
p132
(dp133
I0
g0
(cneat.genes
DefaultNodeGene
p134
g2
Ntp135
Rp136
(dp137
S'activation'
p138
S'relu'
p139
sS'bias'
p140
F13.219512650467077
sS'response'
p141
F1.0
sg15
I0
sS'aggregation'
p142
S'sum'
p143
sbsI1
g0
(g134
g2
Ntp144
Rp145
(dp146
g138
g139
sg140
F-0.22447253077627763
sg141
F1.0
sg15
I1
sg142
g143
sbsI2
g0
(g134
g2
Ntp147
Rp148
(dp149
g138
g139
sg140
F-8.324015860840326
sg141
F1.0
sg15
I2
sg142
g143
sbsI3
g0
(g134
g2
Ntp150
Rp151
(dp152
g138
g139
sg140
F3.7061329579681934
sg141
F1.0
sg15
I3
sg142
g143
sbsI4
g0
(g134
g2
Ntp153
Rp154
(dp155
g138
g139
sg140
F-8.925443433853584
sg141
F1.0
sg15
I4
sg142
g143
sbsI5
g0
(g134
g2
Ntp156
Rp157
(dp158
g138
g139
sg140
F14.572866814657633
sg141
F1.0
sg15
I5
sg142
g143
sbsI6
g0
(g134
g2
Ntp159
Rp160
(dp161
g138
g139
sg140
F24.792599499559266
sg141
F1.0
sg15
I6
sg142
g143
sbsI7
g0
(g134
g2
Ntp162
Rp163
(dp164
g138
g139
sg140
F5.65293126718745
sg141
F1.0
sg15
I7
sg142
g143
sbsI8
g0
(g134
g2
Ntp165
Rp166
(dp167
g138
g139
sg140
F-9.617861588035645
sg141
F1.0
sg15
I8
sg142
g143
sbsI9
g0
(g134
g2
Ntp168
Rp169
(dp170
g138
g139
sg140
F3.844747485980264
sg141
F1.0
sg15
I9
sg142
g143
sbsI89
g0
(g134
g2
Ntp171
Rp172
(dp173
g138
g139
sg140
F5.022020216160033
sg141
F1.0
sg15
I89
sg142
g143
sbssg15
I80
sS'fitness'
p174
Nsb.