ccopy_reg
_reconstructor
p0
(cneat.genome
DefaultGenome
p1
c__builtin__
object
p2
Ntp3
Rp4
(dp5
S'connections'
p6
(dp7
(I49
I9
tp8
g0
(cneat.genes
DefaultConnectionGene
p9
g2
Ntp10
Rp11
(dp12
S'enabled'
p13
I01
sS'weight'
p14
F-1.1956675910292645
sS'key'
p15
g8
sbs(I-8
I49
tp16
g0
(g9
g2
Ntp17
Rp18
(dp19
g13
I01
sg14
F-0.5947670468662364
sg15
g16
sbs(I-10
I49
tp20
g0
(g9
g2
Ntp21
Rp22
(dp23
g13
I01
sg14
F1.1033477465866453
sg15
g20
sbs(I-5
I49
tp24
g0
(g9
g2
Ntp25
Rp26
(dp27
g13
I01
sg14
F-0.581323590874008
sg15
g24
sbs(I49
I8
tp28
g0
(g9
g2
Ntp29
Rp30
(dp31
g13
I01
sg14
F0.42756246966292855
sg15
g28
sbs(I49
I7
tp32
g0
(g9
g2
Ntp33
Rp34
(dp35
g13
I01
sg14
F-0.13941266212354814
sg15
g32
sbs(I-1
I49
tp36
g0
(g9
g2
Ntp37
Rp38
(dp39
g13
I01
sg14
F2.948112560708867
sg15
g36
sbs(I49
I3
tp40
g0
(g9
g2
Ntp41
Rp42
(dp43
g13
I01
sg14
F1.1866730225091906
sg15
g40
sbs(I-6
I49
tp44
g0
(g9
g2
Ntp45
Rp46
(dp47
g13
I01
sg14
F-0.5503463865676903
sg15
g44
sbs(I49
I0
tp48
g0
(g9
g2
Ntp49
Rp50
(dp51
g13
I01
sg14
F-1.4257769918617185
sg15
g48
sbs(I-3
I49
tp52
g0
(g9
g2
Ntp53
Rp54
(dp55
g13
I01
sg14
F-3.33884355195426
sg15
g52
sbs(I49
I6
tp56
g0
(g9
g2
Ntp57
Rp58
(dp59
g13
I00
sg14
F0.5335700488433686
sg15
g56
sbs(I49
I2
tp60
g0
(g9
g2
Ntp61
Rp62
(dp63
g13
I01
sg14
F-0.4144872070149434
sg15
g60
sbs(I49
I90
tp64
g0
(g9
g2
Ntp65
Rp66
(dp67
g13
I01
sg14
F0.9901740148999408
sg15
g64
sbs(I90
I6
tp68
g0
(g9
g2
Ntp69
Rp70
(dp71
g13
I01
sg14
F-1.5546499607787663
sg15
g68
sbs(I49
I5
tp72
g0
(g9
g2
Ntp73
Rp74
(dp75
g13
I01
sg14
F2.29620994954461
sg15
g72
sbs(I-4
I49
tp76
g0
(g9
g2
Ntp77
Rp78
(dp79
g13
I01
sg14
F-0.47969444115653526
sg15
g76
sbs(I-7
I49
tp80
g0
(g9
g2
Ntp81
Rp82
(dp83
g13
I01
sg14
F1.292950335562905
sg15
g80
sbs(I-9
I49
tp84
g0
(g9
g2
Ntp85
Rp86
(dp87
g13
I01
sg14
F0.9876729708401314
sg15
g84
sbs(I49
I1
tp88
g0
(g9
g2
Ntp89
Rp90
(dp91
g13
I01
sg14
F0.9889842662672503
sg15
g88
sbs(I-2
I49
tp92
g0
(g9
g2
Ntp93
Rp94
(dp95
g13
I01
sg14
F1.1869763384378247
sg15
g92
sbs(I49
I4
tp96
g0
(g9
g2
Ntp97
Rp98
(dp99
g13
I01
sg14
F-1.7950745405720863
sg15
g96
sbssS'nodes'
p100
(dp101
I0
g0
(cneat.genes
DefaultNodeGene
p102
g2
Ntp103
Rp104
(dp105
S'activation'
p106
S'relu'
p107
sS'bias'
p108
F3.3094224073690297
sS'response'
p109
F1.0
sg15
I0
sS'aggregation'
p110
S'sum'
p111
sbsI1
g0
(g102
g2
Ntp112
Rp113
(dp114
g106
g107
sg108
F-15.91383959809437
sg109
F1.0
sg15
I1
sg110
g111
sbsI2
g0
(g102
g2
Ntp115
Rp116
(dp117
g106
g107
sg108
F-18.087969660435164
sg109
F1.0
sg15
I2
sg110
g111
sbsI3
g0
(g102
g2
Ntp118
Rp119
(dp120
g106
g107
sg108
F12.812416129737786
sg109
F1.0
sg15
I3
sg110
g111
sbsI4
g0
(g102
g2
Ntp121
Rp122
(dp123
g106
g107
sg108
F1.3943939770506089
sg109
F1.0
sg15
I4
sg110
g111
sbsI5
g0
(g102
g2
Ntp124
Rp125
(dp126
g106
g107
sg108
F6.169494085397275
sg109
F1.0
sg15
I5
sg110
g111
sbsI6
g0
(g102
g2
Ntp127
Rp128
(dp129
g106
g107
sg108
F-8.940565043776429
sg109
F1.0
sg15
I6
sg110
g111
sbsI7
g0
(g102
g2
Ntp130
Rp131
(dp132
g106
g107
sg108
F-5.570940530103914
sg109
F1.0
sg15
I7
sg110
g111
sbsI8
g0
(g102
g2
Ntp133
Rp134
(dp135
g106
g107
sg108
F-2.8064206339825355
sg109
F1.0
sg15
I8
sg110
g111
sbsI9
g0
(g102
g2
Ntp136
Rp137
(dp138
g106
g107
sg108
F5.750485237872728
sg109
F1.0
sg15
I9
sg110
g111
sbsI49
g0
(g102
g2
Ntp139
Rp140
(dp141
g106
g107
sg108
F21.173039240764272
sg109
F1.0
sg15
I49
sg110
g111
sbsI90
g0
(g102
g2
Ntp142
Rp143
(dp144
g106
g107
sg108
F7.384244585158457
sg109
F1.0
sg15
I90
sg110
g111
sbssg15
I82
sS'fitness'
p145
F-0.18875635725140416
sb.