ccopy_reg
_reconstructor
p0
(cneat.genome
DefaultGenome
p1
c__builtin__
object
p2
Ntp3
Rp4
(dp5
S'connections'
p6
(dp7
(I-8
I62
tp8
g0
(cneat.genes
DefaultConnectionGene
p9
g2
Ntp10
Rp11
(dp12
S'enabled'
p13
I01
sS'weight'
p14
F-0.3395994339083006
sS'key'
p15
g8
sbs(I-18
I62
tp16
g0
(g9
g2
Ntp17
Rp18
(dp19
g13
I01
sg14
F-0.24583616336192463
sg15
g16
sbs(I62
I2
tp20
g0
(g9
g2
Ntp21
Rp22
(dp23
g13
I01
sg14
F1.3657371543210075
sg15
g20
sbs(I-11
I62
tp24
g0
(g9
g2
Ntp25
Rp26
(dp27
g13
I00
sg14
F1.4507553610138837
sg15
g24
sbs(I-14
I62
tp28
g0
(g9
g2
Ntp29
Rp30
(dp31
g13
I01
sg14
F2.3928256294451287
sg15
g28
sbs(I62
I7
tp32
g0
(g9
g2
Ntp33
Rp34
(dp35
g13
I01
sg14
F-0.2571170041679289
sg15
g32
sbs(I-7
I62
tp36
g0
(g9
g2
Ntp37
Rp38
(dp39
g13
I01
sg14
F-0.03920275490905223
sg15
g36
sbs(I-4
I62
tp40
g0
(g9
g2
Ntp41
Rp42
(dp43
g13
I01
sg14
F-0.25316324775700266
sg15
g40
sbs(I62
I3
tp44
g0
(g9
g2
Ntp45
Rp46
(dp47
g13
I01
sg14
F-0.004603777904354067
sg15
g44
sbs(I-17
I62
tp48
g0
(g9
g2
Ntp49
Rp50
(dp51
g13
I01
sg14
F0.9241510934720147
sg15
g48
sbs(I62
I8
tp52
g0
(g9
g2
Ntp53
Rp54
(dp55
g13
I01
sg14
F-1.8173338529448053
sg15
g52
sbs(I-20
I62
tp56
g0
(g9
g2
Ntp57
Rp58
(dp59
g13
I01
sg14
F-1.9267944955549041
sg15
g56
sbs(I62
I4
tp60
g0
(g9
g2
Ntp61
Rp62
(dp63
g13
I01
sg14
F-1.3926592100450914
sg15
g60
sbs(I-13
I62
tp64
g0
(g9
g2
Ntp65
Rp66
(dp67
g13
I01
sg14
F-1.1649402690753374
sg15
g64
sbs(I-10
I62
tp68
g0
(g9
g2
Ntp69
Rp70
(dp71
g13
I01
sg14
F-0.8462065939068459
sg15
g68
sbs(I62
I0
tp72
g0
(g9
g2
Ntp73
Rp74
(dp75
g13
I01
sg14
F-0.29983474902177415
sg15
g72
sbs(I-3
I62
tp76
g0
(g9
g2
Ntp77
Rp78
(dp79
g13
I01
sg14
F0.7048114372295686
sg15
g76
sbs(I-16
I62
tp80
g0
(g9
g2
Ntp81
Rp82
(dp83
g13
I01
sg14
F-0.49075236334210426
sg15
g80
sbs(I62
I9
tp84
g0
(g9
g2
Ntp85
Rp86
(dp87
g13
I01
sg14
F-0.3850347746229211
sg15
g84
sbs(I-1
I62
tp88
g0
(g9
g2
Ntp89
Rp90
(dp91
g13
I01
sg14
F-0.6128076010684971
sg15
g88
sbs(I-9
I62
tp92
g0
(g9
g2
Ntp93
Rp94
(dp95
g13
I01
sg14
F2.013385681687904
sg15
g92
sbs(I-6
I62
tp96
g0
(g9
g2
Ntp97
Rp98
(dp99
g13
I00
sg14
F-2.4698806764072847
sg15
g96
sbs(I-15
I8
tp100
g0
(g9
g2
Ntp101
Rp102
(dp103
g13
I01
sg14
F-0.37802820644213986
sg15
g100
sbs(I62
I5
tp104
g0
(g9
g2
Ntp105
Rp106
(dp107
g13
I01
sg14
F0.8383940671215555
sg15
g104
sbs(I-19
I62
tp108
g0
(g9
g2
Ntp109
Rp110
(dp111
g13
I01
sg14
F0.8702427323740706
sg15
g108
sbs(I62
I1
tp112
g0
(g9
g2
Ntp113
Rp114
(dp115
g13
I01
sg14
F0.09759270013365016
sg15
g112
sbs(I-11
I90
tp116
g0
(g9
g2
Ntp117
Rp118
(dp119
g13
I01
sg14
F0.9332027424856209
sg15
g116
sbs(I-15
I62
tp120
g0
(g9
g2
Ntp121
Rp122
(dp123
g13
I01
sg14
F-1.5736465595094535
sg15
g120
sbs(I-12
I62
tp124
g0
(g9
g2
Ntp125
Rp126
(dp127
g13
I01
sg14
F-0.15557170145877897
sg15
g124
sbs(I90
I62
tp128
g0
(g9
g2
Ntp129
Rp130
(dp131
g13
I01
sg14
F0.7059881224008597
sg15
g128
sbs(I-5
I62
tp132
g0
(g9
g2
Ntp133
Rp134
(dp135
g13
I01
sg14
F0.5504750900482429
sg15
g132
sbs(I-2
I62
tp136
g0
(g9
g2
Ntp137
Rp138
(dp139
g13
I01
sg14
F-0.6145037473512837
sg15
g136
sbs(I62
I6
tp140
g0
(g9
g2
Ntp141
Rp142
(dp143
g13
I01
sg14
F-1.1181959562777741
sg15
g140
sbssS'nodes'
p144
(dp145
I0
g0
(cneat.genes
DefaultNodeGene
p146
g2
Ntp147
Rp148
(dp149
S'activation'
p150
S'relu'
p151
sS'bias'
p152
F1.7235771994043998
sS'response'
p153
F1.0
sg15
I0
sS'aggregation'
p154
S'sum'
p155
sbsI1
g0
(g146
g2
Ntp156
Rp157
(dp158
g150
g151
sg152
F-28.839906151728897
sg153
F1.0
sg15
I1
sg154
g155
sbsI2
g0
(g146
g2
Ntp159
Rp160
(dp161
g150
g151
sg152
F11.933871148515685
sg153
F1.0
sg15
I2
sg154
g155
sbsI3
g0
(g146
g2
Ntp162
Rp163
(dp164
g150
g151
sg152
F-13.812041443003727
sg153
F1.0
sg15
I3
sg154
g155
sbsI4
g0
(g146
g2
Ntp165
Rp166
(dp167
g150
g151
sg152
F-0.5915162935093479
sg153
F1.0
sg15
I4
sg154
g155
sbsI5
g0
(g146
g2
Ntp168
Rp169
(dp170
g150
g151
sg152
F26.39618390955339
sg153
F1.0
sg15
I5
sg154
g155
sbsI6
g0
(g146
g2
Ntp171
Rp172
(dp173
g150
g151
sg152
F8.938045691222522
sg153
F1.0
sg15
I6
sg154
g155
sbsI7
g0
(g146
g2
Ntp174
Rp175
(dp176
g150
g151
sg152
F-0.674116573450663
sg153
F1.0
sg15
I7
sg154
g155
sbsI8
g0
(g146
g2
Ntp177
Rp178
(dp179
g150
g151
sg152
F7.4715688475032795
sg153
F1.0
sg15
I8
sg154
g155
sbsI9
g0
(g146
g2
Ntp180
Rp181
(dp182
g150
g151
sg152
F7.182067794375612
sg153
F1.0
sg15
I9
sg154
g155
sbsI90
g0
(g146
g2
Ntp183
Rp184
(dp185
g150
g151
sg152
F-3.1983483365652097
sg153
F1.0
sg15
I90
sg154
g155
sbsI62
g0
(g146
g2
Ntp186
Rp187
(dp188
g150
g151
sg152
F1.928231380594453
sg153
F1.0
sg15
I62
sg154
g155
sbssg15
I83
sS'fitness'
p189
Nsb.