ccopy_reg
_reconstructor
p0
(cneat.genome
DefaultGenome
p1
c__builtin__
object
p2
Ntp3
Rp4
(dp5
S'connections'
p6
(dp7
(I-9
I30
tp8
g0
(cneat.genes
DefaultConnectionGene
p9
g2
Ntp10
Rp11
(dp12
S'enabled'
p13
I01
sS'weight'
p14
F0.905224941982678
sS'key'
p15
g8
sbs(I-7
I30
tp16
g0
(g9
g2
Ntp17
Rp18
(dp19
g13
I01
sg14
F-0.277252180071314
sg15
g16
sbs(I-4
I30
tp20
g0
(g9
g2
Ntp21
Rp22
(dp23
g13
I01
sg14
F0.39104351389694775
sg15
g20
sbs(I30
I3
tp24
g0
(g9
g2
Ntp25
Rp26
(dp27
g13
I01
sg14
F-0.3984044785138744
sg15
g24
sbs(I-17
I30
tp28
g0
(g9
g2
Ntp29
Rp30
(dp31
g13
I01
sg14
F0.9656237484979955
sg15
g28
sbs(I-2
I30
tp32
g0
(g9
g2
Ntp33
Rp34
(dp35
g13
I01
sg14
F-0.20092754399951032
sg15
g32
sbs(I-12
I30
tp36
g0
(g9
g2
Ntp37
Rp38
(dp39
g13
I01
sg14
F-0.3988310048114441
sg15
g36
sbs(I30
I4
tp40
g0
(g9
g2
Ntp41
Rp42
(dp43
g13
I01
sg14
F-0.7229036070321849
sg15
g40
sbs(I30
I0
tp44
g0
(g9
g2
Ntp45
Rp46
(dp47
g13
I01
sg14
F0.0691179904907121
sg15
g44
sbs(I-3
I30
tp48
g0
(g9
g2
Ntp49
Rp50
(dp51
g13
I01
sg14
F-0.7021290218630105
sg15
g48
sbs(I-16
I30
tp52
g0
(g9
g2
Ntp53
Rp54
(dp55
g13
I01
sg14
F0.10076858866884497
sg15
g52
sbs(I30
I9
tp56
g0
(g9
g2
Ntp57
Rp58
(dp59
g13
I01
sg14
F0.4264278523478915
sg15
g56
sbs(I-11
I30
tp60
g0
(g9
g2
Ntp61
Rp62
(dp63
g13
I01
sg14
F1.0031138909302177
sg15
g60
sbs(I-13
I2
tp64
g0
(g9
g2
Ntp65
Rp66
(dp67
g13
I01
sg14
F-0.5246390724490122
sg15
g64
sbs(I-6
I30
tp68
g0
(g9
g2
Ntp69
Rp70
(dp71
g13
I01
sg14
F2.195836360066225
sg15
g68
sbs(I30
I5
tp72
g0
(g9
g2
Ntp73
Rp74
(dp75
g13
I01
sg14
F1.5786001394076785
sg15
g72
sbs(I-10
I30
tp76
g0
(g9
g2
Ntp77
Rp78
(dp79
g13
I01
sg14
F0.6452853337438178
sg15
g76
sbs(I30
I1
tp80
g0
(g9
g2
Ntp81
Rp82
(dp83
g13
I01
sg14
F1.005997240014276
sg15
g80
sbs(I-15
I30
tp84
g0
(g9
g2
Ntp85
Rp86
(dp87
g13
I01
sg14
F-0.4571105911729798
sg15
g84
sbs(I30
I8
tp88
g0
(g9
g2
Ntp89
Rp90
(dp91
g13
I01
sg14
F0.1591113054436991
sg15
g88
sbs(I-20
I30
tp92
g0
(g9
g2
Ntp93
Rp94
(dp95
g13
I01
sg14
F0.28140608957584534
sg15
g92
sbs(I-5
I30
tp96
g0
(g9
g2
Ntp97
Rp98
(dp99
g13
I01
sg14
F1.4785416517903545
sg15
g96
sbs(I-1
I30
tp100
g0
(g9
g2
Ntp101
Rp102
(dp103
g13
I01
sg14
F-0.3418183958392983
sg15
g100
sbs(I-13
I30
tp104
g0
(g9
g2
Ntp105
Rp106
(dp107
g13
I01
sg14
F-0.801698269362636
sg15
g104
sbs(I30
I6
tp108
g0
(g9
g2
Ntp109
Rp110
(dp111
g13
I01
sg14
F0.7559541674554349
sg15
g108
sbs(I-8
I30
tp112
g0
(g9
g2
Ntp113
Rp114
(dp115
g13
I01
sg14
F-1.7299754196423385
sg15
g112
sbs(I-18
I30
tp116
g0
(g9
g2
Ntp117
Rp118
(dp119
g13
I01
sg14
F0.1807380403222676
sg15
g116
sbs(I30
I2
tp120
g0
(g9
g2
Ntp121
Rp122
(dp123
g13
I01
sg14
F-0.1881300172953393
sg15
g120
sbs(I-19
I30
tp124
g0
(g9
g2
Ntp125
Rp126
(dp127
g13
I01
sg14
F2.1979686061514037
sg15
g124
sbs(I-14
I30
tp128
g0
(g9
g2
Ntp129
Rp130
(dp131
g13
I01
sg14
F-1.3941258379878267
sg15
g128
sbs(I30
I7
tp132
g0
(g9
g2
Ntp133
Rp134
(dp135
g13
I01
sg14
F0.3925216174917487
sg15
g132
sbssS'nodes'
p136
(dp137
I0
g0
(cneat.genes
DefaultNodeGene
p138
g2
Ntp139
Rp140
(dp141
S'activation'
p142
S'relu'
p143
sS'bias'
p144
F-8.330382021818535
sS'response'
p145
F1.0
sg15
I0
sS'aggregation'
p146
S'sum'
p147
sbsI1
g0
(g138
g2
Ntp148
Rp149
(dp150
g142
g143
sg144
F-9.052319457934207
sg145
F1.0
sg15
I1
sg146
g147
sbsI2
g0
(g138
g2
Ntp151
Rp152
(dp153
g142
g143
sg144
F12.188877018933992
sg145
F1.0
sg15
I2
sg146
g147
sbsI3
g0
(g138
g2
Ntp154
Rp155
(dp156
g142
g143
sg144
F-2.2656239589967915
sg145
F1.0
sg15
I3
sg146
g147
sbsI4
g0
(g138
g2
Ntp157
Rp158
(dp159
g142
g143
sg144
F-1.0651960192127068
sg145
F1.0
sg15
I4
sg146
g147
sbsI5
g0
(g138
g2
Ntp160
Rp161
(dp162
g142
g143
sg144
F-5.203374367501899
sg145
F1.0
sg15
I5
sg146
g147
sbsI6
g0
(g138
g2
Ntp163
Rp164
(dp165
g142
g143
sg144
F-10.00926675650662
sg145
F1.0
sg15
I6
sg146
g147
sbsI7
g0
(g138
g2
Ntp166
Rp167
(dp168
g142
g143
sg144
F-9.916155331487841
sg145
F1.0
sg15
I7
sg146
g147
sbsI8
g0
(g138
g2
Ntp169
Rp170
(dp171
g142
g143
sg144
F-15.990319388599138
sg145
F1.0
sg15
I8
sg146
g147
sbsI9
g0
(g138
g2
Ntp172
Rp173
(dp174
g142
g143
sg144
F18.623713116329075
sg145
F1.0
sg15
I9
sg146
g147
sbsI30
g0
(g138
g2
Ntp175
Rp176
(dp177
g142
g143
sg144
F-22.59395815701475
sg145
F1.0
sg15
I30
sg146
g147
sbssg15
I84
sS'fitness'
p178
Nsb.