ccopy_reg
_reconstructor
p0
(cneat.genome
DefaultGenome
p1
c__builtin__
object
p2
Ntp3
Rp4
(dp5
S'connections'
p6
(dp7
(I-1
I44
tp8
g0
(cneat.genes
DefaultConnectionGene
p9
g2
Ntp10
Rp11
(dp12
S'enabled'
p13
I01
sS'weight'
p14
F-0.45296530784582173
sS'key'
p15
g8
sbs(I44
I2
tp16
g0
(g9
g2
Ntp17
Rp18
(dp19
g13
I01
sg14
F-1.6238607732737864
sg15
g16
sbs(I44
I1
tp20
g0
(g9
g2
Ntp21
Rp22
(dp23
g13
I01
sg14
F-2.1045968666231243
sg15
g20
sbs(I-2
I44
tp24
g0
(g9
g2
Ntp25
Rp26
(dp27
g13
I01
sg14
F0.889584189940746
sg15
g24
sbs(I-10
I44
tp28
g0
(g9
g2
Ntp29
Rp30
(dp31
g13
I01
sg14
F-0.019777874698597847
sg15
g28
sbs(I44
I7
tp32
g0
(g9
g2
Ntp33
Rp34
(dp35
g13
I01
sg14
F-0.3249618794658987
sg15
g32
sbs(I44
I0
tp36
g0
(g9
g2
Ntp37
Rp38
(dp39
g13
I01
sg14
F0.1401949698099536
sg15
g36
sbs(I-5
I44
tp40
g0
(g9
g2
Ntp41
Rp42
(dp43
g13
I01
sg14
F0.2429081342051802
sg15
g40
sbs(I44
I6
tp44
g0
(g9
g2
Ntp45
Rp46
(dp47
g13
I01
sg14
F0.5668949815817594
sg15
g44
sbs(I-7
I44
tp48
g0
(g9
g2
Ntp49
Rp50
(dp51
g13
I01
sg14
F-0.16063619051032785
sg15
g48
sbs(I44
I5
tp52
g0
(g9
g2
Ntp53
Rp54
(dp55
g13
I01
sg14
F0.24804997481934768
sg15
g52
sbs(I-3
I44
tp56
g0
(g9
g2
Ntp57
Rp58
(dp59
g13
I01
sg14
F1.3111043995970828
sg15
g56
sbs(I44
I4
tp60
g0
(g9
g2
Ntp61
Rp62
(dp63
g13
I01
sg14
F-0.8393470081100172
sg15
g60
sbs(I-8
I44
tp64
g0
(g9
g2
Ntp65
Rp66
(dp67
g13
I01
sg14
F-2.0885206297162435
sg15
g64
sbs(I-9
I44
tp68
g0
(g9
g2
Ntp69
Rp70
(dp71
g13
I01
sg14
F-0.5218545217738645
sg15
g68
sbs(I-4
I44
tp72
g0
(g9
g2
Ntp73
Rp74
(dp75
g13
I01
sg14
F-1.5381995298281184
sg15
g72
sbs(I44
I9
tp76
g0
(g9
g2
Ntp77
Rp78
(dp79
g13
I01
sg14
F0.22734194347306375
sg15
g76
sbs(I-6
I44
tp80
g0
(g9
g2
Ntp81
Rp82
(dp83
g13
I01
sg14
F-2.4612112605134246
sg15
g80
sbs(I44
I3
tp84
g0
(g9
g2
Ntp85
Rp86
(dp87
g13
I01
sg14
F-0.6751523569532002
sg15
g84
sbs(I44
I8
tp88
g0
(g9
g2
Ntp89
Rp90
(dp91
g13
I01
sg14
F-1.1106349236355708
sg15
g88
sbssS'nodes'
p92
(dp93
I0
g0
(cneat.genes
DefaultNodeGene
p94
g2
Ntp95
Rp96
(dp97
S'activation'
p98
S'relu'
p99
sS'bias'
p100
F-4.431277832144648
sS'response'
p101
F1.0
sg15
I0
sS'aggregation'
p102
S'sum'
p103
sbsI1
g0
(g94
g2
Ntp104
Rp105
(dp106
g98
g99
sg100
F-19.862002104066388
sg101
F1.0
sg15
I1
sg102
g103
sbsI2
g0
(g94
g2
Ntp107
Rp108
(dp109
g98
g99
sg100
F4.334283070615807
sg101
F1.0
sg15
I2
sg102
g103
sbsI3
g0
(g94
g2
Ntp110
Rp111
(dp112
g98
g99
sg100
F-4.809791283763124
sg101
F1.0
sg15
I3
sg102
g103
sbsI4
g0
(g94
g2
Ntp113
Rp114
(dp115
g98
g99
sg100
F-8.72696754835867
sg101
F1.0
sg15
I4
sg102
g103
sbsI5
g0
(g94
g2
Ntp116
Rp117
(dp118
g98
g99
sg100
F7.245943439824428
sg101
F1.0
sg15
I5
sg102
g103
sbsI6
g0
(g94
g2
Ntp119
Rp120
(dp121
g98
g99
sg100
F17.342291907703242
sg101
F1.0
sg15
I6
sg102
g103
sbsI7
g0
(g94
g2
Ntp122
Rp123
(dp124
g98
g99
sg100
F2.862580569427127
sg101
F1.0
sg15
I7
sg102
g103
sbsI8
g0
(g94
g2
Ntp125
Rp126
(dp127
g98
g99
sg100
F3.07268768084478
sg101
F1.0
sg15
I8
sg102
g103
sbsI9
g0
(g94
g2
Ntp128
Rp129
(dp130
g98
g99
sg100
F12.99413282648682
sg101
F1.0
sg15
I9
sg102
g103
sbsI44
g0
(g94
g2
Ntp131
Rp132
(dp133
g98
g99
sg100
F-2.8207759256038414
sg101
F1.0
sg15
I44
sg102
g103
sbssg15
I86
sS'fitness'
p134
F-0.16762702589185063
sb.