ccopy_reg
_reconstructor
p0
(cneat.genome
DefaultGenome
p1
c__builtin__
object
p2
Ntp3
Rp4
(dp5
S'connections'
p6
(dp7
(I23
I4
tp8
g0
(cneat.genes
DefaultConnectionGene
p9
g2
Ntp10
Rp11
(dp12
S'enabled'
p13
I01
sS'weight'
p14
F-3.215932403301197
sS'key'
p15
g8
sbs(I21
I737
tp16
g0
(g9
g2
Ntp17
Rp18
(dp19
g13
I01
sg14
F0.3881525372384166
sg15
g16
sbs(I23
I1
tp20
g0
(g9
g2
Ntp21
Rp22
(dp23
g13
I01
sg14
F-4.130415747372729
sg15
g20
sbs(I-2
I23
tp24
g0
(g9
g2
Ntp25
Rp26
(dp27
g13
I00
sg14
F1.4040421211688103
sg15
g24
sbs(I7
I7
tp28
g0
(g9
g2
Ntp29
Rp30
(dp31
g13
I01
sg14
F4.8381755127401185
sg15
g28
sbs(I21
I9
tp32
g0
(g9
g2
Ntp33
Rp34
(dp35
g13
I01
sg14
F-1.2035500612650143
sg15
g32
sbs(I-7
I0
tp36
g0
(g9
g2
Ntp37
Rp38
(dp39
g13
I01
sg14
F0.3367903187262551
sg15
g36
sbs(I20
I8
tp40
g0
(g9
g2
Ntp41
Rp42
(dp43
g13
I01
sg14
F2.00223008563348
sg15
g40
sbs(I23
I9
tp44
g0
(g9
g2
Ntp45
Rp46
(dp47
g13
I01
sg14
F2.668250541752361
sg15
g44
sbs(I23
I7
tp48
g0
(g9
g2
Ntp49
Rp50
(dp51
g13
I01
sg14
F0.2429516641785714
sg15
g48
sbs(I-10
I21
tp52
g0
(g9
g2
Ntp53
Rp54
(dp55
g13
I01
sg14
F2.0906373028646708
sg15
g52
sbs(I-5
I23
tp56
g0
(g9
g2
Ntp57
Rp58
(dp59
g13
I01
sg14
F0.7486328418729294
sg15
g56
sbs(I-6
I21
tp60
g0
(g9
g2
Ntp61
Rp62
(dp63
g13
I01
sg14
F0.2649851456282555
sg15
g60
sbs(I3
I3
tp64
g0
(g9
g2
Ntp65
Rp66
(dp67
g13
I00
sg14
F-1.37052909721206
sg15
g64
sbs(I-1
I20
tp68
g0
(g9
g2
Ntp69
Rp70
(dp71
g13
I00
sg14
F-3.665078582647065
sg15
g68
sbs(I533
I8
tp72
g0
(g9
g2
Ntp73
Rp74
(dp75
g13
I01
sg14
F1.5260153133110266
sg15
g72
sbs(I-9
I20
tp76
g0
(g9
g2
Ntp77
Rp78
(dp79
g13
I01
sg14
F0.3085137357868639
sg15
g76
sbs(I20
I9
tp80
g0
(g9
g2
Ntp81
Rp82
(dp83
g13
I01
sg14
F-0.1995571184534073
sg15
g80
sbs(I2
I2
tp84
g0
(g9
g2
Ntp85
Rp86
(dp87
g13
I00
sg14
F-2.006227996606537
sg15
g84
sbs(I21
I0
tp88
g0
(g9
g2
Ntp89
Rp90
(dp91
g13
I00
sg14
F-0.2553143629405447
sg15
g88
sbs(I-3
I20
tp92
g0
(g9
g2
Ntp93
Rp94
(dp95
g13
I00
sg14
F-1.130049773072339
sg15
g92
sbs(I21
I20
tp96
g0
(g9
g2
Ntp97
Rp98
(dp99
g13
I01
sg14
F2.190435331045678
sg15
g96
sbs(I21
I4
tp100
g0
(g9
g2
Ntp101
Rp102
(dp103
g13
I01
sg14
F-0.06854414359185776
sg15
g100
sbs(I-7
I20
tp104
g0
(g9
g2
Ntp105
Rp106
(dp107
g13
I01
sg14
F0.7465800146441751
sg15
g104
sbs(I737
I7
tp108
g0
(g9
g2
Ntp109
Rp110
(dp111
g13
I01
sg14
F-1.3401397006647424
sg15
g108
sbs(I20
I5
tp112
g0
(g9
g2
Ntp113
Rp114
(dp115
g13
I01
sg14
F-1.0105089871153488
sg15
g112
sbs(I-8
I21
tp116
g0
(g9
g2
Ntp117
Rp118
(dp119
g13
I01
sg14
F-4.385249713428729
sg15
g116
sbs(I23
I5
tp120
g0
(g9
g2
Ntp121
Rp122
(dp123
g13
I01
sg14
F1.1558107672982074
sg15
g120
sbs(I-1
I533
tp124
g0
(g9
g2
Ntp125
Rp126
(dp127
g13
I01
sg14
F0.8640239904813267
sg15
g124
sbs(I20
I2
tp128
g0
(g9
g2
Ntp129
Rp130
(dp131
g13
I01
sg14
F-0.30160940377153733
sg15
g128
sbs(I-1
I21
tp132
g0
(g9
g2
Ntp133
Rp134
(dp135
g13
I01
sg14
F-0.07990229745074962
sg15
g132
sbs(I21
I3
tp136
g0
(g9
g2
Ntp137
Rp138
(dp139
g13
I00
sg14
F-0.7598971690008787
sg15
g136
sbs(I-10
I9
tp140
g0
(g9
g2
Ntp141
Rp142
(dp143
g13
I01
sg14
F-0.8325217574161401
sg15
g140
sbs(I8
I8
tp144
g0
(g9
g2
Ntp145
Rp146
(dp147
g13
I01
sg14
F-0.10739193966847338
sg15
g144
sbs(I21
I7
tp148
g0
(g9
g2
Ntp149
Rp150
(dp151
g13
I00
sg14
F0.3112721883363876
sg15
g148
sbs(I-7
I23
tp152
g0
(g9
g2
Ntp153
Rp154
(dp155
g13
I00
sg14
F0.5686731425857787
sg15
g152
sbssS'nodes'
p156
(dp157
I0
g0
(cneat.genes
DefaultNodeGene
p158
g2
Ntp159
Rp160
(dp161
S'activation'
p162
S'tanh'
p163
sS'bias'
p164
F4.295545220169028
sS'response'
p165
F1.0
sg15
I0
sS'aggregation'
p166
S'sum'
p167
sbsI1
g0
(g158
g2
Ntp168
Rp169
(dp170
g162
g163
sg164
F-13.340938038891755
sg165
F1.0
sg15
I1
sg166
g167
sbsI2
g0
(g158
g2
Ntp171
Rp172
(dp173
g162
g163
sg164
F11.722303171947567
sg165
F1.0
sg15
I2
sg166
g167
sbsI3
g0
(g158
g2
Ntp174
Rp175
(dp176
g162
g163
sg164
F14.770436335232288
sg165
F1.0
sg15
I3
sg166
g167
sbsI4
g0
(g158
g2
Ntp177
Rp178
(dp179
g162
g163
sg164
F-8.094490540941996
sg165
F1.0
sg15
I4
sg166
g167
sbsI5
g0
(g158
g2
Ntp180
Rp181
(dp182
g162
g163
sg164
F7.074611029216293
sg165
F1.0
sg15
I5
sg166
g167
sbsI6
g0
(g158
g2
Ntp183
Rp184
(dp185
g162
g163
sg164
F-3.3328033431457467
sg165
F1.0
sg15
I6
sg166
g167
sbsI7
g0
(g158
g2
Ntp186
Rp187
(dp188
g162
g163
sg164
F-1.3025557685147697
sg165
F1.0
sg15
I7
sg166
g167
sbsI8
g0
(g158
g2
Ntp189
Rp190
(dp191
g162
g163
sg164
F3.529219473010854
sg165
F1.0
sg15
I8
sg166
g167
sbsI9
g0
(g158
g2
Ntp192
Rp193
(dp194
g162
g163
sg164
F-10.316606046312355
sg165
F1.0
sg15
I9
sg166
g167
sbsI20
g0
(g158
g2
Ntp195
Rp196
(dp197
g162
g163
sg164
F-22.142248910689382
sg165
F1.0
sg15
I20
sg166
g167
sbsI21
g0
(g158
g2
Ntp198
Rp199
(dp200
g162
g163
sg164
F-4.686360551090124
sg165
F1.0
sg15
I21
sg166
g167
sbsI23
g0
(g158
g2
Ntp201
Rp202
(dp203
g162
g163
sg164
F-5.6606906268086945
sg165
F1.0
sg15
I23
sg166
g167
sbsI737
g0
(g158
g2
Ntp204
Rp205
(dp206
g162
S'relu'
p207
sg164
F-0.6740947020387643
sg165
F1.0
sg15
I737
sg166
g167
sbsI533
g0
(g158
g2
Ntp208
Rp209
(dp210
g162
g163
sg164
F-2.6926575830588937
sg165
F1.0
sg15
I533
sg166
g167
sbssg15
I86
sS'fitness'
p211
F0.10522846830145305
sb.