ccopy_reg
_reconstructor
p0
(cneat.genome
DefaultGenome
p1
c__builtin__
object
p2
Ntp3
Rp4
(dp5
S'connections'
p6
(dp7
(I-1
I85
tp8
g0
(cneat.genes
DefaultConnectionGene
p9
g2
Ntp10
Rp11
(dp12
S'enabled'
p13
I01
sS'weight'
p14
F1.1062380613353675
sS'key'
p15
g8
sbs(I-17
I85
tp16
g0
(g9
g2
Ntp17
Rp18
(dp19
g13
I01
sg14
F0.06154331102387854
sg15
g16
sbs(I-4
I85
tp20
g0
(g9
g2
Ntp21
Rp22
(dp23
g13
I01
sg14
F0.8642608750341182
sg15
g20
sbs(I-15
I85
tp24
g0
(g9
g2
Ntp25
Rp26
(dp27
g13
I01
sg14
F1.4666058028158033
sg15
g24
sbs(I85
I4
tp28
g0
(g9
g2
Ntp29
Rp30
(dp31
g13
I00
sg14
F-1.8367002984640477
sg15
g28
sbs(I85
I8
tp32
g0
(g9
g2
Ntp33
Rp34
(dp35
g13
I01
sg14
F-0.5955444643693112
sg15
g32
sbs(I-18
I85
tp36
g0
(g9
g2
Ntp37
Rp38
(dp39
g13
I01
sg14
F0.42974661992497776
sg15
g36
sbs(I-8
I85
tp40
g0
(g9
g2
Ntp41
Rp42
(dp43
g13
I01
sg14
F-0.0957685770106992
sg15
g40
sbs(I-11
I85
tp44
g0
(g9
g2
Ntp45
Rp46
(dp47
g13
I01
sg14
F-0.23923627554021487
sg15
g44
sbs(I-5
I85
tp48
g0
(g9
g2
Ntp49
Rp50
(dp51
g13
I01
sg14
F-0.06409871143834567
sg15
g48
sbs(I85
I0
tp52
g0
(g9
g2
Ntp53
Rp54
(dp55
g13
I00
sg14
F-1.4264025962467617
sg15
g52
sbs(I85
I3
tp56
g0
(g9
g2
Ntp57
Rp58
(dp59
g13
I01
sg14
F-0.12323469867752368
sg15
g56
sbs(I-16
I85
tp60
g0
(g9
g2
Ntp61
Rp62
(dp63
g13
I01
sg14
F-0.6228030983059252
sg15
g60
sbs(I85
I7
tp64
g0
(g9
g2
Ntp65
Rp66
(dp67
g13
I01
sg14
F0.9079115686838026
sg15
g64
sbs(I-19
I85
tp68
g0
(g9
g2
Ntp69
Rp70
(dp71
g13
I01
sg14
F-0.9985947891855976
sg15
g68
sbs(I-12
I85
tp72
g0
(g9
g2
Ntp73
Rp74
(dp75
g13
I01
sg14
F-0.5384967752098822
sg15
g72
sbs(I85
I2
tp76
g0
(g9
g2
Ntp77
Rp78
(dp79
g13
I01
sg14
F1.4972687381839074
sg15
g76
sbs(I85
I9
tp80
g0
(g9
g2
Ntp81
Rp82
(dp83
g13
I01
sg14
F-0.6146572837637176
sg15
g80
sbs(I-9
I85
tp84
g0
(g9
g2
Ntp85
Rp86
(dp87
g13
I00
sg14
F-1.0411647389504568
sg15
g84
sbs(I85
I6
tp88
g0
(g9
g2
Ntp89
Rp90
(dp91
g13
I01
sg14
F2.518201050542276
sg15
g88
sbs(I-10
I85
tp92
g0
(g9
g2
Ntp93
Rp94
(dp95
g13
I01
sg14
F-0.5394406152448784
sg15
g92
sbs(I-13
I85
tp96
g0
(g9
g2
Ntp97
Rp98
(dp99
g13
I01
sg14
F-2.4525737947757027
sg15
g96
sbs(I-20
I85
tp100
g0
(g9
g2
Ntp101
Rp102
(dp103
g13
I01
sg14
F0.535229320966906
sg15
g100
sbs(I-6
I85
tp104
g0
(g9
g2
Ntp105
Rp106
(dp107
g13
I01
sg14
F-0.4666078823216898
sg15
g104
sbs(I85
I1
tp108
g0
(g9
g2
Ntp109
Rp110
(dp111
g13
I01
sg14
F-0.8753227274802852
sg15
g108
sbs(I-3
I85
tp112
g0
(g9
g2
Ntp113
Rp114
(dp115
g13
I01
sg14
F0.3676782357068513
sg15
g112
sbs(I-2
I85
tp116
g0
(g9
g2
Ntp117
Rp118
(dp119
g13
I01
sg14
F0.6711224841145028
sg15
g116
sbs(I85
I5
tp120
g0
(g9
g2
Ntp121
Rp122
(dp123
g13
I01
sg14
F-0.24414980004530168
sg15
g120
sbs(I-7
I85
tp124
g0
(g9
g2
Ntp125
Rp126
(dp127
g13
I01
sg14
F-0.0017180022506905757
sg15
g124
sbs(I-14
I85
tp128
g0
(g9
g2
Ntp129
Rp130
(dp131
g13
I01
sg14
F-1.427645403148218
sg15
g128
sbssS'nodes'
p132
(dp133
I0
g0
(cneat.genes
DefaultNodeGene
p134
g2
Ntp135
Rp136
(dp137
S'activation'
p138
S'relu'
p139
sS'bias'
p140
F12.882361669066864
sS'response'
p141
F1.0
sg15
I0
sS'aggregation'
p142
S'sum'
p143
sbsI1
g0
(g134
g2
Ntp144
Rp145
(dp146
g138
g139
sg140
F-10.393829564624495
sg141
F1.0
sg15
I1
sg142
g143
sbsI2
g0
(g134
g2
Ntp147
Rp148
(dp149
g138
g139
sg140
F10.175264465431097
sg141
F1.0
sg15
I2
sg142
g143
sbsI3
g0
(g134
g2
Ntp150
Rp151
(dp152
g138
g139
sg140
F4.745495002742779
sg141
F1.0
sg15
I3
sg142
g143
sbsI4
g0
(g134
g2
Ntp153
Rp154
(dp155
g138
g139
sg140
F-20.593573234488254
sg141
F1.0
sg15
I4
sg142
g143
sbsI5
g0
(g134
g2
Ntp156
Rp157
(dp158
g138
g139
sg140
F-3.5175478573949968
sg141
F1.0
sg15
I5
sg142
g143
sbsI6
g0
(g134
g2
Ntp159
Rp160
(dp161
g138
g139
sg140
F2.077365434769649
sg141
F1.0
sg15
I6
sg142
g143
sbsI7
g0
(g134
g2
Ntp162
Rp163
(dp164
g138
g139
sg140
F3.0668325056436294
sg141
F1.0
sg15
I7
sg142
g143
sbsI8
g0
(g134
g2
Ntp165
Rp166
(dp167
g138
g139
sg140
F16.886680268706165
sg141
F1.0
sg15
I8
sg142
g143
sbsI9
g0
(g134
g2
Ntp168
Rp169
(dp170
g138
g139
sg140
F13.40794974888584
sg141
F1.0
sg15
I9
sg142
g143
sbsI85
g0
(g134
g2
Ntp171
Rp172
(dp173
g138
g139
sg140
F-8.198776976594381
sg141
F1.0
sg15
I85
sg142
g143
sbssg15
I87
sS'fitness'
p174
Nsb.