ccopy_reg
_reconstructor
p0
(cneat.genome
DefaultGenome
p1
c__builtin__
object
p2
Ntp3
Rp4
(dp5
S'connections'
p6
(dp7
(I84
I2
tp8
g0
(cneat.genes
DefaultConnectionGene
p9
g2
Ntp10
Rp11
(dp12
S'enabled'
p13
I01
sS'weight'
p14
F-0.2923309044521093
sS'key'
p15
g8
sbs(I-10
I84
tp16
g0
(g9
g2
Ntp17
Rp18
(dp19
g13
I01
sg14
F2.29767361140537
sg15
g16
sbs(I-2
I84
tp20
g0
(g9
g2
Ntp21
Rp22
(dp23
g13
I01
sg14
F0.17277765155742514
sg15
g20
sbs(I-5
I84
tp24
g0
(g9
g2
Ntp25
Rp26
(dp27
g13
I01
sg14
F1.9683044721184777
sg15
g24
sbs(I-6
I84
tp28
g0
(g9
g2
Ntp29
Rp30
(dp31
g13
I01
sg14
F0.2101930398748887
sg15
g28
sbs(I84
I3
tp32
g0
(g9
g2
Ntp33
Rp34
(dp35
g13
I01
sg14
F0.30029145025723414
sg15
g32
sbs(I-1
I84
tp36
g0
(g9
g2
Ntp37
Rp38
(dp39
g13
I01
sg14
F0.05350185729639528
sg15
g36
sbs(I-3
I84
tp40
g0
(g9
g2
Ntp41
Rp42
(dp43
g13
I01
sg14
F0.39013905470155175
sg15
g40
sbs(I84
I1
tp44
g0
(g9
g2
Ntp45
Rp46
(dp47
g13
I01
sg14
F-1.5052956436048985
sg15
g44
sbs(I84
I0
tp48
g0
(g9
g2
Ntp49
Rp50
(dp51
g13
I01
sg14
F1.6868918439330542
sg15
g48
sbs(I-9
I84
tp52
g0
(g9
g2
Ntp53
Rp54
(dp55
g13
I01
sg14
F-1.60579117413258
sg15
g52
sbs(I84
I7
tp56
g0
(g9
g2
Ntp57
Rp58
(dp59
g13
I01
sg14
F-0.06024339448915858
sg15
g56
sbs(I-4
I84
tp60
g0
(g9
g2
Ntp61
Rp62
(dp63
g13
I01
sg14
F1.0481406428068463
sg15
g60
sbs(I84
I9
tp64
g0
(g9
g2
Ntp65
Rp66
(dp67
g13
I01
sg14
F-1.0531996441780136
sg15
g64
sbs(I84
I6
tp68
g0
(g9
g2
Ntp69
Rp70
(dp71
g13
I01
sg14
F0.5640097867592729
sg15
g68
sbs(I-7
I84
tp72
g0
(g9
g2
Ntp73
Rp74
(dp75
g13
I01
sg14
F-1.556260415657826
sg15
g72
sbs(I84
I8
tp76
g0
(g9
g2
Ntp77
Rp78
(dp79
g13
I01
sg14
F-1.2027212740408781
sg15
g76
sbs(I84
I5
tp80
g0
(g9
g2
Ntp81
Rp82
(dp83
g13
I01
sg14
F-0.16219290613235382
sg15
g80
sbs(I84
I4
tp84
g0
(g9
g2
Ntp85
Rp86
(dp87
g13
I01
sg14
F-0.593842264710678
sg15
g84
sbs(I-8
I84
tp88
g0
(g9
g2
Ntp89
Rp90
(dp91
g13
I01
sg14
F0.3600387658830095
sg15
g88
sbssS'nodes'
p92
(dp93
I0
g0
(cneat.genes
DefaultNodeGene
p94
g2
Ntp95
Rp96
(dp97
S'activation'
p98
S'relu'
p99
sS'bias'
p100
F3.9555287205200824
sS'response'
p101
F1.0
sg15
I0
sS'aggregation'
p102
S'sum'
p103
sbsI1
g0
(g94
g2
Ntp104
Rp105
(dp106
g98
g99
sg100
F0.9710805926515426
sg101
F1.0
sg15
I1
sg102
g103
sbsI2
g0
(g94
g2
Ntp107
Rp108
(dp109
g98
g99
sg100
F-14.55666609829995
sg101
F1.0
sg15
I2
sg102
g103
sbsI3
g0
(g94
g2
Ntp110
Rp111
(dp112
g98
g99
sg100
F19.784434074561076
sg101
F1.0
sg15
I3
sg102
g103
sbsI4
g0
(g94
g2
Ntp113
Rp114
(dp115
g98
g99
sg100
F-21.681576827134663
sg101
F1.0
sg15
I4
sg102
g103
sbsI5
g0
(g94
g2
Ntp116
Rp117
(dp118
g98
g99
sg100
F-13.655657729456214
sg101
F1.0
sg15
I5
sg102
g103
sbsI6
g0
(g94
g2
Ntp119
Rp120
(dp121
g98
g99
sg100
F3.5598636594317226
sg101
F1.0
sg15
I6
sg102
g103
sbsI7
g0
(g94
g2
Ntp122
Rp123
(dp124
g98
g99
sg100
F0.9481748855774064
sg101
F1.0
sg15
I7
sg102
g103
sbsI8
g0
(g94
g2
Ntp125
Rp126
(dp127
g98
g99
sg100
F5.483506884498585
sg101
F1.0
sg15
I8
sg102
g103
sbsI9
g0
(g94
g2
Ntp128
Rp129
(dp130
g98
g99
sg100
F-1.7500429787491951
sg101
F1.0
sg15
I9
sg102
g103
sbsI84
g0
(g94
g2
Ntp131
Rp132
(dp133
g98
g99
sg100
F-4.442437546204749
sg101
F1.0
sg15
I84
sg102
g103
sbssg15
I87
sS'fitness'
p134
F-0.2731307500761728
sb.