ccopy_reg
_reconstructor
p0
(cneat.genome
DefaultGenome
p1
c__builtin__
object
p2
Ntp3
Rp4
(dp5
S'connections'
p6
(dp7
(I-4
I5
tp8
g0
(cneat.genes
DefaultConnectionGene
p9
g2
Ntp10
Rp11
(dp12
S'enabled'
p13
I00
sS'weight'
p14
F-1.072563758552979
sS'key'
p15
g8
sbs(I-1
I0
tp16
g0
(g9
g2
Ntp17
Rp18
(dp19
g13
I01
sg14
F0.7801775426174775
sg15
g16
sbs(I-3
I8
tp20
g0
(g9
g2
Ntp21
Rp22
(dp23
g13
I01
sg14
F0.532497653963146
sg15
g20
sbs(I1313
I8
tp24
g0
(g9
g2
Ntp25
Rp26
(dp27
g13
I00
sg14
F-0.05501216535104125
sg15
g24
sbs(I-1
I2
tp28
g0
(g9
g2
Ntp29
Rp30
(dp31
g13
I00
sg14
F0.12435374960470807
sg15
g28
sbs(I-8
I1
tp32
g0
(g9
g2
Ntp33
Rp34
(dp35
g13
I00
sg14
F0.40469319807036996
sg15
g32
sbs(I-5
I1
tp36
g0
(g9
g2
Ntp37
Rp38
(dp39
g13
I00
sg14
F-0.019909059791371697
sg15
g36
sbs(I5
I5
tp40
g0
(g9
g2
Ntp41
Rp42
(dp43
g13
I01
sg14
F2.1602110993757813
sg15
g40
sbs(I1
I1
tp44
g0
(g9
g2
Ntp45
Rp46
(dp47
g13
I00
sg14
F2.0111616097209994
sg15
g44
sbs(I-9
I1233
tp48
g0
(g9
g2
Ntp49
Rp50
(dp51
g13
I01
sg14
F-0.4039785261106596
sg15
g48
sbs(I-9
I9
tp52
g0
(g9
g2
Ntp53
Rp54
(dp55
g13
I00
sg14
F1.447445303965218
sg15
g52
sbs(I-3
I1
tp56
g0
(g9
g2
Ntp57
Rp58
(dp59
g13
I01
sg14
F-2.2867372776437493
sg15
g56
sbs(I468
I8
tp60
g0
(g9
g2
Ntp61
Rp62
(dp63
g13
I01
sg14
F0.09249882144387267
sg15
g60
sbs(I-8
I8
tp64
g0
(g9
g2
Ntp65
Rp66
(dp67
g13
I00
sg14
F1.0375149034396738
sg15
g64
sbs(I-7
I5
tp68
g0
(g9
g2
Ntp69
Rp70
(dp71
g13
I00
sg14
F0.6440922005432002
sg15
g68
sbs(I9
I9
tp72
g0
(g9
g2
Ntp73
Rp74
(dp75
g13
I01
sg14
F-0.07296178499852618
sg15
g72
sbs(I-5
I6
tp76
g0
(g9
g2
Ntp77
Rp78
(dp79
g13
I00
sg14
F0.18375799782042745
sg15
g76
sbs(I-6
I2
tp80
g0
(g9
g2
Ntp81
Rp82
(dp83
g13
I00
sg14
F-2.1490681156484044
sg15
g80
sbs(I-2
I3
tp84
g0
(g9
g2
Ntp85
Rp86
(dp87
g13
I01
sg14
F-0.26029301463285365
sg15
g84
sbs(I-10
I9
tp88
g0
(g9
g2
Ntp89
Rp90
(dp91
g13
I00
sg14
F3.569086102117202
sg15
g88
sbs(I-3
I468
tp92
g0
(g9
g2
Ntp93
Rp94
(dp95
g13
I01
sg14
F-0.8683436412953832
sg15
g92
sbs(I-2
I4
tp96
g0
(g9
g2
Ntp97
Rp98
(dp99
g13
I01
sg14
F0.03437861758811256
sg15
g96
sbs(I-3
I4
tp100
g0
(g9
g2
Ntp101
Rp102
(dp103
g13
I00
sg14
F-1.3867562518829584
sg15
g100
sbs(I1716
I2
tp104
g0
(g9
g2
Ntp105
Rp106
(dp107
g13
I01
sg14
F-0.23939697984648192
sg15
g104
sbs(I-8
I5
tp108
g0
(g9
g2
Ntp109
Rp110
(dp111
g13
I01
sg14
F-0.5419163186919426
sg15
g108
sbs(I876
I6
tp112
g0
(g9
g2
Ntp113
Rp114
(dp115
g13
I01
sg14
F1.301183757705266
sg15
g112
sbs(I-6
I8
tp116
g0
(g9
g2
Ntp117
Rp118
(dp119
g13
I00
sg14
F1.5483824414746796
sg15
g116
sbs(I1529
I0
tp120
g0
(g9
g2
Ntp121
Rp122
(dp123
g13
I01
sg14
F-1.8203936441931454
sg15
g120
sbs(I468
I876
tp124
g0
(g9
g2
Ntp125
Rp126
(dp127
g13
I01
sg14
F0.023612483390187254
sg15
g124
sbs(I-10
I7
tp128
g0
(g9
g2
Ntp129
Rp130
(dp131
g13
I01
sg14
F1.5561314047110617
sg15
g128
sbs(I-5
I5
tp132
g0
(g9
g2
Ntp133
Rp134
(dp135
g13
I01
sg14
F0.5187489144857058
sg15
g132
sbs(I-6
I7
tp136
g0
(g9
g2
Ntp137
Rp138
(dp139
g13
I00
sg14
F-2.2700564227942284
sg15
g136
sbs(I-9
I6
tp140
g0
(g9
g2
Ntp141
Rp142
(dp143
g13
I01
sg14
F-2.4907825905742547
sg15
g140
sbs(I-4
I6
tp144
g0
(g9
g2
Ntp145
Rp146
(dp147
g13
I00
sg14
F-2.2766995292850085
sg15
g144
sbs(I-1
I1
tp148
g0
(g9
g2
Ntp149
Rp150
(dp151
g13
I00
sg14
F-0.7726164217998093
sg15
g148
sbs(I-3
I7
tp152
g0
(g9
g2
Ntp153
Rp154
(dp155
g13
I01
sg14
F0.9784099192784914
sg15
g152
sbs(I-9
I3
tp156
g0
(g9
g2
Ntp157
Rp158
(dp159
g13
I01
sg14
F-1.526282031667093
sg15
g156
sbs(I468
I2
tp160
g0
(g9
g2
Ntp161
Rp162
(dp163
g13
I01
sg14
F-2.14817745328879
sg15
g160
sbs(I-8
I2
tp164
g0
(g9
g2
Ntp165
Rp166
(dp167
g13
I01
sg14
F-0.19681336852184184
sg15
g164
sbs(I2
I2
tp168
g0
(g9
g2
Ntp169
Rp170
(dp171
g13
I00
sg14
F2.3622121921995
sg15
g168
sbs(I-8
I1313
tp172
g0
(g9
g2
Ntp173
Rp174
(dp175
g13
I00
sg14
F2.4267299834279985
sg15
g172
sbs(I-7
I3
tp176
g0
(g9
g2
Ntp177
Rp178
(dp179
g13
I00
sg14
F0.23128784208023329
sg15
g176
sbs(I-4
I1529
tp180
g0
(g9
g2
Ntp181
Rp182
(dp183
g13
I01
sg14
F-1.522882380577822
sg15
g180
sbs(I-5
I0
tp184
g0
(g9
g2
Ntp185
Rp186
(dp187
g13
I01
sg14
F-0.17506423857973274
sg15
g184
sbs(I-9
I5
tp188
g0
(g9
g2
Ntp189
Rp190
(dp191
g13
I01
sg14
F-0.8620641301949018
sg15
g188
sbs(I-2
I2
tp192
g0
(g9
g2
Ntp193
Rp194
(dp195
g13
I00
sg14
F-0.022028672733050314
sg15
g192
sbs(I-7
I9
tp196
g0
(g9
g2
Ntp197
Rp198
(dp199
g13
I01
sg14
F-1.4881127099007319
sg15
g196
sbs(I-8
I0
tp200
g0
(g9
g2
Ntp201
Rp202
(dp203
g13
I01
sg14
F2.9321164681444674
sg15
g200
sbs(I1619
I7
tp204
g0
(g9
g2
Ntp205
Rp206
(dp207
g13
I01
sg14
F1.8522047722349977
sg15
g204
sbs(I468
I1716
tp208
g0
(g9
g2
Ntp209
Rp210
(dp211
g13
I01
sg14
F0.6145540423993098
sg15
g208
sbs(I-9
I8
tp212
g0
(g9
g2
Ntp213
Rp214
(dp215
g13
I01
sg14
F-1.5441361426340454
sg15
g212
sbs(I-2
I8
tp216
g0
(g9
g2
Ntp217
Rp218
(dp219
g13
I01
sg14
F-1.3469905190661144
sg15
g216
sbs(I-3
I0
tp220
g0
(g9
g2
Ntp221
Rp222
(dp223
g13
I01
sg14
F-0.4419245963295034
sg15
g220
sbs(I-4
I8
tp224
g0
(g9
g2
Ntp225
Rp226
(dp227
g13
I01
sg14
F-1.6011461802747944
sg15
g224
sbs(I-8
I9
tp228
g0
(g9
g2
Ntp229
Rp230
(dp231
g13
I01
sg14
F0.7333712146951401
sg15
g228
sbs(I-9
I1619
tp232
g0
(g9
g2
Ntp233
Rp234
(dp235
g13
I01
sg14
F1.1631331104786522
sg15
g232
sbs(I-4
I1233
tp236
g0
(g9
g2
Ntp237
Rp238
(dp239
g13
I01
sg14
F1.388156364530389
sg15
g236
sbs(I-7
I4
tp240
g0
(g9
g2
Ntp241
Rp242
(dp243
g13
I01
sg14
F-1.1560578510920272
sg15
g240
sbs(I876
I876
tp244
g0
(g9
g2
Ntp245
Rp246
(dp247
g13
I01
sg14
F-2.461173621204487
sg15
g244
sbs(I-6
I3
tp248
g0
(g9
g2
Ntp249
Rp250
(dp251
g13
I00
sg14
F1.2013518692546
sg15
g248
sbs(I-9
I2
tp252
g0
(g9
g2
Ntp253
Rp254
(dp255
g13
I01
sg14
F-1.1598654784803673
sg15
g252
sbs(I-4
I2
tp256
g0
(g9
g2
Ntp257
Rp258
(dp259
g13
I00
sg14
F-0.1425416979474793
sg15
g256
sbs(I-2
I5
tp260
g0
(g9
g2
Ntp261
Rp262
(dp263
g13
I01
sg14
F1.1861716725496452
sg15
g260
sbs(I-3
I3
tp264
g0
(g9
g2
Ntp265
Rp266
(dp267
g13
I01
sg14
F-0.7334279915947186
sg15
g264
sbs(I-8
I6
tp268
g0
(g9
g2
Ntp269
Rp270
(dp271
g13
I01
sg14
F0.3748419262108933
sg15
g268
sbs(I1233
I0
tp272
g0
(g9
g2
Ntp273
Rp274
(dp275
g13
I01
sg14
F1.3146181767603529
sg15
g272
sbs(I-6
I9
tp276
g0
(g9
g2
Ntp277
Rp278
(dp279
g13
I00
sg14
F2.48787726407136
sg15
g276
sbs(I-5
I4
tp280
g0
(g9
g2
Ntp281
Rp282
(dp283
g13
I00
sg14
F-0.10128885640188921
sg15
g280
sbs(I-6
I4
tp284
g0
(g9
g2
Ntp285
Rp286
(dp287
g13
I01
sg14
F0.5853831013026425
sg15
g284
sbs(I-9
I1
tp288
g0
(g9
g2
Ntp289
Rp290
(dp291
g13
I01
sg14
F-0.364281227562901
sg15
g288
sbs(I-4
I7
tp292
g0
(g9
g2
Ntp293
Rp294
(dp295
g13
I01
sg14
F0.8453380034810619
sg15
g292
sbs(I-5
I9
tp296
g0
(g9
g2
Ntp297
Rp298
(dp299
g13
I01
sg14
F2.146621879600246
sg15
g296
sbs(I-1
I9
tp300
g0
(g9
g2
Ntp301
Rp302
(dp303
g13
I00
sg14
F-0.6889252287132219
sg15
g300
sbs(I-2
I6
tp304
g0
(g9
g2
Ntp305
Rp306
(dp307
g13
I00
sg14
F-0.7227972492433254
sg15
g304
sbs(I-3
I6
tp308
g0
(g9
g2
Ntp309
Rp310
(dp311
g13
I00
sg14
F1.1700239781927335
sg15
g308
sbs(I-5
I468
tp312
g0
(g9
g2
Ntp313
Rp314
(dp315
g13
I01
sg14
F-0.7126436769297231
sg15
g312
sbs(I468
I532
tp316
g0
(g9
g2
Ntp317
Rp318
(dp319
g13
I01
sg14
F3.08003717533062
sg15
g316
sbs(I532
I1
tp320
g0
(g9
g2
Ntp321
Rp322
(dp323
g13
I01
sg14
F7.790430085673578
sg15
g320
sbs(I-8
I3
tp324
g0
(g9
g2
Ntp325
Rp326
(dp327
g13
I00
sg14
F0.5019615653803644
sg15
g324
sbs(I2
I1494
tp328
g0
(g9
g2
Ntp329
Rp330
(dp331
g13
I01
sg14
F-0.08278193555953098
sg15
g328
sbs(I1233
I876
tp332
g0
(g9
g2
Ntp333
Rp334
(dp335
g13
I01
sg14
F-2.3233768524998943
sg15
g332
sbs(I-7
I2
tp336
g0
(g9
g2
Ntp337
Rp338
(dp339
g13
I01
sg14
F-0.8735487164296943
sg15
g336
sbs(I-10
I1
tp340
g0
(g9
g2
Ntp341
Rp342
(dp343
g13
I01
sg14
F2.328799961518875
sg15
g340
sbs(I-9
I4
tp344
g0
(g9
g2
Ntp345
Rp346
(dp347
g13
I00
sg14
F-2.418463817687122
sg15
g344
sbs(I-4
I4
tp348
g0
(g9
g2
Ntp349
Rp350
(dp351
g13
I00
sg14
F0.8200846520575531
sg15
g348
sbs(I-1
I3
tp352
g0
(g9
g2
Ntp353
Rp354
(dp355
g13
I00
sg14
F0.30348079460791166
sg15
g352
sbs(I-3
I9
tp356
g0
(g9
g2
Ntp357
Rp358
(dp359
g13
I01
sg14
F-0.011973707616946369
sg15
g356
sbs(I-1
I6
tp360
g0
(g9
g2
Ntp361
Rp362
(dp363
g13
I00
sg14
F1.167469586907282
sg15
g360
sbs(I-10
I2
tp364
g0
(g9
g2
Ntp365
Rp366
(dp367
g13
I01
sg14
F0.058160357552593855
sg15
g364
sbs(I6
I6
tp368
g0
(g9
g2
Ntp369
Rp370
(dp371
g13
I00
sg14
F-2.3343409645316626
sg15
g368
sbs(I-2
I9
tp372
g0
(g9
g2
Ntp373
Rp374
(dp375
g13
I00
sg14
F-1.2459568903596787
sg15
g372
sbs(I-4
I9
tp376
g0
(g9
g2
Ntp377
Rp378
(dp379
g13
I01
sg14
F1.0530911775568803
sg15
g376
sbs(I7
I7
tp380
g0
(g9
g2
Ntp381
Rp382
(dp383
g13
I01
sg14
F0.09524203318154822
sg15
g380
sbs(I1695
I1233
tp384
g0
(g9
g2
Ntp385
Rp386
(dp387
g13
I01
sg14
F1.00059111094874
sg15
g384
sbs(I-4
I1695
tp388
g0
(g9
g2
Ntp389
Rp390
(dp391
g13
I00
sg14
F2.7165460075774237
sg15
g388
sbs(I3
I3
tp392
g0
(g9
g2
Ntp393
Rp394
(dp395
g13
I00
sg14
F-0.18440065920670637
sg15
g392
sbs(I-6
I0
tp396
g0
(g9
g2
Ntp397
Rp398
(dp399
g13
I01
sg14
F2.355792631138022
sg15
g396
sbs(I4
I4
tp400
g0
(g9
g2
Ntp401
Rp402
(dp403
g13
I00
sg14
F-0.08631425372252396
sg15
g400
sbs(I-4
I3
tp404
g0
(g9
g2
Ntp405
Rp406
(dp407
g13
I00
sg14
F2.311045128799818
sg15
g404
sbs(I-1
I8
tp408
g0
(g9
g2
Ntp409
Rp410
(dp411
g13
I00
sg14
F0.06203148605344222
sg15
g408
sbs(I-3
I2
tp412
g0
(g9
g2
Ntp413
Rp414
(dp415
g13
I01
sg14
F3.0344848961816853
sg15
g412
sbs(I0
I1313
tp416
g0
(g9
g2
Ntp417
Rp418
(dp419
g13
I00
sg14
F-0.9376771093218376
sg15
g416
sbs(I0
I0
tp420
g0
(g9
g2
Ntp421
Rp422
(dp423
g13
I00
sg14
F-1.342483199865542
sg15
g420
sbs(I-8
I7
tp424
g0
(g9
g2
Ntp425
Rp426
(dp427
g13
I01
sg14
F-1.960787237047448
sg15
g424
sbs(I-7
I6
tp428
g0
(g9
g2
Ntp429
Rp430
(dp431
g13
I01
sg14
F0.8866747200533782
sg15
g428
sbs(I-2
I1
tp432
g0
(g9
g2
Ntp433
Rp434
(dp435
g13
I01
sg14
F2.8794453289720203
sg15
g432
sbs(I-10
I5
tp436
g0
(g9
g2
Ntp437
Rp438
(dp439
g13
I00
sg14
F0.855288580707311
sg15
g436
sbs(I-5
I7
tp440
g0
(g9
g2
Ntp441
Rp442
(dp443
g13
I00
sg14
F-0.8122126974740087
sg15
g440
sbs(I-6
I5
tp444
g0
(g9
g2
Ntp445
Rp446
(dp447
g13
I01
sg14
F0.29193868766550224
sg15
g444
sbs(I-9
I0
tp448
g0
(g9
g2
Ntp449
Rp450
(dp451
g13
I01
sg14
F0.2196993455930812
sg15
g448
sbs(I-4
I0
tp452
g0
(g9
g2
Ntp453
Rp454
(dp455
g13
I00
sg14
F-1.3305434230815947
sg15
g452
sbs(I-5
I8
tp456
g0
(g9
g2
Ntp457
Rp458
(dp459
g13
I01
sg14
F-1.367370751325228
sg15
g456
sbs(I-1
I7
tp460
g0
(g9
g2
Ntp461
Rp462
(dp463
g13
I01
sg14
F-2.5390203140572973
sg15
g460
sbs(I-3
I5
tp464
g0
(g9
g2
Ntp465
Rp466
(dp467
g13
I00
sg14
F0.6394166922248832
sg15
g464
sbs(I-8
I4
tp468
g0
(g9
g2
Ntp469
Rp470
(dp471
g13
I00
sg14
F0.22506617815591767
sg15
g468
sbs(I8
I8
tp472
g0
(g9
g2
Ntp473
Rp474
(dp475
g13
I01
sg14
F-1.4138279374083158
sg15
g472
sbs(I-7
I1
tp476
g0
(g9
g2
Ntp477
Rp478
(dp479
g13
I00
sg14
F-1.3059275596472646
sg15
g476
sbs(I-10
I6
tp480
g0
(g9
g2
Ntp481
Rp482
(dp483
g13
I00
sg14
F0.31175573523042344
sg15
g480
sbs(I-5
I2
tp484
g0
(g9
g2
Ntp485
Rp486
(dp487
g13
I00
sg14
F-1.2100931483325734
sg15
g484
sbs(I-6
I6
tp488
g0
(g9
g2
Ntp489
Rp490
(dp491
g13
I01
sg14
F1.1970245856709498
sg15
g488
sbs(I-9
I7
tp492
g0
(g9
g2
Ntp493
Rp494
(dp495
g13
I00
sg14
F0.04600437766462617
sg15
g492
sbssS'nodes'
p496
(dp497
I0
g0
(cneat.genes
DefaultNodeGene
p498
g2
Ntp499
Rp500
(dp501
S'activation'
p502
S'relu'
p503
sS'bias'
p504
F-2.2995945004972436
sS'response'
p505
F1.0
sg15
I0
sS'aggregation'
p506
S'sum'
p507
sbsI1
g0
(g498
g2
Ntp508
Rp509
(dp510
g502
g503
sg504
F16.271995934757722
sg505
F1.0
sg15
I1
sg506
g507
sbsI2
g0
(g498
g2
Ntp511
Rp512
(dp513
g502
S'tanh'
p514
sg504
F-2.4077348145610324
sg505
F1.0
sg15
I2
sg506
g507
sbsI3
g0
(g498
g2
Ntp515
Rp516
(dp517
g502
g514
sg504
F20.102824933111652
sg505
F1.0
sg15
I3
sg506
g507
sbsI4
g0
(g498
g2
Ntp518
Rp519
(dp520
g502
g514
sg504
F-12.655733979054913
sg505
F1.0
sg15
I4
sg506
g507
sbsI5
g0
(g498
g2
Ntp521
Rp522
(dp523
g502
g514
sg504
F-4.908020912697652
sg505
F1.0
sg15
I5
sg506
g507
sbsI6
g0
(g498
g2
Ntp524
Rp525
(dp526
g502
g514
sg504
F-16.845875229581022
sg505
F1.0
sg15
I6
sg506
g507
sbsI7
g0
(g498
g2
Ntp527
Rp528
(dp529
g502
g514
sg504
F6.697960481134542
sg505
F1.0
sg15
I7
sg506
g507
sbsI8
g0
(g498
g2
Ntp530
Rp531
(dp532
g502
g514
sg504
F-2.9013254077546904
sg505
F1.0
sg15
I8
sg506
g507
sbsI9
g0
(g498
g2
Ntp533
Rp534
(dp535
g502
g514
sg504
F3.4114486364302814
sg505
F1.0
sg15
I9
sg506
g507
sbsI876
g0
(g498
g2
Ntp536
Rp537
(dp538
g502
g503
sg504
F-4.944900836153689
sg505
F1.0
sg15
I876
sg506
g507
sbsI1313
g0
(g498
g2
Ntp539
Rp540
(dp541
g502
g514
sg504
F-13.765898778961223
sg505
F1.0
sg15
I1313
sg506
g507
sbsI1233
g0
(g498
g2
Ntp542
Rp543
(dp544
g502
g503
sg504
F19.54146869640596
sg505
F1.0
sg15
I1233
sg506
g507
sbsI1619
g0
(g498
g2
Ntp545
Rp546
(dp547
g502
g503
sg504
F-7.841469149731011
sg505
F1.0
sg15
I1619
sg506
g507
sbsI532
g0
(g498
g2
Ntp548
Rp549
(dp550
g502
g503
sg504
F7.174231658287211
sg505
F1.0
sg15
I532
sg506
g507
sbsI1494
g0
(g498
g2
Ntp551
Rp552
(dp553
g502
g514
sg504
F-16.267684753055416
sg505
F1.0
sg15
I1494
sg506
g507
sbsI1529
g0
(g498
g2
Ntp554
Rp555
(dp556
g502
g503
sg504
F-6.772010107467387
sg505
F1.0
sg15
I1529
sg506
g507
sbsI1695
g0
(g498
g2
Ntp557
Rp558
(dp559
g502
g503
sg504
F-12.11901723365735
sg505
F1.0
sg15
I1695
sg506
g507
sbsI468
g0
(g498
g2
Ntp560
Rp561
(dp562
g502
g503
sg504
F8.402547330488785
sg505
F1.0
sg15
I468
sg506
g507
sbsI1716
g0
(g498
g2
Ntp563
Rp564
(dp565
g502
g503
sg504
F6.95436073334375
sg505
F1.0
sg15
I1716
sg506
g507
sbssg15
I8770
sS'fitness'
p566
F3.1867154605983874
sb.