ccopy_reg
_reconstructor
p0
(cneat.genome
DefaultGenome
p1
c__builtin__
object
p2
Ntp3
Rp4
(dp5
S'connections'
p6
(dp7
(I23
I4
tp8
g0
(cneat.genes
DefaultConnectionGene
p9
g2
Ntp10
Rp11
(dp12
S'enabled'
p13
I01
sS'weight'
p14
F0.5289028199863399
sS'key'
p15
g8
sbs(I-2
I521
tp16
g0
(g9
g2
Ntp17
Rp18
(dp19
g13
I01
sg14
F1.2367505246832977
sg15
g16
sbs(I-2
I23
tp20
g0
(g9
g2
Ntp21
Rp22
(dp23
g13
I01
sg14
F2.152482022332227
sg15
g20
sbs(I7
I7
tp24
g0
(g9
g2
Ntp25
Rp26
(dp27
g13
I01
sg14
F0.5440187111284378
sg15
g24
sbs(I9
I9
tp28
g0
(g9
g2
Ntp29
Rp30
(dp31
g13
I01
sg14
F-1.066099107956043
sg15
g28
sbs(I23
I3
tp32
g0
(g9
g2
Ntp33
Rp34
(dp35
g13
I01
sg14
F1.1723028140864256
sg15
g32
sbs(I-1
I22
tp36
g0
(g9
g2
Ntp37
Rp38
(dp39
g13
I00
sg14
F0.22604647719060061
sg15
g36
sbs(I-3
I3
tp40
g0
(g9
g2
Ntp41
Rp42
(dp43
g13
I01
sg14
F-1.4350526668028813
sg15
g40
sbs(I-2
I22
tp44
g0
(g9
g2
Ntp45
Rp46
(dp47
g13
I01
sg14
F1.0677975906958992
sg15
g44
sbs(I-7
I22
tp48
g0
(g9
g2
Ntp49
Rp50
(dp51
g13
I01
sg14
F-0.8289094269438917
sg15
g48
sbs(I23
I7
tp52
g0
(g9
g2
Ntp53
Rp54
(dp55
g13
I01
sg14
F0.38903090563326376
sg15
g52
sbs(I-10
I21
tp56
g0
(g9
g2
Ntp57
Rp58
(dp59
g13
I01
sg14
F1.2081588712126043
sg15
g56
sbs(I-5
I23
tp60
g0
(g9
g2
Ntp61
Rp62
(dp63
g13
I00
sg14
F-2.6769882644583274
sg15
g60
sbs(I-6
I21
tp64
g0
(g9
g2
Ntp65
Rp66
(dp67
g13
I01
sg14
F-1.1296267622901257
sg15
g64
sbs(I21
I0
tp68
g0
(g9
g2
Ntp69
Rp70
(dp71
g13
I00
sg14
F-1.0803348530513366
sg15
g68
sbs(I22
I7
tp72
g0
(g9
g2
Ntp73
Rp74
(dp75
g13
I01
sg14
F-0.9816238488747896
sg15
g72
sbs(I2
I2
tp76
g0
(g9
g2
Ntp77
Rp78
(dp79
g13
I00
sg14
F-0.9694448444472151
sg15
g76
sbs(I-7
I21
tp80
g0
(g9
g2
Ntp81
Rp82
(dp83
g13
I01
sg14
F0.5727208018018465
sg15
g80
sbs(I-5
I22
tp84
g0
(g9
g2
Ntp85
Rp86
(dp87
g13
I01
sg14
F0.9474600089525478
sg15
g84
sbs(I-2
I21
tp88
g0
(g9
g2
Ntp89
Rp90
(dp91
g13
I00
sg14
F0.8471755802878063
sg15
g88
sbs(I-6
I22
tp92
g0
(g9
g2
Ntp93
Rp94
(dp95
g13
I01
sg14
F1.584348890333565
sg15
g92
sbs(I22
I4
tp96
g0
(g9
g2
Ntp97
Rp98
(dp99
g13
I01
sg14
F0.511469167400373
sg15
g96
sbs(I21
I4
tp100
g0
(g9
g2
Ntp101
Rp102
(dp103
g13
I01
sg14
F-1.374056829687541
sg15
g100
sbs(I23
I1
tp104
g0
(g9
g2
Ntp105
Rp106
(dp107
g13
I01
sg14
F0.9628487007320223
sg15
g104
sbs(I-8
I21
tp108
g0
(g9
g2
Ntp109
Rp110
(dp111
g13
I00
sg14
F-0.31911324720649886
sg15
g108
sbs(I22
I0
tp112
g0
(g9
g2
Ntp113
Rp114
(dp115
g13
I00
sg14
F-1.1110640584138254
sg15
g112
sbs(I23
I5
tp116
g0
(g9
g2
Ntp117
Rp118
(dp119
g13
I01
sg14
F0.7896014407816739
sg15
g116
sbs(I-10
I23
tp120
g0
(g9
g2
Ntp121
Rp122
(dp123
g13
I01
sg14
F1.7004280992454286
sg15
g120
sbs(I21
I9
tp124
g0
(g9
g2
Ntp125
Rp126
(dp127
g13
I01
sg14
F1.0729324998796517
sg15
g124
sbs(I-1
I21
tp128
g0
(g9
g2
Ntp129
Rp130
(dp131
g13
I00
sg14
F0.16358813668536915
sg15
g128
sbs(I-4
I22
tp132
g0
(g9
g2
Ntp133
Rp134
(dp135
g13
I01
sg14
F-4.331210321310484
sg15
g132
sbs(I23
I9
tp136
g0
(g9
g2
Ntp137
Rp138
(dp139
g13
I00
sg14
F1.490807466205388
sg15
g136
sbs(I8
I8
tp140
g0
(g9
g2
Ntp141
Rp142
(dp143
g13
I01
sg14
F0.3389683688838878
sg15
g140
sbs(I22
I8
tp144
g0
(g9
g2
Ntp145
Rp146
(dp147
g13
I01
sg14
F0.8053441324636964
sg15
g144
sbs(I-7
I23
tp148
g0
(g9
g2
Ntp149
Rp150
(dp151
g13
I01
sg14
F1.6639534963764395
sg15
g148
sbssS'nodes'
p152
(dp153
I0
g0
(cneat.genes
DefaultNodeGene
p154
g2
Ntp155
Rp156
(dp157
S'activation'
p158
S'tanh'
p159
sS'bias'
p160
F3.0807992555418866
sS'response'
p161
F1.0
sg15
I0
sS'aggregation'
p162
S'sum'
p163
sbsI1
g0
(g154
g2
Ntp164
Rp165
(dp166
g158
g159
sg160
F5.506454706063061
sg161
F1.0
sg15
I1
sg162
g163
sbsI2
g0
(g154
g2
Ntp167
Rp168
(dp169
g158
g159
sg160
F1.073685676873559
sg161
F1.0
sg15
I2
sg162
g163
sbsI3
g0
(g154
g2
Ntp170
Rp171
(dp172
g158
g159
sg160
F8.672799194824872
sg161
F1.0
sg15
I3
sg162
g163
sbsI4
g0
(g154
g2
Ntp173
Rp174
(dp175
g158
g159
sg160
F-0.1545271296629231
sg161
F1.0
sg15
I4
sg162
g163
sbsI5
g0
(g154
g2
Ntp176
Rp177
(dp178
g158
g159
sg160
F6.001560099087337
sg161
F1.0
sg15
I5
sg162
g163
sbsI6
g0
(g154
g2
Ntp179
Rp180
(dp181
g158
g159
sg160
F-1.8562844527483497
sg161
F1.0
sg15
I6
sg162
g163
sbsI7
g0
(g154
g2
Ntp182
Rp183
(dp184
g158
g159
sg160
F5.337042478766371
sg161
F1.0
sg15
I7
sg162
g163
sbsI8
g0
(g154
g2
Ntp185
Rp186
(dp187
g158
g159
sg160
F-7.9456306603686935
sg161
F1.0
sg15
I8
sg162
g163
sbsI9
g0
(g154
g2
Ntp188
Rp189
(dp190
g158
g159
sg160
F1.297453111030349
sg161
F1.0
sg15
I9
sg162
g163
sbsI23
g0
(g154
g2
Ntp191
Rp192
(dp193
g158
g159
sg160
F-1.5563195575780129
sg161
F1.0
sg15
I23
sg162
g163
sbsI21
g0
(g154
g2
Ntp194
Rp195
(dp196
g158
g159
sg160
F20.094276372528757
sg161
F1.0
sg15
I21
sg162
g163
sbsI22
g0
(g154
g2
Ntp197
Rp198
(dp199
g158
S'relu'
p200
sg160
F11.520697719811173
sg161
F1.0
sg15
I22
sg162
g163
sbsI521
g0
(g154
g2
Ntp201
Rp202
(dp203
g158
g159
sg160
F13.696278109676884
sg161
F1.0
sg15
I521
sg162
g163
sbssg15
I89
sS'fitness'
p204
F1.1191263449041204
sb.