ccopy_reg
_reconstructor
p0
(cneat.genome
DefaultGenome
p1
c__builtin__
object
p2
Ntp3
Rp4
(dp5
S'connections'
p6
(dp7
(I-3
I22
tp8
g0
(cneat.genes
DefaultConnectionGene
p9
g2
Ntp10
Rp11
(dp12
S'enabled'
p13
I01
sS'weight'
p14
F-0.8318475572476807
sS'key'
p15
g8
sbs(I-16
I22
tp16
g0
(g9
g2
Ntp17
Rp18
(dp19
g13
I01
sg14
F2.0834650167113415
sg15
g16
sbs(I22
I9
tp20
g0
(g9
g2
Ntp21
Rp22
(dp23
g13
I01
sg14
F1.553222533110331
sg15
g20
sbs(I22
I6
tp24
g0
(g9
g2
Ntp25
Rp26
(dp27
g13
I01
sg14
F-0.9466601512141304
sg15
g24
sbs(I-2
I22
tp28
g0
(g9
g2
Ntp29
Rp30
(dp31
g13
I01
sg14
F-2.1695465153443005
sg15
g28
sbs(I-7
I22
tp32
g0
(g9
g2
Ntp33
Rp34
(dp35
g13
I01
sg14
F-1.5143363023570715
sg15
g32
sbs(I-17
I22
tp36
g0
(g9
g2
Ntp37
Rp38
(dp39
g13
I01
sg14
F-1.197340612232381
sg15
g36
sbs(I22
I2
tp40
g0
(g9
g2
Ntp41
Rp42
(dp43
g13
I01
sg14
F-1.0005794701462112
sg15
g40
sbs(I-12
I22
tp44
g0
(g9
g2
Ntp45
Rp46
(dp47
g13
I01
sg14
F0.17923225783097993
sg15
g44
sbs(I-15
I22
tp48
g0
(g9
g2
Ntp49
Rp50
(dp51
g13
I01
sg14
F-0.8144358361585735
sg15
g48
sbs(I22
I7
tp52
g0
(g9
g2
Ntp53
Rp54
(dp55
g13
I01
sg14
F0.4915923709303879
sg15
g52
sbs(I-20
I22
tp56
g0
(g9
g2
Ntp57
Rp58
(dp59
g13
I01
sg14
F0.48149353894616875
sg15
g56
sbs(I-5
I22
tp60
g0
(g9
g2
Ntp61
Rp62
(dp63
g13
I01
sg14
F0.32876702670728875
sg15
g60
sbs(I22
I3
tp64
g0
(g9
g2
Ntp65
Rp66
(dp67
g13
I01
sg14
F1.0646207983699265
sg15
g64
sbs(I-10
I22
tp68
g0
(g9
g2
Ntp69
Rp70
(dp71
g13
I01
sg14
F-0.3920261728655774
sg15
g68
sbs(I-11
I22
tp72
g0
(g9
g2
Ntp73
Rp74
(dp75
g13
I01
sg14
F-0.504383298295246
sg15
g72
sbs(I-6
I22
tp76
g0
(g9
g2
Ntp77
Rp78
(dp79
g13
I01
sg14
F-1.5838435031284086
sg15
g76
sbs(I22
I4
tp80
g0
(g9
g2
Ntp81
Rp82
(dp83
g13
I01
sg14
F-0.0780732729286911
sg15
g80
sbs(I22
I0
tp84
g0
(g9
g2
Ntp85
Rp86
(dp87
g13
I01
sg14
F-0.19568637059002675
sg15
g84
sbs(I-19
I22
tp88
g0
(g9
g2
Ntp89
Rp90
(dp91
g13
I01
sg14
F-0.8922450154581759
sg15
g88
sbs(I-14
I22
tp92
g0
(g9
g2
Ntp93
Rp94
(dp95
g13
I01
sg14
F0.01833420263152219
sg15
g92
sbs(I-9
I22
tp96
g0
(g9
g2
Ntp97
Rp98
(dp99
g13
I01
sg14
F0.29875450211794774
sg15
g96
sbs(I-4
I22
tp100
g0
(g9
g2
Ntp101
Rp102
(dp103
g13
I01
sg14
F0.5743934932511982
sg15
g100
sbs(I22
I5
tp104
g0
(g9
g2
Ntp105
Rp106
(dp107
g13
I01
sg14
F1.0135314042863948
sg15
g104
sbs(I-1
I22
tp108
g0
(g9
g2
Ntp109
Rp110
(dp111
g13
I01
sg14
F-0.17500272839574407
sg15
g108
sbs(I22
I8
tp112
g0
(g9
g2
Ntp113
Rp114
(dp115
g13
I01
sg14
F-0.7690292302425887
sg15
g112
sbs(I-13
I22
tp116
g0
(g9
g2
Ntp117
Rp118
(dp119
g13
I01
sg14
F0.4188386876758519
sg15
g116
sbs(I-8
I22
tp120
g0
(g9
g2
Ntp121
Rp122
(dp123
g13
I01
sg14
F2.686778253460954
sg15
g120
sbs(I22
I1
tp124
g0
(g9
g2
Ntp125
Rp126
(dp127
g13
I01
sg14
F0.22542223765536368
sg15
g124
sbs(I-18
I22
tp128
g0
(g9
g2
Ntp129
Rp130
(dp131
g13
I01
sg14
F0.6846904506765878
sg15
g128
sbssS'nodes'
p132
(dp133
I0
g0
(cneat.genes
DefaultNodeGene
p134
g2
Ntp135
Rp136
(dp137
S'activation'
p138
S'relu'
p139
sS'bias'
p140
F6.075671348168032
sS'response'
p141
F1.0
sg15
I0
sS'aggregation'
p142
S'sum'
p143
sbsI1
g0
(g134
g2
Ntp144
Rp145
(dp146
g138
g139
sg140
F11.155702108883407
sg141
F1.0
sg15
I1
sg142
g143
sbsI2
g0
(g134
g2
Ntp147
Rp148
(dp149
g138
g139
sg140
F-12.626686169896091
sg141
F1.0
sg15
I2
sg142
g143
sbsI3
g0
(g134
g2
Ntp150
Rp151
(dp152
g138
g139
sg140
F17.01492451263909
sg141
F1.0
sg15
I3
sg142
g143
sbsI4
g0
(g134
g2
Ntp153
Rp154
(dp155
g138
g139
sg140
F0.2499675171213678
sg141
F1.0
sg15
I4
sg142
g143
sbsI5
g0
(g134
g2
Ntp156
Rp157
(dp158
g138
g139
sg140
F-1.0123794083632072
sg141
F1.0
sg15
I5
sg142
g143
sbsI6
g0
(g134
g2
Ntp159
Rp160
(dp161
g138
g139
sg140
F-1.232465416267221
sg141
F1.0
sg15
I6
sg142
g143
sbsI7
g0
(g134
g2
Ntp162
Rp163
(dp164
g138
g139
sg140
F-7.439459730173386
sg141
F1.0
sg15
I7
sg142
g143
sbsI8
g0
(g134
g2
Ntp165
Rp166
(dp167
g138
g139
sg140
F-11.06950566194916
sg141
F1.0
sg15
I8
sg142
g143
sbsI9
g0
(g134
g2
Ntp168
Rp169
(dp170
g138
g139
sg140
F-5.801073060521637
sg141
F1.0
sg15
I9
sg142
g143
sbsI22
g0
(g134
g2
Ntp171
Rp172
(dp173
g138
S'tanh'
p174
sg140
F4.828423124679466
sg141
F1.0
sg15
I22
sg142
g143
sbssg15
I89
sS'fitness'
p175
Nsb.