ccopy_reg
_reconstructor
p0
(cneat.genome
DefaultGenome
p1
c__builtin__
object
p2
Ntp3
Rp4
(dp5
S'connections'
p6
(dp7
(I-4
I5
tp8
g0
(cneat.genes
DefaultConnectionGene
p9
g2
Ntp10
Rp11
(dp12
S'enabled'
p13
I01
sS'weight'
p14
F-0.8990858404950919
sS'key'
p15
g8
sbs(I-1
I0
tp16
g0
(g9
g2
Ntp17
Rp18
(dp19
g13
I01
sg14
F-1.9465923481555372
sg15
g16
sbs(I-3
I8
tp20
g0
(g9
g2
Ntp21
Rp22
(dp23
g13
I00
sg14
F-1.7880046715969489
sg15
g20
sbs(I1617
I468
tp24
g0
(g9
g2
Ntp25
Rp26
(dp27
g13
I00
sg14
F1.0952443027857868
sg15
g24
sbs(I-4
I1539
tp28
g0
(g9
g2
Ntp29
Rp30
(dp31
g13
I01
sg14
F1.6024774349542226
sg15
g28
sbs(I-5
I1
tp32
g0
(g9
g2
Ntp33
Rp34
(dp35
g13
I00
sg14
F0.07008895738537207
sg15
g32
sbs(I5
I5
tp36
g0
(g9
g2
Ntp37
Rp38
(dp39
g13
I01
sg14
F1.204130899910537
sg15
g36
sbs(I329
I2
tp40
g0
(g9
g2
Ntp41
Rp42
(dp43
g13
I01
sg14
F-0.9164410778641259
sg15
g40
sbs(I1
I1
tp44
g0
(g9
g2
Ntp45
Rp46
(dp47
g13
I00
sg14
F2.530630810196336
sg15
g44
sbs(I532
I468
tp48
g0
(g9
g2
Ntp49
Rp50
(dp51
g13
I00
sg14
F0.24679655786528681
sg15
g48
sbs(I-9
I9
tp52
g0
(g9
g2
Ntp53
Rp54
(dp55
g13
I01
sg14
F-1.8861333614876665
sg15
g52
sbs(I-3
I1
tp56
g0
(g9
g2
Ntp57
Rp58
(dp59
g13
I00
sg14
F1.5854863734339328
sg15
g56
sbs(I468
I8
tp60
g0
(g9
g2
Ntp61
Rp62
(dp63
g13
I01
sg14
F-1.1313300789257674
sg15
g60
sbs(I-8
I8
tp64
g0
(g9
g2
Ntp65
Rp66
(dp67
g13
I01
sg14
F-0.42655708240357365
sg15
g64
sbs(I-7
I5
tp68
g0
(g9
g2
Ntp69
Rp70
(dp71
g13
I00
sg14
F0.2813900596366786
sg15
g68
sbs(I9
I9
tp72
g0
(g9
g2
Ntp73
Rp74
(dp75
g13
I01
sg14
F0.28544048576766545
sg15
g72
sbs(I-5
I6
tp76
g0
(g9
g2
Ntp77
Rp78
(dp79
g13
I00
sg14
F1.1586311112980905
sg15
g76
sbs(I-6
I2
tp80
g0
(g9
g2
Ntp81
Rp82
(dp83
g13
I00
sg14
F-1.7697075702593936
sg15
g80
sbs(I-1
I3
tp84
g0
(g9
g2
Ntp85
Rp86
(dp87
g13
I00
sg14
F4.574367378929205
sg15
g84
sbs(I-10
I9
tp88
g0
(g9
g2
Ntp89
Rp90
(dp91
g13
I01
sg14
F2.711220187369289
sg15
g88
sbs(I-1
I4
tp92
g0
(g9
g2
Ntp93
Rp94
(dp95
g13
I01
sg14
F0.3888965463330948
sg15
g92
sbs(I-3
I4
tp96
g0
(g9
g2
Ntp97
Rp98
(dp99
g13
I00
sg14
F0.460287637237099
sg15
g96
sbs(I-8
I5
tp100
g0
(g9
g2
Ntp101
Rp102
(dp103
g13
I00
sg14
F2.4337040177581324
sg15
g100
sbs(I-6
I8
tp104
g0
(g9
g2
Ntp105
Rp106
(dp107
g13
I01
sg14
F2.9734717437480263
sg15
g104
sbs(I-7
I0
tp108
g0
(g9
g2
Ntp109
Rp110
(dp111
g13
I00
sg14
F-0.9017376868946801
sg15
g108
sbs(I-10
I7
tp112
g0
(g9
g2
Ntp113
Rp114
(dp115
g13
I01
sg14
F-0.6463956236402066
sg15
g112
sbs(I-5
I5
tp116
g0
(g9
g2
Ntp117
Rp118
(dp119
g13
I01
sg14
F-0.7420605710691883
sg15
g116
sbs(I-6
I7
tp120
g0
(g9
g2
Ntp121
Rp122
(dp123
g13
I00
sg14
F-1.072932091491982
sg15
g120
sbs(I-9
I6
tp124
g0
(g9
g2
Ntp125
Rp126
(dp127
g13
I00
sg14
F0.9337608369980286
sg15
g124
sbs(I-4
I6
tp128
g0
(g9
g2
Ntp129
Rp130
(dp131
g13
I01
sg14
F-0.7143115837559708
sg15
g128
sbs(I-1
I1
tp132
g0
(g9
g2
Ntp133
Rp134
(dp135
g13
I01
sg14
F-0.8912135747931889
sg15
g132
sbs(I-3
I7
tp136
g0
(g9
g2
Ntp137
Rp138
(dp139
g13
I00
sg14
F0.6721381137048839
sg15
g136
sbs(I-7
I1009
tp140
g0
(g9
g2
Ntp141
Rp142
(dp143
g13
I00
sg14
F-0.46990755302145404
sg15
g140
sbs(I-9
I3
tp144
g0
(g9
g2
Ntp145
Rp146
(dp147
g13
I01
sg14
F-0.05452662340016495
sg15
g144
sbs(I-2
I532
tp148
g0
(g9
g2
Ntp149
Rp150
(dp151
g13
I01
sg14
F0.05755351949360684
sg15
g148
sbs(I9
I329
tp152
g0
(g9
g2
Ntp153
Rp154
(dp155
g13
I01
sg14
F0.6915084275909714
sg15
g152
sbs(I-8
I2
tp156
g0
(g9
g2
Ntp157
Rp158
(dp159
g13
I01
sg14
F0.09249009859699314
sg15
g156
sbs(I1539
I6
tp160
g0
(g9
g2
Ntp161
Rp162
(dp163
g13
I01
sg14
F0.4601266420509718
sg15
g160
sbs(I2
I2
tp164
g0
(g9
g2
Ntp165
Rp166
(dp167
g13
I01
sg14
F-1.8802270453948302
sg15
g164
sbs(I-7
I3
tp168
g0
(g9
g2
Ntp169
Rp170
(dp171
g13
I00
sg14
F0.23577238855643384
sg15
g168
sbs(I-10
I0
tp172
g0
(g9
g2
Ntp173
Rp174
(dp175
g13
I00
sg14
F-0.7373969895057643
sg15
g172
sbs(I-5
I0
tp176
g0
(g9
g2
Ntp177
Rp178
(dp179
g13
I01
sg14
F-0.626433443623575
sg15
g176
sbs(I-1
I2
tp180
g0
(g9
g2
Ntp181
Rp182
(dp183
g13
I00
sg14
F-2.738079176753954
sg15
g180
sbs(I-2
I2
tp184
g0
(g9
g2
Ntp185
Rp186
(dp187
g13
I01
sg14
F1.2376678662346985
sg15
g184
sbs(I1646
I7
tp188
g0
(g9
g2
Ntp189
Rp190
(dp191
g13
I01
sg14
F-1.4297429895295597
sg15
g188
sbs(I-2
I4
tp192
g0
(g9
g2
Ntp193
Rp194
(dp195
g13
I01
sg14
F0.1435650389530908
sg15
g192
sbs(I532
I5
tp196
g0
(g9
g2
Ntp197
Rp198
(dp199
g13
I01
sg14
F0.6737997418011248
sg15
g196
sbs(I-7
I9
tp200
g0
(g9
g2
Ntp201
Rp202
(dp203
g13
I00
sg14
F0.8370877762658382
sg15
g200
sbs(I-8
I0
tp204
g0
(g9
g2
Ntp205
Rp206
(dp207
g13
I01
sg14
F-0.08480179547867228
sg15
g204
sbs(I-9
I8
tp208
g0
(g9
g2
Ntp209
Rp210
(dp211
g13
I01
sg14
F-1.238656002327815
sg15
g208
sbs(I-2
I8
tp212
g0
(g9
g2
Ntp213
Rp214
(dp215
g13
I00
sg14
F-0.9586271205878146
sg15
g212
sbs(I-3
I0
tp216
g0
(g9
g2
Ntp217
Rp218
(dp219
g13
I01
sg14
F-0.7888072430509824
sg15
g216
sbs(I-4
I8
tp220
g0
(g9
g2
Ntp221
Rp222
(dp223
g13
I01
sg14
F-0.3703727820033618
sg15
g220
sbs(I-5
I329
tp224
g0
(g9
g2
Ntp225
Rp226
(dp227
g13
I01
sg14
F2.2626906341530244
sg15
g224
sbs(I-8
I9
tp228
g0
(g9
g2
Ntp229
Rp230
(dp231
g13
I01
sg14
F1.360061473771957
sg15
g228
sbs(I-7
I4
tp232
g0
(g9
g2
Ntp233
Rp234
(dp235
g13
I00
sg14
F3.3819192340828628
sg15
g232
sbs(I964
I5
tp236
g0
(g9
g2
Ntp237
Rp238
(dp239
g13
I01
sg14
F0.8483324430368178
sg15
g236
sbs(I-6
I3
tp240
g0
(g9
g2
Ntp241
Rp242
(dp243
g13
I01
sg14
F0.19553856195538033
sg15
g240
sbs(I-9
I2
tp244
g0
(g9
g2
Ntp245
Rp246
(dp247
g13
I00
sg14
F-0.9123601985114284
sg15
g244
sbs(I-4
I2
tp248
g0
(g9
g2
Ntp249
Rp250
(dp251
g13
I01
sg14
F0.45462220393071306
sg15
g248
sbs(I-2
I5
tp252
g0
(g9
g2
Ntp253
Rp254
(dp255
g13
I00
sg14
F-2.128659653676329
sg15
g252
sbs(I-3
I3
tp256
g0
(g9
g2
Ntp257
Rp258
(dp259
g13
I01
sg14
F3.0194913177261826
sg15
g256
sbs(I-8
I6
tp260
g0
(g9
g2
Ntp261
Rp262
(dp263
g13
I01
sg14
F0.03723834743039144
sg15
g260
sbs(I-6
I9
tp264
g0
(g9
g2
Ntp265
Rp266
(dp267
g13
I01
sg14
F-0.10464830909453737
sg15
g264
sbs(I-7
I7
tp268
g0
(g9
g2
Ntp269
Rp270
(dp271
g13
I00
sg14
F0.47932403812384644
sg15
g268
sbs(I-10
I4
tp272
g0
(g9
g2
Ntp273
Rp274
(dp275
g13
I01
sg14
F0.5736303791385217
sg15
g272
sbs(I-5
I4
tp276
g0
(g9
g2
Ntp277
Rp278
(dp279
g13
I01
sg14
F2.8623359482204624
sg15
g276
sbs(I-6
I4
tp280
g0
(g9
g2
Ntp281
Rp282
(dp283
g13
I00
sg14
F0.32581717477352956
sg15
g280
sbs(I-9
I1
tp284
g0
(g9
g2
Ntp285
Rp286
(dp287
g13
I01
sg14
F0.35518377540949797
sg15
g284
sbs(I329
I5
tp288
g0
(g9
g2
Ntp289
Rp290
(dp291
g13
I01
sg14
F-0.4542307067607212
sg15
g288
sbs(I-5
I9
tp292
g0
(g9
g2
Ntp293
Rp294
(dp295
g13
I01
sg14
F-0.31181235016388836
sg15
g292
sbs(I-3
I468
tp296
g0
(g9
g2
Ntp297
Rp298
(dp299
g13
I01
sg14
F-0.26669571057181607
sg15
g296
sbs(I-1
I6
tp300
g0
(g9
g2
Ntp301
Rp302
(dp303
g13
I00
sg14
F0.6876875503169884
sg15
g300
sbs(I-3
I6
tp304
g0
(g9
g2
Ntp305
Rp306
(dp307
g13
I00
sg14
F0.8491858840731712
sg15
g304
sbs(I532
I1
tp308
g0
(g9
g2
Ntp309
Rp310
(dp311
g13
I01
sg14
F4.872299684496777
sg15
g308
sbs(I-8
I3
tp312
g0
(g9
g2
Ntp313
Rp314
(dp315
g13
I01
sg14
F1.2522281604454935
sg15
g312
sbs(I-7
I2
tp316
g0
(g9
g2
Ntp317
Rp318
(dp319
g13
I01
sg14
F0.9626021296591405
sg15
g316
sbs(I-10
I1
tp320
g0
(g9
g2
Ntp321
Rp322
(dp323
g13
I00
sg14
F-0.5118740025719021
sg15
g320
sbs(I-5
I3
tp324
g0
(g9
g2
Ntp325
Rp326
(dp327
g13
I01
sg14
F2.5825950504748736
sg15
g324
sbs(I-9
I4
tp328
g0
(g9
g2
Ntp329
Rp330
(dp331
g13
I01
sg14
F1.5531085234701572
sg15
g328
sbs(I-4
I4
tp332
g0
(g9
g2
Ntp333
Rp334
(dp335
g13
I00
sg14
F3.656383355161425
sg15
g332
sbs(I-2
I3
tp336
g0
(g9
g2
Ntp337
Rp338
(dp339
g13
I01
sg14
F-0.046421603611272705
sg15
g336
sbs(I532
I6
tp340
g0
(g9
g2
Ntp341
Rp342
(dp343
g13
I00
sg14
F2.727489628634924
sg15
g340
sbs(I-7
I8
tp344
g0
(g9
g2
Ntp345
Rp346
(dp347
g13
I01
sg14
F0.4111617216676994
sg15
g344
sbs(I-2
I6
tp348
g0
(g9
g2
Ntp349
Rp350
(dp351
g13
I00
sg14
F-1.211413184728512
sg15
g348
sbs(I-10
I2
tp352
g0
(g9
g2
Ntp353
Rp354
(dp355
g13
I01
sg14
F1.756459258724904
sg15
g352
sbs(I6
I6
tp356
g0
(g9
g2
Ntp357
Rp358
(dp359
g13
I00
sg14
F2.2645506097447377
sg15
g356
sbs(I-2
I9
tp360
g0
(g9
g2
Ntp361
Rp362
(dp363
g13
I01
sg14
F0.7236080066276125
sg15
g360
sbs(I-4
I9
tp364
g0
(g9
g2
Ntp365
Rp366
(dp367
g13
I00
sg14
F-2.952898342375213
sg15
g364
sbs(I7
I7
tp368
g0
(g9
g2
Ntp369
Rp370
(dp371
g13
I00
sg14
F-2.5571334101947163
sg15
g368
sbs(I-1
I8
tp372
g0
(g9
g2
Ntp373
Rp374
(dp375
g13
I00
sg14
F-1.303535201747941
sg15
g372
sbs(I3
I3
tp376
g0
(g9
g2
Ntp377
Rp378
(dp379
g13
I01
sg14
F-0.4541432077564937
sg15
g376
sbs(I-6
I0
tp380
g0
(g9
g2
Ntp381
Rp382
(dp383
g13
I01
sg14
F-2.2218161454759717
sg15
g380
sbs(I4
I4
tp384
g0
(g9
g2
Ntp385
Rp386
(dp387
g13
I01
sg14
F0.3664489987659556
sg15
g384
sbs(I532
I1617
tp388
g0
(g9
g2
Ntp389
Rp390
(dp391
g13
I00
sg14
F-1.0402890935250158
sg15
g388
sbs(I-4
I3
tp392
g0
(g9
g2
Ntp393
Rp394
(dp395
g13
I01
sg14
F2.0910969878807384
sg15
g392
sbs(I-8
I964
tp396
g0
(g9
g2
Ntp397
Rp398
(dp399
g13
I00
sg14
F0.3457812395133062
sg15
g396
sbs(I-3
I2
tp400
g0
(g9
g2
Ntp401
Rp402
(dp403
g13
I01
sg14
F0.11559731967419556
sg15
g400
sbs(I6
I329
tp404
g0
(g9
g2
Ntp405
Rp406
(dp407
g13
I01
sg14
F-0.6026682621989748
sg15
g404
sbs(I0
I0
tp408
g0
(g9
g2
Ntp409
Rp410
(dp411
g13
I00
sg14
F1.6856677239771485
sg15
g408
sbs(I-1
I9
tp412
g0
(g9
g2
Ntp413
Rp414
(dp415
g13
I01
sg14
F-3.5607085142145256
sg15
g412
sbs(I-8
I7
tp416
g0
(g9
g2
Ntp417
Rp418
(dp419
g13
I01
sg14
F0.8779911986751192
sg15
g416
sbs(I-7
I6
tp420
g0
(g9
g2
Ntp421
Rp422
(dp423
g13
I01
sg14
F-0.6363420192903058
sg15
g420
sbs(I-2
I1
tp424
g0
(g9
g2
Ntp425
Rp426
(dp427
g13
I00
sg14
F3.4410964114319116
sg15
g424
sbs(I-10
I5
tp428
g0
(g9
g2
Ntp429
Rp430
(dp431
g13
I00
sg14
F1.061268560364103
sg15
g428
sbs(I-5
I7
tp432
g0
(g9
g2
Ntp433
Rp434
(dp435
g13
I00
sg14
F0.6656553094922859
sg15
g432
sbs(I-6
I5
tp436
g0
(g9
g2
Ntp437
Rp438
(dp439
g13
I01
sg14
F-0.2629813976498666
sg15
g436
sbs(I-10
I8
tp440
g0
(g9
g2
Ntp441
Rp442
(dp443
g13
I00
sg14
F-3.606728438894564
sg15
g440
sbs(I-4
I0
tp444
g0
(g9
g2
Ntp445
Rp446
(dp447
g13
I00
sg14
F0.6302088445174321
sg15
g444
sbs(I-5
I8
tp448
g0
(g9
g2
Ntp449
Rp450
(dp451
g13
I00
sg14
F0.427718855281959
sg15
g448
sbs(I-1
I7
tp452
g0
(g9
g2
Ntp453
Rp454
(dp455
g13
I00
sg14
F-0.10287624756476715
sg15
g452
sbs(I-3
I5
tp456
g0
(g9
g2
Ntp457
Rp458
(dp459
g13
I00
sg14
F2.9262950341118885
sg15
g456
sbs(I-5
I1646
tp460
g0
(g9
g2
Ntp461
Rp462
(dp463
g13
I01
sg14
F2.806211252174841
sg15
g460
sbs(I1009
I7
tp464
g0
(g9
g2
Ntp465
Rp466
(dp467
g13
I01
sg14
F-3.526776135182147
sg15
g464
sbs(I1405
I9
tp468
g0
(g9
g2
Ntp469
Rp470
(dp471
g13
I00
sg14
F1.7789334936250953
sg15
g468
sbs(I-8
I4
tp472
g0
(g9
g2
Ntp473
Rp474
(dp475
g13
I00
sg14
F2.083947343281043
sg15
g472
sbs(I8
I8
tp476
g0
(g9
g2
Ntp477
Rp478
(dp479
g13
I01
sg14
F1.157145073482577
sg15
g476
sbs(I-7
I1
tp480
g0
(g9
g2
Ntp481
Rp482
(dp483
g13
I01
sg14
F-0.09668435328827467
sg15
g480
sbs(I-10
I6
tp484
g0
(g9
g2
Ntp485
Rp486
(dp487
g13
I01
sg14
F-0.6254071331615758
sg15
g484
sbs(I-5
I2
tp488
g0
(g9
g2
Ntp489
Rp490
(dp491
g13
I01
sg14
F-0.15293902905047485
sg15
g488
sbs(I-6
I6
tp492
g0
(g9
g2
Ntp493
Rp494
(dp495
g13
I01
sg14
F-2.161704201725864
sg15
g492
sbs(I-9
I7
tp496
g0
(g9
g2
Ntp497
Rp498
(dp499
g13
I00
sg14
F-4.527755308353333
sg15
g496
sbssS'nodes'
p500
(dp501
I0
g0
(cneat.genes
DefaultNodeGene
p502
g2
Ntp503
Rp504
(dp505
S'activation'
p506
S'relu'
p507
sS'bias'
p508
F4.742251742926367
sS'response'
p509
F1.0
sg15
I0
sS'aggregation'
p510
S'sum'
p511
sbsI1
g0
(g502
g2
Ntp512
Rp513
(dp514
g506
g507
sg508
F-3.828948232628547
sg509
F1.0
sg15
I1
sg510
g511
sbsI2
g0
(g502
g2
Ntp515
Rp516
(dp517
g506
g507
sg508
F-13.619893093618302
sg509
F1.0
sg15
I2
sg510
g511
sbsI3
g0
(g502
g2
Ntp518
Rp519
(dp520
g506
g507
sg508
F16.192279040944925
sg509
F1.0
sg15
I3
sg510
g511
sbsI4
g0
(g502
g2
Ntp521
Rp522
(dp523
g506
S'tanh'
p524
sg508
F11.302640563157466
sg509
F1.0
sg15
I4
sg510
g511
sbsI5
g0
(g502
g2
Ntp525
Rp526
(dp527
g506
g524
sg508
F2.2395095437392913
sg509
F1.0
sg15
I5
sg510
g511
sbsI6
g0
(g502
g2
Ntp528
Rp529
(dp530
g506
g524
sg508
F-3.6030622779861843
sg509
F1.0
sg15
I6
sg510
g511
sbsI7
g0
(g502
g2
Ntp531
Rp532
(dp533
g506
g507
sg508
F13.081706698292413
sg509
F1.0
sg15
I7
sg510
g511
sbsI8
g0
(g502
g2
Ntp534
Rp535
(dp536
g506
g524
sg508
F6.283950848929035
sg509
F1.0
sg15
I8
sg510
g511
sbsI9
g0
(g502
g2
Ntp537
Rp538
(dp539
g506
g524
sg508
F-1.4508798604756283
sg509
F1.0
sg15
I9
sg510
g511
sbsI1646
g0
(g502
g2
Ntp540
Rp541
(dp542
g506
g507
sg508
F-8.278618318688931
sg509
F1.0
sg15
I1646
sg510
g511
sbsI1009
g0
(g502
g2
Ntp543
Rp544
(dp545
g506
g507
sg508
F-8.75583220410627
sg509
F1.0
sg15
I1009
sg510
g511
sbsI1539
g0
(g502
g2
Ntp546
Rp547
(dp548
g506
g507
sg508
F-9.869161612712807
sg509
F1.0
sg15
I1539
sg510
g511
sbsI468
g0
(g502
g2
Ntp549
Rp550
(dp551
g506
g524
sg508
F-0.6744779289298832
sg509
F1.0
sg15
I468
sg510
g511
sbsI1617
g0
(g502
g2
Ntp552
Rp553
(dp554
g506
g524
sg508
F-7.924260799696944
sg509
F1.0
sg15
I1617
sg510
g511
sbsI329
g0
(g502
g2
Ntp555
Rp556
(dp557
g506
g507
sg508
F-8.499237178996601
sg509
F1.0
sg15
I329
sg510
g511
sbsI532
g0
(g502
g2
Ntp558
Rp559
(dp560
g506
g507
sg508
F14.990854866277731
sg509
F1.0
sg15
I532
sg510
g511
sbsI964
g0
(g502
g2
Ntp561
Rp562
(dp563
g506
g507
sg508
F-0.34732793866677725
sg509
F1.0
sg15
I964
sg510
g511
sbsI1405
g0
(g502
g2
Ntp564
Rp565
(dp566
g506
g507
sg508
F-16.8099569063157
sg509
F1.0
sg15
I1405
sg510
g511
sbssg15
I8905
sS'fitness'
p567
Nsb.