ccopy_reg
_reconstructor
p0
(cneat.genome
DefaultGenome
p1
c__builtin__
object
p2
Ntp3
Rp4
(dp5
S'connections'
p6
(dp7
(I189
I6
tp8
g0
(cneat.genes
DefaultConnectionGene
p9
g2
Ntp10
Rp11
(dp12
S'enabled'
p13
I01
sS'weight'
p14
F1.5061434443174564
sS'key'
p15
g8
sbs(I-5
I186
tp16
g0
(g9
g2
Ntp17
Rp18
(dp19
g13
I00
sg14
F1.9584096714480044
sg15
g16
sbs(I-2
I186
tp20
g0
(g9
g2
Ntp21
Rp22
(dp23
g13
I01
sg14
F-0.6493604615129529
sg15
g20
sbs(I186
I1
tp24
g0
(g9
g2
Ntp25
Rp26
(dp27
g13
I01
sg14
F0.13412028435677326
sg15
g24
sbs(I6
I6
tp28
g0
(g9
g2
Ntp29
Rp30
(dp31
g13
I01
sg14
F-0.07183468306814932
sg15
g28
sbs(I-9
I189
tp32
g0
(g9
g2
Ntp33
Rp34
(dp35
g13
I01
sg14
F1.6432789905701792
sg15
g32
sbs(I-3
I188
tp36
g0
(g9
g2
Ntp37
Rp38
(dp39
g13
I01
sg14
F0.3925268426976044
sg15
g36
sbs(I189
I1
tp40
g0
(g9
g2
Ntp41
Rp42
(dp43
g13
I01
sg14
F1.1294370099572737
sg15
g40
sbs(I186
I5
tp44
g0
(g9
g2
Ntp45
Rp46
(dp47
g13
I00
sg14
F-0.9258899977805516
sg15
g44
sbs(I-7
I437
tp48
g0
(g9
g2
Ntp49
Rp50
(dp51
g13
I01
sg14
F0.2796518281787394
sg15
g48
sbs(I-4
I186
tp52
g0
(g9
g2
Ntp53
Rp54
(dp55
g13
I01
sg14
F-0.21315731567776663
sg15
g52
sbs(I188
I4
tp56
g0
(g9
g2
Ntp57
Rp58
(dp59
g13
I00
sg14
F-0.37819384653884913
sg15
g56
sbs(I3
I3
tp60
g0
(g9
g2
Ntp61
Rp62
(dp63
g13
I01
sg14
F-1.844251412321074
sg15
g60
sbs(I189
I9
tp64
g0
(g9
g2
Ntp65
Rp66
(dp67
g13
I01
sg14
F-1.387841340410564
sg15
g64
sbs(I4
I4
tp68
g0
(g9
g2
Ntp69
Rp70
(dp71
g13
I01
sg14
F-0.0041902593171271735
sg15
g68
sbs(I189
I0
tp72
g0
(g9
g2
Ntp73
Rp74
(dp75
g13
I01
sg14
F-1.025674728847112
sg15
g72
sbs(I-7
I186
tp76
g0
(g9
g2
Ntp77
Rp78
(dp79
g13
I01
sg14
F-1.46349247133345
sg15
g76
sbs(I188
I1
tp80
g0
(g9
g2
Ntp81
Rp82
(dp83
g13
I01
sg14
F0.6351317333556825
sg15
g80
sbs(I186
I6
tp84
g0
(g9
g2
Ntp85
Rp86
(dp87
g13
I01
sg14
F1.338556772607136
sg15
g84
sbs(I-3
I186
tp88
g0
(g9
g2
Ntp89
Rp90
(dp91
g13
I01
sg14
F1.2524867687279548
sg15
g88
sbs(I188
I5
tp92
g0
(g9
g2
Ntp93
Rp94
(dp95
g13
I01
sg14
F0.3277760443826329
sg15
g92
sbs(I0
I0
tp96
g0
(g9
g2
Ntp97
Rp98
(dp99
g13
I01
sg14
F1.3282267136803245
sg15
g96
sbs(I189
I8
tp100
g0
(g9
g2
Ntp101
Rp102
(dp103
g13
I01
sg14
F-1.1649711898298192
sg15
g100
sbs(I-6
I186
tp104
g0
(g9
g2
Ntp105
Rp106
(dp107
g13
I01
sg14
F0.3506129542709513
sg15
g104
sbs(I-10
I186
tp108
g0
(g9
g2
Ntp109
Rp110
(dp111
g13
I00
sg14
F0.3417219203329833
sg15
g108
sbs(I186
I8
tp112
g0
(g9
g2
Ntp113
Rp114
(dp115
g13
I01
sg14
F0.8371028586093088
sg15
g112
sbs(I188
I188
tp116
g0
(g9
g2
Ntp117
Rp118
(dp119
g13
I01
sg14
F1.3881236553076979
sg15
g116
sbs(I189
I7
tp120
g0
(g9
g2
Ntp121
Rp122
(dp123
g13
I01
sg14
F2.030610807280329
sg15
g120
sbs(I-5
I188
tp124
g0
(g9
g2
Ntp125
Rp126
(dp127
g13
I00
sg14
F-0.8441816076893197
sg15
g124
sbs(I-4
I188
tp128
g0
(g9
g2
Ntp129
Rp130
(dp131
g13
I01
sg14
F-2.2853764214657195
sg15
g128
sbs(I8
I8
tp132
g0
(g9
g2
Ntp133
Rp134
(dp135
g13
I01
sg14
F-0.6315573847400071
sg15
g132
sbs(I189
I2
tp136
g0
(g9
g2
Ntp137
Rp138
(dp139
g13
I01
sg14
F-0.8926801596403009
sg15
g136
sbs(I186
I4
tp140
g0
(g9
g2
Ntp141
Rp142
(dp143
g13
I01
sg14
F1.1769721161769562
sg15
g140
sbs(I186
I0
tp144
g0
(g9
g2
Ntp145
Rp146
(dp147
g13
I01
sg14
F-0.73331406922162
sg15
g144
sbs(I-10
I188
tp148
g0
(g9
g2
Ntp149
Rp150
(dp151
g13
I01
sg14
F-1.3165856025761018
sg15
g148
sbssS'nodes'
p152
(dp153
I0
g0
(cneat.genes
DefaultNodeGene
p154
g2
Ntp155
Rp156
(dp157
S'activation'
p158
S'relu'
p159
sS'bias'
p160
F12.03573396094797
sS'response'
p161
F1.0
sg15
I0
sS'aggregation'
p162
S'sum'
p163
sbsI1
g0
(g154
g2
Ntp164
Rp165
(dp166
g158
S'tanh'
p167
sg160
F4.825334706094943
sg161
F1.0
sg15
I1
sg162
g163
sbsI2
g0
(g154
g2
Ntp168
Rp169
(dp170
g158
g167
sg160
F-16.375196120675568
sg161
F1.0
sg15
I2
sg162
g163
sbsI3
g0
(g154
g2
Ntp171
Rp172
(dp173
g158
g167
sg160
F16.596506230470094
sg161
F1.0
sg15
I3
sg162
g163
sbsI4
g0
(g154
g2
Ntp174
Rp175
(dp176
g158
g167
sg160
F3.223456904111867
sg161
F1.0
sg15
I4
sg162
g163
sbsI5
g0
(g154
g2
Ntp177
Rp178
(dp179
g158
g167
sg160
F13.180676302666074
sg161
F1.0
sg15
I5
sg162
g163
sbsI6
g0
(g154
g2
Ntp180
Rp181
(dp182
g158
g167
sg160
F10.2671637362253
sg161
F1.0
sg15
I6
sg162
g163
sbsI7
g0
(g154
g2
Ntp183
Rp184
(dp185
g158
g167
sg160
F-2.5200166827991923
sg161
F1.0
sg15
I7
sg162
g163
sbsI8
g0
(g154
g2
Ntp186
Rp187
(dp188
g158
g167
sg160
F-11.65896917852468
sg161
F1.0
sg15
I8
sg162
g163
sbsI9
g0
(g154
g2
Ntp189
Rp190
(dp191
g158
g167
sg160
F16.434777701363533
sg161
F1.0
sg15
I9
sg162
g163
sbsI437
g0
(g154
g2
Ntp192
Rp193
(dp194
g158
g167
sg160
F2.521369817676027
sg161
F1.0
sg15
I437
sg162
g163
sbsI186
g0
(g154
g2
Ntp195
Rp196
(dp197
g158
g167
sg160
F-14.282966651193185
sg161
F1.0
sg15
I186
sg162
g163
sbsI188
g0
(g154
g2
Ntp198
Rp199
(dp200
g158
g167
sg160
F-10.133829002611034
sg161
F1.0
sg15
I188
sg162
g163
sbsI189
g0
(g154
g2
Ntp201
Rp202
(dp203
g158
g167
sg160
F13.981291392862651
sg161
F1.0
sg15
I189
sg162
g163
sbssg15
I9
sS'fitness'
p204
F0.01092595779544192
sb.