ccopy_reg
_reconstructor
p0
(cneat.genome
DefaultGenome
p1
c__builtin__
object
p2
Ntp3
Rp4
(dp5
S'connections'
p6
(dp7
(I329
I3
tp8
g0
(cneat.genes
DefaultConnectionGene
p9
g2
Ntp10
Rp11
(dp12
S'enabled'
p13
I01
sS'weight'
p14
F1.6031261686403944
sS'key'
p15
g8
sbs(I-8
I1
tp16
g0
(g9
g2
Ntp17
Rp18
(dp19
g13
I01
sg14
F-1.1051033219327646
sg15
g16
sbs(I328
I7
tp20
g0
(g9
g2
Ntp21
Rp22
(dp23
g13
I01
sg14
F-2.7550648170850254
sg15
g20
sbs(I-5
I328
tp24
g0
(g9
g2
Ntp25
Rp26
(dp27
g13
I01
sg14
F-1.1405872084377362
sg15
g24
sbs(I329
I6
tp28
g0
(g9
g2
Ntp29
Rp30
(dp31
g13
I00
sg14
F-2.01568724690158
sg15
g28
sbs(I-7
I329
tp32
g0
(g9
g2
Ntp33
Rp34
(dp35
g13
I01
sg14
F0.5966109501963854
sg15
g32
sbs(I3
I3
tp36
g0
(g9
g2
Ntp37
Rp38
(dp39
g13
I01
sg14
F1.140264209458943
sg15
g36
sbs(I-3
I329
tp40
g0
(g9
g2
Ntp41
Rp42
(dp43
g13
I00
sg14
F0.3312607578490354
sg15
g40
sbs(I4
I4
tp44
g0
(g9
g2
Ntp45
Rp46
(dp47
g13
I01
sg14
F0.9774896829510951
sg15
g44
sbs(I-9
I328
tp48
g0
(g9
g2
Ntp49
Rp50
(dp51
g13
I01
sg14
F0.7644729838809584
sg15
g48
sbs(I-4
I3
tp52
g0
(g9
g2
Ntp53
Rp54
(dp55
g13
I01
sg14
F-0.13008847483205394
sg15
g52
sbs(I3
I328
tp56
g0
(g9
g2
Ntp57
Rp58
(dp59
g13
I00
sg14
F-0.37558640192253734
sg15
g56
sbs(I328
I8
tp60
g0
(g9
g2
Ntp61
Rp62
(dp63
g13
I00
sg14
F1.6923894136112958
sg15
g60
sbs(I726
I1
tp64
g0
(g9
g2
Ntp65
Rp66
(dp67
g13
I01
sg14
F0.31879198934630704
sg15
g64
sbs(I1
I1
tp68
g0
(g9
g2
Ntp69
Rp70
(dp71
g13
I01
sg14
F3.880416326952353
sg15
g68
sbs(I-8
I329
tp72
g0
(g9
g2
Ntp73
Rp74
(dp75
g13
I01
sg14
F-0.9732034538260308
sg15
g72
sbs(I0
I0
tp76
g0
(g9
g2
Ntp77
Rp78
(dp79
g13
I00
sg14
F0.30723987383338425
sg15
g76
sbs(I-4
I329
tp80
g0
(g9
g2
Ntp81
Rp82
(dp83
g13
I01
sg14
F-1.4114315828618134
sg15
g80
sbs(I328
I9
tp84
g0
(g9
g2
Ntp85
Rp86
(dp87
g13
I01
sg14
F0.23605015497777831
sg15
g84
sbs(I-3
I1
tp88
g0
(g9
g2
Ntp89
Rp90
(dp91
g13
I01
sg14
F0.8073465488388513
sg15
g88
sbs(I8
I754
tp92
g0
(g9
g2
Ntp93
Rp94
(dp95
g13
I01
sg14
F1.4147916899147108
sg15
g92
sbs(I328
I5
tp96
g0
(g9
g2
Ntp97
Rp98
(dp99
g13
I00
sg14
F0.22414962289207427
sg15
g96
sbs(I329
I0
tp100
g0
(g9
g2
Ntp101
Rp102
(dp103
g13
I01
sg14
F0.0767930900585605
sg15
g100
sbs(I328
I1
tp104
g0
(g9
g2
Ntp105
Rp106
(dp107
g13
I00
sg14
F0.4307694309455939
sg15
g104
sbs(I328
I726
tp108
g0
(g9
g2
Ntp109
Rp110
(dp111
g13
I01
sg14
F1.3950461586832539
sg15
g108
sbs(I8
I8
tp112
g0
(g9
g2
Ntp113
Rp114
(dp115
g13
I00
sg14
F2.4241329404719902
sg15
g112
sbs(I754
I8
tp116
g0
(g9
g2
Ntp117
Rp118
(dp119
g13
I01
sg14
F3.1534759503639758
sg15
g116
sbs(I-5
I329
tp120
g0
(g9
g2
Ntp121
Rp122
(dp123
g13
I00
sg14
F2.9628406620663017
sg15
g120
sbssS'nodes'
p124
(dp125
I0
g0
(cneat.genes
DefaultNodeGene
p126
g2
Ntp127
Rp128
(dp129
S'activation'
p130
S'tanh'
p131
sS'bias'
p132
F4.088930836757104
sS'response'
p133
F1.0
sg15
I0
sS'aggregation'
p134
S'sum'
p135
sbsI1
g0
(g126
g2
Ntp136
Rp137
(dp138
g130
g131
sg132
F-16.307128715412095
sg133
F1.0
sg15
I1
sg134
g135
sbsI2
g0
(g126
g2
Ntp139
Rp140
(dp141
g130
g131
sg132
F1.4057868839787915
sg133
F1.0
sg15
I2
sg134
g135
sbsI3
g0
(g126
g2
Ntp142
Rp143
(dp144
g130
g131
sg132
F-5.916454060794628
sg133
F1.0
sg15
I3
sg134
g135
sbsI4
g0
(g126
g2
Ntp145
Rp146
(dp147
g130
g131
sg132
F3.3038962076289855
sg133
F1.0
sg15
I4
sg134
g135
sbsI5
g0
(g126
g2
Ntp148
Rp149
(dp150
g130
g131
sg132
F1.396610700501744
sg133
F1.0
sg15
I5
sg134
g135
sbsI6
g0
(g126
g2
Ntp151
Rp152
(dp153
g130
g131
sg132
F-8.650202773433783
sg133
F1.0
sg15
I6
sg134
g135
sbsI7
g0
(g126
g2
Ntp154
Rp155
(dp156
g130
g131
sg132
F-10.47243934664176
sg133
F1.0
sg15
I7
sg134
g135
sbsI8
g0
(g126
g2
Ntp157
Rp158
(dp159
g130
g131
sg132
F27.0637555188039
sg133
F1.0
sg15
I8
sg134
g135
sbsI9
g0
(g126
g2
Ntp160
Rp161
(dp162
g130
g131
sg132
F18.277904276798907
sg133
F1.0
sg15
I9
sg134
g135
sbsI328
g0
(g126
g2
Ntp163
Rp164
(dp165
g130
g131
sg132
F-14.746103066716305
sg133
F1.0
sg15
I328
sg134
g135
sbsI754
g0
(g126
g2
Ntp166
Rp167
(dp168
g130
S'relu'
p169
sg132
F-12.110300227673015
sg133
F1.0
sg15
I754
sg134
g135
sbsI726
g0
(g126
g2
Ntp170
Rp171
(dp172
g130
g131
sg132
F-15.454520037541718
sg133
F1.0
sg15
I726
sg134
g135
sbsI329
g0
(g126
g2
Ntp173
Rp174
(dp175
g130
g131
sg132
F-9.092780344073566
sg133
F1.0
sg15
I329
sg134
g135
sbssg15
I9
sS'fitness'
p176
F0.1087130456142622
sb.