ccopy_reg
_reconstructor
p0
(cneat.genome
DefaultGenome
p1
c__builtin__
object
p2
Ntp3
Rp4
(dp5
S'connections'
p6
(dp7
(I18
I9
tp8
g0
(cneat.genes
DefaultConnectionGene
p9
g2
Ntp10
Rp11
(dp12
S'enabled'
p13
I01
sS'weight'
p14
F0.012509065536208364
sS'key'
p15
g8
sbs(I-4
I18
tp16
g0
(g9
g2
Ntp17
Rp18
(dp19
g13
I01
sg14
F0.3415008386109791
sg15
g16
sbs(I-2
I18
tp20
g0
(g9
g2
Ntp21
Rp22
(dp23
g13
I01
sg14
F-0.29786058364964607
sg15
g20
sbs(I-3
I18
tp24
g0
(g9
g2
Ntp25
Rp26
(dp27
g13
I01
sg14
F0.21477920355145616
sg15
g24
sbs(I-8
I18
tp28
g0
(g9
g2
Ntp29
Rp30
(dp31
g13
I01
sg14
F2.198310295311907
sg15
g28
sbs(I18
I0
tp32
g0
(g9
g2
Ntp33
Rp34
(dp35
g13
I01
sg14
F-0.38665602626746065
sg15
g32
sbs(I-7
I18
tp36
g0
(g9
g2
Ntp37
Rp38
(dp39
g13
I01
sg14
F0.195538522323779
sg15
g36
sbs(I-5
I18
tp40
g0
(g9
g2
Ntp41
Rp42
(dp43
g13
I01
sg14
F-0.6480888506296867
sg15
g40
sbs(I18
I2
tp44
g0
(g9
g2
Ntp45
Rp46
(dp47
g13
I01
sg14
F0.2608626953634378
sg15
g44
sbs(I18
I4
tp48
g0
(g9
g2
Ntp49
Rp50
(dp51
g13
I01
sg14
F1.8452688492602598
sg15
g48
sbs(I18
I7
tp52
g0
(g9
g2
Ntp53
Rp54
(dp55
g13
I01
sg14
F-0.2587277998361843
sg15
g52
sbs(I-10
I18
tp56
g0
(g9
g2
Ntp57
Rp58
(dp59
g13
I01
sg14
F-1.1129781229383997
sg15
g56
sbs(I18
I1
tp60
g0
(g9
g2
Ntp61
Rp62
(dp63
g13
I01
sg14
F1.3983092267403636
sg15
g60
sbs(I18
I6
tp64
g0
(g9
g2
Ntp65
Rp66
(dp67
g13
I01
sg14
F1.9333726947860013
sg15
g64
sbs(I18
I8
tp68
g0
(g9
g2
Ntp69
Rp70
(dp71
g13
I01
sg14
F0.03277012747693935
sg15
g68
sbs(I18
I3
tp72
g0
(g9
g2
Ntp73
Rp74
(dp75
g13
I01
sg14
F-0.03238112958374135
sg15
g72
sbs(I-1
I18
tp76
g0
(g9
g2
Ntp77
Rp78
(dp79
g13
I01
sg14
F1.2076221034032515
sg15
g76
sbs(I18
I5
tp80
g0
(g9
g2
Ntp81
Rp82
(dp83
g13
I01
sg14
F-0.6471794546808224
sg15
g80
sbs(I-9
I18
tp84
g0
(g9
g2
Ntp85
Rp86
(dp87
g13
I01
sg14
F1.234908515935919
sg15
g84
sbs(I-6
I18
tp88
g0
(g9
g2
Ntp89
Rp90
(dp91
g13
I01
sg14
F-0.1604423264001923
sg15
g88
sbssS'nodes'
p92
(dp93
I0
g0
(cneat.genes
DefaultNodeGene
p94
g2
Ntp95
Rp96
(dp97
S'activation'
p98
S'relu'
p99
sS'bias'
p100
F10.76656585132296
sS'response'
p101
F1.0
sg15
I0
sS'aggregation'
p102
S'sum'
p103
sbsI1
g0
(g94
g2
Ntp104
Rp105
(dp106
g98
g99
sg100
F9.184541999642885
sg101
F1.0
sg15
I1
sg102
g103
sbsI2
g0
(g94
g2
Ntp107
Rp108
(dp109
g98
g99
sg100
F20.622054835908926
sg101
F1.0
sg15
I2
sg102
g103
sbsI3
g0
(g94
g2
Ntp110
Rp111
(dp112
g98
g99
sg100
F15.438702574962797
sg101
F1.0
sg15
I3
sg102
g103
sbsI4
g0
(g94
g2
Ntp113
Rp114
(dp115
g98
g99
sg100
F-6.387111282554587
sg101
F1.0
sg15
I4
sg102
g103
sbsI5
g0
(g94
g2
Ntp116
Rp117
(dp118
g98
g99
sg100
F3.5217651701180146
sg101
F1.0
sg15
I5
sg102
g103
sbsI6
g0
(g94
g2
Ntp119
Rp120
(dp121
g98
g99
sg100
F-4.899986051905298
sg101
F1.0
sg15
I6
sg102
g103
sbsI7
g0
(g94
g2
Ntp122
Rp123
(dp124
g98
g99
sg100
F4.314730810468803
sg101
F1.0
sg15
I7
sg102
g103
sbsI8
g0
(g94
g2
Ntp125
Rp126
(dp127
g98
g99
sg100
F-25.584133499824876
sg101
F1.0
sg15
I8
sg102
g103
sbsI9
g0
(g94
g2
Ntp128
Rp129
(dp130
g98
g99
sg100
F2.9625805957722857
sg101
F1.0
sg15
I9
sg102
g103
sbsI18
g0
(g94
g2
Ntp131
Rp132
(dp133
g98
g99
sg100
F12.034261303040608
sg101
F1.0
sg15
I18
sg102
g103
sbssg15
I9
sS'fitness'
p134
F-0.011540643558470176
sb.