ccopy_reg
_reconstructor
p0
(cneat.genome
DefaultGenome
p1
c__builtin__
object
p2
Ntp3
Rp4
(dp5
S'connections'
p6
(dp7
(I47
I2
tp8
g0
(cneat.genes
DefaultConnectionGene
p9
g2
Ntp10
Rp11
(dp12
S'enabled'
p13
I01
sS'weight'
p14
F-0.12177385802706364
sS'key'
p15
g8
sbs(I-14
I47
tp16
g0
(g9
g2
Ntp17
Rp18
(dp19
g13
I01
sg14
F0.9651582894914185
sg15
g16
sbs(I-5
I47
tp20
g0
(g9
g2
Ntp21
Rp22
(dp23
g13
I01
sg14
F0.8551095076278625
sg15
g20
sbs(I-19
I47
tp24
g0
(g9
g2
Ntp25
Rp26
(dp27
g13
I01
sg14
F-0.8259137044628293
sg15
g24
sbs(I-10
I47
tp28
g0
(g9
g2
Ntp29
Rp30
(dp31
g13
I01
sg14
F-0.42839905985001336
sg15
g28
sbs(I47
I6
tp32
g0
(g9
g2
Ntp33
Rp34
(dp35
g13
I01
sg14
F1.1521003099332119
sg15
g32
sbs(I47
I9
tp36
g0
(g9
g2
Ntp37
Rp38
(dp39
g13
I01
sg14
F0.08548260707799513
sg15
g36
sbs(I-15
I47
tp40
g0
(g9
g2
Ntp41
Rp42
(dp43
g13
I01
sg14
F-0.5171836651318521
sg15
g40
sbs(I-6
I47
tp44
g0
(g9
g2
Ntp45
Rp46
(dp47
g13
I01
sg14
F-0.07859366015859247
sg15
g44
sbs(I-20
I47
tp48
g0
(g9
g2
Ntp49
Rp50
(dp51
g13
I01
sg14
F0.4607780777557149
sg15
g48
sbs(I-11
I47
tp52
g0
(g9
g2
Ntp53
Rp54
(dp55
g13
I01
sg14
F0.7639594927688766
sg15
g52
sbs(I47
I1
tp56
g0
(g9
g2
Ntp57
Rp58
(dp59
g13
I01
sg14
F-0.6245666957440841
sg15
g56
sbs(I47
I8
tp60
g0
(g9
g2
Ntp61
Rp62
(dp63
g13
I00
sg14
F-0.3039698868261472
sg15
g60
sbs(I-16
I47
tp64
g0
(g9
g2
Ntp65
Rp66
(dp67
g13
I01
sg14
F1.3582176685638796
sg15
g64
sbs(I-7
I47
tp68
g0
(g9
g2
Ntp69
Rp70
(dp71
g13
I01
sg14
F-0.07289329337082662
sg15
g68
sbs(I91
I8
tp72
g0
(g9
g2
Ntp73
Rp74
(dp75
g13
I01
sg14
F0.16943187951330807
sg15
g72
sbs(I-12
I47
tp76
g0
(g9
g2
Ntp77
Rp78
(dp79
g13
I01
sg14
F0.9113705013706348
sg15
g76
sbs(I47
I5
tp80
g0
(g9
g2
Ntp81
Rp82
(dp83
g13
I01
sg14
F-0.9862881868725731
sg15
g80
sbs(I-17
I47
tp84
g0
(g9
g2
Ntp85
Rp86
(dp87
g13
I01
sg14
F1.856085887762699
sg15
g84
sbs(I-9
I47
tp88
g0
(g9
g2
Ntp89
Rp90
(dp91
g13
I01
sg14
F-0.3230402612324147
sg15
g88
sbs(I-7
I1
tp92
g0
(g9
g2
Ntp93
Rp94
(dp95
g13
I01
sg14
F1.95406632972519
sg15
g92
sbs(I47
I0
tp96
g0
(g9
g2
Ntp97
Rp98
(dp99
g13
I01
sg14
F1.2994178378960735
sg15
g96
sbs(I-8
I47
tp100
g0
(g9
g2
Ntp101
Rp102
(dp103
g13
I01
sg14
F0.7776903834883094
sg15
g100
sbs(I-13
I47
tp104
g0
(g9
g2
Ntp105
Rp106
(dp107
g13
I01
sg14
F0.5833821512755434
sg15
g104
sbs(I-18
I47
tp108
g0
(g9
g2
Ntp109
Rp110
(dp111
g13
I01
sg14
F0.9652917610864105
sg15
g108
sbs(I47
I4
tp112
g0
(g9
g2
Ntp113
Rp114
(dp115
g13
I01
sg14
F-1.3381561523248695
sg15
g112
sbs(I-2
I47
tp116
g0
(g9
g2
Ntp117
Rp118
(dp119
g13
I01
sg14
F0.18882892375821272
sg15
g116
sbs(I-3
I47
tp120
g0
(g9
g2
Ntp121
Rp122
(dp123
g13
I01
sg14
F-1.1397378173339447
sg15
g120
sbs(I47
I91
tp124
g0
(g9
g2
Ntp125
Rp126
(dp127
g13
I01
sg14
F-0.6134827231629569
sg15
g124
sbs(I-1
I47
tp128
g0
(g9
g2
Ntp129
Rp130
(dp131
g13
I01
sg14
F-0.16011348429435643
sg15
g128
sbs(I47
I3
tp132
g0
(g9
g2
Ntp133
Rp134
(dp135
g13
I01
sg14
F0.4036626622211947
sg15
g132
sbs(I-4
I47
tp136
g0
(g9
g2
Ntp137
Rp138
(dp139
g13
I01
sg14
F2.2671707766634563
sg15
g136
sbs(I47
I7
tp140
g0
(g9
g2
Ntp141
Rp142
(dp143
g13
I01
sg14
F2.7155902511607914
sg15
g140
sbssS'nodes'
p144
(dp145
I0
g0
(cneat.genes
DefaultNodeGene
p146
g2
Ntp147
Rp148
(dp149
S'activation'
p150
S'relu'
p151
sS'bias'
p152
F-9.58931295519519
sS'response'
p153
F1.0
sg15
I0
sS'aggregation'
p154
S'sum'
p155
sbsI1
g0
(g146
g2
Ntp156
Rp157
(dp158
g150
g151
sg152
F-21.778999262145728
sg153
F1.0
sg15
I1
sg154
g155
sbsI2
g0
(g146
g2
Ntp159
Rp160
(dp161
g150
g151
sg152
F11.65593151530463
sg153
F1.0
sg15
I2
sg154
g155
sbsI3
g0
(g146
g2
Ntp162
Rp163
(dp164
g150
g151
sg152
F10.967764915767706
sg153
F1.0
sg15
I3
sg154
g155
sbsI4
g0
(g146
g2
Ntp165
Rp166
(dp167
g150
g151
sg152
F-7.232679815950171
sg153
F1.0
sg15
I4
sg154
g155
sbsI5
g0
(g146
g2
Ntp168
Rp169
(dp170
g150
g151
sg152
F-12.643561426990077
sg153
F1.0
sg15
I5
sg154
g155
sbsI6
g0
(g146
g2
Ntp171
Rp172
(dp173
g150
g151
sg152
F-19.581291129203585
sg153
F1.0
sg15
I6
sg154
g155
sbsI7
g0
(g146
g2
Ntp174
Rp175
(dp176
g150
g151
sg152
F-9.477086871775578
sg153
F1.0
sg15
I7
sg154
g155
sbsI8
g0
(g146
g2
Ntp177
Rp178
(dp179
g150
g151
sg152
F-4.607703664726912
sg153
F1.0
sg15
I8
sg154
g155
sbsI9
g0
(g146
g2
Ntp180
Rp181
(dp182
g150
g151
sg152
F1.7614131629077858
sg153
F1.0
sg15
I9
sg154
g155
sbsI47
g0
(g146
g2
Ntp183
Rp184
(dp185
g150
g151
sg152
F-1.7063674932082122
sg153
F1.0
sg15
I47
sg154
g155
sbsI91
g0
(g146
g2
Ntp186
Rp187
(dp188
g150
g151
sg152
F-2.783989584583236
sg153
F1.0
sg15
I91
sg154
g155
sbssg15
I90
sS'fitness'
p189
Nsb.