ccopy_reg
_reconstructor
p0
(cneat.genome
DefaultGenome
p1
c__builtin__
object
p2
Ntp3
Rp4
(dp5
S'connections'
p6
(dp7
(I55
I4
tp8
g0
(cneat.genes
DefaultConnectionGene
p9
g2
Ntp10
Rp11
(dp12
S'enabled'
p13
I01
sS'weight'
p14
F0.7441652805172461
sS'key'
p15
g8
sbs(I-7
I8
tp16
g0
(g9
g2
Ntp17
Rp18
(dp19
g13
I01
sg14
F-0.8980877362958719
sg15
g16
sbs(I55
I5
tp20
g0
(g9
g2
Ntp21
Rp22
(dp23
g13
I01
sg14
F1.7149371731105834
sg15
g20
sbs(I-10
I55
tp24
g0
(g9
g2
Ntp25
Rp26
(dp27
g13
I01
sg14
F-1.658948628938262
sg15
g24
sbs(I-6
I55
tp28
g0
(g9
g2
Ntp29
Rp30
(dp31
g13
I01
sg14
F-1.034333575573765
sg15
g28
sbs(I-1
I55
tp32
g0
(g9
g2
Ntp33
Rp34
(dp35
g13
I01
sg14
F1.031551906884474
sg15
g32
sbs(I-4
I55
tp36
g0
(g9
g2
Ntp37
Rp38
(dp39
g13
I01
sg14
F-0.2976968807016412
sg15
g36
sbs(I55
I8
tp40
g0
(g9
g2
Ntp41
Rp42
(dp43
g13
I01
sg14
F-1.4360168935801583
sg15
g40
sbs(I-9
I55
tp44
g0
(g9
g2
Ntp45
Rp46
(dp47
g13
I01
sg14
F0.830960237259203
sg15
g44
sbs(I55
I2
tp48
g0
(g9
g2
Ntp49
Rp50
(dp51
g13
I01
sg14
F-1.5779241932388977
sg15
g48
sbs(I55
I9
tp52
g0
(g9
g2
Ntp53
Rp54
(dp55
g13
I01
sg14
F2.166024751034219
sg15
g52
sbs(I55
I3
tp56
g0
(g9
g2
Ntp57
Rp58
(dp59
g13
I01
sg14
F0.5370910348116191
sg15
g56
sbs(I-3
I55
tp60
g0
(g9
g2
Ntp61
Rp62
(dp63
g13
I00
sg14
F-0.5217562648405262
sg15
g60
sbs(I55
I0
tp64
g0
(g9
g2
Ntp65
Rp66
(dp67
g13
I01
sg14
F0.9455791459103384
sg15
g64
sbs(I-8
I55
tp68
g0
(g9
g2
Ntp69
Rp70
(dp71
g13
I01
sg14
F0.01410104061177947
sg15
g68
sbs(I55
I1
tp72
g0
(g9
g2
Ntp73
Rp74
(dp75
g13
I01
sg14
F0.461650601604339
sg15
g72
sbs(I55
I6
tp76
g0
(g9
g2
Ntp77
Rp78
(dp79
g13
I01
sg14
F-1.3431445191977007
sg15
g76
sbs(I-2
I55
tp80
g0
(g9
g2
Ntp81
Rp82
(dp83
g13
I01
sg14
F0.27177682960072047
sg15
g80
sbs(I55
I7
tp84
g0
(g9
g2
Ntp85
Rp86
(dp87
g13
I01
sg14
F0.7614410058034828
sg15
g84
sbs(I-7
I55
tp88
g0
(g9
g2
Ntp89
Rp90
(dp91
g13
I01
sg14
F1.484490824270099
sg15
g88
sbssS'nodes'
p92
(dp93
I0
g0
(cneat.genes
DefaultNodeGene
p94
g2
Ntp95
Rp96
(dp97
S'activation'
p98
S'relu'
p99
sS'bias'
p100
F8.889645773984167
sS'response'
p101
F1.0
sg15
I0
sS'aggregation'
p102
S'sum'
p103
sbsI1
g0
(g94
g2
Ntp104
Rp105
(dp106
g98
g99
sg100
F5.101449348585272
sg101
F1.0
sg15
I1
sg102
g103
sbsI2
g0
(g94
g2
Ntp107
Rp108
(dp109
g98
g99
sg100
F-2.979432666486396
sg101
F1.0
sg15
I2
sg102
g103
sbsI3
g0
(g94
g2
Ntp110
Rp111
(dp112
g98
g99
sg100
F-3.843903595924182
sg101
F1.0
sg15
I3
sg102
g103
sbsI4
g0
(g94
g2
Ntp113
Rp114
(dp115
g98
g99
sg100
F14.585500044162472
sg101
F1.0
sg15
I4
sg102
g103
sbsI5
g0
(g94
g2
Ntp116
Rp117
(dp118
g98
g99
sg100
F-19.926793127018446
sg101
F1.0
sg15
I5
sg102
g103
sbsI6
g0
(g94
g2
Ntp119
Rp120
(dp121
g98
g99
sg100
F-10.44840898532663
sg101
F1.0
sg15
I6
sg102
g103
sbsI7
g0
(g94
g2
Ntp122
Rp123
(dp124
g98
S'tanh'
p125
sg100
F9.790677774587664
sg101
F1.0
sg15
I7
sg102
g103
sbsI8
g0
(g94
g2
Ntp126
Rp127
(dp128
g98
g99
sg100
F-13.571277929169874
sg101
F1.0
sg15
I8
sg102
g103
sbsI9
g0
(g94
g2
Ntp129
Rp130
(dp131
g98
g99
sg100
F12.224373259311736
sg101
F1.0
sg15
I9
sg102
g103
sbsI55
g0
(g94
g2
Ntp132
Rp133
(dp134
g98
g99
sg100
F-3.3636621692123527
sg101
F1.0
sg15
I55
sg102
g103
sbssg15
I91
sS'fitness'
p135
F-0.0712666120779264
sb.