ccopy_reg
_reconstructor
p0
(cneat.genome
DefaultGenome
p1
c__builtin__
object
p2
Ntp3
Rp4
(dp5
S'connections'
p6
(dp7
(I-18
I80
tp8
g0
(cneat.genes
DefaultConnectionGene
p9
g2
Ntp10
Rp11
(dp12
S'enabled'
p13
I01
sS'weight'
p14
F1.3282466829317277
sS'key'
p15
g8
sbs(I80
I4
tp16
g0
(g9
g2
Ntp17
Rp18
(dp19
g13
I01
sg14
F-0.6143262579566829
sg15
g16
sbs(I-13
I80
tp20
g0
(g9
g2
Ntp21
Rp22
(dp23
g13
I01
sg14
F-0.7317550997744975
sg15
g20
sbs(I-8
I80
tp24
g0
(g9
g2
Ntp25
Rp26
(dp27
g13
I01
sg14
F0.5528681243311393
sg15
g24
sbs(I80
I0
tp28
g0
(g9
g2
Ntp29
Rp30
(dp31
g13
I01
sg14
F1.264334994422017
sg15
g28
sbs(I-17
I80
tp32
g0
(g9
g2
Ntp33
Rp34
(dp35
g13
I01
sg14
F-0.2622793341232087
sg15
g32
sbs(I-12
I80
tp36
g0
(g9
g2
Ntp37
Rp38
(dp39
g13
I01
sg14
F-0.4557824353393901
sg15
g36
sbs(I-7
I80
tp40
g0
(g9
g2
Ntp41
Rp42
(dp43
g13
I01
sg14
F0.17177716517289962
sg15
g40
sbs(I-16
I80
tp44
g0
(g9
g2
Ntp45
Rp46
(dp47
g13
I01
sg14
F-1.463353990813324
sg15
g44
sbs(I80
I5
tp48
g0
(g9
g2
Ntp49
Rp50
(dp51
g13
I01
sg14
F-0.8495259674873763
sg15
g48
sbs(I80
I8
tp52
g0
(g9
g2
Ntp53
Rp54
(dp55
g13
I01
sg14
F1.487277585149431
sg15
g52
sbs(I80
I1
tp56
g0
(g9
g2
Ntp57
Rp58
(dp59
g13
I01
sg14
F1.2276757758943442
sg15
g56
sbs(I-11
I80
tp60
g0
(g9
g2
Ntp61
Rp62
(dp63
g13
I01
sg14
F0.2864045908992753
sg15
g60
sbs(I-20
I80
tp64
g0
(g9
g2
Ntp65
Rp66
(dp67
g13
I01
sg14
F0.812203284508348
sg15
g64
sbs(I-6
I80
tp68
g0
(g9
g2
Ntp69
Rp70
(dp71
g13
I01
sg14
F-0.6813588162448928
sg15
g68
sbs(I-15
I80
tp72
g0
(g9
g2
Ntp73
Rp74
(dp75
g13
I01
sg14
F-0.497268497617927
sg15
g72
sbs(I-1
I80
tp76
g0
(g9
g2
Ntp77
Rp78
(dp79
g13
I01
sg14
F0.6631676275478968
sg15
g76
sbs(I80
I6
tp80
g0
(g9
g2
Ntp81
Rp82
(dp83
g13
I01
sg14
F-0.5230857732453986
sg15
g80
sbs(I92
I80
tp84
g0
(g9
g2
Ntp85
Rp86
(dp87
g13
I01
sg14
F-1.538559487856464
sg15
g84
sbs(I80
I9
tp88
g0
(g9
g2
Ntp89
Rp90
(dp91
g13
I01
sg14
F0.8210073910329694
sg15
g88
sbs(I-10
I80
tp92
g0
(g9
g2
Ntp93
Rp94
(dp95
g13
I00
sg14
F-1.7924873452660994
sg15
g92
sbs(I-19
I80
tp96
g0
(g9
g2
Ntp97
Rp98
(dp99
g13
I01
sg14
F-0.12548481720301455
sg15
g96
sbs(I80
I2
tp100
g0
(g9
g2
Ntp101
Rp102
(dp103
g13
I01
sg14
F-0.6186991840364187
sg15
g100
sbs(I-5
I80
tp104
g0
(g9
g2
Ntp105
Rp106
(dp107
g13
I01
sg14
F-1.9700975767529831
sg15
g104
sbs(I-14
I80
tp108
g0
(g9
g2
Ntp109
Rp110
(dp111
g13
I01
sg14
F0.19559456090410304
sg15
g108
sbs(I-10
I92
tp112
g0
(g9
g2
Ntp113
Rp114
(dp115
g13
I01
sg14
F1.4345682678119636
sg15
g112
sbs(I80
I7
tp116
g0
(g9
g2
Ntp117
Rp118
(dp119
g13
I01
sg14
F-0.16015891231121754
sg15
g116
sbs(I-9
I80
tp120
g0
(g9
g2
Ntp121
Rp122
(dp123
g13
I01
sg14
F-0.31827811907103365
sg15
g120
sbs(I-4
I80
tp124
g0
(g9
g2
Ntp125
Rp126
(dp127
g13
I01
sg14
F-0.6067728539409921
sg15
g124
sbs(I80
I3
tp128
g0
(g9
g2
Ntp129
Rp130
(dp131
g13
I01
sg14
F1.1826201374136867
sg15
g128
sbs(I-2
I80
tp132
g0
(g9
g2
Ntp133
Rp134
(dp135
g13
I01
sg14
F0.9640201316521858
sg15
g132
sbs(I-3
I80
tp136
g0
(g9
g2
Ntp137
Rp138
(dp139
g13
I01
sg14
F1.0126281702873337
sg15
g136
sbssS'nodes'
p140
(dp141
I0
g0
(cneat.genes
DefaultNodeGene
p142
g2
Ntp143
Rp144
(dp145
S'activation'
p146
S'relu'
p147
sS'bias'
p148
F-21.49404749450616
sS'response'
p149
F1.0
sg15
I0
sS'aggregation'
p150
S'sum'
p151
sbsI1
g0
(g142
g2
Ntp152
Rp153
(dp154
g146
g147
sg148
F5.065588668203738
sg149
F1.0
sg15
I1
sg150
g151
sbsI2
g0
(g142
g2
Ntp155
Rp156
(dp157
g146
g147
sg148
F-2.9265021408382363
sg149
F1.0
sg15
I2
sg150
g151
sbsI3
g0
(g142
g2
Ntp158
Rp159
(dp160
g146
g147
sg148
F-14.436960014459554
sg149
F1.0
sg15
I3
sg150
g151
sbsI4
g0
(g142
g2
Ntp161
Rp162
(dp163
g146
g147
sg148
F21.11704019563295
sg149
F1.0
sg15
I4
sg150
g151
sbsI5
g0
(g142
g2
Ntp164
Rp165
(dp166
g146
g147
sg148
F-0.6878189294401437
sg149
F1.0
sg15
I5
sg150
g151
sbsI6
g0
(g142
g2
Ntp167
Rp168
(dp169
g146
g147
sg148
F-0.22937810288564775
sg149
F1.0
sg15
I6
sg150
g151
sbsI7
g0
(g142
g2
Ntp170
Rp171
(dp172
g146
g147
sg148
F-15.648310950060452
sg149
F1.0
sg15
I7
sg150
g151
sbsI8
g0
(g142
g2
Ntp173
Rp174
(dp175
g146
g147
sg148
F-3.549972684787995
sg149
F1.0
sg15
I8
sg150
g151
sbsI9
g0
(g142
g2
Ntp176
Rp177
(dp178
g146
g147
sg148
F-2.656104448263216
sg149
F1.0
sg15
I9
sg150
g151
sbsI80
g0
(g142
g2
Ntp179
Rp180
(dp181
g146
g147
sg148
F-6.441726634693686
sg149
F1.0
sg15
I80
sg150
g151
sbsI92
g0
(g142
g2
Ntp182
Rp183
(dp184
g146
g147
sg148
F-17.662821176118474
sg149
F1.0
sg15
I92
sg150
g151
sbssg15
I92
sS'fitness'
p185
Nsb.