ccopy_reg
_reconstructor
p0
(cneat.genome
DefaultGenome
p1
c__builtin__
object
p2
Ntp3
Rp4
(dp5
S'connections'
p6
(dp7
(I86
I3
tp8
g0
(cneat.genes
DefaultConnectionGene
p9
g2
Ntp10
Rp11
(dp12
S'enabled'
p13
I01
sS'weight'
p14
F-0.7868935447786947
sS'key'
p15
g8
sbs(I86
I2
tp16
g0
(g9
g2
Ntp17
Rp18
(dp19
g13
I01
sg14
F2.0720843405356666
sg15
g16
sbs(I-10
I86
tp20
g0
(g9
g2
Ntp21
Rp22
(dp23
g13
I01
sg14
F-0.9718745648201227
sg15
g20
sbs(I-9
I86
tp24
g0
(g9
g2
Ntp25
Rp26
(dp27
g13
I01
sg14
F0.5576773957513096
sg15
g24
sbs(I-6
I86
tp28
g0
(g9
g2
Ntp29
Rp30
(dp31
g13
I01
sg14
F-0.34686800973239734
sg15
g28
sbs(I-4
I86
tp32
g0
(g9
g2
Ntp33
Rp34
(dp35
g13
I01
sg14
F0.22933922744140053
sg15
g32
sbs(I86
I5
tp36
g0
(g9
g2
Ntp37
Rp38
(dp39
g13
I01
sg14
F-0.8935025582703356
sg15
g36
sbs(I-2
I86
tp40
g0
(g9
g2
Ntp41
Rp42
(dp43
g13
I01
sg14
F1.3320106896289665
sg15
g40
sbs(I-3
I86
tp44
g0
(g9
g2
Ntp45
Rp46
(dp47
g13
I01
sg14
F2.4762635528052
sg15
g44
sbs(I86
I4
tp48
g0
(g9
g2
Ntp49
Rp50
(dp51
g13
I01
sg14
F-1.2105680226312052
sg15
g48
sbs(I86
I9
tp52
g0
(g9
g2
Ntp53
Rp54
(dp55
g13
I01
sg14
F-0.3070365150825303
sg15
g52
sbs(I86
I7
tp56
g0
(g9
g2
Ntp57
Rp58
(dp59
g13
I01
sg14
F-1.654903168503705
sg15
g56
sbs(I86
I8
tp60
g0
(g9
g2
Ntp61
Rp62
(dp63
g13
I01
sg14
F-0.5482003189982219
sg15
g60
sbs(I86
I6
tp64
g0
(g9
g2
Ntp65
Rp66
(dp67
g13
I01
sg14
F1.3498111636160828
sg15
g64
sbs(I-8
I86
tp68
g0
(g9
g2
Ntp69
Rp70
(dp71
g13
I01
sg14
F-0.015308920987742947
sg15
g68
sbs(I86
I1
tp72
g0
(g9
g2
Ntp73
Rp74
(dp75
g13
I01
sg14
F-0.06512202223344685
sg15
g72
sbs(I-1
I86
tp76
g0
(g9
g2
Ntp77
Rp78
(dp79
g13
I01
sg14
F0.24603056301985143
sg15
g76
sbs(I-7
I86
tp80
g0
(g9
g2
Ntp81
Rp82
(dp83
g13
I01
sg14
F-1.079743543173917
sg15
g80
sbs(I86
I0
tp84
g0
(g9
g2
Ntp85
Rp86
(dp87
g13
I01
sg14
F-0.7771748356313315
sg15
g84
sbs(I-5
I86
tp88
g0
(g9
g2
Ntp89
Rp90
(dp91
g13
I01
sg14
F1.9043168606060992
sg15
g88
sbssS'nodes'
p92
(dp93
I0
g0
(cneat.genes
DefaultNodeGene
p94
g2
Ntp95
Rp96
(dp97
S'activation'
p98
S'tanh'
p99
sS'bias'
p100
F8.920243916564097
sS'response'
p101
F1.0
sg15
I0
sS'aggregation'
p102
S'sum'
p103
sbsI1
g0
(g94
g2
Ntp104
Rp105
(dp106
g98
S'relu'
p107
sg100
F5.11131342726236
sg101
F1.0
sg15
I1
sg102
g103
sbsI2
g0
(g94
g2
Ntp108
Rp109
(dp110
g98
g107
sg100
F5.735067268412215
sg101
F1.0
sg15
I2
sg102
g103
sbsI3
g0
(g94
g2
Ntp111
Rp112
(dp113
g98
g107
sg100
F-21.951565654114283
sg101
F1.0
sg15
I3
sg102
g103
sbsI4
g0
(g94
g2
Ntp114
Rp115
(dp116
g98
g107
sg100
F-5.0620255576247555
sg101
F1.0
sg15
I4
sg102
g103
sbsI5
g0
(g94
g2
Ntp117
Rp118
(dp119
g98
g107
sg100
F-7.119518895910153
sg101
F1.0
sg15
I5
sg102
g103
sbsI6
g0
(g94
g2
Ntp120
Rp121
(dp122
g98
g107
sg100
F4.886844796639212
sg101
F1.0
sg15
I6
sg102
g103
sbsI7
g0
(g94
g2
Ntp123
Rp124
(dp125
g98
g107
sg100
F-4.909748982563051
sg101
F1.0
sg15
I7
sg102
g103
sbsI8
g0
(g94
g2
Ntp126
Rp127
(dp128
g98
g107
sg100
F6.215526377735704
sg101
F1.0
sg15
I8
sg102
g103
sbsI9
g0
(g94
g2
Ntp129
Rp130
(dp131
g98
g107
sg100
F-13.610490751793991
sg101
F1.0
sg15
I9
sg102
g103
sbsI86
g0
(g94
g2
Ntp132
Rp133
(dp134
g98
g107
sg100
F7.299939076375275
sg101
F1.0
sg15
I86
sg102
g103
sbssg15
I92
sS'fitness'
p135
F-0.31439836922635367
sb.