ccopy_reg
_reconstructor
p0
(cneat.genome
DefaultGenome
p1
c__builtin__
object
p2
Ntp3
Rp4
(dp5
S'connections'
p6
(dp7
(I-8
I327
tp8
g0
(cneat.genes
DefaultConnectionGene
p9
g2
Ntp10
Rp11
(dp12
S'enabled'
p13
I01
sS'weight'
p14
F-0.8171246617577734
sS'key'
p15
g8
sbs(I728
I2
tp16
g0
(g9
g2
Ntp17
Rp18
(dp19
g13
I01
sg14
F0.36136507173885574
sg15
g16
sbs(I327
I9
tp20
g0
(g9
g2
Ntp21
Rp22
(dp23
g13
I01
sg14
F-2.969529395527176
sg15
g20
sbs(I739
I2
tp24
g0
(g9
g2
Ntp25
Rp26
(dp27
g13
I01
sg14
F1.2461775786899632
sg15
g24
sbs(I3
I3
tp28
g0
(g9
g2
Ntp29
Rp30
(dp31
g13
I01
sg14
F-1.130183352833377
sg15
g28
sbs(I327
I728
tp32
g0
(g9
g2
Ntp33
Rp34
(dp35
g13
I00
sg14
F0.3031431042096545
sg15
g32
sbs(I2
I2
tp36
g0
(g9
g2
Ntp37
Rp38
(dp39
g13
I00
sg14
F-0.7488053453753454
sg15
g36
sbs(I327
I8
tp40
g0
(g9
g2
Ntp41
Rp42
(dp43
g13
I01
sg14
F0.14853923935703872
sg15
g40
sbs(I1
I1
tp44
g0
(g9
g2
Ntp45
Rp46
(dp47
g13
I01
sg14
F1.2658108398779249
sg15
g44
sbs(I327
I3
tp48
g0
(g9
g2
Ntp49
Rp50
(dp51
g13
I01
sg14
F0.15753842052734685
sg15
g48
sbs(I0
I0
tp52
g0
(g9
g2
Ntp53
Rp54
(dp55
g13
I00
sg14
F0.10216570911845367
sg15
g52
sbs(I8
I779
tp56
g0
(g9
g2
Ntp57
Rp58
(dp59
g13
I01
sg14
F0.6349072647824008
sg15
g56
sbs(I327
I7
tp60
g0
(g9
g2
Ntp61
Rp62
(dp63
g13
I01
sg14
F-2.8999160286678176
sg15
g60
sbs(I-8
I3
tp64
g0
(g9
g2
Ntp65
Rp66
(dp67
g13
I01
sg14
F-1.5243095302880874
sg15
g64
sbs(I-10
I327
tp68
g0
(g9
g2
Ntp69
Rp70
(dp71
g13
I01
sg14
F1.8478391605427655
sg15
g68
sbs(I763
I8
tp72
g0
(g9
g2
Ntp73
Rp74
(dp75
g13
I01
sg14
F-3.6446743561663664
sg15
g72
sbs(I8
I763
tp76
g0
(g9
g2
Ntp77
Rp78
(dp79
g13
I01
sg14
F0.8692650642851241
sg15
g76
sbs(I327
I2
tp80
g0
(g9
g2
Ntp81
Rp82
(dp83
g13
I00
sg14
F0.05277570596505744
sg15
g80
sbs(I-3
I327
tp84
g0
(g9
g2
Ntp85
Rp86
(dp87
g13
I00
sg14
F0.45209914014360186
sg15
g84
sbs(I-10
I728
tp88
g0
(g9
g2
Ntp89
Rp90
(dp91
g13
I01
sg14
F-0.7100187991824676
sg15
g88
sbs(I779
I8
tp92
g0
(g9
g2
Ntp93
Rp94
(dp95
g13
I01
sg14
F1.9759689517669012
sg15
g92
sbs(I327
I6
tp96
g0
(g9
g2
Ntp97
Rp98
(dp99
g13
I00
sg14
F-2.3358658598826727
sg15
g96
sbs(I8
I8
tp100
g0
(g9
g2
Ntp101
Rp102
(dp103
g13
I00
sg14
F1.3253280077241607
sg15
g100
sbs(I2
I739
tp104
g0
(g9
g2
Ntp105
Rp106
(dp107
g13
I01
sg14
F0.6570531938225768
sg15
g104
sbs(I-4
I327
tp108
g0
(g9
g2
Ntp109
Rp110
(dp111
g13
I01
sg14
F2.543906918046438
sg15
g108
sbssS'nodes'
p112
(dp113
I0
g0
(cneat.genes
DefaultNodeGene
p114
g2
Ntp115
Rp116
(dp117
S'activation'
p118
S'tanh'
p119
sS'bias'
p120
F18.879565233762275
sS'response'
p121
F1.0
sg15
I0
sS'aggregation'
p122
S'sum'
p123
sbsI1
g0
(g114
g2
Ntp124
Rp125
(dp126
g118
g119
sg120
F-14.044764331831955
sg121
F1.0
sg15
I1
sg122
g123
sbsI2
g0
(g114
g2
Ntp127
Rp128
(dp129
g118
g119
sg120
F-2.0483261238680623
sg121
F1.0
sg15
I2
sg122
g123
sbsI3
g0
(g114
g2
Ntp130
Rp131
(dp132
g118
g119
sg120
F-5.4648924013774325
sg121
F1.0
sg15
I3
sg122
g123
sbsI4
g0
(g114
g2
Ntp133
Rp134
(dp135
g118
g119
sg120
F-3.3176153001077386
sg121
F1.0
sg15
I4
sg122
g123
sbsI5
g0
(g114
g2
Ntp136
Rp137
(dp138
g118
g119
sg120
F1.1536095408262783
sg121
F1.0
sg15
I5
sg122
g123
sbsI6
g0
(g114
g2
Ntp139
Rp140
(dp141
g118
g119
sg120
F-5.465639797936345
sg121
F1.0
sg15
I6
sg122
g123
sbsI7
g0
(g114
g2
Ntp142
Rp143
(dp144
g118
g119
sg120
F-10.221554122708724
sg121
F1.0
sg15
I7
sg122
g123
sbsI8
g0
(g114
g2
Ntp145
Rp146
(dp147
g118
g119
sg120
F1.8844507830617796
sg121
F1.0
sg15
I8
sg122
g123
sbsI9
g0
(g114
g2
Ntp148
Rp149
(dp150
g118
g119
sg120
F19.06634968422021
sg121
F1.0
sg15
I9
sg122
g123
sbsI327
g0
(g114
g2
Ntp151
Rp152
(dp153
g118
g119
sg120
F-4.334795909699773
sg121
F1.0
sg15
I327
sg122
g123
sbsI779
g0
(g114
g2
Ntp154
Rp155
(dp156
g118
S'relu'
p157
sg120
F28.500360780190046
sg121
F1.0
sg15
I779
sg122
g123
sbsI739
g0
(g114
g2
Ntp158
Rp159
(dp160
g118
g119
sg120
F20.796695056458972
sg121
F1.0
sg15
I739
sg122
g123
sbsI728
g0
(g114
g2
Ntp161
Rp162
(dp163
g118
g119
sg120
F17.41297352392741
sg121
F1.0
sg15
I728
sg122
g123
sbsI763
g0
(g114
g2
Ntp164
Rp165
(dp166
g118
g119
sg120
F-1.825284837249284
sg121
F1.0
sg15
I763
sg122
g123
sbssg15
I92
sS'fitness'
p167
F0.11702123146588117
sb.