ccopy_reg
_reconstructor
p0
(cneat.genome
DefaultGenome
p1
c__builtin__
object
p2
Ntp3
Rp4
(dp5
S'connections'
p6
(dp7
(I50
I5
tp8
g0
(cneat.genes
DefaultConnectionGene
p9
g2
Ntp10
Rp11
(dp12
S'enabled'
p13
I01
sS'weight'
p14
F-0.38071609321534083
sS'key'
p15
g8
sbs(I-4
I50
tp16
g0
(g9
g2
Ntp17
Rp18
(dp19
g13
I01
sg14
F1.2991482092386872
sg15
g16
sbs(I50
I3
tp20
g0
(g9
g2
Ntp21
Rp22
(dp23
g13
I01
sg14
F0.7573504400392804
sg15
g20
sbs(I-1
I50
tp24
g0
(g9
g2
Ntp25
Rp26
(dp27
g13
I01
sg14
F0.11222841250392168
sg15
g24
sbs(I-3
I50
tp28
g0
(g9
g2
Ntp29
Rp30
(dp31
g13
I01
sg14
F0.6538149775957944
sg15
g28
sbs(I-8
I50
tp32
g0
(g9
g2
Ntp33
Rp34
(dp35
g13
I01
sg14
F-0.2062399966406985
sg15
g32
sbs(I50
I0
tp36
g0
(g9
g2
Ntp37
Rp38
(dp39
g13
I01
sg14
F1.4953398952552306
sg15
g36
sbs(I-7
I50
tp40
g0
(g9
g2
Ntp41
Rp42
(dp43
g13
I01
sg14
F0.28487636120521787
sg15
g40
sbs(I-5
I50
tp44
g0
(g9
g2
Ntp45
Rp46
(dp47
g13
I01
sg14
F-0.2088053685054757
sg15
g44
sbs(I50
I2
tp48
g0
(g9
g2
Ntp49
Rp50
(dp51
g13
I01
sg14
F0.3043919364693923
sg15
g48
sbs(I50
I4
tp52
g0
(g9
g2
Ntp53
Rp54
(dp55
g13
I01
sg14
F0.21967081891840617
sg15
g52
sbs(I50
I7
tp56
g0
(g9
g2
Ntp57
Rp58
(dp59
g13
I01
sg14
F0.6493426745009845
sg15
g56
sbs(I50
I6
tp60
g0
(g9
g2
Ntp61
Rp62
(dp63
g13
I01
sg14
F0.8901169512189664
sg15
g60
sbs(I-9
I50
tp64
g0
(g9
g2
Ntp65
Rp66
(dp67
g13
I01
sg14
F1.1611427249422257
sg15
g64
sbs(I50
I9
tp68
g0
(g9
g2
Ntp69
Rp70
(dp71
g13
I01
sg14
F-0.3116943297926472
sg15
g68
sbs(I50
I8
tp72
g0
(g9
g2
Ntp73
Rp74
(dp75
g13
I01
sg14
F0.17352005341686194
sg15
g72
sbs(I-2
I50
tp76
g0
(g9
g2
Ntp77
Rp78
(dp79
g13
I01
sg14
F0.27121249862524466
sg15
g76
sbs(I-10
I50
tp80
g0
(g9
g2
Ntp81
Rp82
(dp83
g13
I01
sg14
F-0.3011348277047445
sg15
g80
sbs(I50
I1
tp84
g0
(g9
g2
Ntp85
Rp86
(dp87
g13
I01
sg14
F-1.7033180662700849
sg15
g84
sbs(I-6
I50
tp88
g0
(g9
g2
Ntp89
Rp90
(dp91
g13
I01
sg14
F-0.367315069347142
sg15
g88
sbssS'nodes'
p92
(dp93
I0
g0
(cneat.genes
DefaultNodeGene
p94
g2
Ntp95
Rp96
(dp97
S'activation'
p98
S'relu'
p99
sS'bias'
p100
F-6.367808642765746
sS'response'
p101
F1.0
sg15
I0
sS'aggregation'
p102
S'sum'
p103
sbsI1
g0
(g94
g2
Ntp104
Rp105
(dp106
g98
g99
sg100
F-14.977316104855895
sg101
F1.0
sg15
I1
sg102
g103
sbsI2
g0
(g94
g2
Ntp107
Rp108
(dp109
g98
g99
sg100
F-3.014193804939977
sg101
F1.0
sg15
I2
sg102
g103
sbsI3
g0
(g94
g2
Ntp110
Rp111
(dp112
g98
g99
sg100
F-11.194761886683859
sg101
F1.0
sg15
I3
sg102
g103
sbsI4
g0
(g94
g2
Ntp113
Rp114
(dp115
g98
g99
sg100
F5.915132668716529
sg101
F1.0
sg15
I4
sg102
g103
sbsI5
g0
(g94
g2
Ntp116
Rp117
(dp118
g98
g99
sg100
F-8.973936956261255
sg101
F1.0
sg15
I5
sg102
g103
sbsI6
g0
(g94
g2
Ntp119
Rp120
(dp121
g98
g99
sg100
F-6.4793261123833945
sg101
F1.0
sg15
I6
sg102
g103
sbsI7
g0
(g94
g2
Ntp122
Rp123
(dp124
g98
g99
sg100
F3.0976853617618425
sg101
F1.0
sg15
I7
sg102
g103
sbsI8
g0
(g94
g2
Ntp125
Rp126
(dp127
g98
g99
sg100
F2.5573017307824637
sg101
F1.0
sg15
I8
sg102
g103
sbsI9
g0
(g94
g2
Ntp128
Rp129
(dp130
g98
g99
sg100
F-11.491868511099014
sg101
F1.0
sg15
I9
sg102
g103
sbsI50
g0
(g94
g2
Ntp131
Rp132
(dp133
g98
S'tanh'
p134
sg100
F2.7801912455574227
sg101
F1.0
sg15
I50
sg102
g103
sbssg15
I93
sS'fitness'
p135
F-0.04184771723870684
sb.