ccopy_reg
_reconstructor
p0
(cneat.genome
DefaultGenome
p1
c__builtin__
object
p2
Ntp3
Rp4
(dp5
S'connections'
p6
(dp7
(I67
I2
tp8
g0
(cneat.genes
DefaultConnectionGene
p9
g2
Ntp10
Rp11
(dp12
S'enabled'
p13
I01
sS'weight'
p14
F0.014440739586342108
sS'key'
p15
g8
sbs(I-14
I67
tp16
g0
(g9
g2
Ntp17
Rp18
(dp19
g13
I01
sg14
F-1.518422535391039
sg15
g16
sbs(I-11
I67
tp20
g0
(g9
g2
Ntp21
Rp22
(dp23
g13
I01
sg14
F-1.259283648521058
sg15
g20
sbs(I-8
I67
tp24
g0
(g9
g2
Ntp25
Rp26
(dp27
g13
I01
sg14
F0.5319219092124311
sg15
g24
sbs(I67
I9
tp28
g0
(g9
g2
Ntp29
Rp30
(dp31
g13
I01
sg14
F1.7329951101673668
sg15
g28
sbs(I-18
I67
tp32
g0
(g9
g2
Ntp33
Rp34
(dp35
g13
I01
sg14
F-1.0443253953314384
sg15
g32
sbs(I-5
I67
tp36
g0
(g9
g2
Ntp37
Rp38
(dp39
g13
I01
sg14
F-0.5917231492944958
sg15
g36
sbs(I67
I5
tp40
g0
(g9
g2
Ntp41
Rp42
(dp43
g13
I01
sg14
F-0.5322228710886543
sg15
g40
sbs(I-12
I67
tp44
g0
(g9
g2
Ntp45
Rp46
(dp47
g13
I01
sg14
F-0.07755602081539903
sg15
g44
sbs(I-1
I67
tp48
g0
(g9
g2
Ntp49
Rp50
(dp51
g13
I01
sg14
F1.5644284717381596
sg15
g48
sbs(I67
I1
tp52
g0
(g9
g2
Ntp53
Rp54
(dp55
g13
I01
sg14
F-0.5722480868095831
sg15
g52
sbs(I67
I8
tp56
g0
(g9
g2
Ntp57
Rp58
(dp59
g13
I01
sg14
F1.9369717063594236
sg15
g56
sbs(I-9
I67
tp60
g0
(g9
g2
Ntp61
Rp62
(dp63
g13
I01
sg14
F0.3511260364884431
sg15
g60
sbs(I-15
I67
tp64
g0
(g9
g2
Ntp65
Rp66
(dp67
g13
I01
sg14
F-1.2298839887293715
sg15
g64
sbs(I67
I4
tp68
g0
(g9
g2
Ntp69
Rp70
(dp71
g13
I01
sg14
F-0.4990771546480116
sg15
g68
sbs(I-10
I0
tp72
g0
(g9
g2
Ntp73
Rp74
(dp75
g13
I01
sg14
F0.19315745386777924
sg15
g72
sbs(I-19
I67
tp76
g0
(g9
g2
Ntp77
Rp78
(dp79
g13
I01
sg14
F1.0354213205460914
sg15
g76
sbs(I67
I0
tp80
g0
(g9
g2
Ntp81
Rp82
(dp83
g13
I01
sg14
F-0.2670852352856953
sg15
g80
sbs(I-16
I67
tp84
g0
(g9
g2
Ntp85
Rp86
(dp87
g13
I01
sg14
F-0.35663079527547553
sg15
g84
sbs(I-6
I67
tp88
g0
(g9
g2
Ntp89
Rp90
(dp91
g13
I01
sg14
F-1.1405662599449369
sg15
g88
sbs(I-13
I67
tp92
g0
(g9
g2
Ntp93
Rp94
(dp95
g13
I01
sg14
F0.004529474643610629
sg15
g92
sbs(I-3
I67
tp96
g0
(g9
g2
Ntp97
Rp98
(dp99
g13
I01
sg14
F0.09238570092888786
sg15
g96
sbs(I67
I7
tp100
g0
(g9
g2
Ntp101
Rp102
(dp103
g13
I01
sg14
F0.5868481945501033
sg15
g100
sbs(I-20
I67
tp104
g0
(g9
g2
Ntp105
Rp106
(dp107
g13
I01
sg14
F-1.5670942988842045
sg15
g104
sbs(I-10
I67
tp108
g0
(g9
g2
Ntp109
Rp110
(dp111
g13
I01
sg14
F0.6491960828834681
sg15
g108
sbs(I67
I3
tp112
g0
(g9
g2
Ntp113
Rp114
(dp115
g13
I01
sg14
F0.047376329127009974
sg15
g112
sbs(I-17
I67
tp116
g0
(g9
g2
Ntp117
Rp118
(dp119
g13
I01
sg14
F0.04567843643977226
sg15
g116
sbs(I-4
I67
tp120
g0
(g9
g2
Ntp121
Rp122
(dp123
g13
I01
sg14
F-1.4764218148677906
sg15
g120
sbs(I-2
I67
tp124
g0
(g9
g2
Ntp125
Rp126
(dp127
g13
I01
sg14
F1.3046512076004837
sg15
g124
sbs(I67
I6
tp128
g0
(g9
g2
Ntp129
Rp130
(dp131
g13
I01
sg14
F1.090860008667932
sg15
g128
sbs(I-7
I67
tp132
g0
(g9
g2
Ntp133
Rp134
(dp135
g13
I01
sg14
F0.14700743978785225
sg15
g132
sbssS'nodes'
p136
(dp137
I0
g0
(cneat.genes
DefaultNodeGene
p138
g2
Ntp139
Rp140
(dp141
S'activation'
p142
S'relu'
p143
sS'bias'
p144
F8.815934385485384
sS'response'
p145
F1.0
sg15
I0
sS'aggregation'
p146
S'sum'
p147
sbsI1
g0
(g138
g2
Ntp148
Rp149
(dp150
g142
g143
sg144
F-15.582943818175556
sg145
F1.0
sg15
I1
sg146
g147
sbsI2
g0
(g138
g2
Ntp151
Rp152
(dp153
g142
g143
sg144
F-5.021744409101791
sg145
F1.0
sg15
I2
sg146
g147
sbsI3
g0
(g138
g2
Ntp154
Rp155
(dp156
g142
g143
sg144
F5.243186681783788
sg145
F1.0
sg15
I3
sg146
g147
sbsI4
g0
(g138
g2
Ntp157
Rp158
(dp159
g142
g143
sg144
F-1.8479290495058678
sg145
F1.0
sg15
I4
sg146
g147
sbsI5
g0
(g138
g2
Ntp160
Rp161
(dp162
g142
g143
sg144
F-4.095281773046614
sg145
F1.0
sg15
I5
sg146
g147
sbsI6
g0
(g138
g2
Ntp163
Rp164
(dp165
g142
g143
sg144
F5.5034342167796595
sg145
F1.0
sg15
I6
sg146
g147
sbsI7
g0
(g138
g2
Ntp166
Rp167
(dp168
g142
g143
sg144
F-0.717555050409388
sg145
F1.0
sg15
I7
sg146
g147
sbsI8
g0
(g138
g2
Ntp169
Rp170
(dp171
g142
g143
sg144
F-15.05900033020196
sg145
F1.0
sg15
I8
sg146
g147
sbsI9
g0
(g138
g2
Ntp172
Rp173
(dp174
g142
g143
sg144
F6.612861003492702
sg145
F1.0
sg15
I9
sg146
g147
sbsI67
g0
(g138
g2
Ntp175
Rp176
(dp177
g142
g143
sg144
F-22.210632915505624
sg145
F1.0
sg15
I67
sg146
g147
sbssg15
I94
sS'fitness'
p178
Nsb.