ccopy_reg
_reconstructor
p0
(cneat.genome
DefaultGenome
p1
c__builtin__
object
p2
Ntp3
Rp4
(dp5
S'connections'
p6
(dp7
(I-4
I5
tp8
g0
(cneat.genes
DefaultConnectionGene
p9
g2
Ntp10
Rp11
(dp12
S'enabled'
p13
I01
sS'weight'
p14
F-0.22159575307228188
sS'key'
p15
g8
sbs(I257
I3
tp16
g0
(g9
g2
Ntp17
Rp18
(dp19
g13
I00
sg14
F-0.17209485431166607
sg15
g16
sbs(I255
I8
tp20
g0
(g9
g2
Ntp21
Rp22
(dp23
g13
I01
sg14
F1.187254439349373
sg15
g20
sbs(I-9
I255
tp24
g0
(g9
g2
Ntp25
Rp26
(dp27
g13
I01
sg14
F0.5105147894481268
sg15
g24
sbs(I6
I6
tp28
g0
(g9
g2
Ntp29
Rp30
(dp31
g13
I01
sg14
F0.19420714354826552
sg15
g28
sbs(I257
I717
tp32
g0
(g9
g2
Ntp33
Rp34
(dp35
g13
I01
sg14
F2.726784150647702
sg15
g32
sbs(I257
I6
tp36
g0
(g9
g2
Ntp37
Rp38
(dp39
g13
I00
sg14
F-0.5450764691113558
sg15
g36
sbs(I-5
I255
tp40
g0
(g9
g2
Ntp41
Rp42
(dp43
g13
I01
sg14
F2.1030758149438236
sg15
g40
sbs(I740
I1
tp44
g0
(g9
g2
Ntp45
Rp46
(dp47
g13
I01
sg14
F-1.1882035109702012
sg15
g44
sbs(I257
I2
tp48
g0
(g9
g2
Ntp49
Rp50
(dp51
g13
I01
sg14
F0.805762526094984
sg15
g48
sbs(I-5
I257
tp52
g0
(g9
g2
Ntp53
Rp54
(dp55
g13
I01
sg14
F0.16316412529368535
sg15
g52
sbs(I3
I3
tp56
g0
(g9
g2
Ntp57
Rp58
(dp59
g13
I00
sg14
F-0.8800594461135852
sg15
g56
sbs(I255
I4
tp60
g0
(g9
g2
Ntp61
Rp62
(dp63
g13
I00
sg14
F-0.3306480756624396
sg15
g60
sbs(I-10
I255
tp64
g0
(g9
g2
Ntp65
Rp66
(dp67
g13
I01
sg14
F2.8655822861528706
sg15
g64
sbs(I255
I0
tp68
g0
(g9
g2
Ntp69
Rp70
(dp71
g13
I00
sg14
F1.3929205223234709
sg15
g68
sbs(I257
I5
tp72
g0
(g9
g2
Ntp73
Rp74
(dp75
g13
I00
sg14
F1.894783130881817
sg15
g72
sbs(I2
I2
tp76
g0
(g9
g2
Ntp77
Rp78
(dp79
g13
I01
sg14
F-3.023932885467575
sg15
g76
sbs(I255
I3
tp80
g0
(g9
g2
Ntp81
Rp82
(dp83
g13
I01
sg14
F1.2284205322181592
sg15
g80
sbs(I-3
I255
tp84
g0
(g9
g2
Ntp85
Rp86
(dp87
g13
I01
sg14
F-1.4586126735487277
sg15
g84
sbs(I255
I255
tp88
g0
(g9
g2
Ntp89
Rp90
(dp91
g13
I01
sg14
F-0.5538420895732699
sg15
g88
sbs(I-7
I255
tp92
g0
(g9
g2
Ntp93
Rp94
(dp95
g13
I01
sg14
F1.0344241641437535
sg15
g92
sbs(I717
I4
tp96
g0
(g9
g2
Ntp97
Rp98
(dp99
g13
I01
sg14
F-0.905317360536018
sg15
g96
sbs(I257
I4
tp100
g0
(g9
g2
Ntp101
Rp102
(dp103
g13
I00
sg14
F0.824943106877742
sg15
g100
sbs(I-2
I255
tp104
g0
(g9
g2
Ntp105
Rp106
(dp107
g13
I00
sg14
F-0.22781003260172084
sg15
g104
sbs(I257
I9
tp108
g0
(g9
g2
Ntp109
Rp110
(dp111
g13
I01
sg14
F-2.251693038458842
sg15
g108
sbs(I257
I411
tp112
g0
(g9
g2
Ntp113
Rp114
(dp115
g13
I00
sg14
F2.129593520722994
sg15
g112
sbs(I257
I740
tp116
g0
(g9
g2
Ntp117
Rp118
(dp119
g13
I01
sg14
F1.4268873457453213
sg15
g116
sbs(I257
I257
tp120
g0
(g9
g2
Ntp121
Rp122
(dp123
g13
I01
sg14
F-3.1838987411363036
sg15
g120
sbs(I-3
I4
tp124
g0
(g9
g2
Ntp125
Rp126
(dp127
g13
I01
sg14
F0.5102679424158794
sg15
g124
sbs(I411
I3
tp128
g0
(g9
g2
Ntp129
Rp130
(dp131
g13
I00
sg14
F2.511450356273018
sg15
g128
sbs(I255
I1
tp132
g0
(g9
g2
Ntp133
Rp134
(dp135
g13
I01
sg14
F1.0495013301943537
sg15
g132
sbssS'nodes'
p136
(dp137
I0
g0
(cneat.genes
DefaultNodeGene
p138
g2
Ntp139
Rp140
(dp141
S'activation'
p142
S'tanh'
p143
sS'bias'
p144
F3.930223730986515
sS'response'
p145
F1.0
sg15
I0
sS'aggregation'
p146
S'sum'
p147
sbsI1
g0
(g138
g2
Ntp148
Rp149
(dp150
g142
g143
sg144
F0.5269231921439225
sg145
F1.0
sg15
I1
sg146
g147
sbsI2
g0
(g138
g2
Ntp151
Rp152
(dp153
g142
g143
sg144
F-9.526993858182609
sg145
F1.0
sg15
I2
sg146
g147
sbsI3
g0
(g138
g2
Ntp154
Rp155
(dp156
g142
g143
sg144
F7.6776598167049634
sg145
F1.0
sg15
I3
sg146
g147
sbsI4
g0
(g138
g2
Ntp157
Rp158
(dp159
g142
g143
sg144
F-8.637719341503214
sg145
F1.0
sg15
I4
sg146
g147
sbsI5
g0
(g138
g2
Ntp160
Rp161
(dp162
g142
g143
sg144
F20.719788905565167
sg145
F1.0
sg15
I5
sg146
g147
sbsI6
g0
(g138
g2
Ntp163
Rp164
(dp165
g142
g143
sg144
F20.763277240580344
sg145
F1.0
sg15
I6
sg146
g147
sbsI7
g0
(g138
g2
Ntp166
Rp167
(dp168
g142
g143
sg144
F-9.458492374485946
sg145
F1.0
sg15
I7
sg146
g147
sbsI8
g0
(g138
g2
Ntp169
Rp170
(dp171
g142
g143
sg144
F-15.060060073082639
sg145
F1.0
sg15
I8
sg146
g147
sbsI9
g0
(g138
g2
Ntp172
Rp173
(dp174
g142
g143
sg144
F1.746212985520076
sg145
F1.0
sg15
I9
sg146
g147
sbsI257
g0
(g138
g2
Ntp175
Rp176
(dp177
g142
g143
sg144
F-16.05078063023908
sg145
F1.0
sg15
I257
sg146
g147
sbsI717
g0
(g138
g2
Ntp178
Rp179
(dp180
g142
g143
sg144
F-15.279980321941396
sg145
F1.0
sg15
I717
sg146
g147
sbsI740
g0
(g138
g2
Ntp181
Rp182
(dp183
g142
g143
sg144
F7.557981133474032
sg145
F1.0
sg15
I740
sg146
g147
sbsI411
g0
(g138
g2
Ntp184
Rp185
(dp186
g142
g143
sg144
F4.063535040151934
sg145
F1.0
sg15
I411
sg146
g147
sbsI255
g0
(g138
g2
Ntp187
Rp188
(dp189
g142
g143
sg144
F17.254719835120753
sg145
F1.0
sg15
I255
sg146
g147
sbssg15
I95
sS'fitness'
p190
Nsb.