ccopy_reg
_reconstructor
p0
(cneat.genome
DefaultGenome
p1
c__builtin__
object
p2
Ntp3
Rp4
(dp5
S'connections'
p6
(dp7
(I-20
I53
tp8
g0
(cneat.genes
DefaultConnectionGene
p9
g2
Ntp10
Rp11
(dp12
S'enabled'
p13
I01
sS'weight'
p14
F-0.11613867727331201
sS'key'
p15
g8
sbs(I-5
I53
tp16
g0
(g9
g2
Ntp17
Rp18
(dp19
g13
I01
sg14
F-0.5418941414115109
sg15
g16
sbs(I53
I3
tp20
g0
(g9
g2
Ntp21
Rp22
(dp23
g13
I01
sg14
F0.833551025535228
sg15
g20
sbs(I-2
I53
tp24
g0
(g9
g2
Ntp25
Rp26
(dp27
g13
I01
sg14
F0.1644219251416746
sg15
g24
sbs(I-16
I53
tp28
g0
(g9
g2
Ntp29
Rp30
(dp31
g13
I01
sg14
F0.16214485082667557
sg15
g28
sbs(I53
I7
tp32
g0
(g9
g2
Ntp33
Rp34
(dp35
g13
I01
sg14
F2.2841681997970738
sg15
g32
sbs(I53
I2
tp36
g0
(g9
g2
Ntp37
Rp38
(dp39
g13
I01
sg14
F-1.132877747676508
sg15
g36
sbs(I53
I9
tp40
g0
(g9
g2
Ntp41
Rp42
(dp43
g13
I01
sg14
F0.040281390798989326
sg15
g40
sbs(I53
I6
tp44
g0
(g9
g2
Ntp45
Rp46
(dp47
g13
I01
sg14
F0.35401019504913667
sg15
g44
sbs(I-6
I53
tp48
g0
(g9
g2
Ntp49
Rp50
(dp51
g13
I01
sg14
F-0.7035581338551229
sg15
g48
sbs(I-11
I53
tp52
g0
(g9
g2
Ntp53
Rp54
(dp55
g13
I01
sg14
F-0.1733307466387477
sg15
g52
sbs(I53
I1
tp56
g0
(g9
g2
Ntp57
Rp58
(dp59
g13
I01
sg14
F0.6392089388418809
sg15
g56
sbs(I-3
I53
tp60
g0
(g9
g2
Ntp61
Rp62
(dp63
g13
I01
sg14
F0.042223833515102394
sg15
g60
sbs(I53
I8
tp64
g0
(g9
g2
Ntp65
Rp66
(dp67
g13
I01
sg14
F0.19502590540995773
sg15
g64
sbs(I53
I5
tp68
g0
(g9
g2
Ntp69
Rp70
(dp71
g13
I01
sg14
F-0.3324001478491415
sg15
g68
sbs(I-7
I53
tp72
g0
(g9
g2
Ntp73
Rp74
(dp75
g13
I01
sg14
F-1.3031612889585429
sg15
g72
sbs(I-14
I53
tp76
g0
(g9
g2
Ntp77
Rp78
(dp79
g13
I01
sg14
F0.29181629258820296
sg15
g76
sbs(I-19
I53
tp80
g0
(g9
g2
Ntp81
Rp82
(dp83
g13
I00
sg14
F0.6608968813407199
sg15
g80
sbs(I-1
I53
tp84
g0
(g9
g2
Ntp85
Rp86
(dp87
g13
I01
sg14
F0.2666182736507593
sg15
g84
sbs(I53
I0
tp88
g0
(g9
g2
Ntp89
Rp90
(dp91
g13
I00
sg14
F0.7810417751439409
sg15
g88
sbs(I-12
I53
tp92
g0
(g9
g2
Ntp93
Rp94
(dp95
g13
I01
sg14
F0.9624050677926028
sg15
g92
sbs(I-17
I53
tp96
g0
(g9
g2
Ntp97
Rp98
(dp99
g13
I01
sg14
F-1.608075575928622
sg15
g96
sbs(I-4
I53
tp100
g0
(g9
g2
Ntp101
Rp102
(dp103
g13
I01
sg14
F1.0146261901912859
sg15
g100
sbs(I-15
I53
tp104
g0
(g9
g2
Ntp105
Rp106
(dp107
g13
I01
sg14
F-0.08947024959607486
sg15
g104
sbs(I53
I4
tp108
g0
(g9
g2
Ntp109
Rp110
(dp111
g13
I01
sg14
F0.6108315496862018
sg15
g108
sbs(I-9
I53
tp112
g0
(g9
g2
Ntp113
Rp114
(dp115
g13
I01
sg14
F1.4542153346721864
sg15
g112
sbs(I-18
I53
tp116
g0
(g9
g2
Ntp117
Rp118
(dp119
g13
I01
sg14
F-1.8028356264782377
sg15
g116
sbs(I-8
I53
tp120
g0
(g9
g2
Ntp121
Rp122
(dp123
g13
I01
sg14
F-1.9202644697059104
sg15
g120
sbs(I-10
I53
tp124
g0
(g9
g2
Ntp125
Rp126
(dp127
g13
I01
sg14
F0.07311565949082591
sg15
g124
sbs(I-13
I53
tp128
g0
(g9
g2
Ntp129
Rp130
(dp131
g13
I01
sg14
F0.6492605878762051
sg15
g128
sbssS'nodes'
p132
(dp133
I0
g0
(cneat.genes
DefaultNodeGene
p134
g2
Ntp135
Rp136
(dp137
S'activation'
p138
S'relu'
p139
sS'bias'
p140
F-5.013156350959244
sS'response'
p141
F1.0
sg15
I0
sS'aggregation'
p142
S'sum'
p143
sbsI1
g0
(g134
g2
Ntp144
Rp145
(dp146
g138
g139
sg140
F14.771176189440743
sg141
F1.0
sg15
I1
sg142
g143
sbsI2
g0
(g134
g2
Ntp147
Rp148
(dp149
g138
g139
sg140
F6.0870993663913335
sg141
F1.0
sg15
I2
sg142
g143
sbsI3
g0
(g134
g2
Ntp150
Rp151
(dp152
g138
g139
sg140
F4.13936889853149
sg141
F1.0
sg15
I3
sg142
g143
sbsI4
g0
(g134
g2
Ntp153
Rp154
(dp155
g138
g139
sg140
F4.332300266551581
sg141
F1.0
sg15
I4
sg142
g143
sbsI5
g0
(g134
g2
Ntp156
Rp157
(dp158
g138
g139
sg140
F-13.602014747222187
sg141
F1.0
sg15
I5
sg142
g143
sbsI6
g0
(g134
g2
Ntp159
Rp160
(dp161
g138
g139
sg140
F2.661636389158497
sg141
F1.0
sg15
I6
sg142
g143
sbsI7
g0
(g134
g2
Ntp162
Rp163
(dp164
g138
g139
sg140
F-6.311334835305702
sg141
F1.0
sg15
I7
sg142
g143
sbsI8
g0
(g134
g2
Ntp165
Rp166
(dp167
g138
g139
sg140
F18.00674699210099
sg141
F1.0
sg15
I8
sg142
g143
sbsI9
g0
(g134
g2
Ntp168
Rp169
(dp170
g138
g139
sg140
F14.282380331741104
sg141
F1.0
sg15
I9
sg142
g143
sbsI53
g0
(g134
g2
Ntp171
Rp172
(dp173
g138
g139
sg140
F20.445030458563515
sg141
F1.0
sg15
I53
sg142
g143
sbssg15
I95
sS'fitness'
p174
Nsb.