ccopy_reg
_reconstructor
p0
(cneat.genome
DefaultGenome
p1
c__builtin__
object
p2
Ntp3
Rp4
(dp5
S'connections'
p6
(dp7
sS'nodes'
p8
(dp9
I0
g0
(cneat.genes
DefaultNodeGene
p10
g2
Ntp11
Rp12
(dp13
S'activation'
p14
S'tanh'
p15
sS'bias'
p16
F29.552983272167292
sS'response'
p17
F1.0
sS'key'
p18
I0
sS'aggregation'
p19
S'sum'
p20
sbsI1
g0
(g10
g2
Ntp21
Rp22
(dp23
g14
S'relu'
p24
sg16
F4.577787931686394
sg17
F1.0
sg18
I1
sg19
g20
sbsI2
g0
(g10
g2
Ntp25
Rp26
(dp27
g14
g24
sg16
F3.4735983047989327
sg17
F1.0
sg18
I2
sg19
g20
sbsI3
g0
(g10
g2
Ntp28
Rp29
(dp30
g14
g24
sg16
F-6.632850692712009
sg17
F1.0
sg18
I3
sg19
g20
sbsI4
g0
(g10
g2
Ntp31
Rp32
(dp33
g14
g24
sg16
F-8.3041512544266
sg17
F1.0
sg18
I4
sg19
g20
sbsI5
g0
(g10
g2
Ntp34
Rp35
(dp36
g14
g24
sg16
F2.9058275190347214
sg17
F1.0
sg18
I5
sg19
g20
sbsI6
g0
(g10
g2
Ntp37
Rp38
(dp39
g14
g24
sg16
F2.1992786094728847
sg17
F1.0
sg18
I6
sg19
g20
sbsI7
g0
(g10
g2
Ntp40
Rp41
(dp42
g14
g24
sg16
F4.104504200591164
sg17
F1.0
sg18
I7
sg19
g20
sbsI8
g0
(g10
g2
Ntp43
Rp44
(dp45
g14
g24
sg16
F-3.4513820235204262
sg17
F1.0
sg18
I8
sg19
g20
sbsI9
g0
(g10
g2
Ntp46
Rp47
(dp48
g14
g24
sg16
F0.5032468972584636
sg17
F1.0
sg18
I9
sg19
g20
sbssg18
I96
sS'fitness'
p49
F-0.20089221386712053
sb.