ccopy_reg
_reconstructor
p0
(cneat.genome
DefaultGenome
p1
c__builtin__
object
p2
Ntp3
Rp4
(dp5
S'connections'
p6
(dp7
(I-4
I5
tp8
g0
(cneat.genes
DefaultConnectionGene
p9
g2
Ntp10
Rp11
(dp12
S'enabled'
p13
I01
sS'weight'
p14
F-0.5532584597344419
sS'key'
p15
g8
sbs(I257
I1
tp16
g0
(g9
g2
Ntp17
Rp18
(dp19
g13
I00
sg14
F0.0483619967653868
sg15
g16
sbs(I257
I3
tp20
g0
(g9
g2
Ntp21
Rp22
(dp23
g13
I00
sg14
F1.058974175547083
sg15
g20
sbs(I255
I8
tp24
g0
(g9
g2
Ntp25
Rp26
(dp27
g13
I01
sg14
F1.3954882075535218
sg15
g24
sbs(I-9
I255
tp28
g0
(g9
g2
Ntp29
Rp30
(dp31
g13
I01
sg14
F0.3030781762047354
sg15
g28
sbs(I6
I6
tp32
g0
(g9
g2
Ntp33
Rp34
(dp35
g13
I00
sg14
F-1.2340908354369005
sg15
g32
sbs(I257
I717
tp36
g0
(g9
g2
Ntp37
Rp38
(dp39
g13
I01
sg14
F0.44747959359111444
sg15
g36
sbs(I257
I6
tp40
g0
(g9
g2
Ntp41
Rp42
(dp43
g13
I00
sg14
F-0.38510858419669347
sg15
g40
sbs(I-5
I255
tp44
g0
(g9
g2
Ntp45
Rp46
(dp47
g13
I01
sg14
F-2.286264960226155
sg15
g44
sbs(I255
I0
tp48
g0
(g9
g2
Ntp49
Rp50
(dp51
g13
I00
sg14
F-0.23177067682878777
sg15
g48
sbs(I257
I2
tp52
g0
(g9
g2
Ntp53
Rp54
(dp55
g13
I01
sg14
F1.200173606362543
sg15
g52
sbs(I-5
I257
tp56
g0
(g9
g2
Ntp57
Rp58
(dp59
g13
I01
sg14
F-0.6434595624464049
sg15
g56
sbs(I3
I3
tp60
g0
(g9
g2
Ntp61
Rp62
(dp63
g13
I00
sg14
F1.7205339851465489
sg15
g60
sbs(I255
I4
tp64
g0
(g9
g2
Ntp65
Rp66
(dp67
g13
I00
sg14
F-0.761349387814604
sg15
g64
sbs(I740
I1
tp68
g0
(g9
g2
Ntp69
Rp70
(dp71
g13
I01
sg14
F0.32007339348051617
sg15
g68
sbs(I780
I6
tp72
g0
(g9
g2
Ntp73
Rp74
(dp75
g13
I01
sg14
F-1.9514495275137387
sg15
g72
sbs(I257
I5
tp76
g0
(g9
g2
Ntp77
Rp78
(dp79
g13
I00
sg14
F2.0376646750853356
sg15
g76
sbs(I255
I3
tp80
g0
(g9
g2
Ntp81
Rp82
(dp83
g13
I01
sg14
F1.5240631603717851
sg15
g80
sbs(I257
I411
tp84
g0
(g9
g2
Ntp85
Rp86
(dp87
g13
I01
sg14
F1.968156106411072
sg15
g84
sbs(I255
I255
tp88
g0
(g9
g2
Ntp89
Rp90
(dp91
g13
I01
sg14
F-0.44329501703274854
sg15
g88
sbs(I-7
I255
tp92
g0
(g9
g2
Ntp93
Rp94
(dp95
g13
I01
sg14
F1.5990971320068503
sg15
g92
sbs(I-10
I255
tp96
g0
(g9
g2
Ntp97
Rp98
(dp99
g13
I01
sg14
F2.8985072175034023
sg15
g96
sbs(I717
I4
tp100
g0
(g9
g2
Ntp101
Rp102
(dp103
g13
I01
sg14
F-0.7213698439418713
sg15
g100
sbs(I257
I4
tp104
g0
(g9
g2
Ntp105
Rp106
(dp107
g13
I00
sg14
F-0.18110188828361617
sg15
g104
sbs(I-2
I255
tp108
g0
(g9
g2
Ntp109
Rp110
(dp111
g13
I00
sg14
F0.1585601826516554
sg15
g108
sbs(I257
I9
tp112
g0
(g9
g2
Ntp113
Rp114
(dp115
g13
I01
sg14
F-1.3051875721793336
sg15
g112
sbs(I6
I780
tp116
g0
(g9
g2
Ntp117
Rp118
(dp119
g13
I01
sg14
F1.3513252095680395
sg15
g116
sbs(I-3
I255
tp120
g0
(g9
g2
Ntp121
Rp122
(dp123
g13
I01
sg14
F1.475593476777159
sg15
g120
sbs(I257
I740
tp124
g0
(g9
g2
Ntp125
Rp126
(dp127
g13
I01
sg14
F0.610811267150512
sg15
g124
sbs(I257
I257
tp128
g0
(g9
g2
Ntp129
Rp130
(dp131
g13
I01
sg14
F-2.602017881557233
sg15
g128
sbs(I-3
I4
tp132
g0
(g9
g2
Ntp133
Rp134
(dp135
g13
I01
sg14
F-0.6258812957081171
sg15
g132
sbs(I411
I3
tp136
g0
(g9
g2
Ntp137
Rp138
(dp139
g13
I00
sg14
F1.4908924886193327
sg15
g136
sbs(I255
I1
tp140
g0
(g9
g2
Ntp141
Rp142
(dp143
g13
I01
sg14
F0.687537926414816
sg15
g140
sbssS'nodes'
p144
(dp145
I0
g0
(cneat.genes
DefaultNodeGene
p146
g2
Ntp147
Rp148
(dp149
S'activation'
p150
S'tanh'
p151
sS'bias'
p152
F-11.253160493357965
sS'response'
p153
F1.0
sg15
I0
sS'aggregation'
p154
S'sum'
p155
sbsI1
g0
(g146
g2
Ntp156
Rp157
(dp158
g150
g151
sg152
F0.13256001166720416
sg153
F1.0
sg15
I1
sg154
g155
sbsI2
g0
(g146
g2
Ntp159
Rp160
(dp161
g150
g151
sg152
F-8.229395766902506
sg153
F1.0
sg15
I2
sg154
g155
sbsI3
g0
(g146
g2
Ntp162
Rp163
(dp164
g150
g151
sg152
F6.789703688247259
sg153
F1.0
sg15
I3
sg154
g155
sbsI4
g0
(g146
g2
Ntp165
Rp166
(dp167
g150
g151
sg152
F-10.398679475799167
sg153
F1.0
sg15
I4
sg154
g155
sbsI5
g0
(g146
g2
Ntp168
Rp169
(dp170
g150
g151
sg152
F20.527376444519913
sg153
F1.0
sg15
I5
sg154
g155
sbsI6
g0
(g146
g2
Ntp171
Rp172
(dp173
g150
g151
sg152
F20.661359454102772
sg153
F1.0
sg15
I6
sg154
g155
sbsI7
g0
(g146
g2
Ntp174
Rp175
(dp176
g150
g151
sg152
F-10.238626440413178
sg153
F1.0
sg15
I7
sg154
g155
sbsI8
g0
(g146
g2
Ntp177
Rp178
(dp179
g150
g151
sg152
F-13.986918764634337
sg153
F1.0
sg15
I8
sg154
g155
sbsI9
g0
(g146
g2
Ntp180
Rp181
(dp182
g150
g151
sg152
F1.2971606889152845
sg153
F1.0
sg15
I9
sg154
g155
sbsI257
g0
(g146
g2
Ntp183
Rp184
(dp185
g150
g151
sg152
F-15.627969111485154
sg153
F1.0
sg15
I257
sg154
g155
sbsI717
g0
(g146
g2
Ntp186
Rp187
(dp188
g150
S'relu'
p189
sg152
F0.6721557168865177
sg153
F1.0
sg15
I717
sg154
g155
sbsI740
g0
(g146
g2
Ntp190
Rp191
(dp192
g150
g189
sg152
F8.205211332577257
sg153
F1.0
sg15
I740
sg154
g155
sbsI411
g0
(g146
g2
Ntp193
Rp194
(dp195
g150
g151
sg152
F4.276024159201086
sg153
F1.0
sg15
I411
sg154
g155
sbsI780
g0
(g146
g2
Ntp196
Rp197
(dp198
g150
g151
sg152
F-2.4556344412651234
sg153
F1.0
sg15
I780
sg154
g155
sbsI255
g0
(g146
g2
Ntp199
Rp200
(dp201
g150
g151
sg152
F3.27769245155006
sg153
F1.0
sg15
I255
sg154
g155
sbssg15
I96
sS'fitness'
p202
Nsb.