ccopy_reg
_reconstructor
p0
(cneat.genome
DefaultGenome
p1
c__builtin__
object
p2
Ntp3
Rp4
(dp5
S'connections'
p6
(dp7
(I-20
I79
tp8
g0
(cneat.genes
DefaultConnectionGene
p9
g2
Ntp10
Rp11
(dp12
S'enabled'
p13
I01
sS'weight'
p14
F0.5679885035200659
sS'key'
p15
g8
sbs(I-11
I79
tp16
g0
(g9
g2
Ntp17
Rp18
(dp19
g13
I01
sg14
F-0.46237534222794696
sg15
g16
sbs(I-2
I79
tp20
g0
(g9
g2
Ntp21
Rp22
(dp23
g13
I01
sg14
F-0.8141130373648879
sg15
g20
sbs(I-10
I79
tp24
g0
(g9
g2
Ntp25
Rp26
(dp27
g13
I01
sg14
F0.27868839889057756
sg15
g24
sbs(I79
I3
tp28
g0
(g9
g2
Ntp29
Rp30
(dp31
g13
I01
sg14
F1.4258914368755027
sg15
g28
sbs(I-4
I79
tp32
g0
(g9
g2
Ntp33
Rp34
(dp35
g13
I01
sg14
F-0.9601026935572717
sg15
g32
sbs(I93
I7
tp36
g0
(g9
g2
Ntp37
Rp38
(dp39
g13
I01
sg14
F-0.07664919407206075
sg15
g36
sbs(I79
I7
tp40
g0
(g9
g2
Ntp41
Rp42
(dp43
g13
I00
sg14
F-0.15644066045320323
sg15
g40
sbs(I-1
I79
tp44
g0
(g9
g2
Ntp45
Rp46
(dp47
g13
I01
sg14
F-0.4706777372846722
sg15
g44
sbs(I-12
I79
tp48
g0
(g9
g2
Ntp49
Rp50
(dp51
g13
I01
sg14
F-0.1294099634252851
sg15
g48
sbs(I79
I2
tp52
g0
(g9
g2
Ntp53
Rp54
(dp55
g13
I01
sg14
F-0.3620083734725627
sg15
g52
sbs(I-14
I79
tp56
g0
(g9
g2
Ntp57
Rp58
(dp59
g13
I01
sg14
F0.12747448457712238
sg15
g56
sbs(I-5
I79
tp60
g0
(g9
g2
Ntp61
Rp62
(dp63
g13
I01
sg14
F-0.12442636007759822
sg15
g60
sbs(I-13
I79
tp64
g0
(g9
g2
Ntp65
Rp66
(dp67
g13
I01
sg14
F-1.125788588268431
sg15
g64
sbs(I79
I6
tp68
g0
(g9
g2
Ntp69
Rp70
(dp71
g13
I01
sg14
F-0.28731480789594394
sg15
g68
sbs(I79
I9
tp72
g0
(g9
g2
Ntp73
Rp74
(dp75
g13
I01
sg14
F1.3394305982788044
sg15
g72
sbs(I-15
I79
tp76
g0
(g9
g2
Ntp77
Rp78
(dp79
g13
I01
sg14
F0.0651211376488097
sg15
g76
sbs(I-6
I79
tp80
g0
(g9
g2
Ntp81
Rp82
(dp83
g13
I01
sg14
F0.6015934072648583
sg15
g80
sbs(I79
I1
tp84
g0
(g9
g2
Ntp85
Rp86
(dp87
g13
I01
sg14
F0.9164568223494376
sg15
g84
sbs(I79
I93
tp88
g0
(g9
g2
Ntp89
Rp90
(dp91
g13
I01
sg14
F1.1539234727413834
sg15
g88
sbs(I79
I8
tp92
g0
(g9
g2
Ntp93
Rp94
(dp95
g13
I01
sg14
F-0.3221146198576964
sg15
g92
sbs(I-9
I79
tp96
g0
(g9
g2
Ntp97
Rp98
(dp99
g13
I01
sg14
F0.9060728622263392
sg15
g96
sbs(I-16
I79
tp100
g0
(g9
g2
Ntp101
Rp102
(dp103
g13
I01
sg14
F0.389777029178166
sg15
g100
sbs(I-7
I79
tp104
g0
(g9
g2
Ntp105
Rp106
(dp107
g13
I01
sg14
F-0.7399005807658103
sg15
g104
sbs(I79
I5
tp108
g0
(g9
g2
Ntp109
Rp110
(dp111
g13
I01
sg14
F2.599827309076443
sg15
g108
sbs(I-17
I79
tp112
g0
(g9
g2
Ntp113
Rp114
(dp115
g13
I01
sg14
F-0.013502516761740524
sg15
g112
sbs(I-19
I79
tp116
g0
(g9
g2
Ntp117
Rp118
(dp119
g13
I01
sg14
F0.9542622264630062
sg15
g116
sbs(I79
I0
tp120
g0
(g9
g2
Ntp121
Rp122
(dp123
g13
I01
sg14
F1.0761961833940248
sg15
g120
sbs(I-8
I79
tp124
g0
(g9
g2
Ntp125
Rp126
(dp127
g13
I01
sg14
F-0.0353905451541132
sg15
g124
sbs(I-18
I79
tp128
g0
(g9
g2
Ntp129
Rp130
(dp131
g13
I01
sg14
F-0.7763900508476732
sg15
g128
sbs(I79
I4
tp132
g0
(g9
g2
Ntp133
Rp134
(dp135
g13
I01
sg14
F1.0634763271233123
sg15
g132
sbs(I-3
I79
tp136
g0
(g9
g2
Ntp137
Rp138
(dp139
g13
I01
sg14
F0.6251998770579654
sg15
g136
sbssS'nodes'
p140
(dp141
I0
g0
(cneat.genes
DefaultNodeGene
p142
g2
Ntp143
Rp144
(dp145
S'activation'
p146
S'relu'
p147
sS'bias'
p148
F-0.9303774700927911
sS'response'
p149
F1.0
sg15
I0
sS'aggregation'
p150
S'sum'
p151
sbsI1
g0
(g142
g2
Ntp152
Rp153
(dp154
g146
g147
sg148
F-21.774778492351203
sg149
F1.0
sg15
I1
sg150
g151
sbsI2
g0
(g142
g2
Ntp155
Rp156
(dp157
g146
g147
sg148
F-0.9482730276631482
sg149
F1.0
sg15
I2
sg150
g151
sbsI3
g0
(g142
g2
Ntp158
Rp159
(dp160
g146
g147
sg148
F-2.7103884502153046
sg149
F1.0
sg15
I3
sg150
g151
sbsI4
g0
(g142
g2
Ntp161
Rp162
(dp163
g146
g147
sg148
F-6.062357319093667
sg149
F1.0
sg15
I4
sg150
g151
sbsI5
g0
(g142
g2
Ntp164
Rp165
(dp166
g146
g147
sg148
F8.32511081018743
sg149
F1.0
sg15
I5
sg150
g151
sbsI6
g0
(g142
g2
Ntp167
Rp168
(dp169
g146
g147
sg148
F-19.884016104582326
sg149
F1.0
sg15
I6
sg150
g151
sbsI7
g0
(g142
g2
Ntp170
Rp171
(dp172
g146
g147
sg148
F-7.016941541018373
sg149
F1.0
sg15
I7
sg150
g151
sbsI8
g0
(g142
g2
Ntp173
Rp174
(dp175
g146
g147
sg148
F-8.342624202598675
sg149
F1.0
sg15
I8
sg150
g151
sbsI9
g0
(g142
g2
Ntp176
Rp177
(dp178
g146
g147
sg148
F-7.186597281611636
sg149
F1.0
sg15
I9
sg150
g151
sbsI79
g0
(g142
g2
Ntp179
Rp180
(dp181
g146
g147
sg148
F3.4908665434957205
sg149
F1.0
sg15
I79
sg150
g151
sbsI93
g0
(g142
g2
Ntp182
Rp183
(dp184
g146
g147
sg148
F2.479463438681582
sg149
F1.0
sg15
I93
sg150
g151
sbssg15
I96
sS'fitness'
p185
Nsb.