ccopy_reg
_reconstructor
p0
(cneat.genome
DefaultGenome
p1
c__builtin__
object
p2
Ntp3
Rp4
(dp5
S'connections'
p6
(dp7
(I-13
I29
tp8
g0
(cneat.genes
DefaultConnectionGene
p9
g2
Ntp10
Rp11
(dp12
S'enabled'
p13
I01
sS'weight'
p14
F0.6310001912134533
sS'key'
p15
g8
sbs(I29
I9
tp16
g0
(g9
g2
Ntp17
Rp18
(dp19
g13
I01
sg14
F1.435983690578992
sg15
g16
sbs(I-6
I29
tp20
g0
(g9
g2
Ntp21
Rp22
(dp23
g13
I01
sg14
F0.39041569011951577
sg15
g20
sbs(I-16
I29
tp24
g0
(g9
g2
Ntp25
Rp26
(dp27
g13
I01
sg14
F-0.5348606846107808
sg15
g24
sbs(I29
I0
tp28
g0
(g9
g2
Ntp29
Rp30
(dp31
g13
I01
sg14
F0.6479557013770408
sg15
g28
sbs(I-1
I29
tp32
g0
(g9
g2
Ntp33
Rp34
(dp35
g13
I01
sg14
F-0.6813673575410474
sg15
g32
sbs(I29
I4
tp36
g0
(g9
g2
Ntp37
Rp38
(dp39
g13
I01
sg14
F-1.8975635337971275
sg15
g36
sbs(I-7
I29
tp40
g0
(g9
g2
Ntp41
Rp42
(dp43
g13
I01
sg14
F-0.7514080881409042
sg15
g40
sbs(I29
I8
tp44
g0
(g9
g2
Ntp45
Rp46
(dp47
g13
I01
sg14
F-1.3695573891579593
sg15
g44
sbs(I-9
I29
tp48
g0
(g9
g2
Ntp49
Rp50
(dp51
g13
I01
sg14
F-0.5487319990673882
sg15
g48
sbs(I-2
I29
tp52
g0
(g9
g2
Ntp53
Rp54
(dp55
g13
I01
sg14
F-1.1988491380800999
sg15
g52
sbs(I-17
I29
tp56
g0
(g9
g2
Ntp57
Rp58
(dp59
g13
I01
sg14
F0.9170178285420533
sg15
g56
sbs(I-10
I29
tp60
g0
(g9
g2
Ntp61
Rp62
(dp63
g13
I01
sg14
F0.7508227430271135
sg15
g60
sbs(I29
I3
tp64
g0
(g9
g2
Ntp65
Rp66
(dp67
g13
I01
sg14
F-0.737614793257494
sg15
g64
sbs(I-20
I29
tp68
g0
(g9
g2
Ntp69
Rp70
(dp71
g13
I01
sg14
F-0.48826532428403596
sg15
g68
sbs(I-18
I29
tp72
g0
(g9
g2
Ntp73
Rp74
(dp75
g13
I01
sg14
F-0.8332566468601839
sg15
g72
sbs(I29
I7
tp76
g0
(g9
g2
Ntp77
Rp78
(dp79
g13
I01
sg14
F0.2464450221806796
sg15
g76
sbs(I-8
I29
tp80
g0
(g9
g2
Ntp81
Rp82
(dp83
g13
I01
sg14
F-0.9982766280686639
sg15
g80
sbs(I-3
I29
tp84
g0
(g9
g2
Ntp85
Rp86
(dp87
g13
I01
sg14
F1.3868858067156433
sg15
g84
sbs(I-11
I29
tp88
g0
(g9
g2
Ntp89
Rp90
(dp91
g13
I01
sg14
F-0.8464852449427639
sg15
g88
sbs(I-14
I29
tp92
g0
(g9
g2
Ntp93
Rp94
(dp95
g13
I01
sg14
F0.8587492951113276
sg15
g92
sbs(I29
I2
tp96
g0
(g9
g2
Ntp97
Rp98
(dp99
g13
I01
sg14
F0.3760230910301698
sg15
g96
sbs(I29
I6
tp100
g0
(g9
g2
Ntp101
Rp102
(dp103
g13
I01
sg14
F0.4486928077555433
sg15
g100
sbs(I-4
I29
tp104
g0
(g9
g2
Ntp105
Rp106
(dp107
g13
I01
sg14
F-1.9371080408340449
sg15
g104
sbs(I-15
I29
tp108
g0
(g9
g2
Ntp109
Rp110
(dp111
g13
I01
sg14
F0.6707026565397851
sg15
g108
sbs(I-12
I29
tp112
g0
(g9
g2
Ntp113
Rp114
(dp115
g13
I01
sg14
F0.45665780719423443
sg15
g112
sbs(I29
I1
tp116
g0
(g9
g2
Ntp117
Rp118
(dp119
g13
I01
sg14
F1.5333255531942456
sg15
g116
sbs(I-5
I29
tp120
g0
(g9
g2
Ntp121
Rp122
(dp123
g13
I01
sg14
F-1.011868086240398
sg15
g120
sbs(I29
I5
tp124
g0
(g9
g2
Ntp125
Rp126
(dp127
g13
I01
sg14
F-2.397357982779737
sg15
g124
sbs(I-19
I29
tp128
g0
(g9
g2
Ntp129
Rp130
(dp131
g13
I01
sg14
F1.5934805656196263
sg15
g128
sbssS'nodes'
p132
(dp133
I0
g0
(cneat.genes
DefaultNodeGene
p134
g2
Ntp135
Rp136
(dp137
S'activation'
p138
S'relu'
p139
sS'bias'
p140
F11.154714206758511
sS'response'
p141
F1.0
sg15
I0
sS'aggregation'
p142
S'sum'
p143
sbsI1
g0
(g134
g2
Ntp144
Rp145
(dp146
g138
g139
sg140
F-14.09198454150846
sg141
F1.0
sg15
I1
sg142
g143
sbsI2
g0
(g134
g2
Ntp147
Rp148
(dp149
g138
g139
sg140
F-9.592467506478846
sg141
F1.0
sg15
I2
sg142
g143
sbsI3
g0
(g134
g2
Ntp150
Rp151
(dp152
g138
g139
sg140
F-7.129851877680969
sg141
F1.0
sg15
I3
sg142
g143
sbsI4
g0
(g134
g2
Ntp153
Rp154
(dp155
g138
g139
sg140
F-19.068443793374417
sg141
F1.0
sg15
I4
sg142
g143
sbsI5
g0
(g134
g2
Ntp156
Rp157
(dp158
g138
g139
sg140
F24.36882370971469
sg141
F1.0
sg15
I5
sg142
g143
sbsI6
g0
(g134
g2
Ntp159
Rp160
(dp161
g138
g139
sg140
F3.426462600295065
sg141
F1.0
sg15
I6
sg142
g143
sbsI7
g0
(g134
g2
Ntp162
Rp163
(dp164
g138
g139
sg140
F-7.775297466191355
sg141
F1.0
sg15
I7
sg142
g143
sbsI8
g0
(g134
g2
Ntp165
Rp166
(dp167
g138
g139
sg140
F-0.04859380139591474
sg141
F1.0
sg15
I8
sg142
g143
sbsI9
g0
(g134
g2
Ntp168
Rp169
(dp170
g138
g139
sg140
F-0.9927747797230089
sg141
F1.0
sg15
I9
sg142
g143
sbsI29
g0
(g134
g2
Ntp171
Rp172
(dp173
g138
g139
sg140
F2.355343680624262
sg141
F1.0
sg15
I29
sg142
g143
sbssg15
I97
sS'fitness'
p174
Nsb.