ccopy_reg
_reconstructor
p0
(cneat.genome
DefaultGenome
p1
c__builtin__
object
p2
Ntp3
Rp4
(dp5
S'connections'
p6
(dp7
(I-5
I58
tp8
g0
(cneat.genes
DefaultConnectionGene
p9
g2
Ntp10
Rp11
(dp12
S'enabled'
p13
I01
sS'weight'
p14
F-1.2481691247000914
sS'key'
p15
g8
sbs(I-1
I58
tp16
g0
(g9
g2
Ntp17
Rp18
(dp19
g13
I01
sg14
F-0.11561407143292299
sg15
g16
sbs(I58
I1
tp20
g0
(g9
g2
Ntp21
Rp22
(dp23
g13
I01
sg14
F1.2604939065158773
sg15
g20
sbs(I-6
I58
tp24
g0
(g9
g2
Ntp25
Rp26
(dp27
g13
I01
sg14
F0.4976517057747018
sg15
g24
sbs(I58
I0
tp28
g0
(g9
g2
Ntp29
Rp30
(dp31
g13
I01
sg14
F-0.340049753360691
sg15
g28
sbs(I-10
I58
tp32
g0
(g9
g2
Ntp33
Rp34
(dp35
g13
I01
sg14
F2.084731259469692
sg15
g32
sbs(I58
I3
tp36
g0
(g9
g2
Ntp37
Rp38
(dp39
g13
I01
sg14
F0.0031346412226930243
sg15
g36
sbs(I-8
I58
tp40
g0
(g9
g2
Ntp41
Rp42
(dp43
g13
I01
sg14
F0.8043934941734519
sg15
g40
sbs(I58
I9
tp44
g0
(g9
g2
Ntp45
Rp46
(dp47
g13
I01
sg14
F-3.6187849237527874
sg15
g44
sbs(I58
I2
tp48
g0
(g9
g2
Ntp49
Rp50
(dp51
g13
I01
sg14
F-0.20679186559317692
sg15
g48
sbs(I-7
I58
tp52
g0
(g9
g2
Ntp53
Rp54
(dp55
g13
I01
sg14
F0.8521230845238612
sg15
g52
sbs(I58
I8
tp56
g0
(g9
g2
Ntp57
Rp58
(dp59
g13
I01
sg14
F-1.682243301778856
sg15
g56
sbs(I58
I5
tp60
g0
(g9
g2
Ntp61
Rp62
(dp63
g13
I01
sg14
F0.019056478316510556
sg15
g60
sbs(I-2
I58
tp64
g0
(g9
g2
Ntp65
Rp66
(dp67
g13
I01
sg14
F0.7270036309269476
sg15
g64
sbs(I58
I4
tp68
g0
(g9
g2
Ntp69
Rp70
(dp71
g13
I01
sg14
F0.35413400080272905
sg15
g68
sbs(I-9
I58
tp72
g0
(g9
g2
Ntp73
Rp74
(dp75
g13
I01
sg14
F-2.27758201236121
sg15
g72
sbs(I58
I7
tp76
g0
(g9
g2
Ntp77
Rp78
(dp79
g13
I01
sg14
F-0.29566482931120863
sg15
g76
sbs(I-4
I58
tp80
g0
(g9
g2
Ntp81
Rp82
(dp83
g13
I01
sg14
F-0.9494835453303921
sg15
g80
sbs(I58
I6
tp84
g0
(g9
g2
Ntp85
Rp86
(dp87
g13
I01
sg14
F-0.20187690467772462
sg15
g84
sbs(I-3
I58
tp88
g0
(g9
g2
Ntp89
Rp90
(dp91
g13
I01
sg14
F-0.25166359615813627
sg15
g88
sbs(I-8
I1
tp92
g0
(g9
g2
Ntp93
Rp94
(dp95
g13
I00
sg14
F-1.2930980919642596
sg15
g92
sbssS'nodes'
p96
(dp97
I0
g0
(cneat.genes
DefaultNodeGene
p98
g2
Ntp99
Rp100
(dp101
S'activation'
p102
S'relu'
p103
sS'bias'
p104
F15.1343794536154
sS'response'
p105
F1.0
sg15
I0
sS'aggregation'
p106
S'sum'
p107
sbsI1
g0
(g98
g2
Ntp108
Rp109
(dp110
g102
g103
sg104
F-1.294164234947568
sg105
F1.0
sg15
I1
sg106
g107
sbsI2
g0
(g98
g2
Ntp111
Rp112
(dp113
g102
g103
sg104
F1.0467881194798851
sg105
F1.0
sg15
I2
sg106
g107
sbsI3
g0
(g98
g2
Ntp114
Rp115
(dp116
g102
g103
sg104
F17.820179644139166
sg105
F1.0
sg15
I3
sg106
g107
sbsI4
g0
(g98
g2
Ntp117
Rp118
(dp119
g102
g103
sg104
F-6.125835438224081
sg105
F1.0
sg15
I4
sg106
g107
sbsI5
g0
(g98
g2
Ntp120
Rp121
(dp122
g102
g103
sg104
F1.4834216359482606
sg105
F1.0
sg15
I5
sg106
g107
sbsI6
g0
(g98
g2
Ntp123
Rp124
(dp125
g102
g103
sg104
F-17.297952356903433
sg105
F1.0
sg15
I6
sg106
g107
sbsI7
g0
(g98
g2
Ntp126
Rp127
(dp128
g102
g103
sg104
F-11.569816286807091
sg105
F1.0
sg15
I7
sg106
g107
sbsI8
g0
(g98
g2
Ntp129
Rp130
(dp131
g102
g103
sg104
F-4.018466437352087
sg105
F1.0
sg15
I8
sg106
g107
sbsI9
g0
(g98
g2
Ntp132
Rp133
(dp134
g102
g103
sg104
F8.060567854564095
sg105
F1.0
sg15
I9
sg106
g107
sbsI58
g0
(g98
g2
Ntp135
Rp136
(dp137
g102
g103
sg104
F18.22654197702169
sg105
F1.0
sg15
I58
sg106
g107
sbssg15
I97
sS'fitness'
p138
F-0.007103581599773978
sb.