ccopy_reg
_reconstructor
p0
(cneat.genome
DefaultGenome
p1
c__builtin__
object
p2
Ntp3
Rp4
(dp5
S'connections'
p6
(dp7
(I781
I296
tp8
g0
(cneat.genes
DefaultConnectionGene
p9
g2
Ntp10
Rp11
(dp12
S'enabled'
p13
I01
sS'weight'
p14
F2.0268906761552747
sS'key'
p15
g8
sbs(I-8
I296
tp16
g0
(g9
g2
Ntp17
Rp18
(dp19
g13
I01
sg14
F0.5955610976179244
sg15
g16
sbs(I3
I3
tp20
g0
(g9
g2
Ntp21
Rp22
(dp23
g13
I01
sg14
F-0.8164907845325148
sg15
g20
sbs(I-3
I296
tp24
g0
(g9
g2
Ntp25
Rp26
(dp27
g13
I01
sg14
F0.17699791391666864
sg15
g24
sbs(I296
I2
tp28
g0
(g9
g2
Ntp29
Rp30
(dp31
g13
I01
sg14
F-0.8822944221942706
sg15
g28
sbs(I4
I4
tp32
g0
(g9
g2
Ntp33
Rp34
(dp35
g13
I00
sg14
F0.3069053553645984
sg15
g32
sbs(I-9
I8
tp36
g0
(g9
g2
Ntp37
Rp38
(dp39
g13
I01
sg14
F0.31317664750086055
sg15
g36
sbs(I-1
I296
tp40
g0
(g9
g2
Ntp41
Rp42
(dp43
g13
I00
sg14
F1.9741937006538763
sg15
g40
sbs(I539
I6
tp44
g0
(g9
g2
Ntp45
Rp46
(dp47
g13
I00
sg14
F-2.411038437483267
sg15
g44
sbs(I-2
I296
tp48
g0
(g9
g2
Ntp49
Rp50
(dp51
g13
I01
sg14
F-0.32927182864258586
sg15
g48
sbs(I-6
I296
tp52
g0
(g9
g2
Ntp53
Rp54
(dp55
g13
I01
sg14
F1.1026837397841722
sg15
g52
sbs(I296
I8
tp56
g0
(g9
g2
Ntp57
Rp58
(dp59
g13
I00
sg14
F-0.22766087555708464
sg15
g56
sbs(I-10
I296
tp60
g0
(g9
g2
Ntp61
Rp62
(dp63
g13
I01
sg14
F1.7777630744604798
sg15
g60
sbs(I7
I7
tp64
g0
(g9
g2
Ntp65
Rp66
(dp67
g13
I00
sg14
F-0.16851703967897236
sg15
g64
sbs(I296
I6
tp68
g0
(g9
g2
Ntp69
Rp70
(dp71
g13
I01
sg14
F-1.0736979998756364
sg15
g68
sbs(I1
I1
tp72
g0
(g9
g2
Ntp73
Rp74
(dp75
g13
I01
sg14
F1.5779391026356928
sg15
g72
sbs(I-1
I781
tp76
g0
(g9
g2
Ntp77
Rp78
(dp79
g13
I01
sg14
F1.4122272443064907
sg15
g76
sbs(I5
I5
tp80
g0
(g9
g2
Ntp81
Rp82
(dp83
g13
I01
sg14
F-0.449585665839655
sg15
g80
sbssS'nodes'
p84
(dp85
I0
g0
(cneat.genes
DefaultNodeGene
p86
g2
Ntp87
Rp88
(dp89
S'activation'
p90
S'tanh'
p91
sS'bias'
p92
F4.524306149947069
sS'response'
p93
F1.0
sg15
I0
sS'aggregation'
p94
S'sum'
p95
sbsI1
g0
(g86
g2
Ntp96
Rp97
(dp98
g90
g91
sg92
F0.0638506558352512
sg93
F1.0
sg15
I1
sg94
g95
sbsI2
g0
(g86
g2
Ntp99
Rp100
(dp101
g90
g91
sg92
F-12.55159306676621
sg93
F1.0
sg15
I2
sg94
g95
sbsI3
g0
(g86
g2
Ntp102
Rp103
(dp104
g90
g91
sg92
F-12.0426295474904
sg93
F1.0
sg15
I3
sg94
g95
sbsI4
g0
(g86
g2
Ntp105
Rp106
(dp107
g90
g91
sg92
F3.5421169603102376
sg93
F1.0
sg15
I4
sg94
g95
sbsI5
g0
(g86
g2
Ntp108
Rp109
(dp110
g90
g91
sg92
F-4.060496817128323
sg93
F1.0
sg15
I5
sg94
g95
sbsI6
g0
(g86
g2
Ntp111
Rp112
(dp113
g90
g91
sg92
F12.199932630831428
sg93
F1.0
sg15
I6
sg94
g95
sbsI7
g0
(g86
g2
Ntp114
Rp115
(dp116
g90
g91
sg92
F-3.175667411102802
sg93
F1.0
sg15
I7
sg94
g95
sbsI8
g0
(g86
g2
Ntp117
Rp118
(dp119
g90
g91
sg92
F-11.200541312779148
sg93
F1.0
sg15
I8
sg94
g95
sbsI9
g0
(g86
g2
Ntp120
Rp121
(dp122
g90
g91
sg92
F-6.5738730599644555
sg93
F1.0
sg15
I9
sg94
g95
sbsI781
g0
(g86
g2
Ntp123
Rp124
(dp125
g90
S'relu'
p126
sg92
F6.689182022406142
sg93
F1.0
sg15
I781
sg94
g95
sbsI296
g0
(g86
g2
Ntp127
Rp128
(dp129
g90
g91
sg92
F-11.00344978210304
sg93
F1.0
sg15
I296
sg94
g95
sbsI539
g0
(g86
g2
Ntp130
Rp131
(dp132
g90
g91
sg92
F7.98558422417018
sg93
F1.0
sg15
I539
sg94
g95
sbssg15
I97
sS'fitness'
p133
Nsb.