ccopy_reg
_reconstructor
p0
(cneat.genome
DefaultGenome
p1
c__builtin__
object
p2
Ntp3
Rp4
(dp5
S'connections'
p6
(dp7
(I-9
I93
tp8
g0
(cneat.genes
DefaultConnectionGene
p9
g2
Ntp10
Rp11
(dp12
S'enabled'
p13
I00
sS'weight'
p14
F1.1957769612612954
sS'key'
p15
g8
sbs(I-6
I91
tp16
g0
(g9
g2
Ntp17
Rp18
(dp19
g13
I01
sg14
F1.2622814821919888
sg15
g16
sbs(I-4
I92
tp20
g0
(g9
g2
Ntp21
Rp22
(dp23
g13
I01
sg14
F1.3237925188921358
sg15
g20
sbs(I-2
I535
tp24
g0
(g9
g2
Ntp25
Rp26
(dp27
g13
I01
sg14
F-0.8165808801972237
sg15
g24
sbs(I91
I4
tp28
g0
(g9
g2
Ntp29
Rp30
(dp31
g13
I01
sg14
F-0.7357724098503349
sg15
g28
sbs(I91
I9
tp32
g0
(g9
g2
Ntp33
Rp34
(dp35
g13
I01
sg14
F0.3531704942529329
sg15
g32
sbs(I91
I0
tp36
g0
(g9
g2
Ntp37
Rp38
(dp39
g13
I01
sg14
F0.4635392821747228
sg15
g36
sbs(I3
I3
tp40
g0
(g9
g2
Ntp41
Rp42
(dp43
g13
I01
sg14
F-0.4940472088110339
sg15
g40
sbs(I-4
I93
tp44
g0
(g9
g2
Ntp45
Rp46
(dp47
g13
I01
sg14
F-0.5139418797051377
sg15
g44
sbs(I92
I0
tp48
g0
(g9
g2
Ntp49
Rp50
(dp51
g13
I01
sg14
F-1.296604286400564
sg15
g48
sbs(I93
I5
tp52
g0
(g9
g2
Ntp53
Rp54
(dp55
g13
I01
sg14
F2.8276263826098456
sg15
g52
sbs(I-3
I91
tp56
g0
(g9
g2
Ntp57
Rp58
(dp59
g13
I00
sg14
F-3.237062114396652
sg15
g56
sbs(I-2
I91
tp60
g0
(g9
g2
Ntp61
Rp62
(dp63
g13
I01
sg14
F-0.034409177295681215
sg15
g60
sbs(I-10
I91
tp64
g0
(g9
g2
Ntp65
Rp66
(dp67
g13
I01
sg14
F0.9779191366683387
sg15
g64
sbs(I93
I9
tp68
g0
(g9
g2
Ntp69
Rp70
(dp71
g13
I01
sg14
F0.4729362937100367
sg15
g68
sbs(I-3
I92
tp72
g0
(g9
g2
Ntp73
Rp74
(dp75
g13
I01
sg14
F-1.0026358465272978
sg15
g72
sbs(I91
I6
tp76
g0
(g9
g2
Ntp77
Rp78
(dp79
g13
I01
sg14
F2.068145577243005
sg15
g76
sbs(I92
I8
tp80
g0
(g9
g2
Ntp81
Rp82
(dp83
g13
I01
sg14
F-0.01791664366898025
sg15
g80
sbs(I-2
I92
tp84
g0
(g9
g2
Ntp85
Rp86
(dp87
g13
I00
sg14
F-1.254571000877318
sg15
g84
sbs(I92
I3
tp88
g0
(g9
g2
Ntp89
Rp90
(dp91
g13
I01
sg14
F-0.8335008617399278
sg15
g88
sbs(I91
I2
tp92
g0
(g9
g2
Ntp93
Rp94
(dp95
g13
I01
sg14
F0.23455721465354257
sg15
g92
sbs(I5
I5
tp96
g0
(g9
g2
Ntp97
Rp98
(dp99
g13
I01
sg14
F0.5015992325043054
sg15
g96
sbs(I92
I5
tp100
g0
(g9
g2
Ntp101
Rp102
(dp103
g13
I01
sg14
F-2.1627210582274543
sg15
g100
sbs(I-7
I93
tp104
g0
(g9
g2
Ntp105
Rp106
(dp107
g13
I01
sg14
F-0.2713159834820943
sg15
g104
sbs(I93
I93
tp108
g0
(g9
g2
Ntp109
Rp110
(dp111
g13
I01
sg14
F-1.0419846557249055
sg15
g108
sbs(I-1
I92
tp112
g0
(g9
g2
Ntp113
Rp114
(dp115
g13
I01
sg14
F0.17457419488799905
sg15
g112
sbs(I92
I92
tp116
g0
(g9
g2
Ntp117
Rp118
(dp119
g13
I01
sg14
F1.633662932126284
sg15
g116
sbs(I92
I9
tp120
g0
(g9
g2
Ntp121
Rp122
(dp123
g13
I01
sg14
F0.4518177927458643
sg15
g120
sbs(I-1
I93
tp124
g0
(g9
g2
Ntp125
Rp126
(dp127
g13
I01
sg14
F0.8385475692437876
sg15
g124
sbs(I92
I2
tp128
g0
(g9
g2
Ntp129
Rp130
(dp131
g13
I01
sg14
F-2.824190646620508
sg15
g128
sbs(I8
I8
tp132
g0
(g9
g2
Ntp133
Rp134
(dp135
g13
I01
sg14
F-0.46633848248019794
sg15
g132
sbs(I93
I2
tp136
g0
(g9
g2
Ntp137
Rp138
(dp139
g13
I01
sg14
F5.1212991117193205
sg15
g136
sbssS'nodes'
p140
(dp141
I0
g0
(cneat.genes
DefaultNodeGene
p142
g2
Ntp143
Rp144
(dp145
S'activation'
p146
S'tanh'
p147
sS'bias'
p148
F-15.633721470880358
sS'response'
p149
F1.0
sg15
I0
sS'aggregation'
p150
S'sum'
p151
sbsI1
g0
(g142
g2
Ntp152
Rp153
(dp154
g146
g147
sg148
F3.0376455494713994
sg149
F1.0
sg15
I1
sg150
g151
sbsI2
g0
(g142
g2
Ntp155
Rp156
(dp157
g146
g147
sg148
F-1.3714364513739081
sg149
F1.0
sg15
I2
sg150
g151
sbsI3
g0
(g142
g2
Ntp158
Rp159
(dp160
g146
g147
sg148
F-2.9498490513818547
sg149
F1.0
sg15
I3
sg150
g151
sbsI4
g0
(g142
g2
Ntp161
Rp162
(dp163
g146
g147
sg148
F12.92877804468508
sg149
F1.0
sg15
I4
sg150
g151
sbsI5
g0
(g142
g2
Ntp164
Rp165
(dp166
g146
g147
sg148
F2.371332479111304
sg149
F1.0
sg15
I5
sg150
g151
sbsI6
g0
(g142
g2
Ntp167
Rp168
(dp169
g146
g147
sg148
F7.167947950475664
sg149
F1.0
sg15
I6
sg150
g151
sbsI7
g0
(g142
g2
Ntp170
Rp171
(dp172
g146
g147
sg148
F-13.796644863662554
sg149
F1.0
sg15
I7
sg150
g151
sbsI8
g0
(g142
g2
Ntp173
Rp174
(dp175
g146
g147
sg148
F-12.323132632796026
sg149
F1.0
sg15
I8
sg150
g151
sbsI9
g0
(g142
g2
Ntp176
Rp177
(dp178
g146
g147
sg148
F-9.201176665877846
sg149
F1.0
sg15
I9
sg150
g151
sbsI497
g0
(g142
g2
Ntp179
Rp180
(dp181
g146
S'relu'
p182
sg148
F7.592644353019452
sg149
F1.0
sg15
I497
sg150
g151
sbsI535
g0
(g142
g2
Ntp183
Rp184
(dp185
g146
g182
sg148
F-7.079044793040719
sg149
F1.0
sg15
I535
sg150
g151
sbsI91
g0
(g142
g2
Ntp186
Rp187
(dp188
g146
g147
sg148
F-5.186350140011779
sg149
F1.0
sg15
I91
sg150
g151
sbsI92
g0
(g142
g2
Ntp189
Rp190
(dp191
g146
g147
sg148
F8.841487001616928
sg149
F1.0
sg15
I92
sg150
g151
sbsI93
g0
(g142
g2
Ntp192
Rp193
(dp194
g146
g147
sg148
F-15.973622857601292
sg149
F1.0
sg15
I93
sg150
g151
sbssg15
I98
sS'fitness'
p195
Nsb.