ccopy_reg
_reconstructor
p0
(cneat.genome
DefaultGenome
p1
c__builtin__
object
p2
Ntp3
Rp4
(dp5
S'connections'
p6
(dp7
(I-2
I2
tp8
g0
(cneat.genes
DefaultConnectionGene
p9
g2
Ntp10
Rp11
(dp12
S'enabled'
p13
I01
sS'weight'
p14
F-2.1440518768723518
sS'key'
p15
g8
sbs(I-8
I296
tp16
g0
(g9
g2
Ntp17
Rp18
(dp19
g13
I01
sg14
F1.011236095642253
sg15
g16
sbs(I3
I3
tp20
g0
(g9
g2
Ntp21
Rp22
(dp23
g13
I01
sg14
F-1.6279954438530067
sg15
g20
sbs(I-3
I296
tp24
g0
(g9
g2
Ntp25
Rp26
(dp27
g13
I01
sg14
F0.8362377095865305
sg15
g24
sbs(I296
I2
tp28
g0
(g9
g2
Ntp29
Rp30
(dp31
g13
I00
sg14
F1.2278679265238217
sg15
g28
sbs(I4
I4
tp32
g0
(g9
g2
Ntp33
Rp34
(dp35
g13
I00
sg14
F0.14065388234261283
sg15
g32
sbs(I-9
I8
tp36
g0
(g9
g2
Ntp37
Rp38
(dp39
g13
I01
sg14
F-0.35927663498783036
sg15
g36
sbs(I-1
I296
tp40
g0
(g9
g2
Ntp41
Rp42
(dp43
g13
I01
sg14
F1.158727805533924
sg15
g40
sbs(I539
I6
tp44
g0
(g9
g2
Ntp45
Rp46
(dp47
g13
I00
sg14
F-1.7715985748855423
sg15
g44
sbs(I-2
I296
tp48
g0
(g9
g2
Ntp49
Rp50
(dp51
g13
I01
sg14
F0.5404759886978181
sg15
g48
sbs(I-6
I296
tp52
g0
(g9
g2
Ntp53
Rp54
(dp55
g13
I01
sg14
F0.47559285647791727
sg15
g52
sbs(I-10
I296
tp56
g0
(g9
g2
Ntp57
Rp58
(dp59
g13
I01
sg14
F2.0554889071136735
sg15
g56
sbs(I-5
I3
tp60
g0
(g9
g2
Ntp61
Rp62
(dp63
g13
I01
sg14
F0.31361917403872475
sg15
g60
sbs(I7
I7
tp64
g0
(g9
g2
Ntp65
Rp66
(dp67
g13
I00
sg14
F-1.0229187718990067
sg15
g64
sbs(I296
I6
tp68
g0
(g9
g2
Ntp69
Rp70
(dp71
g13
I01
sg14
F-0.4966848202031976
sg15
g68
sbs(I1
I1
tp72
g0
(g9
g2
Ntp73
Rp74
(dp75
g13
I01
sg14
F1.747620676776429
sg15
g72
sbs(I5
I5
tp76
g0
(g9
g2
Ntp77
Rp78
(dp79
g13
I01
sg14
F-0.5904720407977231
sg15
g76
sbssS'nodes'
p80
(dp81
I0
g0
(cneat.genes
DefaultNodeGene
p82
g2
Ntp83
Rp84
(dp85
S'activation'
p86
S'tanh'
p87
sS'bias'
p88
F4.2859883756490476
sS'response'
p89
F1.0
sg15
I0
sS'aggregation'
p90
S'sum'
p91
sbsI1
g0
(g82
g2
Ntp92
Rp93
(dp94
g86
g87
sg88
F-0.601829664388263
sg89
F1.0
sg15
I1
sg90
g91
sbsI2
g0
(g82
g2
Ntp95
Rp96
(dp97
g86
g87
sg88
F-11.585228830314808
sg89
F1.0
sg15
I2
sg90
g91
sbsI3
g0
(g82
g2
Ntp98
Rp99
(dp100
g86
g87
sg88
F-11.569728581224316
sg89
F1.0
sg15
I3
sg90
g91
sbsI4
g0
(g82
g2
Ntp101
Rp102
(dp103
g86
g87
sg88
F-1.5034941847382874
sg89
F1.0
sg15
I4
sg90
g91
sbsI5
g0
(g82
g2
Ntp104
Rp105
(dp106
g86
g87
sg88
F-4.124676150955709
sg89
F1.0
sg15
I5
sg90
g91
sbsI6
g0
(g82
g2
Ntp107
Rp108
(dp109
g86
g87
sg88
F12.087697931345518
sg89
F1.0
sg15
I6
sg90
g91
sbsI7
g0
(g82
g2
Ntp110
Rp111
(dp112
g86
g87
sg88
F-4.600757701752764
sg89
F1.0
sg15
I7
sg90
g91
sbsI8
g0
(g82
g2
Ntp113
Rp114
(dp115
g86
g87
sg88
F-11.648037200864653
sg89
F1.0
sg15
I8
sg90
g91
sbsI9
g0
(g82
g2
Ntp116
Rp117
(dp118
g86
g87
sg88
F-6.261099601574358
sg89
F1.0
sg15
I9
sg90
g91
sbsI296
g0
(g82
g2
Ntp119
Rp120
(dp121
g86
g87
sg88
F-10.46236728365593
sg89
F1.0
sg15
I296
sg90
g91
sbsI539
g0
(g82
g2
Ntp122
Rp123
(dp124
g86
g87
sg88
F10.963799012355564
sg89
F1.0
sg15
I539
sg90
g91
sbssg15
I98
sS'fitness'
p125
Nsb.