ccopy_reg
_reconstructor
p0
(cneat.genome
DefaultGenome
p1
c__builtin__
object
p2
Ntp3
Rp4
(dp5
S'connections'
p6
(dp7
(I235
I9
tp8
g0
(cneat.genes
DefaultConnectionGene
p9
g2
Ntp10
Rp11
(dp12
S'enabled'
p13
I01
sS'weight'
p14
F-0.7001055686200869
sS'key'
p15
g8
sbs(I237
I237
tp16
g0
(g9
g2
Ntp17
Rp18
(dp19
g13
I01
sg14
F-0.4192713805126871
sg15
g16
sbs(I236
I236
tp20
g0
(g9
g2
Ntp21
Rp22
(dp23
g13
I01
sg14
F-0.25765966843914323
sg15
g20
sbs(I-3
I235
tp24
g0
(g9
g2
Ntp25
Rp26
(dp27
g13
I01
sg14
F-2.014822271653907
sg15
g24
sbs(I-4
I238
tp28
g0
(g9
g2
Ntp29
Rp30
(dp31
g13
I01
sg14
F0.5879558494942787
sg15
g28
sbs(I-9
I236
tp32
g0
(g9
g2
Ntp33
Rp34
(dp35
g13
I01
sg14
F-1.3110045082823227
sg15
g32
sbs(I-6
I237
tp36
g0
(g9
g2
Ntp37
Rp38
(dp39
g13
I01
sg14
F2.5582631751787375
sg15
g36
sbs(I236
I3
tp40
g0
(g9
g2
Ntp41
Rp42
(dp43
g13
I01
sg14
F0.48089713494211156
sg15
g40
sbs(I-2
I235
tp44
g0
(g9
g2
Ntp45
Rp46
(dp47
g13
I01
sg14
F-0.22049574871112188
sg15
g44
sbs(I-1
I239
tp48
g0
(g9
g2
Ntp49
Rp50
(dp51
g13
I01
sg14
F1.9209577164178697
sg15
g48
sbs(I5
I5
tp52
g0
(g9
g2
Ntp53
Rp54
(dp55
g13
I01
sg14
F-1.4854983747514343
sg15
g52
sbs(I239
I3
tp56
g0
(g9
g2
Ntp57
Rp58
(dp59
g13
I01
sg14
F-0.4892984410004497
sg15
g56
sbs(I-1
I237
tp60
g0
(g9
g2
Ntp61
Rp62
(dp63
g13
I01
sg14
F0.19403695143414637
sg15
g60
sbs(I-3
I238
tp64
g0
(g9
g2
Ntp65
Rp66
(dp67
g13
I01
sg14
F-0.29357326779783643
sg15
g64
sbs(I1
I1
tp68
g0
(g9
g2
Ntp69
Rp70
(dp71
g13
I01
sg14
F0.3821179874908972
sg15
g68
sbs(I235
I7
tp72
g0
(g9
g2
Ntp73
Rp74
(dp75
g13
I01
sg14
F0.7388416417748759
sg15
g72
sbs(I-6
I238
tp76
g0
(g9
g2
Ntp77
Rp78
(dp79
g13
I01
sg14
F0.48319945116871155
sg15
g76
sbs(I236
I0
tp80
g0
(g9
g2
Ntp81
Rp82
(dp83
g13
I01
sg14
F0.5029563286243014
sg15
g80
sbs(I235
I8
tp84
g0
(g9
g2
Ntp85
Rp86
(dp87
g13
I01
sg14
F-0.7128672040127829
sg15
g84
sbs(I-1
I238
tp88
g0
(g9
g2
Ntp89
Rp90
(dp91
g13
I01
sg14
F-0.6901205292824851
sg15
g88
sbs(I238
I7
tp92
g0
(g9
g2
Ntp93
Rp94
(dp95
g13
I01
sg14
F-0.01873579680158366
sg15
g92
sbs(I237
I5
tp96
g0
(g9
g2
Ntp97
Rp98
(dp99
g13
I01
sg14
F1.8708742132792127
sg15
g96
sbs(I239
I6
tp100
g0
(g9
g2
Ntp101
Rp102
(dp103
g13
I01
sg14
F0.0597170571570631
sg15
g100
sbs(I-5
I238
tp104
g0
(g9
g2
Ntp105
Rp106
(dp107
g13
I01
sg14
F0.3063668028288494
sg15
g104
sbs(I-10
I236
tp108
g0
(g9
g2
Ntp109
Rp110
(dp111
g13
I01
sg14
F-0.4280877449241379
sg15
g108
sbs(I235
I2
tp112
g0
(g9
g2
Ntp113
Rp114
(dp115
g13
I01
sg14
F-1.0952893692808914
sg15
g112
sbs(I9
I9
tp116
g0
(g9
g2
Ntp117
Rp118
(dp119
g13
I01
sg14
F-1.1592508216421313
sg15
g116
sbs(I236
I5
tp120
g0
(g9
g2
Ntp121
Rp122
(dp123
g13
I01
sg14
F2.3175218367507875
sg15
g120
sbs(I-8
I238
tp124
g0
(g9
g2
Ntp125
Rp126
(dp127
g13
I01
sg14
F-1.1772215898541938
sg15
g124
sbs(I239
I8
tp128
g0
(g9
g2
Ntp129
Rp130
(dp131
g13
I01
sg14
F-1.5140616217405873
sg15
g128
sbs(I238
I0
tp132
g0
(g9
g2
Ntp133
Rp134
(dp135
g13
I01
sg14
F-0.23113417887590754
sg15
g132
sbs(I237
I8
tp136
g0
(g9
g2
Ntp137
Rp138
(dp139
g13
I01
sg14
F-0.011430833831713505
sg15
g136
sbs(I239
I5
tp140
g0
(g9
g2
Ntp141
Rp142
(dp143
g13
I01
sg14
F-1.1766715993827752
sg15
g140
sbs(I-1
I235
tp144
g0
(g9
g2
Ntp145
Rp146
(dp147
g13
I01
sg14
F-0.4135728867740486
sg15
g144
sbs(I235
I235
tp148
g0
(g9
g2
Ntp149
Rp150
(dp151
g13
I01
sg14
F0.08035029910653015
sg15
g148
sbs(I-2
I236
tp152
g0
(g9
g2
Ntp153
Rp154
(dp155
g13
I01
sg14
F-1.1334227823119345
sg15
g152
sbs(I-5
I237
tp156
g0
(g9
g2
Ntp157
Rp158
(dp159
g13
I01
sg14
F-0.5555670445757968
sg15
g156
sbs(I235
I1
tp160
g0
(g9
g2
Ntp161
Rp162
(dp163
g13
I01
sg14
F-0.17629862691665105
sg15
g160
sbs(I-7
I238
tp164
g0
(g9
g2
Ntp165
Rp166
(dp167
g13
I01
sg14
F-0.43765342659349993
sg15
g164
sbs(I-8
I235
tp168
g0
(g9
g2
Ntp169
Rp170
(dp171
g13
I01
sg14
F-1.115475916781669
sg15
g168
sbs(I-4
I239
tp172
g0
(g9
g2
Ntp173
Rp174
(dp175
g13
I01
sg14
F1.9613003279146153
sg15
g172
sbs(I-9
I239
tp176
g0
(g9
g2
Ntp177
Rp178
(dp179
g13
I01
sg14
F-0.8523963983078527
sg15
g176
sbs(I2
I2
tp180
g0
(g9
g2
Ntp181
Rp182
(dp183
g13
I01
sg14
F-0.5262602389590438
sg15
g180
sbs(I-1
I236
tp184
g0
(g9
g2
Ntp185
Rp186
(dp187
g13
I01
sg14
F-1.4033987572920263
sg15
g184
sbs(I239
I2
tp188
g0
(g9
g2
Ntp189
Rp190
(dp191
g13
I01
sg14
F2.3812897560412827
sg15
g188
sbs(I-3
I237
tp192
g0
(g9
g2
Ntp193
Rp194
(dp195
g13
I01
sg14
F0.12330615005189444
sg15
g192
sbs(I-2
I239
tp196
g0
(g9
g2
Ntp197
Rp198
(dp199
g13
I01
sg14
F0.4233715864462098
sg15
g196
sbs(I-4
I236
tp200
g0
(g9
g2
Ntp201
Rp202
(dp203
g13
I01
sg14
F-1.0368105413705906
sg15
g200
sbs(I235
I6
tp204
g0
(g9
g2
Ntp205
Rp206
(dp207
g13
I01
sg14
F-0.6138240423059036
sg15
g204
sbs(I-6
I239
tp208
g0
(g9
g2
Ntp209
Rp210
(dp211
g13
I01
sg14
F-1.8766444567153913
sg15
g208
sbs(I236
I1
tp212
g0
(g9
g2
Ntp213
Rp214
(dp215
g13
I01
sg14
F1.5290288911568148
sg15
g212
sbs(I238
I4
tp216
g0
(g9
g2
Ntp217
Rp218
(dp219
g13
I01
sg14
F0.6672053448802392
sg15
g216
sbs(I237
I4
tp220
g0
(g9
g2
Ntp221
Rp222
(dp223
g13
I01
sg14
F0.6151130439860206
sg15
g220
sbs(I237
I2
tp224
g0
(g9
g2
Ntp225
Rp226
(dp227
g13
I01
sg14
F1.1574441576990036
sg15
g224
sbs(I239
I239
tp228
g0
(g9
g2
Ntp229
Rp230
(dp231
g13
I01
sg14
F-0.8049510659316967
sg15
g228
sbs(I-10
I237
tp232
g0
(g9
g2
Ntp233
Rp234
(dp235
g13
I01
sg14
F-0.8082110331873232
sg15
g232
sbs(I235
I5
tp236
g0
(g9
g2
Ntp237
Rp238
(dp239
g13
I01
sg14
F-0.008646849997107665
sg15
g236
sbs(I236
I6
tp240
g0
(g9
g2
Ntp241
Rp242
(dp243
g13
I01
sg14
F-1.1167550257749463
sg15
g240
sbs(I-8
I239
tp244
g0
(g9
g2
Ntp245
Rp246
(dp247
g13
I01
sg14
F1.5393049086328254
sg15
g244
sbs(I238
I1
tp248
g0
(g9
g2
Ntp249
Rp250
(dp251
g13
I01
sg14
F-0.44529706927779944
sg15
g248
sbs(I237
I7
tp252
g0
(g9
g2
Ntp253
Rp254
(dp255
g13
I01
sg14
F1.4341857428817737
sg15
g252
sbs(I239
I4
tp256
g0
(g9
g2
Ntp257
Rp258
(dp259
g13
I01
sg14
F-1.3793222517289196
sg15
g256
sbs(I-4
I235
tp260
g0
(g9
g2
Ntp261
Rp262
(dp263
g13
I01
sg14
F0.24560563530867408
sg15
g260
sbs(I-9
I235
tp264
g0
(g9
g2
Ntp265
Rp266
(dp267
g13
I01
sg14
F0.5257922717757967
sg15
g264
sbs(I6
I6
tp268
g0
(g9
g2
Ntp269
Rp270
(dp271
g13
I01
sg14
F-0.7310794865362513
sg15
g268
sbs(I-5
I236
tp272
g0
(g9
g2
Ntp273
Rp274
(dp275
g13
I01
sg14
F0.6146274725118437
sg15
g272
sbs(I-10
I238
tp276
g0
(g9
g2
Ntp277
Rp278
(dp279
g13
I01
sg14
F-0.3033510422213843
sg15
g276
sbs(I235
I0
tp280
g0
(g9
g2
Ntp281
Rp282
(dp283
g13
I01
sg14
F0.20111824989869476
sg15
g280
sbs(I-7
I237
tp284
g0
(g9
g2
Ntp285
Rp286
(dp287
g13
I01
sg14
F0.33414449499553506
sg15
g284
sbs(I-8
I236
tp288
g0
(g9
g2
Ntp289
Rp290
(dp291
g13
I01
sg14
F-0.5622321960558418
sg15
g288
sbs(I238
I2
tp292
g0
(g9
g2
Ntp293
Rp294
(dp295
g13
I01
sg14
F2.508690662072152
sg15
g292
sbs(I-9
I238
tp296
g0
(g9
g2
Ntp297
Rp298
(dp299
g13
I00
sg14
F-1.4119196605341082
sg15
g296
sbs(I-6
I235
tp300
g0
(g9
g2
Ntp301
Rp302
(dp303
g13
I01
sg14
F1.8168060537431083
sg15
g300
sbs(I-5
I235
tp304
g0
(g9
g2
Ntp305
Rp306
(dp307
g13
I00
sg14
F1.24800221782786
sg15
g304
sbs(I-2
I238
tp308
g0
(g9
g2
Ntp309
Rp310
(dp311
g13
I01
sg14
F0.9902200565908388
sg15
g308
sbs(I-10
I235
tp312
g0
(g9
g2
Ntp313
Rp314
(dp315
g13
I01
sg14
F1.1863766832718021
sg15
g312
sbs(I238
I8
tp316
g0
(g9
g2
Ntp317
Rp318
(dp319
g13
I01
sg14
F-1.1671422445784896
sg15
g316
sbs(I237
I0
tp320
g0
(g9
g2
Ntp321
Rp322
(dp323
g13
I01
sg14
F2.359990433524104
sg15
g320
sbs(I236
I8
tp324
g0
(g9
g2
Ntp325
Rp326
(dp327
g13
I01
sg14
F-1.2648156030250997
sg15
g324
sbs(I-3
I236
tp328
g0
(g9
g2
Ntp329
Rp330
(dp331
g13
I01
sg14
F-1.5974774234207347
sg15
g328
sbs(I238
I238
tp332
g0
(g9
g2
Ntp333
Rp334
(dp335
g13
I01
sg14
F-1.0961059343353856
sg15
g332
sbs(I-4
I237
tp336
g0
(g9
g2
Ntp337
Rp338
(dp339
g13
I01
sg14
F0.6758090968944376
sg15
g336
sbs(I237
I1
tp340
g0
(g9
g2
Ntp341
Rp342
(dp343
g13
I01
sg14
F-0.747761975280855
sg15
g340
sbs(I-9
I237
tp344
g0
(g9
g2
Ntp345
Rp346
(dp347
g13
I01
sg14
F1.4160126805419935
sg15
g344
sbs(I-6
I236
tp348
g0
(g9
g2
Ntp349
Rp350
(dp351
g13
I01
sg14
F-0.21302232403390803
sg15
g348
sbs(I236
I2
tp352
g0
(g9
g2
Ntp353
Rp354
(dp355
g13
I01
sg14
F0.33498216114687795
sg15
g352
sbs(I-7
I235
tp356
g0
(g9
g2
Ntp357
Rp358
(dp359
g13
I01
sg14
F-0.21312988121135157
sg15
g356
sbs(I238
I5
tp360
g0
(g9
g2
Ntp361
Rp362
(dp363
g13
I01
sg14
F0.02688342154124368
sg15
g360
sbs(I237
I3
tp364
g0
(g9
g2
Ntp365
Rp366
(dp367
g13
I01
sg14
F-0.38034202518780924
sg15
g364
sbs(I239
I0
tp368
g0
(g9
g2
Ntp369
Rp370
(dp371
g13
I01
sg14
F-1.6121616219945933
sg15
g368
sbs(I7
I7
tp372
g0
(g9
g2
Ntp373
Rp374
(dp375
g13
I01
sg14
F1.868565979036221
sg15
g372
sbs(I-3
I239
tp376
g0
(g9
g2
Ntp377
Rp378
(dp379
g13
I01
sg14
F-0.3311252411126462
sg15
g376
sbs(I235
I4
tp380
g0
(g9
g2
Ntp381
Rp382
(dp383
g13
I01
sg14
F0.13779580525017107
sg15
g380
sbs(I3
I3
tp384
g0
(g9
g2
Ntp385
Rp386
(dp387
g13
I01
sg14
F0.18756155948564157
sg15
g384
sbs(I236
I7
tp388
g0
(g9
g2
Ntp389
Rp390
(dp391
g13
I01
sg14
F0.1476341924947464
sg15
g388
sbs(I4
I4
tp392
g0
(g9
g2
Ntp393
Rp394
(dp395
g13
I01
sg14
F0.15515019600372282
sg15
g392
sbs(I238
I6
tp396
g0
(g9
g2
Ntp397
Rp398
(dp399
g13
I01
sg14
F0.08289357048791085
sg15
g396
sbs(I237
I6
tp400
g0
(g9
g2
Ntp401
Rp402
(dp403
g13
I01
sg14
F0.312489572684044
sg15
g400
sbs(I239
I7
tp404
g0
(g9
g2
Ntp405
Rp406
(dp407
g13
I01
sg14
F0.40034353316347826
sg15
g404
sbs(I0
I0
tp408
g0
(g9
g2
Ntp409
Rp410
(dp411
g13
I01
sg14
F0.35829319912295354
sg15
g408
sbs(I-2
I237
tp412
g0
(g9
g2
Ntp413
Rp414
(dp415
g13
I01
sg14
F0.45340990105569934
sg15
g412
sbs(I-5
I239
tp416
g0
(g9
g2
Ntp417
Rp418
(dp419
g13
I01
sg14
F-0.5049019512299248
sg15
g416
sbs(I-10
I239
tp420
g0
(g9
g2
Ntp421
Rp422
(dp423
g13
I01
sg14
F1.5820813126570907
sg15
g420
sbs(I235
I3
tp424
g0
(g9
g2
Ntp425
Rp426
(dp427
g13
I01
sg14
F0.4331855108801602
sg15
g424
sbs(I-7
I236
tp428
g0
(g9
g2
Ntp429
Rp430
(dp431
g13
I01
sg14
F-0.5769140018738186
sg15
g428
sbs(I239
I1
tp432
g0
(g9
g2
Ntp433
Rp434
(dp435
g13
I01
sg14
F-1.4795071832043725
sg15
g432
sbs(I236
I4
tp436
g0
(g9
g2
Ntp437
Rp438
(dp439
g13
I01
sg14
F-2.5302962954901016
sg15
g436
sbs(I-8
I237
tp440
g0
(g9
g2
Ntp441
Rp442
(dp443
g13
I01
sg14
F-0.3594587407233726
sg15
g440
sbs(I239
I9
tp444
g0
(g9
g2
Ntp445
Rp446
(dp447
g13
I01
sg14
F1.1651082205991994
sg15
g444
sbs(I238
I3
tp448
g0
(g9
g2
Ntp449
Rp450
(dp451
g13
I01
sg14
F-1.4220290602970378
sg15
g448
sbs(I237
I9
tp452
g0
(g9
g2
Ntp453
Rp454
(dp455
g13
I01
sg14
F-0.5098207802093961
sg15
g452
sbs(I8
I8
tp456
g0
(g9
g2
Ntp457
Rp458
(dp459
g13
I01
sg14
F-1.1691976662332544
sg15
g456
sbs(I-7
I239
tp460
g0
(g9
g2
Ntp461
Rp462
(dp463
g13
I01
sg14
F0.4659779427352973
sg15
g460
sbs(I236
I9
tp464
g0
(g9
g2
Ntp465
Rp466
(dp467
g13
I01
sg14
F-0.31922816965475603
sg15
g464
sbssS'nodes'
p468
(dp469
I0
g0
(cneat.genes
DefaultNodeGene
p470
g2
Ntp471
Rp472
(dp473
S'activation'
p474
S'tanh'
p475
sS'bias'
p476
F7.879350789166166
sS'response'
p477
F1.0
sg15
I0
sS'aggregation'
p478
S'sum'
p479
sbsI1
g0
(g470
g2
Ntp480
Rp481
(dp482
g474
S'relu'
p483
sg476
F1.7847992375493997
sg477
F1.0
sg15
I1
sg478
g479
sbsI2
g0
(g470
g2
Ntp484
Rp485
(dp486
g474
g483
sg476
F16.28678097489808
sg477
F1.0
sg15
I2
sg478
g479
sbsI3
g0
(g470
g2
Ntp487
Rp488
(dp489
g474
g483
sg476
F0.9292019952383272
sg477
F1.0
sg15
I3
sg478
g479
sbsI4
g0
(g470
g2
Ntp490
Rp491
(dp492
g474
g483
sg476
F-5.437497279131713
sg477
F1.0
sg15
I4
sg478
g479
sbsI5
g0
(g470
g2
Ntp493
Rp494
(dp495
g474
g483
sg476
F-2.171940053540702
sg477
F1.0
sg15
I5
sg478
g479
sbsI6
g0
(g470
g2
Ntp496
Rp497
(dp498
g474
g483
sg476
F-1.4129103679654285
sg477
F1.0
sg15
I6
sg478
g479
sbsI7
g0
(g470
g2
Ntp499
Rp500
(dp501
g474
g483
sg476
F-2.709113715830277
sg477
F1.0
sg15
I7
sg478
g479
sbsI8
g0
(g470
g2
Ntp502
Rp503
(dp504
g474
g483
sg476
F-14.514759737220189
sg477
F1.0
sg15
I8
sg478
g479
sbsI9
g0
(g470
g2
Ntp505
Rp506
(dp507
g474
g483
sg476
F-17.961974674898528
sg477
F1.0
sg15
I9
sg478
g479
sbsI235
g0
(g470
g2
Ntp508
Rp509
(dp510
g474
g483
sg476
F3.132641719147975
sg477
F1.0
sg15
I235
sg478
g479
sbsI236
g0
(g470
g2
Ntp511
Rp512
(dp513
g474
g483
sg476
F-0.4353002671217685
sg477
F1.0
sg15
I236
sg478
g479
sbsI237
g0
(g470
g2
Ntp514
Rp515
(dp516
g474
g483
sg476
F3.5196080587329637
sg477
F1.0
sg15
I237
sg478
g479
sbsI238
g0
(g470
g2
Ntp517
Rp518
(dp519
g474
g483
sg476
F10.379548147792008
sg477
F1.0
sg15
I238
sg478
g479
sbsI239
g0
(g470
g2
Ntp520
Rp521
(dp522
g474
g483
sg476
F15.943655059684778
sg477
F1.0
sg15
I239
sg478
g479
sbssg15
I98
sS'fitness'
p523
Nsb.