ccopy_reg
_reconstructor
p0
(cneat.genome
DefaultGenome
p1
c__builtin__
object
p2
Ntp3
Rp4
(dp5
S'connections'
p6
(dp7
(I-6
I46
tp8
g0
(cneat.genes
DefaultConnectionGene
p9
g2
Ntp10
Rp11
(dp12
S'enabled'
p13
I01
sS'weight'
p14
F0.8897251124585994
sS'key'
p15
g8
sbs(I-20
I46
tp16
g0
(g9
g2
Ntp17
Rp18
(dp19
g13
I01
sg14
F-0.45573831308053636
sg15
g16
sbs(I46
I7
tp20
g0
(g9
g2
Ntp21
Rp22
(dp23
g13
I01
sg14
F-2.180486560295373
sg15
g20
sbs(I-9
I46
tp24
g0
(g9
g2
Ntp25
Rp26
(dp27
g13
I01
sg14
F0.7745937102657688
sg15
g24
sbs(I-3
I3
tp28
g0
(g9
g2
Ntp29
Rp30
(dp31
g13
I01
sg14
F0.3163053692314208
sg15
g28
sbs(I46
I3
tp32
g0
(g9
g2
Ntp33
Rp34
(dp35
g13
I01
sg14
F-0.47471628879078454
sg15
g32
sbs(I-16
I46
tp36
g0
(g9
g2
Ntp37
Rp38
(dp39
g13
I01
sg14
F2.137246784823631
sg15
g36
sbs(I-10
I46
tp40
g0
(g9
g2
Ntp41
Rp42
(dp43
g13
I01
sg14
F1.3409397195171942
sg15
g40
sbs(I46
I8
tp44
g0
(g9
g2
Ntp45
Rp46
(dp47
g13
I01
sg14
F-2.121910592895619
sg15
g44
sbs(I-5
I46
tp48
g0
(g9
g2
Ntp49
Rp50
(dp51
g13
I01
sg14
F-2.106028407502511
sg15
g48
sbs(I-19
I46
tp52
g0
(g9
g2
Ntp53
Rp54
(dp55
g13
I01
sg14
F-0.1743366349171271
sg15
g52
sbs(I46
I4
tp56
g0
(g9
g2
Ntp57
Rp58
(dp59
g13
I01
sg14
F-0.006466273832052005
sg15
g56
sbs(I-2
I46
tp60
g0
(g9
g2
Ntp61
Rp62
(dp63
g13
I01
sg14
F0.6171320306062957
sg15
g60
sbs(I-12
I46
tp64
g0
(g9
g2
Ntp65
Rp66
(dp67
g13
I00
sg14
F-0.6805514689507826
sg15
g64
sbs(I-8
I46
tp68
g0
(g9
g2
Ntp69
Rp70
(dp71
g13
I01
sg14
F1.1909211378460909
sg15
g68
sbs(I46
I0
tp72
g0
(g9
g2
Ntp73
Rp74
(dp75
g13
I01
sg14
F-0.06877499013025601
sg15
g72
sbs(I-18
I46
tp76
g0
(g9
g2
Ntp77
Rp78
(dp79
g13
I01
sg14
F-0.38554630238621046
sg15
g76
sbs(I46
I9
tp80
g0
(g9
g2
Ntp81
Rp82
(dp83
g13
I01
sg14
F-4.34425967147716
sg15
g80
sbs(I-15
I46
tp84
g0
(g9
g2
Ntp85
Rp86
(dp87
g13
I01
sg14
F0.9792951684482597
sg15
g84
sbs(I-11
I46
tp88
g0
(g9
g2
Ntp89
Rp90
(dp91
g13
I01
sg14
F0.134930926476697
sg15
g88
sbs(I46
I5
tp92
g0
(g9
g2
Ntp93
Rp94
(dp95
g13
I01
sg14
F-1.774319658077585
sg15
g92
sbs(I-1
I46
tp96
g0
(g9
g2
Ntp97
Rp98
(dp99
g13
I01
sg14
F-1.8561527576836074
sg15
g96
sbs(I46
I1
tp100
g0
(g9
g2
Ntp101
Rp102
(dp103
g13
I01
sg14
F-1.8839999573360227
sg15
g100
sbs(I-7
I46
tp104
g0
(g9
g2
Ntp105
Rp106
(dp107
g13
I01
sg14
F-0.1291499021045567
sg15
g104
sbs(I-4
I46
tp108
g0
(g9
g2
Ntp109
Rp110
(dp111
g13
I01
sg14
F-0.6350764745764161
sg15
g108
sbs(I-17
I46
tp112
g0
(g9
g2
Ntp113
Rp114
(dp115
g13
I01
sg14
F-1.903220573375176
sg15
g112
sbs(I-14
I46
tp116
g0
(g9
g2
Ntp117
Rp118
(dp119
g13
I01
sg14
F0.5301721802496382
sg15
g116
sbs(I-13
I46
tp120
g0
(g9
g2
Ntp121
Rp122
(dp123
g13
I01
sg14
F0.5705853455714689
sg15
g120
sbs(I46
I6
tp124
g0
(g9
g2
Ntp125
Rp126
(dp127
g13
I01
sg14
F-2.5092416438769334
sg15
g124
sbs(I-3
I46
tp128
g0
(g9
g2
Ntp129
Rp130
(dp131
g13
I01
sg14
F0.27566038914575786
sg15
g128
sbs(I46
I2
tp132
g0
(g9
g2
Ntp133
Rp134
(dp135
g13
I01
sg14
F-0.08887687061468619
sg15
g132
sbssS'nodes'
p136
(dp137
I0
g0
(cneat.genes
DefaultNodeGene
p138
g2
Ntp139
Rp140
(dp141
S'activation'
p142
S'relu'
p143
sS'bias'
p144
F-2.3316193497242184
sS'response'
p145
F1.0
sg15
I0
sS'aggregation'
p146
S'sum'
p147
sbsI1
g0
(g138
g2
Ntp148
Rp149
(dp150
g142
g143
sg144
F-0.30296663971209026
sg145
F1.0
sg15
I1
sg146
g147
sbsI2
g0
(g138
g2
Ntp151
Rp152
(dp153
g142
g143
sg144
F3.465197684994825
sg145
F1.0
sg15
I2
sg146
g147
sbsI3
g0
(g138
g2
Ntp154
Rp155
(dp156
g142
g143
sg144
F11.099045782667453
sg145
F1.0
sg15
I3
sg146
g147
sbsI4
g0
(g138
g2
Ntp157
Rp158
(dp159
g142
g143
sg144
F18.540459995506552
sg145
F1.0
sg15
I4
sg146
g147
sbsI5
g0
(g138
g2
Ntp160
Rp161
(dp162
g142
g143
sg144
F12.946249826392021
sg145
F1.0
sg15
I5
sg146
g147
sbsI6
g0
(g138
g2
Ntp163
Rp164
(dp165
g142
g143
sg144
F-13.32016686069974
sg145
F1.0
sg15
I6
sg146
g147
sbsI7
g0
(g138
g2
Ntp166
Rp167
(dp168
g142
g143
sg144
F5.532759346565415
sg145
F1.0
sg15
I7
sg146
g147
sbsI8
g0
(g138
g2
Ntp169
Rp170
(dp171
g142
g143
sg144
F6.58125874080485
sg145
F1.0
sg15
I8
sg146
g147
sbsI9
g0
(g138
g2
Ntp172
Rp173
(dp174
g142
g143
sg144
F-13.46485079650306
sg145
F1.0
sg15
I9
sg146
g147
sbsI46
g0
(g138
g2
Ntp175
Rp176
(dp177
g142
g143
sg144
F-3.8877361943498663
sg145
F1.0
sg15
I46
sg146
g147
sbssg15
I98
sS'fitness'
p178
Nsb.