ccopy_reg
_reconstructor
p0
(cneat.genome
DefaultGenome
p1
c__builtin__
object
p2
Ntp3
Rp4
(dp5
S'connections'
p6
(dp7
(I29
I6
tp8
g0
(cneat.genes
DefaultConnectionGene
p9
g2
Ntp10
Rp11
(dp12
S'enabled'
p13
I01
sS'weight'
p14
F0.8691472591743333
sS'key'
p15
g8
sbs(I-7
I29
tp16
g0
(g9
g2
Ntp17
Rp18
(dp19
g13
I01
sg14
F1.8128723416292276
sg15
g16
sbs(I29
I7
tp20
g0
(g9
g2
Ntp21
Rp22
(dp23
g13
I01
sg14
F4.016457946613167
sg15
g20
sbs(I-8
I29
tp24
g0
(g9
g2
Ntp25
Rp26
(dp27
g13
I01
sg14
F1.7609409776765217
sg15
g24
sbs(I-3
I29
tp28
g0
(g9
g2
Ntp29
Rp30
(dp31
g13
I01
sg14
F-0.7254922834259385
sg15
g28
sbs(I29
I8
tp32
g0
(g9
g2
Ntp33
Rp34
(dp35
g13
I01
sg14
F0.41669477315775605
sg15
g32
sbs(I-4
I29
tp36
g0
(g9
g2
Ntp37
Rp38
(dp39
g13
I01
sg14
F2.9929809004143193
sg15
g36
sbs(I29
I9
tp40
g0
(g9
g2
Ntp41
Rp42
(dp43
g13
I01
sg14
F-1.35547334338233
sg15
g40
sbs(I-6
I29
tp44
g0
(g9
g2
Ntp45
Rp46
(dp47
g13
I01
sg14
F0.1925425470466579
sg15
g44
sbs(I-9
I29
tp48
g0
(g9
g2
Ntp49
Rp50
(dp51
g13
I01
sg14
F-1.1115601868869152
sg15
g48
sbs(I-1
I29
tp52
g0
(g9
g2
Ntp53
Rp54
(dp55
g13
I01
sg14
F0.40450919948128894
sg15
g52
sbs(I29
I0
tp56
g0
(g9
g2
Ntp57
Rp58
(dp59
g13
I01
sg14
F1.5703568802429912
sg15
g56
sbs(I29
I1
tp60
g0
(g9
g2
Ntp61
Rp62
(dp63
g13
I01
sg14
F-1.9300757783775644
sg15
g60
sbs(I29
I2
tp64
g0
(g9
g2
Ntp65
Rp66
(dp67
g13
I01
sg14
F-0.21925128583007814
sg15
g64
sbs(I-2
I29
tp68
g0
(g9
g2
Ntp69
Rp70
(dp71
g13
I01
sg14
F-0.06359905771344843
sg15
g68
sbs(I-10
I29
tp72
g0
(g9
g2
Ntp73
Rp74
(dp75
g13
I01
sg14
F1.5582651916961117
sg15
g72
sbs(I29
I3
tp76
g0
(g9
g2
Ntp77
Rp78
(dp79
g13
I01
sg14
F-1.9212880965817016
sg15
g76
sbs(I29
I4
tp80
g0
(g9
g2
Ntp81
Rp82
(dp83
g13
I01
sg14
F0.562680115095463
sg15
g80
sbs(I29
I5
tp84
g0
(g9
g2
Ntp85
Rp86
(dp87
g13
I01
sg14
F-0.8882150542478527
sg15
g84
sbs(I-5
I29
tp88
g0
(g9
g2
Ntp89
Rp90
(dp91
g13
I01
sg14
F-0.24181160715135136
sg15
g88
sbssS'nodes'
p92
(dp93
I0
g0
(cneat.genes
DefaultNodeGene
p94
g2
Ntp95
Rp96
(dp97
S'activation'
p98
S'relu'
p99
sS'bias'
p100
F-22.87904062831718
sS'response'
p101
F1.0
sg15
I0
sS'aggregation'
p102
S'sum'
p103
sbsI1
g0
(g94
g2
Ntp104
Rp105
(dp106
g98
g99
sg100
F9.113269338030005
sg101
F1.0
sg15
I1
sg102
g103
sbsI2
g0
(g94
g2
Ntp107
Rp108
(dp109
g98
g99
sg100
F-0.5073220492372861
sg101
F1.0
sg15
I2
sg102
g103
sbsI3
g0
(g94
g2
Ntp110
Rp111
(dp112
g98
g99
sg100
F-9.266387973520636
sg101
F1.0
sg15
I3
sg102
g103
sbsI4
g0
(g94
g2
Ntp113
Rp114
(dp115
g98
g99
sg100
F12.376702400179806
sg101
F1.0
sg15
I4
sg102
g103
sbsI5
g0
(g94
g2
Ntp116
Rp117
(dp118
g98
g99
sg100
F3.392577320816218
sg101
F1.0
sg15
I5
sg102
g103
sbsI6
g0
(g94
g2
Ntp119
Rp120
(dp121
g98
g99
sg100
F-10.430157442519878
sg101
F1.0
sg15
I6
sg102
g103
sbsI7
g0
(g94
g2
Ntp122
Rp123
(dp124
g98
g99
sg100
F-9.257561634438849
sg101
F1.0
sg15
I7
sg102
g103
sbsI8
g0
(g94
g2
Ntp125
Rp126
(dp127
g98
g99
sg100
F0.14853013738732318
sg101
F1.0
sg15
I8
sg102
g103
sbsI9
g0
(g94
g2
Ntp128
Rp129
(dp130
g98
g99
sg100
F9.916043120525146
sg101
F1.0
sg15
I9
sg102
g103
sbsI29
g0
(g94
g2
Ntp131
Rp132
(dp133
g98
g99
sg100
F-12.529814789354647
sg101
F1.0
sg15
I29
sg102
g103
sbssg15
I98
sS'fitness'
p134
F-0.1800379995692769
sb.