ccopy_reg
_reconstructor
p0
(cneat.genome
DefaultGenome
p1
c__builtin__
object
p2
Ntp3
Rp4
(dp5
S'connections'
p6
(dp7
(I31
I6
tp8
g0
(cneat.genes
DefaultConnectionGene
p9
g2
Ntp10
Rp11
(dp12
S'enabled'
p13
I01
sS'weight'
p14
F3.032845181701189
sS'key'
p15
g8
sbs(I-3
I31
tp16
g0
(g9
g2
Ntp17
Rp18
(dp19
g13
I01
sg14
F-1.1143837019302303
sg15
g16
sbs(I7
I7
tp20
g0
(g9
g2
Ntp21
Rp22
(dp23
g13
I00
sg14
F1.010607253967351
sg15
g20
sbs(I485
I4
tp24
g0
(g9
g2
Ntp25
Rp26
(dp27
g13
I01
sg14
F-1.127907292373255
sg15
g24
sbs(I5
I5
tp28
g0
(g9
g2
Ntp29
Rp30
(dp31
g13
I01
sg14
F-0.8927371381314014
sg15
g28
sbs(I-6
I0
tp32
g0
(g9
g2
Ntp33
Rp34
(dp35
g13
I01
sg14
F0.21603512486809323
sg15
g32
sbs(I4
I4
tp36
g0
(g9
g2
Ntp37
Rp38
(dp39
g13
I01
sg14
F1.6793512193047984
sg15
g36
sbs(I2
I2
tp40
g0
(g9
g2
Ntp41
Rp42
(dp43
g13
I01
sg14
F-0.7357594406134533
sg15
g40
sbs(I31
I0
tp44
g0
(g9
g2
Ntp45
Rp46
(dp47
g13
I00
sg14
F-0.7652893667431372
sg15
g44
sbs(I7
I782
tp48
g0
(g9
g2
Ntp49
Rp50
(dp51
g13
I01
sg14
F0.35904015105796083
sg15
g48
sbs(I31
I770
tp52
g0
(g9
g2
Ntp53
Rp54
(dp55
g13
I01
sg14
F1.763498041369592
sg15
g52
sbs(I31
I4
tp56
g0
(g9
g2
Ntp57
Rp58
(dp59
g13
I00
sg14
F-0.3734765232926504
sg15
g56
sbs(I31
I485
tp60
g0
(g9
g2
Ntp61
Rp62
(dp63
g13
I00
sg14
F0.2302521609970607
sg15
g60
sbs(I-6
I31
tp64
g0
(g9
g2
Ntp65
Rp66
(dp67
g13
I00
sg14
F0.6297102502542111
sg15
g64
sbs(I9
I31
tp68
g0
(g9
g2
Ntp69
Rp70
(dp71
g13
I01
sg14
F4.254174041322493
sg15
g68
sbs(I31
I3
tp72
g0
(g9
g2
Ntp73
Rp74
(dp75
g13
I01
sg14
F0.8783132687796918
sg15
g72
sbs(I782
I7
tp76
g0
(g9
g2
Ntp77
Rp78
(dp79
g13
I01
sg14
F-0.2233988822061678
sg15
g76
sbs(I8
I8
tp80
g0
(g9
g2
Ntp81
Rp82
(dp83
g13
I01
sg14
F2.8376457684084753
sg15
g80
sbs(I-1
I31
tp84
g0
(g9
g2
Ntp85
Rp86
(dp87
g13
I01
sg14
F-0.3397691060728051
sg15
g84
sbs(I31
I2
tp88
g0
(g9
g2
Ntp89
Rp90
(dp91
g13
I01
sg14
F-0.8592902651533875
sg15
g88
sbs(I-10
I31
tp92
g0
(g9
g2
Ntp93
Rp94
(dp95
g13
I01
sg14
F1.6589631025905986
sg15
g92
sbs(I770
I4
tp96
g0
(g9
g2
Ntp97
Rp98
(dp99
g13
I01
sg14
F-0.6160447812754825
sg15
g96
sbssS'nodes'
p100
(dp101
I0
g0
(cneat.genes
DefaultNodeGene
p102
g2
Ntp103
Rp104
(dp105
S'activation'
p106
S'tanh'
p107
sS'bias'
p108
F4.328825259163425
sS'response'
p109
F1.0
sg15
I0
sS'aggregation'
p110
S'sum'
p111
sbsI1
g0
(g102
g2
Ntp112
Rp113
(dp114
g106
g107
sg108
F-12.355588433119586
sg109
F1.0
sg15
I1
sg110
g111
sbsI2
g0
(g102
g2
Ntp115
Rp116
(dp117
g106
g107
sg108
F2.732425722028381
sg109
F1.0
sg15
I2
sg110
g111
sbsI3
g0
(g102
g2
Ntp118
Rp119
(dp120
g106
g107
sg108
F-2.4672515884791677
sg109
F1.0
sg15
I3
sg110
g111
sbsI4
g0
(g102
g2
Ntp121
Rp122
(dp123
g106
g107
sg108
F-11.346972942443006
sg109
F1.0
sg15
I4
sg110
g111
sbsI5
g0
(g102
g2
Ntp124
Rp125
(dp126
g106
g107
sg108
F-4.2116445104504905
sg109
F1.0
sg15
I5
sg110
g111
sbsI6
g0
(g102
g2
Ntp127
Rp128
(dp129
g106
g107
sg108
F-15.678236944811408
sg109
F1.0
sg15
I6
sg110
g111
sbsI7
g0
(g102
g2
Ntp130
Rp131
(dp132
g106
g107
sg108
F1.0971182045706116
sg109
F1.0
sg15
I7
sg110
g111
sbsI8
g0
(g102
g2
Ntp133
Rp134
(dp135
g106
g107
sg108
F4.2667312635550125
sg109
F1.0
sg15
I8
sg110
g111
sbsI9
g0
(g102
g2
Ntp136
Rp137
(dp138
g106
g107
sg108
F14.662858854209654
sg109
F1.0
sg15
I9
sg110
g111
sbsI485
g0
(g102
g2
Ntp139
Rp140
(dp141
g106
g107
sg108
F3.7663707491495986
sg109
F1.0
sg15
I485
sg110
g111
sbsI770
g0
(g102
g2
Ntp142
Rp143
(dp144
g106
g107
sg108
F5.56148824416217
sg109
F1.0
sg15
I770
sg110
g111
sbsI782
g0
(g102
g2
Ntp145
Rp146
(dp147
g106
S'relu'
p148
sg108
F6.203753081129656
sg109
F1.0
sg15
I782
sg110
g111
sbsI31
g0
(g102
g2
Ntp149
Rp150
(dp151
g106
g107
sg108
F-2.7714405899351284
sg109
F1.0
sg15
I31
sg110
g111
sbssg15
I99
sS'fitness'
p152
Nsb.