ccopy_reg
_reconstructor
p0
(cneat.genome
DefaultGenome
p1
c__builtin__
object
p2
Ntp3
Rp4
(dp5
S'connections'
p6
(dp7
(I75
I0
tp8
g0
(cneat.genes
DefaultConnectionGene
p9
g2
Ntp10
Rp11
(dp12
S'enabled'
p13
I01
sS'weight'
p14
F-0.5097168514100577
sS'key'
p15
g8
sbs(I-7
I75
tp16
g0
(g9
g2
Ntp17
Rp18
(dp19
g13
I01
sg14
F-0.21992053857873117
sg15
g16
sbs(I75
I4
tp20
g0
(g9
g2
Ntp21
Rp22
(dp23
g13
I00
sg14
F2.6861981081489326
sg15
g20
sbs(I-4
I75
tp24
g0
(g9
g2
Ntp25
Rp26
(dp27
g13
I01
sg14
F-0.9479542425883176
sg15
g24
sbs(I75
I5
tp28
g0
(g9
g2
Ntp29
Rp30
(dp31
g13
I01
sg14
F0.400155709282446
sg15
g28
sbs(I75
I8
tp32
g0
(g9
g2
Ntp33
Rp34
(dp35
g13
I01
sg14
F-0.48833235035793265
sg15
g32
sbs(I-9
I75
tp36
g0
(g9
g2
Ntp37
Rp38
(dp39
g13
I01
sg14
F-0.44492250937828126
sg15
g36
sbs(I75
I2
tp40
g0
(g9
g2
Ntp41
Rp42
(dp43
g13
I01
sg14
F0.03501486092980258
sg15
g40
sbs(I75
I9
tp44
g0
(g9
g2
Ntp45
Rp46
(dp47
g13
I01
sg14
F0.841707290934736
sg15
g44
sbs(I75
I3
tp48
g0
(g9
g2
Ntp49
Rp50
(dp51
g13
I01
sg14
F0.7661404643516543
sg15
g48
sbs(I-3
I75
tp52
g0
(g9
g2
Ntp53
Rp54
(dp55
g13
I01
sg14
F1.8395538631066535
sg15
g52
sbs(I-2
I75
tp56
g0
(g9
g2
Ntp57
Rp58
(dp59
g13
I01
sg14
F-2.1993309309795714
sg15
g56
sbs(I75
I7
tp60
g0
(g9
g2
Ntp61
Rp62
(dp63
g13
I01
sg14
F1.5882134038305904
sg15
g60
sbs(I-1
I75
tp64
g0
(g9
g2
Ntp65
Rp66
(dp67
g13
I01
sg14
F-1.4090661040448302
sg15
g64
sbs(I75
I1
tp68
g0
(g9
g2
Ntp69
Rp70
(dp71
g13
I01
sg14
F1.0331304245898592
sg15
g68
sbs(I-6
I75
tp72
g0
(g9
g2
Ntp73
Rp74
(dp75
g13
I01
sg14
F0.7286563628421772
sg15
g72
sbs(I-5
I75
tp76
g0
(g9
g2
Ntp77
Rp78
(dp79
g13
I01
sg14
F0.6129843116545501
sg15
g76
sbs(I-10
I75
tp80
g0
(g9
g2
Ntp81
Rp82
(dp83
g13
I01
sg14
F1.912637130443565
sg15
g80
sbs(I-8
I75
tp84
g0
(g9
g2
Ntp85
Rp86
(dp87
g13
I01
sg14
F-0.6065411186095993
sg15
g84
sbs(I75
I6
tp88
g0
(g9
g2
Ntp89
Rp90
(dp91
g13
I01
sg14
F0.7693261432221541
sg15
g88
sbssS'nodes'
p92
(dp93
I0
g0
(cneat.genes
DefaultNodeGene
p94
g2
Ntp95
Rp96
(dp97
S'activation'
p98
S'relu'
p99
sS'bias'
p100
F-10.794430475979855
sS'response'
p101
F1.0
sg15
I0
sS'aggregation'
p102
S'sum'
p103
sbsI1
g0
(g94
g2
Ntp104
Rp105
(dp106
g98
g99
sg100
F16.551417537875373
sg101
F1.0
sg15
I1
sg102
g103
sbsI2
g0
(g94
g2
Ntp107
Rp108
(dp109
g98
g99
sg100
F-5.618688999136907
sg101
F1.0
sg15
I2
sg102
g103
sbsI3
g0
(g94
g2
Ntp110
Rp111
(dp112
g98
g99
sg100
F16.853336284498898
sg101
F1.0
sg15
I3
sg102
g103
sbsI4
g0
(g94
g2
Ntp113
Rp114
(dp115
g98
g99
sg100
F0.03963758485148041
sg101
F1.0
sg15
I4
sg102
g103
sbsI5
g0
(g94
g2
Ntp116
Rp117
(dp118
g98
g99
sg100
F-2.3295218354109917
sg101
F1.0
sg15
I5
sg102
g103
sbsI6
g0
(g94
g2
Ntp119
Rp120
(dp121
g98
g99
sg100
F-18.414646552311574
sg101
F1.0
sg15
I6
sg102
g103
sbsI7
g0
(g94
g2
Ntp122
Rp123
(dp124
g98
g99
sg100
F-8.029007910869979
sg101
F1.0
sg15
I7
sg102
g103
sbsI8
g0
(g94
g2
Ntp125
Rp126
(dp127
g98
g99
sg100
F-8.94930475533988
sg101
F1.0
sg15
I8
sg102
g103
sbsI9
g0
(g94
g2
Ntp128
Rp129
(dp130
g98
g99
sg100
F-3.737048833420909
sg101
F1.0
sg15
I9
sg102
g103
sbsI75
g0
(g94
g2
Ntp131
Rp132
(dp133
g98
g99
sg100
F-5.096246425741606
sg101
F1.0
sg15
I75
sg102
g103
sbssg15
I99
sS'fitness'
p134
F-0.22116710685503405
sb.